
O32controller_FW.elf:     file format elf32-littlearm

Sections:
Idx Name          Size      VMA       LMA       File off  Algn
  0 .isr_vector   000000c0  08000000  08000000  00010000  2**0
                  CONTENTS, ALLOC, LOAD, READONLY, DATA
  1 .text         000057ec  080000c0  080000c0  000100c0  2**2
                  CONTENTS, ALLOC, LOAD, READONLY, CODE
  2 .rodata       0000024c  080058ac  080058ac  000158ac  2**2
                  CONTENTS, ALLOC, LOAD, READONLY, DATA
  3 .ARM.extab    00000000  08005af8  08005af8  0002006c  2**0
                  CONTENTS
  4 .ARM          00000000  08005af8  08005af8  0002006c  2**0
                  CONTENTS
  5 .preinit_array 00000000  08005af8  08005af8  0002006c  2**0
                  CONTENTS, ALLOC, LOAD, DATA
  6 .init_array   00000004  08005af8  08005af8  00015af8  2**2
                  CONTENTS, ALLOC, LOAD, DATA
  7 .fini_array   00000004  08005afc  08005afc  00015afc  2**2
                  CONTENTS, ALLOC, LOAD, DATA
  8 .data         0000006c  20000000  08005b00  00020000  2**2
                  CONTENTS, ALLOC, LOAD, DATA
  9 .bss          000004a8  2000006c  08005b6c  0002006c  2**2
                  ALLOC
 10 ._user_heap_stack 00000604  20000514  08005b6c  00020514  2**0
                  ALLOC
 11 .ARM.attributes 00000028  00000000  00000000  0002006c  2**0
                  CONTENTS, READONLY
 12 .comment      00000043  00000000  00000000  00020094  2**0
                  CONTENTS, READONLY
 13 .debug_frame  000006c8  00000000  00000000  000200d8  2**2
                  CONTENTS, READONLY, DEBUGGING, OCTETS

Disassembly of section .text:

080000c0 <__do_global_dtors_aux>:
 80000c0:	b510      	push	{r4, lr}
 80000c2:	4c06      	ldr	r4, [pc, #24]	; (80000dc <__do_global_dtors_aux+0x1c>)
 80000c4:	7823      	ldrb	r3, [r4, #0]
 80000c6:	2b00      	cmp	r3, #0
 80000c8:	d107      	bne.n	80000da <__do_global_dtors_aux+0x1a>
 80000ca:	4b05      	ldr	r3, [pc, #20]	; (80000e0 <__do_global_dtors_aux+0x20>)
 80000cc:	2b00      	cmp	r3, #0
 80000ce:	d002      	beq.n	80000d6 <__do_global_dtors_aux+0x16>
 80000d0:	4804      	ldr	r0, [pc, #16]	; (80000e4 <__do_global_dtors_aux+0x24>)
 80000d2:	e000      	b.n	80000d6 <__do_global_dtors_aux+0x16>
 80000d4:	bf00      	nop
 80000d6:	2301      	movs	r3, #1
 80000d8:	7023      	strb	r3, [r4, #0]
 80000da:	bd10      	pop	{r4, pc}
 80000dc:	2000006c 	.word	0x2000006c
 80000e0:	00000000 	.word	0x00000000
 80000e4:	08005894 	.word	0x08005894

080000e8 <frame_dummy>:
 80000e8:	4b04      	ldr	r3, [pc, #16]	; (80000fc <frame_dummy+0x14>)
 80000ea:	b510      	push	{r4, lr}
 80000ec:	2b00      	cmp	r3, #0
 80000ee:	d003      	beq.n	80000f8 <frame_dummy+0x10>
 80000f0:	4903      	ldr	r1, [pc, #12]	; (8000100 <frame_dummy+0x18>)
 80000f2:	4804      	ldr	r0, [pc, #16]	; (8000104 <frame_dummy+0x1c>)
 80000f4:	e000      	b.n	80000f8 <frame_dummy+0x10>
 80000f6:	bf00      	nop
 80000f8:	bd10      	pop	{r4, pc}
 80000fa:	46c0      	nop			; (mov r8, r8)
 80000fc:	00000000 	.word	0x00000000
 8000100:	20000070 	.word	0x20000070
 8000104:	08005894 	.word	0x08005894

08000108 <__udivsi3>:
 8000108:	2200      	movs	r2, #0
 800010a:	0843      	lsrs	r3, r0, #1
 800010c:	428b      	cmp	r3, r1
 800010e:	d374      	bcc.n	80001fa <__udivsi3+0xf2>
 8000110:	0903      	lsrs	r3, r0, #4
 8000112:	428b      	cmp	r3, r1
 8000114:	d35f      	bcc.n	80001d6 <__udivsi3+0xce>
 8000116:	0a03      	lsrs	r3, r0, #8
 8000118:	428b      	cmp	r3, r1
 800011a:	d344      	bcc.n	80001a6 <__udivsi3+0x9e>
 800011c:	0b03      	lsrs	r3, r0, #12
 800011e:	428b      	cmp	r3, r1
 8000120:	d328      	bcc.n	8000174 <__udivsi3+0x6c>
 8000122:	0c03      	lsrs	r3, r0, #16
 8000124:	428b      	cmp	r3, r1
 8000126:	d30d      	bcc.n	8000144 <__udivsi3+0x3c>
 8000128:	22ff      	movs	r2, #255	; 0xff
 800012a:	0209      	lsls	r1, r1, #8
 800012c:	ba12      	rev	r2, r2
 800012e:	0c03      	lsrs	r3, r0, #16
 8000130:	428b      	cmp	r3, r1
 8000132:	d302      	bcc.n	800013a <__udivsi3+0x32>
 8000134:	1212      	asrs	r2, r2, #8
 8000136:	0209      	lsls	r1, r1, #8
 8000138:	d065      	beq.n	8000206 <__udivsi3+0xfe>
 800013a:	0b03      	lsrs	r3, r0, #12
 800013c:	428b      	cmp	r3, r1
 800013e:	d319      	bcc.n	8000174 <__udivsi3+0x6c>
 8000140:	e000      	b.n	8000144 <__udivsi3+0x3c>
 8000142:	0a09      	lsrs	r1, r1, #8
 8000144:	0bc3      	lsrs	r3, r0, #15
 8000146:	428b      	cmp	r3, r1
 8000148:	d301      	bcc.n	800014e <__udivsi3+0x46>
 800014a:	03cb      	lsls	r3, r1, #15
 800014c:	1ac0      	subs	r0, r0, r3
 800014e:	4152      	adcs	r2, r2
 8000150:	0b83      	lsrs	r3, r0, #14
 8000152:	428b      	cmp	r3, r1
 8000154:	d301      	bcc.n	800015a <__udivsi3+0x52>
 8000156:	038b      	lsls	r3, r1, #14
 8000158:	1ac0      	subs	r0, r0, r3
 800015a:	4152      	adcs	r2, r2
 800015c:	0b43      	lsrs	r3, r0, #13
 800015e:	428b      	cmp	r3, r1
 8000160:	d301      	bcc.n	8000166 <__udivsi3+0x5e>
 8000162:	034b      	lsls	r3, r1, #13
 8000164:	1ac0      	subs	r0, r0, r3
 8000166:	4152      	adcs	r2, r2
 8000168:	0b03      	lsrs	r3, r0, #12
 800016a:	428b      	cmp	r3, r1
 800016c:	d301      	bcc.n	8000172 <__udivsi3+0x6a>
 800016e:	030b      	lsls	r3, r1, #12
 8000170:	1ac0      	subs	r0, r0, r3
 8000172:	4152      	adcs	r2, r2
 8000174:	0ac3      	lsrs	r3, r0, #11
 8000176:	428b      	cmp	r3, r1
 8000178:	d301      	bcc.n	800017e <__udivsi3+0x76>
 800017a:	02cb      	lsls	r3, r1, #11
 800017c:	1ac0      	subs	r0, r0, r3
 800017e:	4152      	adcs	r2, r2
 8000180:	0a83      	lsrs	r3, r0, #10
 8000182:	428b      	cmp	r3, r1
 8000184:	d301      	bcc.n	800018a <__udivsi3+0x82>
 8000186:	028b      	lsls	r3, r1, #10
 8000188:	1ac0      	subs	r0, r0, r3
 800018a:	4152      	adcs	r2, r2
 800018c:	0a43      	lsrs	r3, r0, #9
 800018e:	428b      	cmp	r3, r1
 8000190:	d301      	bcc.n	8000196 <__udivsi3+0x8e>
 8000192:	024b      	lsls	r3, r1, #9
 8000194:	1ac0      	subs	r0, r0, r3
 8000196:	4152      	adcs	r2, r2
 8000198:	0a03      	lsrs	r3, r0, #8
 800019a:	428b      	cmp	r3, r1
 800019c:	d301      	bcc.n	80001a2 <__udivsi3+0x9a>
 800019e:	020b      	lsls	r3, r1, #8
 80001a0:	1ac0      	subs	r0, r0, r3
 80001a2:	4152      	adcs	r2, r2
 80001a4:	d2cd      	bcs.n	8000142 <__udivsi3+0x3a>
 80001a6:	09c3      	lsrs	r3, r0, #7
 80001a8:	428b      	cmp	r3, r1
 80001aa:	d301      	bcc.n	80001b0 <__udivsi3+0xa8>
 80001ac:	01cb      	lsls	r3, r1, #7
 80001ae:	1ac0      	subs	r0, r0, r3
 80001b0:	4152      	adcs	r2, r2
 80001b2:	0983      	lsrs	r3, r0, #6
 80001b4:	428b      	cmp	r3, r1
 80001b6:	d301      	bcc.n	80001bc <__udivsi3+0xb4>
 80001b8:	018b      	lsls	r3, r1, #6
 80001ba:	1ac0      	subs	r0, r0, r3
 80001bc:	4152      	adcs	r2, r2
 80001be:	0943      	lsrs	r3, r0, #5
 80001c0:	428b      	cmp	r3, r1
 80001c2:	d301      	bcc.n	80001c8 <__udivsi3+0xc0>
 80001c4:	014b      	lsls	r3, r1, #5
 80001c6:	1ac0      	subs	r0, r0, r3
 80001c8:	4152      	adcs	r2, r2
 80001ca:	0903      	lsrs	r3, r0, #4
 80001cc:	428b      	cmp	r3, r1
 80001ce:	d301      	bcc.n	80001d4 <__udivsi3+0xcc>
 80001d0:	010b      	lsls	r3, r1, #4
 80001d2:	1ac0      	subs	r0, r0, r3
 80001d4:	4152      	adcs	r2, r2
 80001d6:	08c3      	lsrs	r3, r0, #3
 80001d8:	428b      	cmp	r3, r1
 80001da:	d301      	bcc.n	80001e0 <__udivsi3+0xd8>
 80001dc:	00cb      	lsls	r3, r1, #3
 80001de:	1ac0      	subs	r0, r0, r3
 80001e0:	4152      	adcs	r2, r2
 80001e2:	0883      	lsrs	r3, r0, #2
 80001e4:	428b      	cmp	r3, r1
 80001e6:	d301      	bcc.n	80001ec <__udivsi3+0xe4>
 80001e8:	008b      	lsls	r3, r1, #2
 80001ea:	1ac0      	subs	r0, r0, r3
 80001ec:	4152      	adcs	r2, r2
 80001ee:	0843      	lsrs	r3, r0, #1
 80001f0:	428b      	cmp	r3, r1
 80001f2:	d301      	bcc.n	80001f8 <__udivsi3+0xf0>
 80001f4:	004b      	lsls	r3, r1, #1
 80001f6:	1ac0      	subs	r0, r0, r3
 80001f8:	4152      	adcs	r2, r2
 80001fa:	1a41      	subs	r1, r0, r1
 80001fc:	d200      	bcs.n	8000200 <__udivsi3+0xf8>
 80001fe:	4601      	mov	r1, r0
 8000200:	4152      	adcs	r2, r2
 8000202:	4610      	mov	r0, r2
 8000204:	4770      	bx	lr
 8000206:	e7ff      	b.n	8000208 <__udivsi3+0x100>
 8000208:	b501      	push	{r0, lr}
 800020a:	2000      	movs	r0, #0
 800020c:	f000 f806 	bl	800021c <__aeabi_idiv0>
 8000210:	bd02      	pop	{r1, pc}
 8000212:	46c0      	nop			; (mov r8, r8)

08000214 <__aeabi_uidivmod>:
 8000214:	2900      	cmp	r1, #0
 8000216:	d0f7      	beq.n	8000208 <__udivsi3+0x100>
 8000218:	e776      	b.n	8000108 <__udivsi3>
 800021a:	4770      	bx	lr

0800021c <__aeabi_idiv0>:
 800021c:	4770      	bx	lr
 800021e:	46c0      	nop			; (mov r8, r8)

08000220 <foc_startup>:
 8000220:	b5f0      	push	{r4, r5, r6, r7, lr}
 8000222:	46de      	mov	lr, fp
 8000224:	4657      	mov	r7, sl
 8000226:	4645      	mov	r5, r8
 8000228:	464e      	mov	r6, r9
 800022a:	b5e0      	push	{r5, r6, r7, lr}
 800022c:	4f54      	ldr	r7, [pc, #336]	; (8000380 <foc_startup+0x160>)
 800022e:	b083      	sub	sp, #12
 8000230:	0038      	movs	r0, r7
 8000232:	f001 faa5 	bl	8001780 <HAL_ADC_Stop>
 8000236:	2001      	movs	r0, #1
 8000238:	f001 f918 	bl	800146c <HAL_Delay>
 800023c:	0038      	movs	r0, r7
 800023e:	f001 fbed 	bl	8001a1c <HAL_ADCEx_Calibration_Start>
 8000242:	4d50      	ldr	r5, [pc, #320]	; (8000384 <foc_startup+0x164>)
 8000244:	4c50      	ldr	r4, [pc, #320]	; (8000388 <foc_startup+0x168>)
 8000246:	0028      	movs	r0, r5
 8000248:	f003 fad6 	bl	80037f8 <HAL_TIM_Base_Start>
 800024c:	2301      	movs	r3, #1
 800024e:	682a      	ldr	r2, [r5, #0]
 8000250:	6163      	str	r3, [r4, #20]
 8000252:	2100      	movs	r1, #0
 8000254:	6313      	str	r3, [r2, #48]	; 0x30
 8000256:	0028      	movs	r0, r5
 8000258:	6163      	str	r3, [r4, #20]
 800025a:	f003 fb87 	bl	800396c <HAL_TIM_PWM_Start>
 800025e:	2100      	movs	r1, #0
 8000260:	0028      	movs	r0, r5
 8000262:	f003 fea5 	bl	8003fb0 <HAL_TIMEx_PWMN_Start>
 8000266:	2104      	movs	r1, #4
 8000268:	0028      	movs	r0, r5
 800026a:	f003 fb7f 	bl	800396c <HAL_TIM_PWM_Start>
 800026e:	2104      	movs	r1, #4
 8000270:	0028      	movs	r0, r5
 8000272:	f003 fe9d 	bl	8003fb0 <HAL_TIMEx_PWMN_Start>
 8000276:	2108      	movs	r1, #8
 8000278:	0028      	movs	r0, r5
 800027a:	f003 fb77 	bl	800396c <HAL_TIM_PWM_Start>
 800027e:	0028      	movs	r0, r5
 8000280:	2500      	movs	r5, #0
 8000282:	2108      	movs	r1, #8
 8000284:	f003 fe94 	bl	8003fb0 <HAL_TIMEx_PWMN_Start>
 8000288:	4840      	ldr	r0, [pc, #256]	; (800038c <foc_startup+0x16c>)
 800028a:	f003 fadf 	bl	800384c <HAL_TIM_Base_Start_IT>
 800028e:	6365      	str	r5, [r4, #52]	; 0x34
 8000290:	2201      	movs	r2, #1
 8000292:	63a5      	str	r5, [r4, #56]	; 0x38
 8000294:	2101      	movs	r1, #1
 8000296:	63e5      	str	r5, [r4, #60]	; 0x3c
 8000298:	483d      	ldr	r0, [pc, #244]	; (8000390 <foc_startup+0x170>)
 800029a:	f001 fe77 	bl	8001f8c <HAL_GPIO_WritePin>
 800029e:	20fa      	movs	r0, #250	; 0xfa
 80002a0:	00c0      	lsls	r0, r0, #3
 80002a2:	f001 f8e3 	bl	800146c <HAL_Delay>
 80002a6:	2200      	movs	r2, #0
 80002a8:	2101      	movs	r1, #1
 80002aa:	4839      	ldr	r0, [pc, #228]	; (8000390 <foc_startup+0x170>)
 80002ac:	f001 fe6e 	bl	8001f8c <HAL_GPIO_WritePin>
 80002b0:	2064      	movs	r0, #100	; 0x64
 80002b2:	f001 f8db 	bl	800146c <HAL_Delay>
 80002b6:	2201      	movs	r2, #1
 80002b8:	2180      	movs	r1, #128	; 0x80
 80002ba:	4835      	ldr	r0, [pc, #212]	; (8000390 <foc_startup+0x170>)
 80002bc:	f001 fe66 	bl	8001f8c <HAL_GPIO_WritePin>
 80002c0:	2201      	movs	r2, #1
 80002c2:	2140      	movs	r1, #64	; 0x40
 80002c4:	4832      	ldr	r0, [pc, #200]	; (8000390 <foc_startup+0x170>)
 80002c6:	f001 fe61 	bl	8001f8c <HAL_GPIO_WritePin>
 80002ca:	2363      	movs	r3, #99	; 0x63
 80002cc:	20fa      	movs	r0, #250	; 0xfa
 80002ce:	6363      	str	r3, [r4, #52]	; 0x34
 80002d0:	0080      	lsls	r0, r0, #2
 80002d2:	63a5      	str	r5, [r4, #56]	; 0x38
 80002d4:	63e5      	str	r5, [r4, #60]	; 0x3c
 80002d6:	f001 f8c9 	bl	800146c <HAL_Delay>
 80002da:	4b2e      	ldr	r3, [pc, #184]	; (8000394 <foc_startup+0x174>)
 80002dc:	4c2e      	ldr	r4, [pc, #184]	; (8000398 <foc_startup+0x178>)
 80002de:	469b      	mov	fp, r3
 80002e0:	4b2e      	ldr	r3, [pc, #184]	; (800039c <foc_startup+0x17c>)
 80002e2:	350a      	adds	r5, #10
 80002e4:	4698      	mov	r8, r3
 80002e6:	1ea3      	subs	r3, r4, #2
 80002e8:	469a      	mov	sl, r3
 80002ea:	2301      	movs	r3, #1
 80002ec:	425b      	negs	r3, r3
 80002ee:	4699      	mov	r9, r3
 80002f0:	2200      	movs	r2, #0
 80002f2:	2102      	movs	r1, #2
 80002f4:	4826      	ldr	r0, [pc, #152]	; (8000390 <foc_startup+0x170>)
 80002f6:	f001 fe49 	bl	8001f8c <HAL_GPIO_WritePin>
 80002fa:	464b      	mov	r3, r9
 80002fc:	0022      	movs	r2, r4
 80002fe:	4651      	mov	r1, sl
 8000300:	9300      	str	r3, [sp, #0]
 8000302:	4658      	mov	r0, fp
 8000304:	2302      	movs	r3, #2
 8000306:	f002 ffad 	bl	8003264 <HAL_SPI_TransmitReceive>
 800030a:	2201      	movs	r2, #1
 800030c:	2102      	movs	r1, #2
 800030e:	4820      	ldr	r0, [pc, #128]	; (8000390 <foc_startup+0x170>)
 8000310:	f001 fe3c 	bl	8001f8c <HAL_GPIO_WritePin>
 8000314:	0026      	movs	r6, r4
 8000316:	0021      	movs	r1, r4
 8000318:	2206      	movs	r2, #6
 800031a:	390e      	subs	r1, #14
 800031c:	0038      	movs	r0, r7
 800031e:	3e2c      	subs	r6, #44	; 0x2c
 8000320:	f001 fa4e 	bl	80017c0 <HAL_ADC_Start_DMA>
 8000324:	3d01      	subs	r5, #1
 8000326:	2301      	movs	r3, #1
 8000328:	2201      	movs	r2, #1
 800032a:	0031      	movs	r1, r6
 800032c:	4640      	mov	r0, r8
 800032e:	f004 fb9d 	bl	8004a6c <HAL_UART_Receive>
 8000332:	2d00      	cmp	r5, #0
 8000334:	d1dc      	bne.n	80002f0 <foc_startup+0xd0>
 8000336:	2180      	movs	r1, #128	; 0x80
 8000338:	01c9      	lsls	r1, r1, #7
 800033a:	468c      	mov	ip, r1
 800033c:	4b12      	ldr	r3, [pc, #72]	; (8000388 <foc_startup+0x168>)
 800033e:	4918      	ldr	r1, [pc, #96]	; (80003a0 <foc_startup+0x180>)
 8000340:	635d      	str	r5, [r3, #52]	; 0x34
 8000342:	639d      	str	r5, [r3, #56]	; 0x38
 8000344:	63dd      	str	r5, [r3, #60]	; 0x3c
 8000346:	7822      	ldrb	r2, [r4, #0]
 8000348:	7863      	ldrb	r3, [r4, #1]
 800034a:	0212      	lsls	r2, r2, #8
 800034c:	4463      	add	r3, ip
 800034e:	18d2      	adds	r2, r2, r3
 8000350:	4b14      	ldr	r3, [pc, #80]	; (80003a4 <foc_startup+0x184>)
 8000352:	b292      	uxth	r2, r2
 8000354:	801a      	strh	r2, [r3, #0]
 8000356:	00d3      	lsls	r3, r2, #3
 8000358:	1a9b      	subs	r3, r3, r2
 800035a:	000a      	movs	r2, r1
 800035c:	8809      	ldrh	r1, [r1, #0]
 800035e:	4640      	mov	r0, r8
 8000360:	1a5b      	subs	r3, r3, r1
 8000362:	045b      	lsls	r3, r3, #17
 8000364:	0c5b      	lsrs	r3, r3, #17
 8000366:	8013      	strh	r3, [r2, #0]
 8000368:	0031      	movs	r1, r6
 800036a:	2203      	movs	r2, #3
 800036c:	f004 fd8a 	bl	8004e84 <HAL_UARTEx_ReceiveToIdle_IT>
 8000370:	b003      	add	sp, #12
 8000372:	bcf0      	pop	{r4, r5, r6, r7}
 8000374:	46bb      	mov	fp, r7
 8000376:	46b2      	mov	sl, r6
 8000378:	46a9      	mov	r9, r5
 800037a:	46a0      	mov	r8, r4
 800037c:	bdf0      	pop	{r4, r5, r6, r7, pc}
 800037e:	46c0      	nop			; (mov r8, r8)
 8000380:	200000e4 	.word	0x200000e4
 8000384:	20000264 	.word	0x20000264
 8000388:	40012c00 	.word	0x40012c00
 800038c:	200002ac 	.word	0x200002ac
 8000390:	48001400 	.word	0x48001400
 8000394:	20000200 	.word	0x20000200
 8000398:	200003b6 	.word	0x200003b6
 800039c:	200002f4 	.word	0x200002f4
 80003a0:	200000c6 	.word	0x200000c6
 80003a4:	200000c8 	.word	0x200000c8

080003a8 <foc_loop>:
 80003a8:	b5f0      	push	{r4, r5, r6, r7, lr}
 80003aa:	46de      	mov	lr, fp
 80003ac:	4657      	mov	r7, sl
 80003ae:	464e      	mov	r6, r9
 80003b0:	4645      	mov	r5, r8
 80003b2:	4ace      	ldr	r2, [pc, #824]	; (80006ec <foc_loop+0x344>)
 80003b4:	b5e0      	push	{r5, r6, r7, lr}
 80003b6:	6813      	ldr	r3, [r2, #0]
 80003b8:	b087      	sub	sp, #28
 80003ba:	3301      	adds	r3, #1
 80003bc:	6013      	str	r3, [r2, #0]
 80003be:	2102      	movs	r1, #2
 80003c0:	2200      	movs	r2, #0
 80003c2:	48cb      	ldr	r0, [pc, #812]	; (80006f0 <foc_loop+0x348>)
 80003c4:	f001 fde2 	bl	8001f8c <HAL_GPIO_WritePin>
 80003c8:	2301      	movs	r3, #1
 80003ca:	4cca      	ldr	r4, [pc, #808]	; (80006f4 <foc_loop+0x34c>)
 80003cc:	425b      	negs	r3, r3
 80003ce:	0022      	movs	r2, r4
 80003d0:	1ea1      	subs	r1, r4, #2
 80003d2:	9300      	str	r3, [sp, #0]
 80003d4:	48c8      	ldr	r0, [pc, #800]	; (80006f8 <foc_loop+0x350>)
 80003d6:	3303      	adds	r3, #3
 80003d8:	f002 ff44 	bl	8003264 <HAL_SPI_TransmitReceive>
 80003dc:	2201      	movs	r2, #1
 80003de:	2102      	movs	r1, #2
 80003e0:	48c3      	ldr	r0, [pc, #780]	; (80006f0 <foc_loop+0x348>)
 80003e2:	f001 fdd3 	bl	8001f8c <HAL_GPIO_WritePin>
 80003e6:	2180      	movs	r1, #128	; 0x80
 80003e8:	01c9      	lsls	r1, r1, #7
 80003ea:	468c      	mov	ip, r1
 80003ec:	7823      	ldrb	r3, [r4, #0]
 80003ee:	7862      	ldrb	r2, [r4, #1]
 80003f0:	021b      	lsls	r3, r3, #8
 80003f2:	4462      	add	r2, ip
 80003f4:	189b      	adds	r3, r3, r2
 80003f6:	49c1      	ldr	r1, [pc, #772]	; (80006fc <foc_loop+0x354>)
 80003f8:	b29b      	uxth	r3, r3
 80003fa:	8809      	ldrh	r1, [r1, #0]
 80003fc:	00da      	lsls	r2, r3, #3
 80003fe:	1ad2      	subs	r2, r2, r3
 8000400:	1a52      	subs	r2, r2, r1
 8000402:	2180      	movs	r1, #128	; 0x80
 8000404:	48be      	ldr	r0, [pc, #760]	; (8000700 <foc_loop+0x358>)
 8000406:	0452      	lsls	r2, r2, #17
 8000408:	8804      	ldrh	r4, [r0, #0]
 800040a:	0c52      	lsrs	r2, r2, #17
 800040c:	0189      	lsls	r1, r1, #6
 800040e:	428c      	cmp	r4, r1
 8000410:	d300      	bcc.n	8000414 <foc_loop+0x6c>
 8000412:	e0f7      	b.n	8000604 <foc_loop+0x25c>
 8000414:	21c0      	movs	r1, #192	; 0xc0
 8000416:	01c9      	lsls	r1, r1, #7
 8000418:	428b      	cmp	r3, r1
 800041a:	d900      	bls.n	800041e <foc_loop+0x76>
 800041c:	e107      	b.n	800062e <foc_loop+0x286>
 800041e:	49b9      	ldr	r1, [pc, #740]	; (8000704 <foc_loop+0x35c>)
 8000420:	6809      	ldr	r1, [r1, #0]
 8000422:	4db9      	ldr	r5, [pc, #740]	; (8000708 <foc_loop+0x360>)
 8000424:	4252      	negs	r2, r2
 8000426:	8003      	strh	r3, [r0, #0]
 8000428:	802a      	strh	r2, [r5, #0]
 800042a:	185b      	adds	r3, r3, r1
 800042c:	4ab7      	ldr	r2, [pc, #732]	; (800070c <foc_loop+0x364>)
 800042e:	49b8      	ldr	r1, [pc, #736]	; (8000710 <foc_loop+0x368>)
 8000430:	425b      	negs	r3, r3
 8000432:	6013      	str	r3, [r2, #0]
 8000434:	4693      	mov	fp, r2
 8000436:	680a      	ldr	r2, [r1, #0]
 8000438:	4eb6      	ldr	r6, [pc, #728]	; (8000714 <foc_loop+0x36c>)
 800043a:	1110      	asrs	r0, r2, #4
 800043c:	b203      	sxth	r3, r0
 800043e:	4699      	mov	r9, r3
 8000440:	46b4      	mov	ip, r6
 8000442:	4648      	mov	r0, r9
 8000444:	1a12      	subs	r2, r2, r0
 8000446:	4660      	mov	r0, ip
 8000448:	4cb3      	ldr	r4, [pc, #716]	; (8000718 <foc_loop+0x370>)
 800044a:	4fb4      	ldr	r7, [pc, #720]	; (800071c <foc_loop+0x374>)
 800044c:	8e63      	ldrh	r3, [r4, #50]	; 0x32
 800044e:	4eb4      	ldr	r6, [pc, #720]	; (8000720 <foc_loop+0x378>)
 8000450:	4463      	add	r3, ip
 8000452:	189b      	adds	r3, r3, r2
 8000454:	683a      	ldr	r2, [r7, #0]
 8000456:	600b      	str	r3, [r1, #0]
 8000458:	1111      	asrs	r1, r2, #4
 800045a:	b209      	sxth	r1, r1
 800045c:	8031      	strh	r1, [r6, #0]
 800045e:	8da3      	ldrh	r3, [r4, #44]	; 0x2c
 8000460:	1a52      	subs	r2, r2, r1
 8000462:	4463      	add	r3, ip
 8000464:	189b      	adds	r3, r3, r2
 8000466:	603b      	str	r3, [r7, #0]
 8000468:	4bae      	ldr	r3, [pc, #696]	; (8000724 <foc_loop+0x37c>)
 800046a:	4680      	mov	r8, r0
 800046c:	469c      	mov	ip, r3
 800046e:	681a      	ldr	r2, [r3, #0]
 8000470:	4fad      	ldr	r7, [pc, #692]	; (8000728 <foc_loop+0x380>)
 8000472:	1111      	asrs	r1, r2, #4
 8000474:	b209      	sxth	r1, r1
 8000476:	8039      	strh	r1, [r7, #0]
 8000478:	8de3      	ldrh	r3, [r4, #46]	; 0x2e
 800047a:	1a52      	subs	r2, r2, r1
 800047c:	4443      	add	r3, r8
 800047e:	189b      	adds	r3, r3, r2
 8000480:	4662      	mov	r2, ip
 8000482:	4648      	mov	r0, r9
 8000484:	6013      	str	r3, [r2, #0]
 8000486:	f000 ff6f 	bl	8001368 <abs16>
 800048a:	4ba8      	ldr	r3, [pc, #672]	; (800072c <foc_loop+0x384>)
 800048c:	4698      	mov	r8, r3
 800048e:	8018      	strh	r0, [r3, #0]
 8000490:	2300      	movs	r3, #0
 8000492:	5ef0      	ldrsh	r0, [r6, r3]
 8000494:	f000 ff68 	bl	8001368 <abs16>
 8000498:	4643      	mov	r3, r8
 800049a:	2200      	movs	r2, #0
 800049c:	5e9b      	ldrsh	r3, [r3, r2]
 800049e:	4283      	cmp	r3, r0
 80004a0:	da00      	bge.n	80004a4 <foc_loop+0xfc>
 80004a2:	e113      	b.n	80006cc <foc_loop+0x324>
 80004a4:	2300      	movs	r3, #0
 80004a6:	5ef8      	ldrsh	r0, [r7, r3]
 80004a8:	f000 ff5e 	bl	8001368 <abs16>
 80004ac:	4643      	mov	r3, r8
 80004ae:	2200      	movs	r2, #0
 80004b0:	5e9b      	ldrsh	r3, [r3, r2]
 80004b2:	4283      	cmp	r3, r0
 80004b4:	da00      	bge.n	80004b8 <foc_loop+0x110>
 80004b6:	e102      	b.n	80006be <foc_loop+0x316>
 80004b8:	882b      	ldrh	r3, [r5, #0]
 80004ba:	4a9d      	ldr	r2, [pc, #628]	; (8000730 <foc_loop+0x388>)
 80004bc:	09db      	lsrs	r3, r3, #7
 80004be:	b2db      	uxtb	r3, r3
 80004c0:	0059      	lsls	r1, r3, #1
 80004c2:	5e8f      	ldrsh	r7, [r1, r2]
 80004c4:	2140      	movs	r1, #64	; 0x40
 80004c6:	2b3f      	cmp	r3, #63	; 0x3f
 80004c8:	d900      	bls.n	80004cc <foc_loop+0x124>
 80004ca:	213f      	movs	r1, #63	; 0x3f
 80004cc:	1ac9      	subs	r1, r1, r3
 80004ce:	23ff      	movs	r3, #255	; 0xff
 80004d0:	400b      	ands	r3, r1
 80004d2:	005b      	lsls	r3, r3, #1
 80004d4:	5e9d      	ldrsh	r5, [r3, r2]
 80004d6:	4b97      	ldr	r3, [pc, #604]	; (8000734 <foc_loop+0x38c>)
 80004d8:	107a      	asrs	r2, r7, #1
 80004da:	001e      	movs	r6, r3
 80004dc:	436b      	muls	r3, r5
 80004de:	141b      	asrs	r3, r3, #16
 80004e0:	9303      	str	r3, [sp, #12]
 80004e2:	2300      	movs	r3, #0
 80004e4:	9204      	str	r2, [sp, #16]
 80004e6:	4a94      	ldr	r2, [pc, #592]	; (8000738 <foc_loop+0x390>)
 80004e8:	1069      	asrs	r1, r5, #1
 80004ea:	4690      	mov	r8, r2
 80004ec:	8013      	strh	r3, [r2, #0]
 80004ee:	4b93      	ldr	r3, [pc, #588]	; (800073c <foc_loop+0x394>)
 80004f0:	9105      	str	r1, [sp, #20]
 80004f2:	469a      	mov	sl, r3
 80004f4:	2100      	movs	r1, #0
 80004f6:	5e5b      	ldrsh	r3, [r3, r1]
 80004f8:	4a91      	ldr	r2, [pc, #580]	; (8000740 <foc_loop+0x398>)
 80004fa:	01db      	lsls	r3, r3, #7
 80004fc:	4691      	mov	r9, r2
 80004fe:	8013      	strh	r3, [r2, #0]
 8000500:	4990      	ldr	r1, [pc, #576]	; (8000744 <foc_loop+0x39c>)
 8000502:	4a91      	ldr	r2, [pc, #580]	; (8000748 <foc_loop+0x3a0>)
 8000504:	2000      	movs	r0, #0
 8000506:	f000 ff15 	bl	8001334 <clip>
 800050a:	4643      	mov	r3, r8
 800050c:	8018      	strh	r0, [r3, #0]
 800050e:	464b      	mov	r3, r9
 8000510:	498c      	ldr	r1, [pc, #560]	; (8000744 <foc_loop+0x39c>)
 8000512:	2000      	movs	r0, #0
 8000514:	5e18      	ldrsh	r0, [r3, r0]
 8000516:	4a8c      	ldr	r2, [pc, #560]	; (8000748 <foc_loop+0x3a0>)
 8000518:	f000 ff0c 	bl	8001334 <clip>
 800051c:	464a      	mov	r2, r9
 800051e:	b203      	sxth	r3, r0
 8000520:	8013      	strh	r3, [r2, #0]
 8000522:	4642      	mov	r2, r8
 8000524:	2100      	movs	r1, #0
 8000526:	5e52      	ldrsh	r2, [r2, r1]
 8000528:	437e      	muls	r6, r7
 800052a:	4355      	muls	r5, r2
 800052c:	435f      	muls	r7, r3
 800052e:	1be8      	subs	r0, r5, r7
 8000530:	13c1      	asrs	r1, r0, #15
 8000532:	9804      	ldr	r0, [sp, #16]
 8000534:	9f03      	ldr	r7, [sp, #12]
 8000536:	4684      	mov	ip, r0
 8000538:	9805      	ldr	r0, [sp, #20]
 800053a:	4467      	add	r7, ip
 800053c:	4684      	mov	ip, r0
 800053e:	4688      	mov	r8, r1
 8000540:	4d82      	ldr	r5, [pc, #520]	; (800074c <foc_loop+0x3a4>)
 8000542:	1436      	asrs	r6, r6, #16
 8000544:	6029      	str	r1, [r5, #0]
 8000546:	9905      	ldr	r1, [sp, #20]
 8000548:	9804      	ldr	r0, [sp, #16]
 800054a:	1a71      	subs	r1, r6, r1
 800054c:	4466      	add	r6, ip
 800054e:	4276      	negs	r6, r6
 8000550:	4351      	muls	r1, r2
 8000552:	4372      	muls	r2, r6
 8000554:	9e03      	ldr	r6, [sp, #12]
 8000556:	435f      	muls	r7, r3
 8000558:	1a36      	subs	r6, r6, r0
 800055a:	4373      	muls	r3, r6
 800055c:	19c9      	adds	r1, r1, r7
 800055e:	4e7c      	ldr	r6, [pc, #496]	; (8000750 <foc_loop+0x3a8>)
 8000560:	4f7c      	ldr	r7, [pc, #496]	; (8000754 <foc_loop+0x3ac>)
 8000562:	1ad2      	subs	r2, r2, r3
 8000564:	13c9      	asrs	r1, r1, #15
 8000566:	13d2      	asrs	r2, r2, #15
 8000568:	4640      	mov	r0, r8
 800056a:	6039      	str	r1, [r7, #0]
 800056c:	6032      	str	r2, [r6, #0]
 800056e:	f000 feeb 	bl	8001348 <min3>
 8000572:	6832      	ldr	r2, [r6, #0]
 8000574:	4680      	mov	r8, r0
 8000576:	6839      	ldr	r1, [r7, #0]
 8000578:	6828      	ldr	r0, [r5, #0]
 800057a:	f000 feed 	bl	8001358 <max3>
 800057e:	2280      	movs	r2, #128	; 0x80
 8000580:	0092      	lsls	r2, r2, #2
 8000582:	4694      	mov	ip, r2
 8000584:	682b      	ldr	r3, [r5, #0]
 8000586:	4440      	add	r0, r8
 8000588:	1040      	asrs	r0, r0, #1
 800058a:	1a1b      	subs	r3, r3, r0
 800058c:	119b      	asrs	r3, r3, #6
 800058e:	4a72      	ldr	r2, [pc, #456]	; (8000758 <foc_loop+0x3b0>)
 8000590:	4463      	add	r3, ip
 8000592:	b21b      	sxth	r3, r3
 8000594:	8013      	strh	r3, [r2, #0]
 8000596:	683b      	ldr	r3, [r7, #0]
 8000598:	4970      	ldr	r1, [pc, #448]	; (800075c <foc_loop+0x3b4>)
 800059a:	1a1b      	subs	r3, r3, r0
 800059c:	119b      	asrs	r3, r3, #6
 800059e:	4463      	add	r3, ip
 80005a0:	b21b      	sxth	r3, r3
 80005a2:	800b      	strh	r3, [r1, #0]
 80005a4:	6833      	ldr	r3, [r6, #0]
 80005a6:	1a1b      	subs	r3, r3, r0
 80005a8:	119b      	asrs	r3, r3, #6
 80005aa:	486d      	ldr	r0, [pc, #436]	; (8000760 <foc_loop+0x3b8>)
 80005ac:	4463      	add	r3, ip
 80005ae:	b21b      	sxth	r3, r3
 80005b0:	8003      	strh	r3, [r0, #0]
 80005b2:	4653      	mov	r3, sl
 80005b4:	2500      	movs	r5, #0
 80005b6:	5f5b      	ldrsh	r3, [r3, r5]
 80005b8:	2b00      	cmp	r3, #0
 80005ba:	d033      	beq.n	8000624 <foc_loop+0x27c>
 80005bc:	8812      	ldrh	r2, [r2, #0]
 80005be:	4b69      	ldr	r3, [pc, #420]	; (8000764 <foc_loop+0x3bc>)
 80005c0:	b212      	sxth	r2, r2
 80005c2:	635a      	str	r2, [r3, #52]	; 0x34
 80005c4:	880a      	ldrh	r2, [r1, #0]
 80005c6:	b212      	sxth	r2, r2
 80005c8:	639a      	str	r2, [r3, #56]	; 0x38
 80005ca:	8802      	ldrh	r2, [r0, #0]
 80005cc:	b212      	sxth	r2, r2
 80005ce:	63da      	str	r2, [r3, #60]	; 0x3c
 80005d0:	4965      	ldr	r1, [pc, #404]	; (8000768 <foc_loop+0x3c0>)
 80005d2:	4d66      	ldr	r5, [pc, #408]	; (800076c <foc_loop+0x3c4>)
 80005d4:	680b      	ldr	r3, [r1, #0]
 80005d6:	121a      	asrs	r2, r3, #8
 80005d8:	b212      	sxth	r2, r2
 80005da:	802a      	strh	r2, [r5, #0]
 80005dc:	1a9b      	subs	r3, r3, r2
 80005de:	8ea2      	ldrh	r2, [r4, #52]	; 0x34
 80005e0:	189b      	adds	r3, r3, r2
 80005e2:	600b      	str	r3, [r1, #0]
 80005e4:	2340      	movs	r3, #64	; 0x40
 80005e6:	5ce2      	ldrb	r2, [r4, r3]
 80005e8:	2a00      	cmp	r2, #0
 80005ea:	d127      	bne.n	800063c <foc_loop+0x294>
 80005ec:	2200      	movs	r2, #0
 80005ee:	2101      	movs	r1, #1
 80005f0:	483f      	ldr	r0, [pc, #252]	; (80006f0 <foc_loop+0x348>)
 80005f2:	f001 fccb 	bl	8001f8c <HAL_GPIO_WritePin>
 80005f6:	b007      	add	sp, #28
 80005f8:	bcf0      	pop	{r4, r5, r6, r7}
 80005fa:	46bb      	mov	fp, r7
 80005fc:	46b2      	mov	sl, r6
 80005fe:	46a9      	mov	r9, r5
 8000600:	46a0      	mov	r8, r4
 8000602:	bdf0      	pop	{r4, r5, r6, r7, pc}
 8000604:	428b      	cmp	r3, r1
 8000606:	d300      	bcc.n	800060a <foc_loop+0x262>
 8000608:	e709      	b.n	800041e <foc_loop+0x76>
 800060a:	21c0      	movs	r1, #192	; 0xc0
 800060c:	01c9      	lsls	r1, r1, #7
 800060e:	428c      	cmp	r4, r1
 8000610:	d800      	bhi.n	8000614 <foc_loop+0x26c>
 8000612:	e704      	b.n	800041e <foc_loop+0x76>
 8000614:	2580      	movs	r5, #128	; 0x80
 8000616:	022d      	lsls	r5, r5, #8
 8000618:	46ac      	mov	ip, r5
 800061a:	4c3a      	ldr	r4, [pc, #232]	; (8000704 <foc_loop+0x35c>)
 800061c:	6821      	ldr	r1, [r4, #0]
 800061e:	4461      	add	r1, ip
 8000620:	6021      	str	r1, [r4, #0]
 8000622:	e6fe      	b.n	8000422 <foc_loop+0x7a>
 8000624:	4a4f      	ldr	r2, [pc, #316]	; (8000764 <foc_loop+0x3bc>)
 8000626:	6353      	str	r3, [r2, #52]	; 0x34
 8000628:	6393      	str	r3, [r2, #56]	; 0x38
 800062a:	63d3      	str	r3, [r2, #60]	; 0x3c
 800062c:	e7d0      	b.n	80005d0 <foc_loop+0x228>
 800062e:	4d45      	ldr	r5, [pc, #276]	; (8000744 <foc_loop+0x39c>)
 8000630:	4c34      	ldr	r4, [pc, #208]	; (8000704 <foc_loop+0x35c>)
 8000632:	46ac      	mov	ip, r5
 8000634:	6821      	ldr	r1, [r4, #0]
 8000636:	4461      	add	r1, ip
 8000638:	6021      	str	r1, [r4, #0]
 800063a:	e6f2      	b.n	8000422 <foc_loop+0x7a>
 800063c:	2200      	movs	r2, #0
 800063e:	54e2      	strb	r2, [r4, r3]
 8000640:	7ba3      	ldrb	r3, [r4, #14]
 8000642:	320f      	adds	r2, #15
 8000644:	4393      	bics	r3, r2
 8000646:	8323      	strh	r3, [r4, #24]
 8000648:	7be3      	ldrb	r3, [r4, #15]
 800064a:	7c20      	ldrb	r0, [r4, #16]
 800064c:	01db      	lsls	r3, r3, #7
 800064e:	4318      	orrs	r0, r3
 8000650:	8360      	strh	r0, [r4, #26]
 8000652:	f000 fe8f 	bl	8001374 <pad14>
 8000656:	2218      	movs	r2, #24
 8000658:	5ea3      	ldrsh	r3, [r4, r2]
 800065a:	8360      	strh	r0, [r4, #26]
 800065c:	2b80      	cmp	r3, #128	; 0x80
 800065e:	d03c      	beq.n	80006da <foc_loop+0x332>
 8000660:	2ba0      	cmp	r3, #160	; 0xa0
 8000662:	d03e      	beq.n	80006e2 <foc_loop+0x33a>
 8000664:	465b      	mov	r3, fp
 8000666:	681a      	ldr	r2, [r3, #0]
 8000668:	237f      	movs	r3, #127	; 0x7f
 800066a:	2090      	movs	r0, #144	; 0x90
 800066c:	1551      	asrs	r1, r2, #21
 800066e:	4019      	ands	r1, r3
 8000670:	7121      	strb	r1, [r4, #4]
 8000672:	1391      	asrs	r1, r2, #14
 8000674:	4019      	ands	r1, r3
 8000676:	7161      	strb	r1, [r4, #5]
 8000678:	11d1      	asrs	r1, r2, #7
 800067a:	401a      	ands	r2, r3
 800067c:	71e2      	strb	r2, [r4, #7]
 800067e:	4a3c      	ldr	r2, [pc, #240]	; (8000770 <foc_loop+0x3c8>)
 8000680:	4019      	ands	r1, r3
 8000682:	6812      	ldr	r2, [r2, #0]
 8000684:	71a1      	strb	r1, [r4, #6]
 8000686:	1211      	asrs	r1, r2, #8
 8000688:	1052      	asrs	r2, r2, #1
 800068a:	401a      	ands	r2, r3
 800068c:	7262      	strb	r2, [r4, #9]
 800068e:	882a      	ldrh	r2, [r5, #0]
 8000690:	4019      	ands	r1, r3
 8000692:	401a      	ands	r2, r3
 8000694:	72a2      	strb	r2, [r4, #10]
 8000696:	4a37      	ldr	r2, [pc, #220]	; (8000774 <foc_loop+0x3cc>)
 8000698:	7221      	strb	r1, [r4, #8]
 800069a:	2100      	movs	r1, #0
 800069c:	5e51      	ldrsh	r1, [r2, r1]
 800069e:	05c0      	lsls	r0, r0, #23
 80006a0:	11ca      	asrs	r2, r1, #7
 80006a2:	401a      	ands	r2, r3
 80006a4:	400b      	ands	r3, r1
 80006a6:	72e2      	strb	r2, [r4, #11]
 80006a8:	2102      	movs	r1, #2
 80006aa:	2201      	movs	r2, #1
 80006ac:	7323      	strb	r3, [r4, #12]
 80006ae:	f001 fc6d 	bl	8001f8c <HAL_GPIO_WritePin>
 80006b2:	2209      	movs	r2, #9
 80006b4:	1d21      	adds	r1, r4, #4
 80006b6:	4830      	ldr	r0, [pc, #192]	; (8000778 <foc_loop+0x3d0>)
 80006b8:	f003 fd12 	bl	80040e0 <HAL_UART_Transmit_DMA>
 80006bc:	e796      	b.n	80005ec <foc_loop+0x244>
 80006be:	2300      	movs	r3, #0
 80006c0:	5ef8      	ldrsh	r0, [r7, r3]
 80006c2:	f000 fe51 	bl	8001368 <abs16>
 80006c6:	4643      	mov	r3, r8
 80006c8:	8018      	strh	r0, [r3, #0]
 80006ca:	e6f5      	b.n	80004b8 <foc_loop+0x110>
 80006cc:	2300      	movs	r3, #0
 80006ce:	5ef0      	ldrsh	r0, [r6, r3]
 80006d0:	f000 fe4a 	bl	8001368 <abs16>
 80006d4:	4643      	mov	r3, r8
 80006d6:	8018      	strh	r0, [r3, #0]
 80006d8:	e6e4      	b.n	80004a4 <foc_loop+0xfc>
 80006da:	4653      	mov	r3, sl
 80006dc:	1040      	asrs	r0, r0, #1
 80006de:	8018      	strh	r0, [r3, #0]
 80006e0:	e7c0      	b.n	8000664 <foc_loop+0x2bc>
 80006e2:	4b26      	ldr	r3, [pc, #152]	; (800077c <foc_loop+0x3d4>)
 80006e4:	0340      	lsls	r0, r0, #13
 80006e6:	6018      	str	r0, [r3, #0]
 80006e8:	e7bc      	b.n	8000664 <foc_loop+0x2bc>
 80006ea:	46c0      	nop			; (mov r8, r8)
 80006ec:	200000c0 	.word	0x200000c0
 80006f0:	48001400 	.word	0x48001400
 80006f4:	200003b6 	.word	0x200003b6
 80006f8:	20000200 	.word	0x20000200
 80006fc:	200000c6 	.word	0x200000c6
 8000700:	200000c8 	.word	0x200000c8
 8000704:	200000cc 	.word	0x200000cc
 8000708:	200000c4 	.word	0x200000c4
 800070c:	200000b8 	.word	0x200000b8
 8000710:	20000094 	.word	0x20000094
 8000714:	fffff800 	.word	0xfffff800
 8000718:	2000037c 	.word	0x2000037c
 800071c:	2000009c 	.word	0x2000009c
 8000720:	20000098 	.word	0x20000098
 8000724:	200000a4 	.word	0x200000a4
 8000728:	200000a0 	.word	0x200000a0
 800072c:	2000008e 	.word	0x2000008e
 8000730:	080058ac 	.word	0x080058ac
 8000734:	0000ddb4 	.word	0x0000ddb4
 8000738:	200000a8 	.word	0x200000a8
 800073c:	20000090 	.word	0x20000090
 8000740:	200000aa 	.word	0x200000aa
 8000744:	ffff8000 	.word	0xffff8000
 8000748:	00007fff 	.word	0x00007fff
 800074c:	200000ac 	.word	0x200000ac
 8000750:	200000b4 	.word	0x200000b4
 8000754:	200000b0 	.word	0x200000b0
 8000758:	20000088 	.word	0x20000088
 800075c:	2000008a 	.word	0x2000008a
 8000760:	2000008c 	.word	0x2000008c
 8000764:	40012c00 	.word	0x40012c00
 8000768:	200000d8 	.word	0x200000d8
 800076c:	200000d4 	.word	0x200000d4
 8000770:	200000d0 	.word	0x200000d0
 8000774:	200000dc 	.word	0x200000dc
 8000778:	200002f4 	.word	0x200002f4
 800077c:	20000000 	.word	0x20000000

08000780 <foc_slowloop>:
 8000780:	490b      	ldr	r1, [pc, #44]	; (80007b0 <foc_slowloop+0x30>)
 8000782:	4b0c      	ldr	r3, [pc, #48]	; (80007b4 <foc_slowloop+0x34>)
 8000784:	680a      	ldr	r2, [r1, #0]
 8000786:	6818      	ldr	r0, [r3, #0]
 8000788:	4b0b      	ldr	r3, [pc, #44]	; (80007b8 <foc_slowloop+0x38>)
 800078a:	1a82      	subs	r2, r0, r2
 800078c:	4353      	muls	r3, r2
 800078e:	b510      	push	{r4, lr}
 8000790:	6008      	str	r0, [r1, #0]
 8000792:	4c0a      	ldr	r4, [pc, #40]	; (80007bc <foc_slowloop+0x3c>)
 8000794:	490a      	ldr	r1, [pc, #40]	; (80007c0 <foc_slowloop+0x40>)
 8000796:	13db      	asrs	r3, r3, #15
 8000798:	6023      	str	r3, [r4, #0]
 800079a:	680b      	ldr	r3, [r1, #0]
 800079c:	4809      	ldr	r0, [pc, #36]	; (80007c4 <foc_slowloop+0x44>)
 800079e:	121a      	asrs	r2, r3, #8
 80007a0:	b212      	sxth	r2, r2
 80007a2:	8002      	strh	r2, [r0, #0]
 80007a4:	1a9b      	subs	r3, r3, r2
 80007a6:	4a08      	ldr	r2, [pc, #32]	; (80007c8 <foc_slowloop+0x48>)
 80007a8:	8e52      	ldrh	r2, [r2, #50]	; 0x32
 80007aa:	189b      	adds	r3, r3, r2
 80007ac:	600b      	str	r3, [r1, #0]
 80007ae:	bd10      	pop	{r4, pc}
 80007b0:	200000bc 	.word	0x200000bc
 80007b4:	200000b8 	.word	0x200000b8
 80007b8:	0000ea60 	.word	0x0000ea60
 80007bc:	200000d0 	.word	0x200000d0
 80007c0:	200000e0 	.word	0x200000e0
 80007c4:	200000dc 	.word	0x200000dc
 80007c8:	2000037c 	.word	0x2000037c

080007cc <__io_putchar>:
 80007cc:	2301      	movs	r3, #1
 80007ce:	b500      	push	{lr}
 80007d0:	b083      	sub	sp, #12
 80007d2:	9001      	str	r0, [sp, #4]
 80007d4:	2201      	movs	r2, #1
 80007d6:	425b      	negs	r3, r3
 80007d8:	a901      	add	r1, sp, #4
 80007da:	4803      	ldr	r0, [pc, #12]	; (80007e8 <__io_putchar+0x1c>)
 80007dc:	f004 f8d4 	bl	8004988 <HAL_UART_Transmit>
 80007e0:	9801      	ldr	r0, [sp, #4]
 80007e2:	b003      	add	sp, #12
 80007e4:	bd00      	pop	{pc}
 80007e6:	46c0      	nop			; (mov r8, r8)
 80007e8:	200002f4 	.word	0x200002f4

080007ec <HAL_TIM_PeriodElapsedCallback>:
 80007ec:	4b04      	ldr	r3, [pc, #16]	; (8000800 <HAL_TIM_PeriodElapsedCallback+0x14>)
 80007ee:	4283      	cmp	r3, r0
 80007f0:	d000      	beq.n	80007f4 <HAL_TIM_PeriodElapsedCallback+0x8>
 80007f2:	4770      	bx	lr
 80007f4:	223d      	movs	r2, #61	; 0x3d
 80007f6:	2101      	movs	r1, #1
 80007f8:	4b02      	ldr	r3, [pc, #8]	; (8000804 <HAL_TIM_PeriodElapsedCallback+0x18>)
 80007fa:	5499      	strb	r1, [r3, r2]
 80007fc:	e7f9      	b.n	80007f2 <HAL_TIM_PeriodElapsedCallback+0x6>
 80007fe:	46c0      	nop			; (mov r8, r8)
 8000800:	200002ac 	.word	0x200002ac
 8000804:	2000037c 	.word	0x2000037c

08000808 <HAL_UARTEx_RxEventCallback>:
 8000808:	2340      	movs	r3, #64	; 0x40
 800080a:	2201      	movs	r2, #1
 800080c:	b510      	push	{r4, lr}
 800080e:	4c0a      	ldr	r4, [pc, #40]	; (8000838 <HAL_UARTEx_RxEventCallback+0x30>)
 8000810:	54e2      	strb	r2, [r4, r3]
 8000812:	3b01      	subs	r3, #1
 8000814:	5ce3      	ldrb	r3, [r4, r3]
 8000816:	2b63      	cmp	r3, #99	; 0x63
 8000818:	d803      	bhi.n	8000822 <HAL_UARTEx_RxEventCallback+0x1a>
 800081a:	233f      	movs	r3, #63	; 0x3f
 800081c:	2200      	movs	r2, #0
 800081e:	54e2      	strb	r2, [r4, r3]
 8000820:	bd10      	pop	{r4, pc}
 8000822:	2180      	movs	r1, #128	; 0x80
 8000824:	4805      	ldr	r0, [pc, #20]	; (800083c <HAL_UARTEx_RxEventCallback+0x34>)
 8000826:	f001 fbb1 	bl	8001f8c <HAL_GPIO_WritePin>
 800082a:	2201      	movs	r2, #1
 800082c:	2140      	movs	r1, #64	; 0x40
 800082e:	4803      	ldr	r0, [pc, #12]	; (800083c <HAL_UARTEx_RxEventCallback+0x34>)
 8000830:	f001 fbac 	bl	8001f8c <HAL_GPIO_WritePin>
 8000834:	e7f1      	b.n	800081a <HAL_UARTEx_RxEventCallback+0x12>
 8000836:	46c0      	nop			; (mov r8, r8)
 8000838:	2000037c 	.word	0x2000037c
 800083c:	48001400 	.word	0x48001400

08000840 <HAL_UART_TxCpltCallback>:
 8000840:	2090      	movs	r0, #144	; 0x90
 8000842:	b510      	push	{r4, lr}
 8000844:	2200      	movs	r2, #0
 8000846:	2102      	movs	r1, #2
 8000848:	05c0      	lsls	r0, r0, #23
 800084a:	f001 fb9f 	bl	8001f8c <HAL_GPIO_WritePin>
 800084e:	4903      	ldr	r1, [pc, #12]	; (800085c <HAL_UART_TxCpltCallback+0x1c>)
 8000850:	2203      	movs	r2, #3
 8000852:	4803      	ldr	r0, [pc, #12]	; (8000860 <HAL_UART_TxCpltCallback+0x20>)
 8000854:	310e      	adds	r1, #14
 8000856:	f004 fb15 	bl	8004e84 <HAL_UARTEx_ReceiveToIdle_IT>
 800085a:	bd10      	pop	{r4, pc}
 800085c:	2000037c 	.word	0x2000037c
 8000860:	200002f4 	.word	0x200002f4

08000864 <HAL_UART_ErrorCallback>:
 8000864:	2384      	movs	r3, #132	; 0x84
 8000866:	b530      	push	{r4, r5, lr}
 8000868:	58c3      	ldr	r3, [r0, r3]
 800086a:	4c12      	ldr	r4, [pc, #72]	; (80008b4 <HAL_UART_ErrorCallback+0x50>)
 800086c:	b09b      	sub	sp, #108	; 0x6c
 800086e:	9300      	str	r3, [sp, #0]
 8000870:	6823      	ldr	r3, [r4, #0]
 8000872:	69db      	ldr	r3, [r3, #28]
 8000874:	069b      	lsls	r3, r3, #26
 8000876:	d50a      	bpl.n	800088e <HAL_UART_ErrorCallback+0x2a>
 8000878:	2520      	movs	r5, #32
 800087a:	2301      	movs	r3, #1
 800087c:	2201      	movs	r2, #1
 800087e:	0020      	movs	r0, r4
 8000880:	a901      	add	r1, sp, #4
 8000882:	f004 f8f3 	bl	8004a6c <HAL_UART_Receive>
 8000886:	6823      	ldr	r3, [r4, #0]
 8000888:	69db      	ldr	r3, [r3, #28]
 800088a:	421d      	tst	r5, r3
 800088c:	d1f5      	bne.n	800087a <HAL_UART_ErrorCallback+0x16>
 800088e:	2090      	movs	r0, #144	; 0x90
 8000890:	2200      	movs	r2, #0
 8000892:	2102      	movs	r1, #2
 8000894:	05c0      	lsls	r0, r0, #23
 8000896:	f001 fb79 	bl	8001f8c <HAL_GPIO_WritePin>
 800089a:	4907      	ldr	r1, [pc, #28]	; (80008b8 <HAL_UART_ErrorCallback+0x54>)
 800089c:	2203      	movs	r2, #3
 800089e:	0020      	movs	r0, r4
 80008a0:	310e      	adds	r1, #14
 80008a2:	f004 faef 	bl	8004e84 <HAL_UARTEx_ReceiveToIdle_IT>
 80008a6:	2201      	movs	r2, #1
 80008a8:	2101      	movs	r1, #1
 80008aa:	4804      	ldr	r0, [pc, #16]	; (80008bc <HAL_UART_ErrorCallback+0x58>)
 80008ac:	f001 fb6e 	bl	8001f8c <HAL_GPIO_WritePin>
 80008b0:	b01b      	add	sp, #108	; 0x6c
 80008b2:	bd30      	pop	{r4, r5, pc}
 80008b4:	200002f4 	.word	0x200002f4
 80008b8:	2000037c 	.word	0x2000037c
 80008bc:	48001400 	.word	0x48001400

080008c0 <HAL_ADC_ConvCpltCallback>:
 80008c0:	4b04      	ldr	r3, [pc, #16]	; (80008d4 <HAL_ADC_ConvCpltCallback+0x14>)
 80008c2:	6802      	ldr	r2, [r0, #0]
 80008c4:	429a      	cmp	r2, r3
 80008c6:	d000      	beq.n	80008ca <HAL_ADC_ConvCpltCallback+0xa>
 80008c8:	4770      	bx	lr
 80008ca:	223e      	movs	r2, #62	; 0x3e
 80008cc:	2101      	movs	r1, #1
 80008ce:	4b02      	ldr	r3, [pc, #8]	; (80008d8 <HAL_ADC_ConvCpltCallback+0x18>)
 80008d0:	5499      	strb	r1, [r3, r2]
 80008d2:	e7f9      	b.n	80008c8 <HAL_ADC_ConvCpltCallback+0x8>
 80008d4:	40012400 	.word	0x40012400
 80008d8:	2000037c 	.word	0x2000037c

080008dc <Error_Handler>:
 80008dc:	2201      	movs	r2, #1
 80008de:	2101      	movs	r1, #1
 80008e0:	b510      	push	{r4, lr}
 80008e2:	4808      	ldr	r0, [pc, #32]	; (8000904 <Error_Handler+0x28>)
 80008e4:	f001 fb52 	bl	8001f8c <HAL_GPIO_WritePin>
 80008e8:	4807      	ldr	r0, [pc, #28]	; (8000908 <Error_Handler+0x2c>)
 80008ea:	f004 fc05 	bl	80050f8 <puts>
 80008ee:	b672      	cpsid	i
 80008f0:	f3bf 8f4f 	dsb	sy
 80008f4:	4b05      	ldr	r3, [pc, #20]	; (800090c <Error_Handler+0x30>)
 80008f6:	4a06      	ldr	r2, [pc, #24]	; (8000910 <Error_Handler+0x34>)
 80008f8:	60da      	str	r2, [r3, #12]
 80008fa:	f3bf 8f4f 	dsb	sy
 80008fe:	46c0      	nop			; (mov r8, r8)
 8000900:	e7fd      	b.n	80008fe <Error_Handler+0x22>
 8000902:	46c0      	nop			; (mov r8, r8)
 8000904:	48001400 	.word	0x48001400
 8000908:	08005aac 	.word	0x08005aac
 800090c:	e000ed00 	.word	0xe000ed00
 8000910:	05fa0004 	.word	0x05fa0004

08000914 <SystemClock_Config>:
 8000914:	b510      	push	{r4, lr}
 8000916:	b094      	sub	sp, #80	; 0x50
 8000918:	222c      	movs	r2, #44	; 0x2c
 800091a:	2100      	movs	r1, #0
 800091c:	a809      	add	r0, sp, #36	; 0x24
 800091e:	f004 fbf5 	bl	800510c <memset>
 8000922:	2210      	movs	r2, #16
 8000924:	2100      	movs	r1, #0
 8000926:	4668      	mov	r0, sp
 8000928:	f004 fbf0 	bl	800510c <memset>
 800092c:	2210      	movs	r2, #16
 800092e:	2100      	movs	r1, #0
 8000930:	a804      	add	r0, sp, #16
 8000932:	f004 fbeb 	bl	800510c <memset>
 8000936:	2312      	movs	r3, #18
 8000938:	9308      	str	r3, [sp, #32]
 800093a:	3b11      	subs	r3, #17
 800093c:	2410      	movs	r4, #16
 800093e:	930b      	str	r3, [sp, #44]	; 0x2c
 8000940:	930d      	str	r3, [sp, #52]	; 0x34
 8000942:	23e0      	movs	r3, #224	; 0xe0
 8000944:	940c      	str	r4, [sp, #48]	; 0x30
 8000946:	940e      	str	r4, [sp, #56]	; 0x38
 8000948:	039b      	lsls	r3, r3, #14
 800094a:	3c0e      	subs	r4, #14
 800094c:	a808      	add	r0, sp, #32
 800094e:	9410      	str	r4, [sp, #64]	; 0x40
 8000950:	9312      	str	r3, [sp, #72]	; 0x48
 8000952:	f001 ff19 	bl	8002788 <HAL_RCC_OscConfig>
 8000956:	2800      	cmp	r0, #0
 8000958:	d115      	bne.n	8000986 <SystemClock_Config+0x72>
 800095a:	2307      	movs	r3, #7
 800095c:	9002      	str	r0, [sp, #8]
 800095e:	9003      	str	r0, [sp, #12]
 8000960:	2101      	movs	r1, #1
 8000962:	4668      	mov	r0, sp
 8000964:	9300      	str	r3, [sp, #0]
 8000966:	9401      	str	r4, [sp, #4]
 8000968:	f002 f992 	bl	8002c90 <HAL_RCC_ClockConfig>
 800096c:	2800      	cmp	r0, #0
 800096e:	d10a      	bne.n	8000986 <SystemClock_Config+0x72>
 8000970:	2321      	movs	r3, #33	; 0x21
 8000972:	9006      	str	r0, [sp, #24]
 8000974:	9007      	str	r0, [sp, #28]
 8000976:	a804      	add	r0, sp, #16
 8000978:	9304      	str	r3, [sp, #16]
 800097a:	f002 fa25 	bl	8002dc8 <HAL_RCCEx_PeriphCLKConfig>
 800097e:	2800      	cmp	r0, #0
 8000980:	d101      	bne.n	8000986 <SystemClock_Config+0x72>
 8000982:	b014      	add	sp, #80	; 0x50
 8000984:	bd10      	pop	{r4, pc}
 8000986:	f7ff ffa9 	bl	80008dc <Error_Handler>
 800098a:	46c0      	nop			; (mov r8, r8)

0800098c <main>:
 800098c:	b5f0      	push	{r4, r5, r6, r7, lr}
 800098e:	b0a9      	sub	sp, #164	; 0xa4
 8000990:	f000 fd4a 	bl	8001428 <HAL_Init>
 8000994:	f7ff ffbe 	bl	8000914 <SystemClock_Config>
 8000998:	2214      	movs	r2, #20
 800099a:	2100      	movs	r1, #0
 800099c:	a820      	add	r0, sp, #128	; 0x80
 800099e:	f004 fbb5 	bl	800510c <memset>
 80009a2:	2280      	movs	r2, #128	; 0x80
 80009a4:	4cef      	ldr	r4, [pc, #956]	; (8000d64 <main+0x3d8>)
 80009a6:	03d2      	lsls	r2, r2, #15
 80009a8:	6963      	ldr	r3, [r4, #20]
 80009aa:	21c3      	movs	r1, #195	; 0xc3
 80009ac:	4313      	orrs	r3, r2
 80009ae:	6163      	str	r3, [r4, #20]
 80009b0:	6963      	ldr	r3, [r4, #20]
 80009b2:	48ed      	ldr	r0, [pc, #948]	; (8000d68 <main+0x3dc>)
 80009b4:	4013      	ands	r3, r2
 80009b6:	2280      	movs	r2, #128	; 0x80
 80009b8:	9302      	str	r3, [sp, #8]
 80009ba:	9b02      	ldr	r3, [sp, #8]
 80009bc:	6963      	ldr	r3, [r4, #20]
 80009be:	0292      	lsls	r2, r2, #10
 80009c0:	4313      	orrs	r3, r2
 80009c2:	6163      	str	r3, [r4, #20]
 80009c4:	6963      	ldr	r3, [r4, #20]
 80009c6:	2500      	movs	r5, #0
 80009c8:	4013      	ands	r3, r2
 80009ca:	2280      	movs	r2, #128	; 0x80
 80009cc:	9303      	str	r3, [sp, #12]
 80009ce:	9b03      	ldr	r3, [sp, #12]
 80009d0:	6963      	ldr	r3, [r4, #20]
 80009d2:	02d2      	lsls	r2, r2, #11
 80009d4:	4313      	orrs	r3, r2
 80009d6:	6163      	str	r3, [r4, #20]
 80009d8:	6963      	ldr	r3, [r4, #20]
 80009da:	2601      	movs	r6, #1
 80009dc:	4013      	ands	r3, r2
 80009de:	9304      	str	r3, [sp, #16]
 80009e0:	2200      	movs	r2, #0
 80009e2:	9b04      	ldr	r3, [sp, #16]
 80009e4:	f001 fad2 	bl	8001f8c <HAL_GPIO_WritePin>
 80009e8:	2090      	movs	r0, #144	; 0x90
 80009ea:	2200      	movs	r2, #0
 80009ec:	2102      	movs	r1, #2
 80009ee:	05c0      	lsls	r0, r0, #23
 80009f0:	f001 facc 	bl	8001f8c <HAL_GPIO_WritePin>
 80009f4:	23c3      	movs	r3, #195	; 0xc3
 80009f6:	48dc      	ldr	r0, [pc, #880]	; (8000d68 <main+0x3dc>)
 80009f8:	a920      	add	r1, sp, #128	; 0x80
 80009fa:	9320      	str	r3, [sp, #128]	; 0x80
 80009fc:	9621      	str	r6, [sp, #132]	; 0x84
 80009fe:	9522      	str	r5, [sp, #136]	; 0x88
 8000a00:	9523      	str	r5, [sp, #140]	; 0x8c
 8000a02:	f001 f9c5 	bl	8001d90 <HAL_GPIO_Init>
 8000a06:	2090      	movs	r0, #144	; 0x90
 8000a08:	2302      	movs	r3, #2
 8000a0a:	a920      	add	r1, sp, #128	; 0x80
 8000a0c:	05c0      	lsls	r0, r0, #23
 8000a0e:	9320      	str	r3, [sp, #128]	; 0x80
 8000a10:	9322      	str	r3, [sp, #136]	; 0x88
 8000a12:	9621      	str	r6, [sp, #132]	; 0x84
 8000a14:	9523      	str	r5, [sp, #140]	; 0x8c
 8000a16:	f001 f9bb 	bl	8001d90 <HAL_GPIO_Init>
 8000a1a:	2380      	movs	r3, #128	; 0x80
 8000a1c:	2090      	movs	r0, #144	; 0x90
 8000a1e:	011b      	lsls	r3, r3, #4
 8000a20:	a920      	add	r1, sp, #128	; 0x80
 8000a22:	05c0      	lsls	r0, r0, #23
 8000a24:	9320      	str	r3, [sp, #128]	; 0x80
 8000a26:	9521      	str	r5, [sp, #132]	; 0x84
 8000a28:	9522      	str	r5, [sp, #136]	; 0x88
 8000a2a:	f001 f9b1 	bl	8001d90 <HAL_GPIO_Init>
 8000a2e:	6963      	ldr	r3, [r4, #20]
 8000a30:	2200      	movs	r2, #0
 8000a32:	4333      	orrs	r3, r6
 8000a34:	6163      	str	r3, [r4, #20]
 8000a36:	6963      	ldr	r3, [r4, #20]
 8000a38:	2100      	movs	r1, #0
 8000a3a:	4033      	ands	r3, r6
 8000a3c:	2009      	movs	r0, #9
 8000a3e:	9301      	str	r3, [sp, #4]
 8000a40:	9b01      	ldr	r3, [sp, #4]
 8000a42:	f001 f845 	bl	8001ad0 <HAL_NVIC_SetPriority>
 8000a46:	2009      	movs	r0, #9
 8000a48:	f001 f874 	bl	8001b34 <HAL_NVIC_EnableIRQ>
 8000a4c:	2200      	movs	r2, #0
 8000a4e:	2100      	movs	r1, #0
 8000a50:	200b      	movs	r0, #11
 8000a52:	f001 f83d 	bl	8001ad0 <HAL_NVIC_SetPriority>
 8000a56:	200b      	movs	r0, #11
 8000a58:	f001 f86c 	bl	8001b34 <HAL_NVIC_EnableIRQ>
 8000a5c:	200a      	movs	r0, #10
 8000a5e:	f000 fd05 	bl	800146c <HAL_Delay>
 8000a62:	4cc2      	ldr	r4, [pc, #776]	; (8000d6c <main+0x3e0>)
 8000a64:	4bc2      	ldr	r3, [pc, #776]	; (8000d70 <main+0x3e4>)
 8000a66:	0020      	movs	r0, r4
 8000a68:	6023      	str	r3, [r4, #0]
 8000a6a:	4bc2      	ldr	r3, [pc, #776]	; (8000d74 <main+0x3e8>)
 8000a6c:	60e6      	str	r6, [r4, #12]
 8000a6e:	6063      	str	r3, [r4, #4]
 8000a70:	2312      	movs	r3, #18
 8000a72:	6125      	str	r5, [r4, #16]
 8000a74:	60a3      	str	r3, [r4, #8]
 8000a76:	6165      	str	r5, [r4, #20]
 8000a78:	61a5      	str	r5, [r4, #24]
 8000a7a:	61e5      	str	r5, [r4, #28]
 8000a7c:	6225      	str	r5, [r4, #32]
 8000a7e:	f001 fa8b 	bl	8001f98 <HAL_I2C_Init>
 8000a82:	2800      	cmp	r0, #0
 8000a84:	d000      	beq.n	8000a88 <main+0xfc>
 8000a86:	e1bf      	b.n	8000e08 <main+0x47c>
 8000a88:	2100      	movs	r1, #0
 8000a8a:	0020      	movs	r0, r4
 8000a8c:	f001 fe28 	bl	80026e0 <HAL_I2CEx_ConfigAnalogFilter>
 8000a90:	2800      	cmp	r0, #0
 8000a92:	d000      	beq.n	8000a96 <main+0x10a>
 8000a94:	e1b8      	b.n	8000e08 <main+0x47c>
 8000a96:	2100      	movs	r1, #0
 8000a98:	0020      	movs	r0, r4
 8000a9a:	f001 fe47 	bl	800272c <HAL_I2CEx_ConfigDigitalFilter>
 8000a9e:	1e05      	subs	r5, r0, #0
 8000aa0:	d000      	beq.n	8000aa4 <main+0x118>
 8000aa2:	e1b1      	b.n	8000e08 <main+0x47c>
 8000aa4:	220c      	movs	r2, #12
 8000aa6:	2100      	movs	r1, #0
 8000aa8:	a809      	add	r0, sp, #36	; 0x24
 8000aaa:	f004 fb2f 	bl	800510c <memset>
 8000aae:	4cb2      	ldr	r4, [pc, #712]	; (8000d78 <main+0x3ec>)
 8000ab0:	4bb2      	ldr	r3, [pc, #712]	; (8000d7c <main+0x3f0>)
 8000ab2:	2704      	movs	r7, #4
 8000ab4:	6023      	str	r3, [r4, #0]
 8000ab6:	2380      	movs	r3, #128	; 0x80
 8000ab8:	00db      	lsls	r3, r3, #3
 8000aba:	6223      	str	r3, [r4, #32]
 8000abc:	2324      	movs	r3, #36	; 0x24
 8000abe:	0020      	movs	r0, r4
 8000ac0:	61a5      	str	r5, [r4, #24]
 8000ac2:	6065      	str	r5, [r4, #4]
 8000ac4:	60a5      	str	r5, [r4, #8]
 8000ac6:	60e5      	str	r5, [r4, #12]
 8000ac8:	6126      	str	r6, [r4, #16]
 8000aca:	6167      	str	r7, [r4, #20]
 8000acc:	61e5      	str	r5, [r4, #28]
 8000ace:	54e5      	strb	r5, [r4, r3]
 8000ad0:	62a6      	str	r6, [r4, #40]	; 0x28
 8000ad2:	f000 fdad 	bl	8001630 <HAL_ADC_Init>
 8000ad6:	2800      	cmp	r0, #0
 8000ad8:	d000      	beq.n	8000adc <main+0x150>
 8000ada:	e195      	b.n	8000e08 <main+0x47c>
 8000adc:	2380      	movs	r3, #128	; 0x80
 8000ade:	015b      	lsls	r3, r3, #5
 8000ae0:	930a      	str	r3, [sp, #40]	; 0x28
 8000ae2:	2380      	movs	r3, #128	; 0x80
 8000ae4:	9009      	str	r0, [sp, #36]	; 0x24
 8000ae6:	055b      	lsls	r3, r3, #21
 8000ae8:	0020      	movs	r0, r4
 8000aea:	a909      	add	r1, sp, #36	; 0x24
 8000aec:	930b      	str	r3, [sp, #44]	; 0x2c
 8000aee:	f000 ff01 	bl	80018f4 <HAL_ADC_ConfigChannel>
 8000af2:	2800      	cmp	r0, #0
 8000af4:	d000      	beq.n	8000af8 <main+0x16c>
 8000af6:	e187      	b.n	8000e08 <main+0x47c>
 8000af8:	2303      	movs	r3, #3
 8000afa:	0020      	movs	r0, r4
 8000afc:	a909      	add	r1, sp, #36	; 0x24
 8000afe:	9309      	str	r3, [sp, #36]	; 0x24
 8000b00:	f000 fef8 	bl	80018f4 <HAL_ADC_ConfigChannel>
 8000b04:	2800      	cmp	r0, #0
 8000b06:	d000      	beq.n	8000b0a <main+0x17e>
 8000b08:	e17e      	b.n	8000e08 <main+0x47c>
 8000b0a:	0020      	movs	r0, r4
 8000b0c:	a909      	add	r1, sp, #36	; 0x24
 8000b0e:	9709      	str	r7, [sp, #36]	; 0x24
 8000b10:	f000 fef0 	bl	80018f4 <HAL_ADC_ConfigChannel>
 8000b14:	2800      	cmp	r0, #0
 8000b16:	d000      	beq.n	8000b1a <main+0x18e>
 8000b18:	e176      	b.n	8000e08 <main+0x47c>
 8000b1a:	2309      	movs	r3, #9
 8000b1c:	0020      	movs	r0, r4
 8000b1e:	a909      	add	r1, sp, #36	; 0x24
 8000b20:	9309      	str	r3, [sp, #36]	; 0x24
 8000b22:	f000 fee7 	bl	80018f4 <HAL_ADC_ConfigChannel>
 8000b26:	2800      	cmp	r0, #0
 8000b28:	d000      	beq.n	8000b2c <main+0x1a0>
 8000b2a:	e16d      	b.n	8000e08 <main+0x47c>
 8000b2c:	2310      	movs	r3, #16
 8000b2e:	0020      	movs	r0, r4
 8000b30:	a909      	add	r1, sp, #36	; 0x24
 8000b32:	9309      	str	r3, [sp, #36]	; 0x24
 8000b34:	f000 fede 	bl	80018f4 <HAL_ADC_ConfigChannel>
 8000b38:	2800      	cmp	r0, #0
 8000b3a:	d000      	beq.n	8000b3e <main+0x1b2>
 8000b3c:	e164      	b.n	8000e08 <main+0x47c>
 8000b3e:	2311      	movs	r3, #17
 8000b40:	0020      	movs	r0, r4
 8000b42:	a909      	add	r1, sp, #36	; 0x24
 8000b44:	9309      	str	r3, [sp, #36]	; 0x24
 8000b46:	f000 fed5 	bl	80018f4 <HAL_ADC_ConfigChannel>
 8000b4a:	2800      	cmp	r0, #0
 8000b4c:	d000      	beq.n	8000b50 <main+0x1c4>
 8000b4e:	e15b      	b.n	8000e08 <main+0x47c>
 8000b50:	22e0      	movs	r2, #224	; 0xe0
 8000b52:	488b      	ldr	r0, [pc, #556]	; (8000d80 <main+0x3f4>)
 8000b54:	4b8b      	ldr	r3, [pc, #556]	; (8000d84 <main+0x3f8>)
 8000b56:	00d2      	lsls	r2, r2, #3
 8000b58:	6003      	str	r3, [r0, #0]
 8000b5a:	2382      	movs	r3, #130	; 0x82
 8000b5c:	60c2      	str	r2, [r0, #12]
 8000b5e:	2202      	movs	r2, #2
 8000b60:	005b      	lsls	r3, r3, #1
 8000b62:	2107      	movs	r1, #7
 8000b64:	6043      	str	r3, [r0, #4]
 8000b66:	2300      	movs	r3, #0
 8000b68:	6102      	str	r2, [r0, #16]
 8000b6a:	32ff      	adds	r2, #255	; 0xff
 8000b6c:	32ff      	adds	r2, #255	; 0xff
 8000b6e:	6182      	str	r2, [r0, #24]
 8000b70:	3af9      	subs	r2, #249	; 0xf9
 8000b72:	3aff      	subs	r2, #255	; 0xff
 8000b74:	6083      	str	r3, [r0, #8]
 8000b76:	6143      	str	r3, [r0, #20]
 8000b78:	61c2      	str	r2, [r0, #28]
 8000b7a:	6203      	str	r3, [r0, #32]
 8000b7c:	6243      	str	r3, [r0, #36]	; 0x24
 8000b7e:	6283      	str	r3, [r0, #40]	; 0x28
 8000b80:	62c1      	str	r1, [r0, #44]	; 0x2c
 8000b82:	6303      	str	r3, [r0, #48]	; 0x30
 8000b84:	6342      	str	r2, [r0, #52]	; 0x34
 8000b86:	f002 fac7 	bl	8003118 <HAL_SPI_Init>
 8000b8a:	1e05      	subs	r5, r0, #0
 8000b8c:	d000      	beq.n	8000b90 <main+0x204>
 8000b8e:	e13b      	b.n	8000e08 <main+0x47c>
 8000b90:	2210      	movs	r2, #16
 8000b92:	2100      	movs	r1, #0
 8000b94:	a810      	add	r0, sp, #64	; 0x40
 8000b96:	f004 fab9 	bl	800510c <memset>
 8000b9a:	2214      	movs	r2, #20
 8000b9c:	2100      	movs	r1, #0
 8000b9e:	a814      	add	r0, sp, #80	; 0x50
 8000ba0:	f004 fab4 	bl	800510c <memset>
 8000ba4:	2208      	movs	r2, #8
 8000ba6:	2100      	movs	r1, #0
 8000ba8:	a807      	add	r0, sp, #28
 8000baa:	f004 faaf 	bl	800510c <memset>
 8000bae:	221c      	movs	r2, #28
 8000bb0:	2100      	movs	r1, #0
 8000bb2:	a819      	add	r0, sp, #100	; 0x64
 8000bb4:	f004 faaa 	bl	800510c <memset>
 8000bb8:	2220      	movs	r2, #32
 8000bba:	2100      	movs	r1, #0
 8000bbc:	a820      	add	r0, sp, #128	; 0x80
 8000bbe:	f004 faa5 	bl	800510c <memset>
 8000bc2:	4c71      	ldr	r4, [pc, #452]	; (8000d88 <main+0x3fc>)
 8000bc4:	4b71      	ldr	r3, [pc, #452]	; (8000d8c <main+0x400>)
 8000bc6:	0020      	movs	r0, r4
 8000bc8:	6023      	str	r3, [r4, #0]
 8000bca:	2320      	movs	r3, #32
 8000bcc:	60a3      	str	r3, [r4, #8]
 8000bce:	4b70      	ldr	r3, [pc, #448]	; (8000d90 <main+0x404>)
 8000bd0:	6065      	str	r5, [r4, #4]
 8000bd2:	60e3      	str	r3, [r4, #12]
 8000bd4:	6125      	str	r5, [r4, #16]
 8000bd6:	6165      	str	r5, [r4, #20]
 8000bd8:	61a5      	str	r5, [r4, #24]
 8000bda:	f003 f8a5 	bl	8003d28 <HAL_TIM_Base_Init>
 8000bde:	2800      	cmp	r0, #0
 8000be0:	d000      	beq.n	8000be4 <main+0x258>
 8000be2:	e111      	b.n	8000e08 <main+0x47c>
 8000be4:	2380      	movs	r3, #128	; 0x80
 8000be6:	0020      	movs	r0, r4
 8000be8:	015b      	lsls	r3, r3, #5
 8000bea:	a910      	add	r1, sp, #64	; 0x40
 8000bec:	9310      	str	r3, [sp, #64]	; 0x40
 8000bee:	f002 fec1 	bl	8003974 <HAL_TIM_ConfigClockSource>
 8000bf2:	2800      	cmp	r0, #0
 8000bf4:	d000      	beq.n	8000bf8 <main+0x26c>
 8000bf6:	e107      	b.n	8000e08 <main+0x47c>
 8000bf8:	0020      	movs	r0, r4
 8000bfa:	f003 f8c1 	bl	8003d80 <HAL_TIM_PWM_Init>
 8000bfe:	2800      	cmp	r0, #0
 8000c00:	d000      	beq.n	8000c04 <main+0x278>
 8000c02:	e101      	b.n	8000e08 <main+0x47c>
 8000c04:	2305      	movs	r3, #5
 8000c06:	9314      	str	r3, [sp, #80]	; 0x50
 8000c08:	336b      	adds	r3, #107	; 0x6b
 8000c0a:	9315      	str	r3, [sp, #84]	; 0x54
 8000c0c:	2380      	movs	r3, #128	; 0x80
 8000c0e:	9017      	str	r0, [sp, #92]	; 0x5c
 8000c10:	021b      	lsls	r3, r3, #8
 8000c12:	9018      	str	r0, [sp, #96]	; 0x60
 8000c14:	a914      	add	r1, sp, #80	; 0x50
 8000c16:	0020      	movs	r0, r4
 8000c18:	9316      	str	r3, [sp, #88]	; 0x58
 8000c1a:	f002 ff63 	bl	8003ae4 <HAL_TIM_SlaveConfigSynchro>
 8000c1e:	2800      	cmp	r0, #0
 8000c20:	d000      	beq.n	8000c24 <main+0x298>
 8000c22:	e0f1      	b.n	8000e08 <main+0x47c>
 8000c24:	9007      	str	r0, [sp, #28]
 8000c26:	9008      	str	r0, [sp, #32]
 8000c28:	a907      	add	r1, sp, #28
 8000c2a:	0020      	movs	r0, r4
 8000c2c:	f003 f9c4 	bl	8003fb8 <HAL_TIMEx_MasterConfigSynchronization>
 8000c30:	2800      	cmp	r0, #0
 8000c32:	d000      	beq.n	8000c36 <main+0x2aa>
 8000c34:	e0e8      	b.n	8000e08 <main+0x47c>
 8000c36:	2360      	movs	r3, #96	; 0x60
 8000c38:	901a      	str	r0, [sp, #104]	; 0x68
 8000c3a:	901b      	str	r0, [sp, #108]	; 0x6c
 8000c3c:	901c      	str	r0, [sp, #112]	; 0x70
 8000c3e:	901d      	str	r0, [sp, #116]	; 0x74
 8000c40:	901e      	str	r0, [sp, #120]	; 0x78
 8000c42:	901f      	str	r0, [sp, #124]	; 0x7c
 8000c44:	2200      	movs	r2, #0
 8000c46:	0020      	movs	r0, r4
 8000c48:	a919      	add	r1, sp, #100	; 0x64
 8000c4a:	9319      	str	r3, [sp, #100]	; 0x64
 8000c4c:	f003 f900 	bl	8003e50 <HAL_TIM_PWM_ConfigChannel>
 8000c50:	2800      	cmp	r0, #0
 8000c52:	d000      	beq.n	8000c56 <main+0x2ca>
 8000c54:	e0d8      	b.n	8000e08 <main+0x47c>
 8000c56:	2204      	movs	r2, #4
 8000c58:	0020      	movs	r0, r4
 8000c5a:	a919      	add	r1, sp, #100	; 0x64
 8000c5c:	f003 f8f8 	bl	8003e50 <HAL_TIM_PWM_ConfigChannel>
 8000c60:	2800      	cmp	r0, #0
 8000c62:	d000      	beq.n	8000c66 <main+0x2da>
 8000c64:	e0d0      	b.n	8000e08 <main+0x47c>
 8000c66:	2208      	movs	r2, #8
 8000c68:	0020      	movs	r0, r4
 8000c6a:	a919      	add	r1, sp, #100	; 0x64
 8000c6c:	f003 f8f0 	bl	8003e50 <HAL_TIM_PWM_ConfigChannel>
 8000c70:	2800      	cmp	r0, #0
 8000c72:	d000      	beq.n	8000c76 <main+0x2ea>
 8000c74:	e0c8      	b.n	8000e08 <main+0x47c>
 8000c76:	2319      	movs	r3, #25
 8000c78:	9323      	str	r3, [sp, #140]	; 0x8c
 8000c7a:	2380      	movs	r3, #128	; 0x80
 8000c7c:	9020      	str	r0, [sp, #128]	; 0x80
 8000c7e:	9021      	str	r0, [sp, #132]	; 0x84
 8000c80:	9022      	str	r0, [sp, #136]	; 0x88
 8000c82:	9024      	str	r0, [sp, #144]	; 0x90
 8000c84:	019b      	lsls	r3, r3, #6
 8000c86:	9027      	str	r0, [sp, #156]	; 0x9c
 8000c88:	a920      	add	r1, sp, #128	; 0x80
 8000c8a:	0020      	movs	r0, r4
 8000c8c:	9325      	str	r3, [sp, #148]	; 0x94
 8000c8e:	f003 f9c1 	bl	8004014 <HAL_TIMEx_ConfigBreakDeadTime>
 8000c92:	2800      	cmp	r0, #0
 8000c94:	d000      	beq.n	8000c98 <main+0x30c>
 8000c96:	e0b7      	b.n	8000e08 <main+0x47c>
 8000c98:	0020      	movs	r0, r4
 8000c9a:	f002 fdd7 	bl	800384c <HAL_TIM_Base_Start_IT>
 8000c9e:	2200      	movs	r2, #0
 8000ca0:	2100      	movs	r1, #0
 8000ca2:	200d      	movs	r0, #13
 8000ca4:	f000 ff14 	bl	8001ad0 <HAL_NVIC_SetPriority>
 8000ca8:	200d      	movs	r0, #13
 8000caa:	f000 ff43 	bl	8001b34 <HAL_NVIC_EnableIRQ>
 8000cae:	0020      	movs	r0, r4
 8000cb0:	f000 f9fc 	bl	80010ac <HAL_TIM_MspPostInit>
 8000cb4:	4c37      	ldr	r4, [pc, #220]	; (8000d94 <main+0x408>)
 8000cb6:	4b38      	ldr	r3, [pc, #224]	; (8000d98 <main+0x40c>)
 8000cb8:	220c      	movs	r2, #12
 8000cba:	6023      	str	r3, [r4, #0]
 8000cbc:	4b37      	ldr	r3, [pc, #220]	; (8000d9c <main+0x410>)
 8000cbe:	0020      	movs	r0, r4
 8000cc0:	6063      	str	r3, [r4, #4]
 8000cc2:	2300      	movs	r3, #0
 8000cc4:	6162      	str	r2, [r4, #20]
 8000cc6:	60a3      	str	r3, [r4, #8]
 8000cc8:	60e3      	str	r3, [r4, #12]
 8000cca:	6123      	str	r3, [r4, #16]
 8000ccc:	61a3      	str	r3, [r4, #24]
 8000cce:	61e3      	str	r3, [r4, #28]
 8000cd0:	6223      	str	r3, [r4, #32]
 8000cd2:	6263      	str	r3, [r4, #36]	; 0x24
 8000cd4:	f003 ffbe 	bl	8004c54 <HAL_UART_Init>
 8000cd8:	1e06      	subs	r6, r0, #0
 8000cda:	d000      	beq.n	8000cde <main+0x352>
 8000cdc:	e094      	b.n	8000e08 <main+0x47c>
 8000cde:	2210      	movs	r2, #16
 8000ce0:	2100      	movs	r1, #0
 8000ce2:	a80c      	add	r0, sp, #48	; 0x30
 8000ce4:	f004 fa12 	bl	800510c <memset>
 8000ce8:	2208      	movs	r2, #8
 8000cea:	2100      	movs	r1, #0
 8000cec:	a805      	add	r0, sp, #20
 8000cee:	f004 fa0d 	bl	800510c <memset>
 8000cf2:	2380      	movs	r3, #128	; 0x80
 8000cf4:	4d2a      	ldr	r5, [pc, #168]	; (8000da0 <main+0x414>)
 8000cf6:	05db      	lsls	r3, r3, #23
 8000cf8:	602b      	str	r3, [r5, #0]
 8000cfa:	233f      	movs	r3, #63	; 0x3f
 8000cfc:	606b      	str	r3, [r5, #4]
 8000cfe:	4b29      	ldr	r3, [pc, #164]	; (8000da4 <main+0x418>)
 8000d00:	0028      	movs	r0, r5
 8000d02:	60ae      	str	r6, [r5, #8]
 8000d04:	60eb      	str	r3, [r5, #12]
 8000d06:	612e      	str	r6, [r5, #16]
 8000d08:	61ae      	str	r6, [r5, #24]
 8000d0a:	f003 f80d 	bl	8003d28 <HAL_TIM_Base_Init>
 8000d0e:	2800      	cmp	r0, #0
 8000d10:	d17a      	bne.n	8000e08 <main+0x47c>
 8000d12:	2380      	movs	r3, #128	; 0x80
 8000d14:	0028      	movs	r0, r5
 8000d16:	015b      	lsls	r3, r3, #5
 8000d18:	a90c      	add	r1, sp, #48	; 0x30
 8000d1a:	930c      	str	r3, [sp, #48]	; 0x30
 8000d1c:	f002 fe2a 	bl	8003974 <HAL_TIM_ConfigClockSource>
 8000d20:	2800      	cmp	r0, #0
 8000d22:	d171      	bne.n	8000e08 <main+0x47c>
 8000d24:	9005      	str	r0, [sp, #20]
 8000d26:	9006      	str	r0, [sp, #24]
 8000d28:	a905      	add	r1, sp, #20
 8000d2a:	0028      	movs	r0, r5
 8000d2c:	f003 f944 	bl	8003fb8 <HAL_TIMEx_MasterConfigSynchronization>
 8000d30:	2800      	cmp	r0, #0
 8000d32:	d169      	bne.n	8000e08 <main+0x47c>
 8000d34:	2280      	movs	r2, #128	; 0x80
 8000d36:	2105      	movs	r1, #5
 8000d38:	0112      	lsls	r2, r2, #4
 8000d3a:	0020      	movs	r0, r4
 8000d3c:	f003 ffbe 	bl	8004cbc <HAL_MultiProcessor_Init>
 8000d40:	2100      	movs	r1, #0
 8000d42:	0020      	movs	r0, r4
 8000d44:	f004 f886 	bl	8004e54 <HAL_MultiProcessorEx_AddressLength_Set>
 8000d48:	0020      	movs	r0, r4
 8000d4a:	f003 ffff 	bl	8004d4c <HAL_MultiProcessor_EnableMuteMode>
 8000d4e:	0020      	movs	r0, r4
 8000d50:	f003 fcc4 	bl	80046dc <HAL_MultiProcessor_EnterMuteMode>
 8000d54:	2200      	movs	r2, #0
 8000d56:	2180      	movs	r1, #128	; 0x80
 8000d58:	4803      	ldr	r0, [pc, #12]	; (8000d68 <main+0x3dc>)
 8000d5a:	f001 f917 	bl	8001f8c <HAL_GPIO_WritePin>
 8000d5e:	2200      	movs	r2, #0
 8000d60:	e022      	b.n	8000da8 <main+0x41c>
 8000d62:	46c0      	nop			; (mov r8, r8)
 8000d64:	40021000 	.word	0x40021000
 8000d68:	48001400 	.word	0x48001400
 8000d6c:	200001ac 	.word	0x200001ac
 8000d70:	40005400 	.word	0x40005400
 8000d74:	2000090e 	.word	0x2000090e
 8000d78:	200000e4 	.word	0x200000e4
 8000d7c:	40012400 	.word	0x40012400
 8000d80:	20000200 	.word	0x20000200
 8000d84:	40013000 	.word	0x40013000
 8000d88:	20000264 	.word	0x20000264
 8000d8c:	40012c00 	.word	0x40012c00
 8000d90:	0000063f 	.word	0x0000063f
 8000d94:	200002f4 	.word	0x200002f4
 8000d98:	40013800 	.word	0x40013800
 8000d9c:	000f4240 	.word	0x000f4240
 8000da0:	200002ac 	.word	0x200002ac
 8000da4:	000003e7 	.word	0x000003e7
 8000da8:	2140      	movs	r1, #64	; 0x40
 8000daa:	4818      	ldr	r0, [pc, #96]	; (8000e0c <main+0x480>)
 8000dac:	f001 f8ee 	bl	8001f8c <HAL_GPIO_WritePin>
 8000db0:	2090      	movs	r0, #144	; 0x90
 8000db2:	253d      	movs	r5, #61	; 0x3d
 8000db4:	2700      	movs	r7, #0
 8000db6:	2200      	movs	r2, #0
 8000db8:	2102      	movs	r1, #2
 8000dba:	05c0      	lsls	r0, r0, #23
 8000dbc:	f001 f8e6 	bl	8001f8c <HAL_GPIO_WritePin>
 8000dc0:	f7ff fa2e 	bl	8000220 <foc_startup>
 8000dc4:	4c12      	ldr	r4, [pc, #72]	; (8000e10 <main+0x484>)
 8000dc6:	263f      	movs	r6, #63	; 0x3f
 8000dc8:	f7ff faee 	bl	80003a8 <foc_loop>
 8000dcc:	5d63      	ldrb	r3, [r4, r5]
 8000dce:	2b00      	cmp	r3, #0
 8000dd0:	d0fa      	beq.n	8000dc8 <main+0x43c>
 8000dd2:	5567      	strb	r7, [r4, r5]
 8000dd4:	f7ff fcd4 	bl	8000780 <foc_slowloop>
 8000dd8:	5da3      	ldrb	r3, [r4, r6]
 8000dda:	3301      	adds	r3, #1
 8000ddc:	b2db      	uxtb	r3, r3
 8000dde:	55a3      	strb	r3, [r4, r6]
 8000de0:	2b63      	cmp	r3, #99	; 0x63
 8000de2:	d9f1      	bls.n	8000dc8 <main+0x43c>
 8000de4:	2364      	movs	r3, #100	; 0x64
 8000de6:	2200      	movs	r2, #0
 8000de8:	2180      	movs	r1, #128	; 0x80
 8000dea:	4808      	ldr	r0, [pc, #32]	; (8000e0c <main+0x480>)
 8000dec:	55a3      	strb	r3, [r4, r6]
 8000dee:	f001 f8cd 	bl	8001f8c <HAL_GPIO_WritePin>
 8000df2:	2200      	movs	r2, #0
 8000df4:	2140      	movs	r1, #64	; 0x40
 8000df6:	4805      	ldr	r0, [pc, #20]	; (8000e0c <main+0x480>)
 8000df8:	f001 f8c8 	bl	8001f8c <HAL_GPIO_WritePin>
 8000dfc:	2201      	movs	r2, #1
 8000dfe:	2101      	movs	r1, #1
 8000e00:	4802      	ldr	r0, [pc, #8]	; (8000e0c <main+0x480>)
 8000e02:	f001 f8c3 	bl	8001f8c <HAL_GPIO_WritePin>
 8000e06:	e7de      	b.n	8000dc6 <main+0x43a>
 8000e08:	f7ff fd68 	bl	80008dc <Error_Handler>
 8000e0c:	48001400 	.word	0x48001400
 8000e10:	2000037c 	.word	0x2000037c

08000e14 <HAL_MspInit>:
 8000e14:	2201      	movs	r2, #1
 8000e16:	4b0a      	ldr	r3, [pc, #40]	; (8000e40 <HAL_MspInit+0x2c>)
 8000e18:	b082      	sub	sp, #8
 8000e1a:	6999      	ldr	r1, [r3, #24]
 8000e1c:	4311      	orrs	r1, r2
 8000e1e:	6199      	str	r1, [r3, #24]
 8000e20:	6999      	ldr	r1, [r3, #24]
 8000e22:	400a      	ands	r2, r1
 8000e24:	2180      	movs	r1, #128	; 0x80
 8000e26:	9200      	str	r2, [sp, #0]
 8000e28:	9a00      	ldr	r2, [sp, #0]
 8000e2a:	69da      	ldr	r2, [r3, #28]
 8000e2c:	0549      	lsls	r1, r1, #21
 8000e2e:	430a      	orrs	r2, r1
 8000e30:	61da      	str	r2, [r3, #28]
 8000e32:	69db      	ldr	r3, [r3, #28]
 8000e34:	400b      	ands	r3, r1
 8000e36:	9301      	str	r3, [sp, #4]
 8000e38:	9b01      	ldr	r3, [sp, #4]
 8000e3a:	b002      	add	sp, #8
 8000e3c:	4770      	bx	lr
 8000e3e:	46c0      	nop			; (mov r8, r8)
 8000e40:	40021000 	.word	0x40021000

08000e44 <HAL_ADC_MspInit>:
 8000e44:	b570      	push	{r4, r5, r6, lr}
 8000e46:	0004      	movs	r4, r0
 8000e48:	b088      	sub	sp, #32
 8000e4a:	2214      	movs	r2, #20
 8000e4c:	2100      	movs	r1, #0
 8000e4e:	a803      	add	r0, sp, #12
 8000e50:	f004 f95c 	bl	800510c <memset>
 8000e54:	4b27      	ldr	r3, [pc, #156]	; (8000ef4 <HAL_ADC_MspInit+0xb0>)
 8000e56:	6822      	ldr	r2, [r4, #0]
 8000e58:	429a      	cmp	r2, r3
 8000e5a:	d001      	beq.n	8000e60 <HAL_ADC_MspInit+0x1c>
 8000e5c:	b008      	add	sp, #32
 8000e5e:	bd70      	pop	{r4, r5, r6, pc}
 8000e60:	2180      	movs	r1, #128	; 0x80
 8000e62:	4b25      	ldr	r3, [pc, #148]	; (8000ef8 <HAL_ADC_MspInit+0xb4>)
 8000e64:	0089      	lsls	r1, r1, #2
 8000e66:	699a      	ldr	r2, [r3, #24]
 8000e68:	2090      	movs	r0, #144	; 0x90
 8000e6a:	430a      	orrs	r2, r1
 8000e6c:	619a      	str	r2, [r3, #24]
 8000e6e:	699a      	ldr	r2, [r3, #24]
 8000e70:	2503      	movs	r5, #3
 8000e72:	400a      	ands	r2, r1
 8000e74:	2180      	movs	r1, #128	; 0x80
 8000e76:	9200      	str	r2, [sp, #0]
 8000e78:	9a00      	ldr	r2, [sp, #0]
 8000e7a:	695a      	ldr	r2, [r3, #20]
 8000e7c:	0289      	lsls	r1, r1, #10
 8000e7e:	430a      	orrs	r2, r1
 8000e80:	615a      	str	r2, [r3, #20]
 8000e82:	695a      	ldr	r2, [r3, #20]
 8000e84:	05c0      	lsls	r0, r0, #23
 8000e86:	400a      	ands	r2, r1
 8000e88:	2180      	movs	r1, #128	; 0x80
 8000e8a:	9201      	str	r2, [sp, #4]
 8000e8c:	9a01      	ldr	r2, [sp, #4]
 8000e8e:	695a      	ldr	r2, [r3, #20]
 8000e90:	02c9      	lsls	r1, r1, #11
 8000e92:	430a      	orrs	r2, r1
 8000e94:	615a      	str	r2, [r3, #20]
 8000e96:	695b      	ldr	r3, [r3, #20]
 8000e98:	2600      	movs	r6, #0
 8000e9a:	400b      	ands	r3, r1
 8000e9c:	9302      	str	r3, [sp, #8]
 8000e9e:	9b02      	ldr	r3, [sp, #8]
 8000ea0:	2319      	movs	r3, #25
 8000ea2:	a903      	add	r1, sp, #12
 8000ea4:	9303      	str	r3, [sp, #12]
 8000ea6:	9504      	str	r5, [sp, #16]
 8000ea8:	f000 ff72 	bl	8001d90 <HAL_GPIO_Init>
 8000eac:	2302      	movs	r3, #2
 8000eae:	4813      	ldr	r0, [pc, #76]	; (8000efc <HAL_ADC_MspInit+0xb8>)
 8000eb0:	a903      	add	r1, sp, #12
 8000eb2:	9303      	str	r3, [sp, #12]
 8000eb4:	9504      	str	r5, [sp, #16]
 8000eb6:	9605      	str	r6, [sp, #20]
 8000eb8:	f000 ff6a 	bl	8001d90 <HAL_GPIO_Init>
 8000ebc:	4d10      	ldr	r5, [pc, #64]	; (8000f00 <HAL_ADC_MspInit+0xbc>)
 8000ebe:	4b11      	ldr	r3, [pc, #68]	; (8000f04 <HAL_ADC_MspInit+0xc0>)
 8000ec0:	0028      	movs	r0, r5
 8000ec2:	602b      	str	r3, [r5, #0]
 8000ec4:	2380      	movs	r3, #128	; 0x80
 8000ec6:	60eb      	str	r3, [r5, #12]
 8000ec8:	3380      	adds	r3, #128	; 0x80
 8000eca:	612b      	str	r3, [r5, #16]
 8000ecc:	2380      	movs	r3, #128	; 0x80
 8000ece:	00db      	lsls	r3, r3, #3
 8000ed0:	616b      	str	r3, [r5, #20]
 8000ed2:	2320      	movs	r3, #32
 8000ed4:	61ab      	str	r3, [r5, #24]
 8000ed6:	2380      	movs	r3, #128	; 0x80
 8000ed8:	015b      	lsls	r3, r3, #5
 8000eda:	606e      	str	r6, [r5, #4]
 8000edc:	60ae      	str	r6, [r5, #8]
 8000ede:	61eb      	str	r3, [r5, #28]
 8000ee0:	f000 fe4e 	bl	8001b80 <HAL_DMA_Init>
 8000ee4:	2800      	cmp	r0, #0
 8000ee6:	d102      	bne.n	8000eee <HAL_ADC_MspInit+0xaa>
 8000ee8:	6325      	str	r5, [r4, #48]	; 0x30
 8000eea:	626c      	str	r4, [r5, #36]	; 0x24
 8000eec:	e7b6      	b.n	8000e5c <HAL_ADC_MspInit+0x18>
 8000eee:	f7ff fcf5 	bl	80008dc <Error_Handler>
 8000ef2:	e7f9      	b.n	8000ee8 <HAL_ADC_MspInit+0xa4>
 8000ef4:	40012400 	.word	0x40012400
 8000ef8:	40021000 	.word	0x40021000
 8000efc:	48000400 	.word	0x48000400
 8000f00:	20000124 	.word	0x20000124
 8000f04:	40020008 	.word	0x40020008

08000f08 <HAL_I2C_MspInit>:
 8000f08:	b510      	push	{r4, lr}
 8000f0a:	0004      	movs	r4, r0
 8000f0c:	b088      	sub	sp, #32
 8000f0e:	2214      	movs	r2, #20
 8000f10:	2100      	movs	r1, #0
 8000f12:	a803      	add	r0, sp, #12
 8000f14:	f004 f8fa 	bl	800510c <memset>
 8000f18:	4b16      	ldr	r3, [pc, #88]	; (8000f74 <HAL_I2C_MspInit+0x6c>)
 8000f1a:	6822      	ldr	r2, [r4, #0]
 8000f1c:	429a      	cmp	r2, r3
 8000f1e:	d001      	beq.n	8000f24 <HAL_I2C_MspInit+0x1c>
 8000f20:	b008      	add	sp, #32
 8000f22:	bd10      	pop	{r4, pc}
 8000f24:	2280      	movs	r2, #128	; 0x80
 8000f26:	4c14      	ldr	r4, [pc, #80]	; (8000f78 <HAL_I2C_MspInit+0x70>)
 8000f28:	02d2      	lsls	r2, r2, #11
 8000f2a:	6963      	ldr	r3, [r4, #20]
 8000f2c:	a903      	add	r1, sp, #12
 8000f2e:	4313      	orrs	r3, r2
 8000f30:	6163      	str	r3, [r4, #20]
 8000f32:	6963      	ldr	r3, [r4, #20]
 8000f34:	4811      	ldr	r0, [pc, #68]	; (8000f7c <HAL_I2C_MspInit+0x74>)
 8000f36:	4013      	ands	r3, r2
 8000f38:	9301      	str	r3, [sp, #4]
 8000f3a:	9b01      	ldr	r3, [sp, #4]
 8000f3c:	23c0      	movs	r3, #192	; 0xc0
 8000f3e:	9303      	str	r3, [sp, #12]
 8000f40:	3bae      	subs	r3, #174	; 0xae
 8000f42:	9304      	str	r3, [sp, #16]
 8000f44:	3b0f      	subs	r3, #15
 8000f46:	9306      	str	r3, [sp, #24]
 8000f48:	3b02      	subs	r3, #2
 8000f4a:	9307      	str	r3, [sp, #28]
 8000f4c:	f000 ff20 	bl	8001d90 <HAL_GPIO_Init>
 8000f50:	2280      	movs	r2, #128	; 0x80
 8000f52:	69e3      	ldr	r3, [r4, #28]
 8000f54:	0392      	lsls	r2, r2, #14
 8000f56:	4313      	orrs	r3, r2
 8000f58:	61e3      	str	r3, [r4, #28]
 8000f5a:	69e3      	ldr	r3, [r4, #28]
 8000f5c:	2100      	movs	r1, #0
 8000f5e:	4013      	ands	r3, r2
 8000f60:	9302      	str	r3, [sp, #8]
 8000f62:	2200      	movs	r2, #0
 8000f64:	2017      	movs	r0, #23
 8000f66:	9b02      	ldr	r3, [sp, #8]
 8000f68:	f000 fdb2 	bl	8001ad0 <HAL_NVIC_SetPriority>
 8000f6c:	2017      	movs	r0, #23
 8000f6e:	f000 fde1 	bl	8001b34 <HAL_NVIC_EnableIRQ>
 8000f72:	e7d5      	b.n	8000f20 <HAL_I2C_MspInit+0x18>
 8000f74:	40005400 	.word	0x40005400
 8000f78:	40021000 	.word	0x40021000
 8000f7c:	48000400 	.word	0x48000400

08000f80 <HAL_SPI_MspInit>:
 8000f80:	b510      	push	{r4, lr}
 8000f82:	0004      	movs	r4, r0
 8000f84:	b088      	sub	sp, #32
 8000f86:	2214      	movs	r2, #20
 8000f88:	2100      	movs	r1, #0
 8000f8a:	a803      	add	r0, sp, #12
 8000f8c:	f004 f8be 	bl	800510c <memset>
 8000f90:	4b16      	ldr	r3, [pc, #88]	; (8000fec <HAL_SPI_MspInit+0x6c>)
 8000f92:	6822      	ldr	r2, [r4, #0]
 8000f94:	429a      	cmp	r2, r3
 8000f96:	d001      	beq.n	8000f9c <HAL_SPI_MspInit+0x1c>
 8000f98:	b008      	add	sp, #32
 8000f9a:	bd10      	pop	{r4, pc}
 8000f9c:	2180      	movs	r1, #128	; 0x80
 8000f9e:	4b14      	ldr	r3, [pc, #80]	; (8000ff0 <HAL_SPI_MspInit+0x70>)
 8000fa0:	0149      	lsls	r1, r1, #5
 8000fa2:	699a      	ldr	r2, [r3, #24]
 8000fa4:	2090      	movs	r0, #144	; 0x90
 8000fa6:	430a      	orrs	r2, r1
 8000fa8:	619a      	str	r2, [r3, #24]
 8000faa:	699a      	ldr	r2, [r3, #24]
 8000fac:	05c0      	lsls	r0, r0, #23
 8000fae:	400a      	ands	r2, r1
 8000fb0:	2180      	movs	r1, #128	; 0x80
 8000fb2:	9201      	str	r2, [sp, #4]
 8000fb4:	9a01      	ldr	r2, [sp, #4]
 8000fb6:	695a      	ldr	r2, [r3, #20]
 8000fb8:	0289      	lsls	r1, r1, #10
 8000fba:	430a      	orrs	r2, r1
 8000fbc:	615a      	str	r2, [r3, #20]
 8000fbe:	695b      	ldr	r3, [r3, #20]
 8000fc0:	400b      	ands	r3, r1
 8000fc2:	9302      	str	r3, [sp, #8]
 8000fc4:	9b02      	ldr	r3, [sp, #8]
 8000fc6:	23e0      	movs	r3, #224	; 0xe0
 8000fc8:	9303      	str	r3, [sp, #12]
 8000fca:	3bde      	subs	r3, #222	; 0xde
 8000fcc:	9304      	str	r3, [sp, #16]
 8000fce:	a903      	add	r1, sp, #12
 8000fd0:	3301      	adds	r3, #1
 8000fd2:	9306      	str	r3, [sp, #24]
 8000fd4:	f000 fedc 	bl	8001d90 <HAL_GPIO_Init>
 8000fd8:	2200      	movs	r2, #0
 8000fda:	2100      	movs	r1, #0
 8000fdc:	2019      	movs	r0, #25
 8000fde:	f000 fd77 	bl	8001ad0 <HAL_NVIC_SetPriority>
 8000fe2:	2019      	movs	r0, #25
 8000fe4:	f000 fda6 	bl	8001b34 <HAL_NVIC_EnableIRQ>
 8000fe8:	e7d6      	b.n	8000f98 <HAL_SPI_MspInit+0x18>
 8000fea:	46c0      	nop			; (mov r8, r8)
 8000fec:	40013000 	.word	0x40013000
 8000ff0:	40021000 	.word	0x40021000

08000ff4 <HAL_TIM_Base_MspInit>:
 8000ff4:	b530      	push	{r4, r5, lr}
 8000ff6:	0004      	movs	r4, r0
 8000ff8:	b08b      	sub	sp, #44	; 0x2c
 8000ffa:	2214      	movs	r2, #20
 8000ffc:	2100      	movs	r1, #0
 8000ffe:	a805      	add	r0, sp, #20
 8001000:	f004 f884 	bl	800510c <memset>
 8001004:	6823      	ldr	r3, [r4, #0]
 8001006:	4a26      	ldr	r2, [pc, #152]	; (80010a0 <HAL_TIM_Base_MspInit+0xac>)
 8001008:	4293      	cmp	r3, r2
 800100a:	d005      	beq.n	8001018 <HAL_TIM_Base_MspInit+0x24>
 800100c:	2280      	movs	r2, #128	; 0x80
 800100e:	05d2      	lsls	r2, r2, #23
 8001010:	4293      	cmp	r3, r2
 8001012:	d033      	beq.n	800107c <HAL_TIM_Base_MspInit+0x88>
 8001014:	b00b      	add	sp, #44	; 0x2c
 8001016:	bd30      	pop	{r4, r5, pc}
 8001018:	2180      	movs	r1, #128	; 0x80
 800101a:	4b22      	ldr	r3, [pc, #136]	; (80010a4 <HAL_TIM_Base_MspInit+0xb0>)
 800101c:	0109      	lsls	r1, r1, #4
 800101e:	699a      	ldr	r2, [r3, #24]
 8001020:	2580      	movs	r5, #128	; 0x80
 8001022:	430a      	orrs	r2, r1
 8001024:	619a      	str	r2, [r3, #24]
 8001026:	699a      	ldr	r2, [r3, #24]
 8001028:	2402      	movs	r4, #2
 800102a:	400a      	ands	r2, r1
 800102c:	2180      	movs	r1, #128	; 0x80
 800102e:	9201      	str	r2, [sp, #4]
 8001030:	9a01      	ldr	r2, [sp, #4]
 8001032:	695a      	ldr	r2, [r3, #20]
 8001034:	02c9      	lsls	r1, r1, #11
 8001036:	430a      	orrs	r2, r1
 8001038:	615a      	str	r2, [r3, #20]
 800103a:	695a      	ldr	r2, [r3, #20]
 800103c:	016d      	lsls	r5, r5, #5
 800103e:	400a      	ands	r2, r1
 8001040:	2180      	movs	r1, #128	; 0x80
 8001042:	9202      	str	r2, [sp, #8]
 8001044:	9a02      	ldr	r2, [sp, #8]
 8001046:	695a      	ldr	r2, [r3, #20]
 8001048:	0289      	lsls	r1, r1, #10
 800104a:	430a      	orrs	r2, r1
 800104c:	615a      	str	r2, [r3, #20]
 800104e:	695b      	ldr	r3, [r3, #20]
 8001050:	4815      	ldr	r0, [pc, #84]	; (80010a8 <HAL_TIM_Base_MspInit+0xb4>)
 8001052:	400b      	ands	r3, r1
 8001054:	9303      	str	r3, [sp, #12]
 8001056:	a905      	add	r1, sp, #20
 8001058:	9b03      	ldr	r3, [sp, #12]
 800105a:	9505      	str	r5, [sp, #20]
 800105c:	9406      	str	r4, [sp, #24]
 800105e:	9409      	str	r4, [sp, #36]	; 0x24
 8001060:	f000 fe96 	bl	8001d90 <HAL_GPIO_Init>
 8001064:	2090      	movs	r0, #144	; 0x90
 8001066:	2300      	movs	r3, #0
 8001068:	a905      	add	r1, sp, #20
 800106a:	05c0      	lsls	r0, r0, #23
 800106c:	9505      	str	r5, [sp, #20]
 800106e:	9406      	str	r4, [sp, #24]
 8001070:	9307      	str	r3, [sp, #28]
 8001072:	9308      	str	r3, [sp, #32]
 8001074:	9409      	str	r4, [sp, #36]	; 0x24
 8001076:	f000 fe8b 	bl	8001d90 <HAL_GPIO_Init>
 800107a:	e7cb      	b.n	8001014 <HAL_TIM_Base_MspInit+0x20>
 800107c:	2301      	movs	r3, #1
 800107e:	4a09      	ldr	r2, [pc, #36]	; (80010a4 <HAL_TIM_Base_MspInit+0xb0>)
 8001080:	200f      	movs	r0, #15
 8001082:	69d1      	ldr	r1, [r2, #28]
 8001084:	4319      	orrs	r1, r3
 8001086:	61d1      	str	r1, [r2, #28]
 8001088:	69d2      	ldr	r2, [r2, #28]
 800108a:	2100      	movs	r1, #0
 800108c:	4013      	ands	r3, r2
 800108e:	9304      	str	r3, [sp, #16]
 8001090:	2200      	movs	r2, #0
 8001092:	9b04      	ldr	r3, [sp, #16]
 8001094:	f000 fd1c 	bl	8001ad0 <HAL_NVIC_SetPriority>
 8001098:	200f      	movs	r0, #15
 800109a:	f000 fd4b 	bl	8001b34 <HAL_NVIC_EnableIRQ>
 800109e:	e7b9      	b.n	8001014 <HAL_TIM_Base_MspInit+0x20>
 80010a0:	40012c00 	.word	0x40012c00
 80010a4:	40021000 	.word	0x40021000
 80010a8:	48000400 	.word	0x48000400

080010ac <HAL_TIM_MspPostInit>:
 80010ac:	b510      	push	{r4, lr}
 80010ae:	0004      	movs	r4, r0
 80010b0:	b088      	sub	sp, #32
 80010b2:	2214      	movs	r2, #20
 80010b4:	2100      	movs	r1, #0
 80010b6:	a803      	add	r0, sp, #12
 80010b8:	f004 f828 	bl	800510c <memset>
 80010bc:	4b18      	ldr	r3, [pc, #96]	; (8001120 <HAL_TIM_MspPostInit+0x74>)
 80010be:	6822      	ldr	r2, [r4, #0]
 80010c0:	429a      	cmp	r2, r3
 80010c2:	d001      	beq.n	80010c8 <HAL_TIM_MspPostInit+0x1c>
 80010c4:	b008      	add	sp, #32
 80010c6:	bd10      	pop	{r4, pc}
 80010c8:	2180      	movs	r1, #128	; 0x80
 80010ca:	4b16      	ldr	r3, [pc, #88]	; (8001124 <HAL_TIM_MspPostInit+0x78>)
 80010cc:	02c9      	lsls	r1, r1, #11
 80010ce:	695a      	ldr	r2, [r3, #20]
 80010d0:	2402      	movs	r4, #2
 80010d2:	430a      	orrs	r2, r1
 80010d4:	615a      	str	r2, [r3, #20]
 80010d6:	695a      	ldr	r2, [r3, #20]
 80010d8:	4813      	ldr	r0, [pc, #76]	; (8001128 <HAL_TIM_MspPostInit+0x7c>)
 80010da:	400a      	ands	r2, r1
 80010dc:	2180      	movs	r1, #128	; 0x80
 80010de:	9201      	str	r2, [sp, #4]
 80010e0:	9a01      	ldr	r2, [sp, #4]
 80010e2:	695a      	ldr	r2, [r3, #20]
 80010e4:	0289      	lsls	r1, r1, #10
 80010e6:	430a      	orrs	r2, r1
 80010e8:	615a      	str	r2, [r3, #20]
 80010ea:	695b      	ldr	r3, [r3, #20]
 80010ec:	9404      	str	r4, [sp, #16]
 80010ee:	400b      	ands	r3, r1
 80010f0:	9302      	str	r3, [sp, #8]
 80010f2:	9b02      	ldr	r3, [sp, #8]
 80010f4:	23e0      	movs	r3, #224	; 0xe0
 80010f6:	a903      	add	r1, sp, #12
 80010f8:	021b      	lsls	r3, r3, #8
 80010fa:	9303      	str	r3, [sp, #12]
 80010fc:	9407      	str	r4, [sp, #28]
 80010fe:	f000 fe47 	bl	8001d90 <HAL_GPIO_Init>
 8001102:	23e0      	movs	r3, #224	; 0xe0
 8001104:	2090      	movs	r0, #144	; 0x90
 8001106:	00db      	lsls	r3, r3, #3
 8001108:	9303      	str	r3, [sp, #12]
 800110a:	2300      	movs	r3, #0
 800110c:	a903      	add	r1, sp, #12
 800110e:	05c0      	lsls	r0, r0, #23
 8001110:	9404      	str	r4, [sp, #16]
 8001112:	9305      	str	r3, [sp, #20]
 8001114:	9306      	str	r3, [sp, #24]
 8001116:	9407      	str	r4, [sp, #28]
 8001118:	f000 fe3a 	bl	8001d90 <HAL_GPIO_Init>
 800111c:	e7d2      	b.n	80010c4 <HAL_TIM_MspPostInit+0x18>
 800111e:	46c0      	nop			; (mov r8, r8)
 8001120:	40012c00 	.word	0x40012c00
 8001124:	40021000 	.word	0x40021000
 8001128:	48000400 	.word	0x48000400

0800112c <HAL_UART_MspInit>:
 800112c:	b530      	push	{r4, r5, lr}
 800112e:	0004      	movs	r4, r0
 8001130:	b089      	sub	sp, #36	; 0x24
 8001132:	2214      	movs	r2, #20
 8001134:	2100      	movs	r1, #0
 8001136:	a803      	add	r0, sp, #12
 8001138:	f003 ffe8 	bl	800510c <memset>
 800113c:	4b26      	ldr	r3, [pc, #152]	; (80011d8 <HAL_UART_MspInit+0xac>)
 800113e:	6822      	ldr	r2, [r4, #0]
 8001140:	429a      	cmp	r2, r3
 8001142:	d001      	beq.n	8001148 <HAL_UART_MspInit+0x1c>
 8001144:	b009      	add	sp, #36	; 0x24
 8001146:	bd30      	pop	{r4, r5, pc}
 8001148:	2180      	movs	r1, #128	; 0x80
 800114a:	4b24      	ldr	r3, [pc, #144]	; (80011dc <HAL_UART_MspInit+0xb0>)
 800114c:	01c9      	lsls	r1, r1, #7
 800114e:	699a      	ldr	r2, [r3, #24]
 8001150:	2090      	movs	r0, #144	; 0x90
 8001152:	430a      	orrs	r2, r1
 8001154:	619a      	str	r2, [r3, #24]
 8001156:	699a      	ldr	r2, [r3, #24]
 8001158:	05c0      	lsls	r0, r0, #23
 800115a:	400a      	ands	r2, r1
 800115c:	2180      	movs	r1, #128	; 0x80
 800115e:	9201      	str	r2, [sp, #4]
 8001160:	9a01      	ldr	r2, [sp, #4]
 8001162:	695a      	ldr	r2, [r3, #20]
 8001164:	0289      	lsls	r1, r1, #10
 8001166:	430a      	orrs	r2, r1
 8001168:	615a      	str	r2, [r3, #20]
 800116a:	695b      	ldr	r3, [r3, #20]
 800116c:	2203      	movs	r2, #3
 800116e:	400b      	ands	r3, r1
 8001170:	9302      	str	r3, [sp, #8]
 8001172:	9b02      	ldr	r3, [sp, #8]
 8001174:	4b1a      	ldr	r3, [pc, #104]	; (80011e0 <HAL_UART_MspInit+0xb4>)
 8001176:	a903      	add	r1, sp, #12
 8001178:	9303      	str	r3, [sp, #12]
 800117a:	2302      	movs	r3, #2
 800117c:	9304      	str	r3, [sp, #16]
 800117e:	3b01      	subs	r3, #1
 8001180:	9305      	str	r3, [sp, #20]
 8001182:	9206      	str	r2, [sp, #24]
 8001184:	9307      	str	r3, [sp, #28]
 8001186:	f000 fe03 	bl	8001d90 <HAL_GPIO_Init>
 800118a:	4d16      	ldr	r5, [pc, #88]	; (80011e4 <HAL_UART_MspInit+0xb8>)
 800118c:	4b16      	ldr	r3, [pc, #88]	; (80011e8 <HAL_UART_MspInit+0xbc>)
 800118e:	2280      	movs	r2, #128	; 0x80
 8001190:	602b      	str	r3, [r5, #0]
 8001192:	2310      	movs	r3, #16
 8001194:	606b      	str	r3, [r5, #4]
 8001196:	2300      	movs	r3, #0
 8001198:	0028      	movs	r0, r5
 800119a:	60ab      	str	r3, [r5, #8]
 800119c:	60ea      	str	r2, [r5, #12]
 800119e:	612b      	str	r3, [r5, #16]
 80011a0:	616b      	str	r3, [r5, #20]
 80011a2:	61ab      	str	r3, [r5, #24]
 80011a4:	61eb      	str	r3, [r5, #28]
 80011a6:	f000 fceb 	bl	8001b80 <HAL_DMA_Init>
 80011aa:	2800      	cmp	r0, #0
 80011ac:	d110      	bne.n	80011d0 <HAL_UART_MspInit+0xa4>
 80011ae:	2380      	movs	r3, #128	; 0x80
 80011b0:	4a0e      	ldr	r2, [pc, #56]	; (80011ec <HAL_UART_MspInit+0xc0>)
 80011b2:	009b      	lsls	r3, r3, #2
 80011b4:	6811      	ldr	r1, [r2, #0]
 80011b6:	201b      	movs	r0, #27
 80011b8:	430b      	orrs	r3, r1
 80011ba:	6013      	str	r3, [r2, #0]
 80011bc:	2100      	movs	r1, #0
 80011be:	2200      	movs	r2, #0
 80011c0:	6725      	str	r5, [r4, #112]	; 0x70
 80011c2:	626c      	str	r4, [r5, #36]	; 0x24
 80011c4:	f000 fc84 	bl	8001ad0 <HAL_NVIC_SetPriority>
 80011c8:	201b      	movs	r0, #27
 80011ca:	f000 fcb3 	bl	8001b34 <HAL_NVIC_EnableIRQ>
 80011ce:	e7b9      	b.n	8001144 <HAL_UART_MspInit+0x18>
 80011d0:	f7ff fb84 	bl	80008dc <Error_Handler>
 80011d4:	e7eb      	b.n	80011ae <HAL_UART_MspInit+0x82>
 80011d6:	46c0      	nop			; (mov r8, r8)
 80011d8:	40013800 	.word	0x40013800
 80011dc:	40021000 	.word	0x40021000
 80011e0:	00008004 	.word	0x00008004
 80011e4:	20000168 	.word	0x20000168
 80011e8:	40020044 	.word	0x40020044
 80011ec:	40010000 	.word	0x40010000

080011f0 <NMI_Handler>:
 80011f0:	e7fe      	b.n	80011f0 <NMI_Handler>
 80011f2:	46c0      	nop			; (mov r8, r8)

080011f4 <HardFault_Handler>:
 80011f4:	e7fe      	b.n	80011f4 <HardFault_Handler>
 80011f6:	46c0      	nop			; (mov r8, r8)

080011f8 <SVC_Handler>:
 80011f8:	4770      	bx	lr
 80011fa:	46c0      	nop			; (mov r8, r8)

080011fc <PendSV_Handler>:
 80011fc:	4770      	bx	lr
 80011fe:	46c0      	nop			; (mov r8, r8)

08001200 <SysTick_Handler>:
 8001200:	b510      	push	{r4, lr}
 8001202:	f000 f921 	bl	8001448 <HAL_IncTick>
 8001206:	bd10      	pop	{r4, pc}

08001208 <DMA1_Channel1_IRQHandler>:
 8001208:	b510      	push	{r4, lr}
 800120a:	4802      	ldr	r0, [pc, #8]	; (8001214 <DMA1_Channel1_IRQHandler+0xc>)
 800120c:	f000 fd6e 	bl	8001cec <HAL_DMA_IRQHandler>
 8001210:	bd10      	pop	{r4, pc}
 8001212:	46c0      	nop			; (mov r8, r8)
 8001214:	20000124 	.word	0x20000124

08001218 <DMA1_Channel4_5_IRQHandler>:
 8001218:	b510      	push	{r4, lr}
 800121a:	4802      	ldr	r0, [pc, #8]	; (8001224 <DMA1_Channel4_5_IRQHandler+0xc>)
 800121c:	f000 fd66 	bl	8001cec <HAL_DMA_IRQHandler>
 8001220:	bd10      	pop	{r4, pc}
 8001222:	46c0      	nop			; (mov r8, r8)
 8001224:	20000168 	.word	0x20000168

08001228 <TIM1_BRK_UP_TRG_COM_IRQHandler>:
 8001228:	b510      	push	{r4, lr}
 800122a:	2206      	movs	r2, #6
 800122c:	4903      	ldr	r1, [pc, #12]	; (800123c <TIM1_BRK_UP_TRG_COM_IRQHandler+0x14>)
 800122e:	4804      	ldr	r0, [pc, #16]	; (8001240 <TIM1_BRK_UP_TRG_COM_IRQHandler+0x18>)
 8001230:	f000 fac6 	bl	80017c0 <HAL_ADC_Start_DMA>
 8001234:	4803      	ldr	r0, [pc, #12]	; (8001244 <TIM1_BRK_UP_TRG_COM_IRQHandler+0x1c>)
 8001236:	f002 fc81 	bl	8003b3c <HAL_TIM_IRQHandler>
 800123a:	bd10      	pop	{r4, pc}
 800123c:	200003a8 	.word	0x200003a8
 8001240:	200000e4 	.word	0x200000e4
 8001244:	20000264 	.word	0x20000264

08001248 <TIM2_IRQHandler>:
 8001248:	b510      	push	{r4, lr}
 800124a:	4802      	ldr	r0, [pc, #8]	; (8001254 <TIM2_IRQHandler+0xc>)
 800124c:	f002 fc76 	bl	8003b3c <HAL_TIM_IRQHandler>
 8001250:	bd10      	pop	{r4, pc}
 8001252:	46c0      	nop			; (mov r8, r8)
 8001254:	200002ac 	.word	0x200002ac

08001258 <I2C1_IRQHandler>:
 8001258:	4806      	ldr	r0, [pc, #24]	; (8001274 <I2C1_IRQHandler+0x1c>)
 800125a:	b510      	push	{r4, lr}
 800125c:	6803      	ldr	r3, [r0, #0]
 800125e:	699a      	ldr	r2, [r3, #24]
 8001260:	23e0      	movs	r3, #224	; 0xe0
 8001262:	00db      	lsls	r3, r3, #3
 8001264:	421a      	tst	r2, r3
 8001266:	d002      	beq.n	800126e <I2C1_IRQHandler+0x16>
 8001268:	f001 f8a4 	bl	80023b4 <HAL_I2C_ER_IRQHandler>
 800126c:	bd10      	pop	{r4, pc}
 800126e:	f000 feed 	bl	800204c <HAL_I2C_EV_IRQHandler>
 8001272:	e7fb      	b.n	800126c <I2C1_IRQHandler+0x14>
 8001274:	200001ac 	.word	0x200001ac

08001278 <SPI1_IRQHandler>:
 8001278:	b510      	push	{r4, lr}
 800127a:	4802      	ldr	r0, [pc, #8]	; (8001284 <SPI1_IRQHandler+0xc>)
 800127c:	f002 f912 	bl	80034a4 <HAL_SPI_IRQHandler>
 8001280:	bd10      	pop	{r4, pc}
 8001282:	46c0      	nop			; (mov r8, r8)
 8001284:	20000200 	.word	0x20000200

08001288 <USART1_IRQHandler>:
 8001288:	b510      	push	{r4, lr}
 800128a:	4802      	ldr	r0, [pc, #8]	; (8001294 <USART1_IRQHandler+0xc>)
 800128c:	f002 ffe4 	bl	8004258 <HAL_UART_IRQHandler>
 8001290:	bd10      	pop	{r4, pc}
 8001292:	46c0      	nop			; (mov r8, r8)
 8001294:	200002f4 	.word	0x200002f4

08001298 <_read>:
 8001298:	b570      	push	{r4, r5, r6, lr}
 800129a:	1e16      	subs	r6, r2, #0
 800129c:	dd07      	ble.n	80012ae <_read+0x16>
 800129e:	000c      	movs	r4, r1
 80012a0:	188d      	adds	r5, r1, r2
 80012a2:	e000      	b.n	80012a6 <_read+0xe>
 80012a4:	bf00      	nop
 80012a6:	7020      	strb	r0, [r4, #0]
 80012a8:	3401      	adds	r4, #1
 80012aa:	42ac      	cmp	r4, r5
 80012ac:	d1f9      	bne.n	80012a2 <_read+0xa>
 80012ae:	0030      	movs	r0, r6
 80012b0:	bd70      	pop	{r4, r5, r6, pc}
 80012b2:	46c0      	nop			; (mov r8, r8)

080012b4 <_write>:
 80012b4:	b570      	push	{r4, r5, r6, lr}
 80012b6:	1e16      	subs	r6, r2, #0
 80012b8:	dd07      	ble.n	80012ca <_write+0x16>
 80012ba:	000c      	movs	r4, r1
 80012bc:	188d      	adds	r5, r1, r2
 80012be:	7820      	ldrb	r0, [r4, #0]
 80012c0:	3401      	adds	r4, #1
 80012c2:	f7ff fa83 	bl	80007cc <__io_putchar>
 80012c6:	42ac      	cmp	r4, r5
 80012c8:	d1f9      	bne.n	80012be <_write+0xa>
 80012ca:	0030      	movs	r0, r6
 80012cc:	bd70      	pop	{r4, r5, r6, pc}
 80012ce:	46c0      	nop			; (mov r8, r8)

080012d0 <_close>:
 80012d0:	2001      	movs	r0, #1
 80012d2:	4240      	negs	r0, r0
 80012d4:	4770      	bx	lr
 80012d6:	46c0      	nop			; (mov r8, r8)

080012d8 <_fstat>:
 80012d8:	2380      	movs	r3, #128	; 0x80
 80012da:	019b      	lsls	r3, r3, #6
 80012dc:	2000      	movs	r0, #0
 80012de:	604b      	str	r3, [r1, #4]
 80012e0:	4770      	bx	lr
 80012e2:	46c0      	nop			; (mov r8, r8)

080012e4 <_isatty>:
 80012e4:	2001      	movs	r0, #1
 80012e6:	4770      	bx	lr

080012e8 <_lseek>:
 80012e8:	2000      	movs	r0, #0
 80012ea:	4770      	bx	lr

080012ec <_sbrk>:
 80012ec:	490c      	ldr	r1, [pc, #48]	; (8001320 <_sbrk+0x34>)
 80012ee:	4a0d      	ldr	r2, [pc, #52]	; (8001324 <_sbrk+0x38>)
 80012f0:	0003      	movs	r3, r0
 80012f2:	1a52      	subs	r2, r2, r1
 80012f4:	490c      	ldr	r1, [pc, #48]	; (8001328 <_sbrk+0x3c>)
 80012f6:	b510      	push	{r4, lr}
 80012f8:	6808      	ldr	r0, [r1, #0]
 80012fa:	2800      	cmp	r0, #0
 80012fc:	d004      	beq.n	8001308 <_sbrk+0x1c>
 80012fe:	18c3      	adds	r3, r0, r3
 8001300:	4293      	cmp	r3, r2
 8001302:	d806      	bhi.n	8001312 <_sbrk+0x26>
 8001304:	600b      	str	r3, [r1, #0]
 8001306:	bd10      	pop	{r4, pc}
 8001308:	4808      	ldr	r0, [pc, #32]	; (800132c <_sbrk+0x40>)
 800130a:	18c3      	adds	r3, r0, r3
 800130c:	6008      	str	r0, [r1, #0]
 800130e:	4293      	cmp	r3, r2
 8001310:	d9f8      	bls.n	8001304 <_sbrk+0x18>
 8001312:	f003 ff03 	bl	800511c <__errno>
 8001316:	230c      	movs	r3, #12
 8001318:	6003      	str	r3, [r0, #0]
 800131a:	2001      	movs	r0, #1
 800131c:	4240      	negs	r0, r0
 800131e:	e7f2      	b.n	8001306 <_sbrk+0x1a>
 8001320:	00000400 	.word	0x00000400
 8001324:	20001000 	.word	0x20001000
 8001328:	200003c0 	.word	0x200003c0
 800132c:	20000518 	.word	0x20000518

08001330 <SystemInit>:
 8001330:	4770      	bx	lr
 8001332:	46c0      	nop			; (mov r8, r8)

08001334 <clip>:
 8001334:	0003      	movs	r3, r0
 8001336:	0010      	movs	r0, r2
 8001338:	4293      	cmp	r3, r2
 800133a:	dc02      	bgt.n	8001342 <clip+0xe>
 800133c:	0018      	movs	r0, r3
 800133e:	428b      	cmp	r3, r1
 8001340:	db00      	blt.n	8001344 <clip+0x10>
 8001342:	4770      	bx	lr
 8001344:	0008      	movs	r0, r1
 8001346:	e7fc      	b.n	8001342 <clip+0xe>

08001348 <min3>:
 8001348:	4288      	cmp	r0, r1
 800134a:	db00      	blt.n	800134e <min3+0x6>
 800134c:	0008      	movs	r0, r1
 800134e:	4290      	cmp	r0, r2
 8001350:	dd00      	ble.n	8001354 <min3+0xc>
 8001352:	0010      	movs	r0, r2
 8001354:	4770      	bx	lr
 8001356:	46c0      	nop			; (mov r8, r8)

08001358 <max3>:
 8001358:	4288      	cmp	r0, r1
 800135a:	dc00      	bgt.n	800135e <max3+0x6>
 800135c:	0008      	movs	r0, r1
 800135e:	4290      	cmp	r0, r2
 8001360:	da00      	bge.n	8001364 <max3+0xc>
 8001362:	0010      	movs	r0, r2
 8001364:	4770      	bx	lr
 8001366:	46c0      	nop			; (mov r8, r8)

08001368 <abs16>:
 8001368:	2800      	cmp	r0, #0
 800136a:	da01      	bge.n	8001370 <abs16+0x8>
 800136c:	4240      	negs	r0, r0
 800136e:	b200      	sxth	r0, r0
 8001370:	4770      	bx	lr
 8001372:	46c0      	nop			; (mov r8, r8)

08001374 <pad14>:
 8001374:	0483      	lsls	r3, r0, #18
 8001376:	d503      	bpl.n	8001380 <pad14+0xc>
 8001378:	4b02      	ldr	r3, [pc, #8]	; (8001384 <pad14+0x10>)
 800137a:	4318      	orrs	r0, r3
 800137c:	b200      	sxth	r0, r0
 800137e:	4770      	bx	lr
 8001380:	b200      	sxth	r0, r0
 8001382:	e7fc      	b.n	800137e <pad14+0xa>
 8001384:	ffffc000 	.word	0xffffc000

08001388 <Reset_Handler>:
 8001388:	480d      	ldr	r0, [pc, #52]	; (80013c0 <LoopForever+0x2>)
 800138a:	4685      	mov	sp, r0
 800138c:	f7ff ffd0 	bl	8001330 <SystemInit>
 8001390:	480c      	ldr	r0, [pc, #48]	; (80013c4 <LoopForever+0x6>)
 8001392:	490d      	ldr	r1, [pc, #52]	; (80013c8 <LoopForever+0xa>)
 8001394:	4a0d      	ldr	r2, [pc, #52]	; (80013cc <LoopForever+0xe>)
 8001396:	2300      	movs	r3, #0
 8001398:	e002      	b.n	80013a0 <LoopCopyDataInit>

0800139a <CopyDataInit>:
 800139a:	58d4      	ldr	r4, [r2, r3]
 800139c:	50c4      	str	r4, [r0, r3]
 800139e:	3304      	adds	r3, #4

080013a0 <LoopCopyDataInit>:
 80013a0:	18c4      	adds	r4, r0, r3
 80013a2:	428c      	cmp	r4, r1
 80013a4:	d3f9      	bcc.n	800139a <CopyDataInit>
 80013a6:	4a0a      	ldr	r2, [pc, #40]	; (80013d0 <LoopForever+0x12>)
 80013a8:	4c0a      	ldr	r4, [pc, #40]	; (80013d4 <LoopForever+0x16>)
 80013aa:	2300      	movs	r3, #0
 80013ac:	e001      	b.n	80013b2 <LoopFillZerobss>

080013ae <FillZerobss>:
 80013ae:	6013      	str	r3, [r2, #0]
 80013b0:	3204      	adds	r2, #4

080013b2 <LoopFillZerobss>:
 80013b2:	42a2      	cmp	r2, r4
 80013b4:	d3fb      	bcc.n	80013ae <FillZerobss>
 80013b6:	f003 feb7 	bl	8005128 <__libc_init_array>
 80013ba:	f7ff fae7 	bl	800098c <main>

080013be <LoopForever>:
 80013be:	e7fe      	b.n	80013be <LoopForever>
 80013c0:	20001000 	.word	0x20001000
 80013c4:	20000000 	.word	0x20000000
 80013c8:	2000006c 	.word	0x2000006c
 80013cc:	08005b00 	.word	0x08005b00
 80013d0:	2000006c 	.word	0x2000006c
 80013d4:	20000514 	.word	0x20000514

080013d8 <ADC1_IRQHandler>:
 80013d8:	e7fe      	b.n	80013d8 <ADC1_IRQHandler>
	...

080013dc <HAL_InitTick>:
 80013dc:	b570      	push	{r4, r5, r6, lr}
 80013de:	0004      	movs	r4, r0
 80013e0:	20fa      	movs	r0, #250	; 0xfa
 80013e2:	4b0e      	ldr	r3, [pc, #56]	; (800141c <HAL_InitTick+0x40>)
 80013e4:	0080      	lsls	r0, r0, #2
 80013e6:	7819      	ldrb	r1, [r3, #0]
 80013e8:	f7fe fe8e 	bl	8000108 <__udivsi3>
 80013ec:	4d0c      	ldr	r5, [pc, #48]	; (8001420 <HAL_InitTick+0x44>)
 80013ee:	0001      	movs	r1, r0
 80013f0:	6828      	ldr	r0, [r5, #0]
 80013f2:	f7fe fe89 	bl	8000108 <__udivsi3>
 80013f6:	f000 fba9 	bl	8001b4c <HAL_SYSTICK_Config>
 80013fa:	2800      	cmp	r0, #0
 80013fc:	d10c      	bne.n	8001418 <HAL_InitTick+0x3c>
 80013fe:	3001      	adds	r0, #1
 8001400:	2c03      	cmp	r4, #3
 8001402:	d900      	bls.n	8001406 <HAL_InitTick+0x2a>
 8001404:	bd70      	pop	{r4, r5, r6, pc}
 8001406:	3802      	subs	r0, #2
 8001408:	2200      	movs	r2, #0
 800140a:	0021      	movs	r1, r4
 800140c:	f000 fb60 	bl	8001ad0 <HAL_NVIC_SetPriority>
 8001410:	4b04      	ldr	r3, [pc, #16]	; (8001424 <HAL_InitTick+0x48>)
 8001412:	2000      	movs	r0, #0
 8001414:	601c      	str	r4, [r3, #0]
 8001416:	e7f5      	b.n	8001404 <HAL_InitTick+0x28>
 8001418:	2001      	movs	r0, #1
 800141a:	e7f3      	b.n	8001404 <HAL_InitTick+0x28>
 800141c:	20000008 	.word	0x20000008
 8001420:	20000004 	.word	0x20000004
 8001424:	2000000c 	.word	0x2000000c

08001428 <HAL_Init>:
 8001428:	2110      	movs	r1, #16
 800142a:	4a06      	ldr	r2, [pc, #24]	; (8001444 <HAL_Init+0x1c>)
 800142c:	b510      	push	{r4, lr}
 800142e:	6813      	ldr	r3, [r2, #0]
 8001430:	2003      	movs	r0, #3
 8001432:	430b      	orrs	r3, r1
 8001434:	6013      	str	r3, [r2, #0]
 8001436:	f7ff ffd1 	bl	80013dc <HAL_InitTick>
 800143a:	f7ff fceb 	bl	8000e14 <HAL_MspInit>
 800143e:	2000      	movs	r0, #0
 8001440:	bd10      	pop	{r4, pc}
 8001442:	46c0      	nop			; (mov r8, r8)
 8001444:	40022000 	.word	0x40022000

08001448 <HAL_IncTick>:
 8001448:	4a03      	ldr	r2, [pc, #12]	; (8001458 <HAL_IncTick+0x10>)
 800144a:	4b04      	ldr	r3, [pc, #16]	; (800145c <HAL_IncTick+0x14>)
 800144c:	6811      	ldr	r1, [r2, #0]
 800144e:	781b      	ldrb	r3, [r3, #0]
 8001450:	185b      	adds	r3, r3, r1
 8001452:	6013      	str	r3, [r2, #0]
 8001454:	4770      	bx	lr
 8001456:	46c0      	nop			; (mov r8, r8)
 8001458:	200003c4 	.word	0x200003c4
 800145c:	20000008 	.word	0x20000008

08001460 <HAL_GetTick>:
 8001460:	4b01      	ldr	r3, [pc, #4]	; (8001468 <HAL_GetTick+0x8>)
 8001462:	6818      	ldr	r0, [r3, #0]
 8001464:	4770      	bx	lr
 8001466:	46c0      	nop			; (mov r8, r8)
 8001468:	200003c4 	.word	0x200003c4

0800146c <HAL_Delay>:
 800146c:	b570      	push	{r4, r5, r6, lr}
 800146e:	0004      	movs	r4, r0
 8001470:	f7ff fff6 	bl	8001460 <HAL_GetTick>
 8001474:	0005      	movs	r5, r0
 8001476:	1c63      	adds	r3, r4, #1
 8001478:	d002      	beq.n	8001480 <HAL_Delay+0x14>
 800147a:	4b04      	ldr	r3, [pc, #16]	; (800148c <HAL_Delay+0x20>)
 800147c:	781b      	ldrb	r3, [r3, #0]
 800147e:	18e4      	adds	r4, r4, r3
 8001480:	f7ff ffee 	bl	8001460 <HAL_GetTick>
 8001484:	1b40      	subs	r0, r0, r5
 8001486:	42a0      	cmp	r0, r4
 8001488:	d3fa      	bcc.n	8001480 <HAL_Delay+0x14>
 800148a:	bd70      	pop	{r4, r5, r6, pc}
 800148c:	20000008 	.word	0x20000008

08001490 <ADC_Disable>:
 8001490:	b5f8      	push	{r3, r4, r5, r6, r7, lr}
 8001492:	2303      	movs	r3, #3
 8001494:	6802      	ldr	r2, [r0, #0]
 8001496:	0004      	movs	r4, r0
 8001498:	6891      	ldr	r1, [r2, #8]
 800149a:	400b      	ands	r3, r1
 800149c:	2b01      	cmp	r3, #1
 800149e:	d001      	beq.n	80014a4 <ADC_Disable+0x14>
 80014a0:	2000      	movs	r0, #0
 80014a2:	bdf8      	pop	{r3, r4, r5, r6, r7, pc}
 80014a4:	6811      	ldr	r1, [r2, #0]
 80014a6:	420b      	tst	r3, r1
 80014a8:	d00e      	beq.n	80014c8 <ADC_Disable+0x38>
 80014aa:	2705      	movs	r7, #5
 80014ac:	6893      	ldr	r3, [r2, #8]
 80014ae:	401f      	ands	r7, r3
 80014b0:	2f01      	cmp	r7, #1
 80014b2:	d00d      	beq.n	80014d0 <ADC_Disable+0x40>
 80014b4:	2210      	movs	r2, #16
 80014b6:	6ba3      	ldr	r3, [r4, #56]	; 0x38
 80014b8:	2001      	movs	r0, #1
 80014ba:	4313      	orrs	r3, r2
 80014bc:	63a3      	str	r3, [r4, #56]	; 0x38
 80014be:	6be3      	ldr	r3, [r4, #60]	; 0x3c
 80014c0:	3a0f      	subs	r2, #15
 80014c2:	4313      	orrs	r3, r2
 80014c4:	63e3      	str	r3, [r4, #60]	; 0x3c
 80014c6:	e7ec      	b.n	80014a2 <ADC_Disable+0x12>
 80014c8:	68d3      	ldr	r3, [r2, #12]
 80014ca:	041b      	lsls	r3, r3, #16
 80014cc:	d5e8      	bpl.n	80014a0 <ADC_Disable+0x10>
 80014ce:	e7ec      	b.n	80014aa <ADC_Disable+0x1a>
 80014d0:	2102      	movs	r1, #2
 80014d2:	6893      	ldr	r3, [r2, #8]
 80014d4:	2501      	movs	r5, #1
 80014d6:	430b      	orrs	r3, r1
 80014d8:	6093      	str	r3, [r2, #8]
 80014da:	2303      	movs	r3, #3
 80014dc:	6013      	str	r3, [r2, #0]
 80014de:	f7ff ffbf 	bl	8001460 <HAL_GetTick>
 80014e2:	6823      	ldr	r3, [r4, #0]
 80014e4:	0006      	movs	r6, r0
 80014e6:	689b      	ldr	r3, [r3, #8]
 80014e8:	421f      	tst	r7, r3
 80014ea:	d0d9      	beq.n	80014a0 <ADC_Disable+0x10>
 80014ec:	f7ff ffb8 	bl	8001460 <HAL_GetTick>
 80014f0:	6823      	ldr	r3, [r4, #0]
 80014f2:	1b80      	subs	r0, r0, r6
 80014f4:	2802      	cmp	r0, #2
 80014f6:	d902      	bls.n	80014fe <ADC_Disable+0x6e>
 80014f8:	689a      	ldr	r2, [r3, #8]
 80014fa:	4215      	tst	r5, r2
 80014fc:	d103      	bne.n	8001506 <ADC_Disable+0x76>
 80014fe:	689b      	ldr	r3, [r3, #8]
 8001500:	421d      	tst	r5, r3
 8001502:	d1f3      	bne.n	80014ec <ADC_Disable+0x5c>
 8001504:	e7cc      	b.n	80014a0 <ADC_Disable+0x10>
 8001506:	2210      	movs	r2, #16
 8001508:	6ba3      	ldr	r3, [r4, #56]	; 0x38
 800150a:	2001      	movs	r0, #1
 800150c:	4313      	orrs	r3, r2
 800150e:	63a3      	str	r3, [r4, #56]	; 0x38
 8001510:	6be3      	ldr	r3, [r4, #60]	; 0x3c
 8001512:	432b      	orrs	r3, r5
 8001514:	63e3      	str	r3, [r4, #60]	; 0x3c
 8001516:	e7c4      	b.n	80014a2 <ADC_Disable+0x12>

08001518 <ADC_ConversionStop>:
 8001518:	2204      	movs	r2, #4
 800151a:	6803      	ldr	r3, [r0, #0]
 800151c:	b570      	push	{r4, r5, r6, lr}
 800151e:	6899      	ldr	r1, [r3, #8]
 8001520:	0004      	movs	r4, r0
 8001522:	420a      	tst	r2, r1
 8001524:	d01d      	beq.n	8001562 <ADC_ConversionStop+0x4a>
 8001526:	6899      	ldr	r1, [r3, #8]
 8001528:	420a      	tst	r2, r1
 800152a:	d006      	beq.n	800153a <ADC_ConversionStop+0x22>
 800152c:	689a      	ldr	r2, [r3, #8]
 800152e:	0792      	lsls	r2, r2, #30
 8001530:	d403      	bmi.n	800153a <ADC_ConversionStop+0x22>
 8001532:	2110      	movs	r1, #16
 8001534:	689a      	ldr	r2, [r3, #8]
 8001536:	430a      	orrs	r2, r1
 8001538:	609a      	str	r2, [r3, #8]
 800153a:	f7ff ff91 	bl	8001460 <HAL_GetTick>
 800153e:	6823      	ldr	r3, [r4, #0]
 8001540:	0006      	movs	r6, r0
 8001542:	689b      	ldr	r3, [r3, #8]
 8001544:	075b      	lsls	r3, r3, #29
 8001546:	d50c      	bpl.n	8001562 <ADC_ConversionStop+0x4a>
 8001548:	2504      	movs	r5, #4
 800154a:	f7ff ff89 	bl	8001460 <HAL_GetTick>
 800154e:	6823      	ldr	r3, [r4, #0]
 8001550:	1b80      	subs	r0, r0, r6
 8001552:	2802      	cmp	r0, #2
 8001554:	d902      	bls.n	800155c <ADC_ConversionStop+0x44>
 8001556:	689a      	ldr	r2, [r3, #8]
 8001558:	4215      	tst	r5, r2
 800155a:	d104      	bne.n	8001566 <ADC_ConversionStop+0x4e>
 800155c:	689b      	ldr	r3, [r3, #8]
 800155e:	421d      	tst	r5, r3
 8001560:	d1f3      	bne.n	800154a <ADC_ConversionStop+0x32>
 8001562:	2000      	movs	r0, #0
 8001564:	bd70      	pop	{r4, r5, r6, pc}
 8001566:	2210      	movs	r2, #16
 8001568:	6ba3      	ldr	r3, [r4, #56]	; 0x38
 800156a:	2001      	movs	r0, #1
 800156c:	4313      	orrs	r3, r2
 800156e:	63a3      	str	r3, [r4, #56]	; 0x38
 8001570:	6be3      	ldr	r3, [r4, #60]	; 0x3c
 8001572:	3a0f      	subs	r2, #15
 8001574:	4313      	orrs	r3, r2
 8001576:	63e3      	str	r3, [r4, #60]	; 0x3c
 8001578:	e7f4      	b.n	8001564 <ADC_ConversionStop+0x4c>
 800157a:	46c0      	nop			; (mov r8, r8)

0800157c <ADC_Enable.constprop.0>:
 800157c:	2300      	movs	r3, #0
 800157e:	b570      	push	{r4, r5, r6, lr}
 8001580:	6802      	ldr	r2, [r0, #0]
 8001582:	b082      	sub	sp, #8
 8001584:	9301      	str	r3, [sp, #4]
 8001586:	6891      	ldr	r1, [r2, #8]
 8001588:	3303      	adds	r3, #3
 800158a:	0004      	movs	r4, r0
 800158c:	400b      	ands	r3, r1
 800158e:	2b01      	cmp	r3, #1
 8001590:	d037      	beq.n	8001602 <ADC_Enable.constprop.0+0x86>
 8001592:	6891      	ldr	r1, [r2, #8]
 8001594:	4b23      	ldr	r3, [pc, #140]	; (8001624 <ADC_Enable.constprop.0+0xa8>)
 8001596:	4219      	tst	r1, r3
 8001598:	d129      	bne.n	80015ee <ADC_Enable.constprop.0+0x72>
 800159a:	2101      	movs	r1, #1
 800159c:	6893      	ldr	r3, [r2, #8]
 800159e:	430b      	orrs	r3, r1
 80015a0:	6093      	str	r3, [r2, #8]
 80015a2:	4b21      	ldr	r3, [pc, #132]	; (8001628 <ADC_Enable.constprop.0+0xac>)
 80015a4:	4921      	ldr	r1, [pc, #132]	; (800162c <ADC_Enable.constprop.0+0xb0>)
 80015a6:	6818      	ldr	r0, [r3, #0]
 80015a8:	f7fe fdae 	bl	8000108 <__udivsi3>
 80015ac:	9001      	str	r0, [sp, #4]
 80015ae:	9b01      	ldr	r3, [sp, #4]
 80015b0:	2b00      	cmp	r3, #0
 80015b2:	d005      	beq.n	80015c0 <ADC_Enable.constprop.0+0x44>
 80015b4:	9b01      	ldr	r3, [sp, #4]
 80015b6:	3b01      	subs	r3, #1
 80015b8:	9301      	str	r3, [sp, #4]
 80015ba:	9b01      	ldr	r3, [sp, #4]
 80015bc:	2b00      	cmp	r3, #0
 80015be:	d1f9      	bne.n	80015b4 <ADC_Enable.constprop.0+0x38>
 80015c0:	f7ff ff4e 	bl	8001460 <HAL_GetTick>
 80015c4:	6823      	ldr	r3, [r4, #0]
 80015c6:	0006      	movs	r6, r0
 80015c8:	681b      	ldr	r3, [r3, #0]
 80015ca:	2501      	movs	r5, #1
 80015cc:	07db      	lsls	r3, r3, #31
 80015ce:	d40b      	bmi.n	80015e8 <ADC_Enable.constprop.0+0x6c>
 80015d0:	f7ff ff46 	bl	8001460 <HAL_GetTick>
 80015d4:	6823      	ldr	r3, [r4, #0]
 80015d6:	1b80      	subs	r0, r0, r6
 80015d8:	2802      	cmp	r0, #2
 80015da:	d902      	bls.n	80015e2 <ADC_Enable.constprop.0+0x66>
 80015dc:	681a      	ldr	r2, [r3, #0]
 80015de:	4215      	tst	r5, r2
 80015e0:	d016      	beq.n	8001610 <ADC_Enable.constprop.0+0x94>
 80015e2:	681b      	ldr	r3, [r3, #0]
 80015e4:	421d      	tst	r5, r3
 80015e6:	d0f3      	beq.n	80015d0 <ADC_Enable.constprop.0+0x54>
 80015e8:	2000      	movs	r0, #0
 80015ea:	b002      	add	sp, #8
 80015ec:	bd70      	pop	{r4, r5, r6, pc}
 80015ee:	2210      	movs	r2, #16
 80015f0:	6ba3      	ldr	r3, [r4, #56]	; 0x38
 80015f2:	2001      	movs	r0, #1
 80015f4:	4313      	orrs	r3, r2
 80015f6:	63a3      	str	r3, [r4, #56]	; 0x38
 80015f8:	6be3      	ldr	r3, [r4, #60]	; 0x3c
 80015fa:	3a0f      	subs	r2, #15
 80015fc:	4313      	orrs	r3, r2
 80015fe:	63e3      	str	r3, [r4, #60]	; 0x3c
 8001600:	e7f3      	b.n	80015ea <ADC_Enable.constprop.0+0x6e>
 8001602:	6811      	ldr	r1, [r2, #0]
 8001604:	420b      	tst	r3, r1
 8001606:	d1ef      	bne.n	80015e8 <ADC_Enable.constprop.0+0x6c>
 8001608:	68d3      	ldr	r3, [r2, #12]
 800160a:	041b      	lsls	r3, r3, #16
 800160c:	d4ec      	bmi.n	80015e8 <ADC_Enable.constprop.0+0x6c>
 800160e:	e7c0      	b.n	8001592 <ADC_Enable.constprop.0+0x16>
 8001610:	2210      	movs	r2, #16
 8001612:	6ba3      	ldr	r3, [r4, #56]	; 0x38
 8001614:	2001      	movs	r0, #1
 8001616:	4313      	orrs	r3, r2
 8001618:	63a3      	str	r3, [r4, #56]	; 0x38
 800161a:	6be3      	ldr	r3, [r4, #60]	; 0x3c
 800161c:	432b      	orrs	r3, r5
 800161e:	63e3      	str	r3, [r4, #60]	; 0x3c
 8001620:	e7e3      	b.n	80015ea <ADC_Enable.constprop.0+0x6e>
 8001622:	46c0      	nop			; (mov r8, r8)
 8001624:	80000017 	.word	0x80000017
 8001628:	20000004 	.word	0x20000004
 800162c:	000f4240 	.word	0x000f4240

08001630 <HAL_ADC_Init>:
 8001630:	b570      	push	{r4, r5, r6, lr}
 8001632:	1e04      	subs	r4, r0, #0
 8001634:	d100      	bne.n	8001638 <HAL_ADC_Init+0x8>
 8001636:	e082      	b.n	800173e <HAL_ADC_Init+0x10e>
 8001638:	6b83      	ldr	r3, [r0, #56]	; 0x38
 800163a:	2b00      	cmp	r3, #0
 800163c:	d069      	beq.n	8001712 <HAL_ADC_Init+0xe2>
 800163e:	6ba3      	ldr	r3, [r4, #56]	; 0x38
 8001640:	06db      	lsls	r3, r3, #27
 8001642:	d460      	bmi.n	8001706 <HAL_ADC_Init+0xd6>
 8001644:	6822      	ldr	r2, [r4, #0]
 8001646:	6893      	ldr	r3, [r2, #8]
 8001648:	075b      	lsls	r3, r3, #29
 800164a:	d45c      	bmi.n	8001706 <HAL_ADC_Init+0xd6>
 800164c:	6ba3      	ldr	r3, [r4, #56]	; 0x38
 800164e:	4949      	ldr	r1, [pc, #292]	; (8001774 <HAL_ADC_Init+0x144>)
 8001650:	400b      	ands	r3, r1
 8001652:	3106      	adds	r1, #6
 8001654:	31ff      	adds	r1, #255	; 0xff
 8001656:	430b      	orrs	r3, r1
 8001658:	63a3      	str	r3, [r4, #56]	; 0x38
 800165a:	2303      	movs	r3, #3
 800165c:	6891      	ldr	r1, [r2, #8]
 800165e:	400b      	ands	r3, r1
 8001660:	2b01      	cmp	r3, #1
 8001662:	d05c      	beq.n	800171e <HAL_ADC_Init+0xee>
 8001664:	2118      	movs	r1, #24
 8001666:	68d3      	ldr	r3, [r2, #12]
 8001668:	438b      	bics	r3, r1
 800166a:	68a1      	ldr	r1, [r4, #8]
 800166c:	430b      	orrs	r3, r1
 800166e:	60d3      	str	r3, [r2, #12]
 8001670:	6913      	ldr	r3, [r2, #16]
 8001672:	6861      	ldr	r1, [r4, #4]
 8001674:	009b      	lsls	r3, r3, #2
 8001676:	089b      	lsrs	r3, r3, #2
 8001678:	430b      	orrs	r3, r1
 800167a:	6113      	str	r3, [r2, #16]
 800167c:	68d3      	ldr	r3, [r2, #12]
 800167e:	493e      	ldr	r1, [pc, #248]	; (8001778 <HAL_ADC_Init+0x148>)
 8001680:	400b      	ands	r3, r1
 8001682:	60d3      	str	r3, [r2, #12]
 8001684:	7e23      	ldrb	r3, [r4, #24]
 8001686:	7e61      	ldrb	r1, [r4, #25]
 8001688:	039b      	lsls	r3, r3, #14
 800168a:	03c9      	lsls	r1, r1, #15
 800168c:	430b      	orrs	r3, r1
 800168e:	7ea0      	ldrb	r0, [r4, #26]
 8001690:	68e1      	ldr	r1, [r4, #12]
 8001692:	430b      	orrs	r3, r1
 8001694:	0341      	lsls	r1, r0, #13
 8001696:	430b      	orrs	r3, r1
 8001698:	2124      	movs	r1, #36	; 0x24
 800169a:	5c61      	ldrb	r1, [r4, r1]
 800169c:	0049      	lsls	r1, r1, #1
 800169e:	430b      	orrs	r3, r1
 80016a0:	6aa1      	ldr	r1, [r4, #40]	; 0x28
 80016a2:	3901      	subs	r1, #1
 80016a4:	1e4d      	subs	r5, r1, #1
 80016a6:	41a9      	sbcs	r1, r5
 80016a8:	0309      	lsls	r1, r1, #12
 80016aa:	430b      	orrs	r3, r1
 80016ac:	6921      	ldr	r1, [r4, #16]
 80016ae:	3902      	subs	r1, #2
 80016b0:	424d      	negs	r5, r1
 80016b2:	4169      	adcs	r1, r5
 80016b4:	0089      	lsls	r1, r1, #2
 80016b6:	430b      	orrs	r3, r1
 80016b8:	7ee1      	ldrb	r1, [r4, #27]
 80016ba:	2901      	cmp	r1, #1
 80016bc:	d04b      	beq.n	8001756 <HAL_ADC_Init+0x126>
 80016be:	20c2      	movs	r0, #194	; 0xc2
 80016c0:	69e1      	ldr	r1, [r4, #28]
 80016c2:	30ff      	adds	r0, #255	; 0xff
 80016c4:	4281      	cmp	r1, r0
 80016c6:	d002      	beq.n	80016ce <HAL_ADC_Init+0x9e>
 80016c8:	6a20      	ldr	r0, [r4, #32]
 80016ca:	4301      	orrs	r1, r0
 80016cc:	430b      	orrs	r3, r1
 80016ce:	68d1      	ldr	r1, [r2, #12]
 80016d0:	6ae5      	ldr	r5, [r4, #44]	; 0x2c
 80016d2:	4319      	orrs	r1, r3
 80016d4:	60d1      	str	r1, [r2, #12]
 80016d6:	2180      	movs	r1, #128	; 0x80
 80016d8:	0549      	lsls	r1, r1, #21
 80016da:	428d      	cmp	r5, r1
 80016dc:	d026      	beq.n	800172c <HAL_ADC_Init+0xfc>
 80016de:	1e69      	subs	r1, r5, #1
 80016e0:	2906      	cmp	r1, #6
 80016e2:	d923      	bls.n	800172c <HAL_ADC_Init+0xfc>
 80016e4:	68d2      	ldr	r2, [r2, #12]
 80016e6:	4925      	ldr	r1, [pc, #148]	; (800177c <HAL_ADC_Init+0x14c>)
 80016e8:	400a      	ands	r2, r1
 80016ea:	429a      	cmp	r2, r3
 80016ec:	d029      	beq.n	8001742 <HAL_ADC_Init+0x112>
 80016ee:	2212      	movs	r2, #18
 80016f0:	6ba3      	ldr	r3, [r4, #56]	; 0x38
 80016f2:	2001      	movs	r0, #1
 80016f4:	4393      	bics	r3, r2
 80016f6:	3a02      	subs	r2, #2
 80016f8:	4313      	orrs	r3, r2
 80016fa:	63a3      	str	r3, [r4, #56]	; 0x38
 80016fc:	6be3      	ldr	r3, [r4, #60]	; 0x3c
 80016fe:	3a0f      	subs	r2, #15
 8001700:	4313      	orrs	r3, r2
 8001702:	63e3      	str	r3, [r4, #60]	; 0x3c
 8001704:	e004      	b.n	8001710 <HAL_ADC_Init+0xe0>
 8001706:	2210      	movs	r2, #16
 8001708:	2001      	movs	r0, #1
 800170a:	6ba3      	ldr	r3, [r4, #56]	; 0x38
 800170c:	4313      	orrs	r3, r2
 800170e:	63a3      	str	r3, [r4, #56]	; 0x38
 8001710:	bd70      	pop	{r4, r5, r6, pc}
 8001712:	2234      	movs	r2, #52	; 0x34
 8001714:	63c3      	str	r3, [r0, #60]	; 0x3c
 8001716:	5483      	strb	r3, [r0, r2]
 8001718:	f7ff fb94 	bl	8000e44 <HAL_ADC_MspInit>
 800171c:	e78f      	b.n	800163e <HAL_ADC_Init+0xe>
 800171e:	6811      	ldr	r1, [r2, #0]
 8001720:	420b      	tst	r3, r1
 8001722:	d1ab      	bne.n	800167c <HAL_ADC_Init+0x4c>
 8001724:	68d3      	ldr	r3, [r2, #12]
 8001726:	041b      	lsls	r3, r3, #16
 8001728:	d4a8      	bmi.n	800167c <HAL_ADC_Init+0x4c>
 800172a:	e79b      	b.n	8001664 <HAL_ADC_Init+0x34>
 800172c:	2107      	movs	r1, #7
 800172e:	6950      	ldr	r0, [r2, #20]
 8001730:	4388      	bics	r0, r1
 8001732:	6150      	str	r0, [r2, #20]
 8001734:	6950      	ldr	r0, [r2, #20]
 8001736:	4029      	ands	r1, r5
 8001738:	4301      	orrs	r1, r0
 800173a:	6151      	str	r1, [r2, #20]
 800173c:	e7d2      	b.n	80016e4 <HAL_ADC_Init+0xb4>
 800173e:	2001      	movs	r0, #1
 8001740:	e7e6      	b.n	8001710 <HAL_ADC_Init+0xe0>
 8001742:	2300      	movs	r3, #0
 8001744:	2203      	movs	r2, #3
 8001746:	63e3      	str	r3, [r4, #60]	; 0x3c
 8001748:	6ba3      	ldr	r3, [r4, #56]	; 0x38
 800174a:	2000      	movs	r0, #0
 800174c:	4393      	bics	r3, r2
 800174e:	3a02      	subs	r2, #2
 8001750:	4313      	orrs	r3, r2
 8001752:	63a3      	str	r3, [r4, #56]	; 0x38
 8001754:	e7dc      	b.n	8001710 <HAL_ADC_Init+0xe0>
 8001756:	2800      	cmp	r0, #0
 8001758:	d103      	bne.n	8001762 <HAL_ADC_Init+0x132>
 800175a:	2180      	movs	r1, #128	; 0x80
 800175c:	0249      	lsls	r1, r1, #9
 800175e:	430b      	orrs	r3, r1
 8001760:	e7ad      	b.n	80016be <HAL_ADC_Init+0x8e>
 8001762:	2520      	movs	r5, #32
 8001764:	6ba0      	ldr	r0, [r4, #56]	; 0x38
 8001766:	4328      	orrs	r0, r5
 8001768:	63a0      	str	r0, [r4, #56]	; 0x38
 800176a:	6be0      	ldr	r0, [r4, #60]	; 0x3c
 800176c:	4301      	orrs	r1, r0
 800176e:	63e1      	str	r1, [r4, #60]	; 0x3c
 8001770:	e7a5      	b.n	80016be <HAL_ADC_Init+0x8e>
 8001772:	46c0      	nop			; (mov r8, r8)
 8001774:	fffffefd 	.word	0xfffffefd
 8001778:	fffe0219 	.word	0xfffe0219
 800177c:	833fffe7 	.word	0x833fffe7

08001780 <HAL_ADC_Stop>:
 8001780:	2334      	movs	r3, #52	; 0x34
 8001782:	b570      	push	{r4, r5, r6, lr}
 8001784:	5cc2      	ldrb	r2, [r0, r3]
 8001786:	0004      	movs	r4, r0
 8001788:	2a01      	cmp	r2, #1
 800178a:	d014      	beq.n	80017b6 <HAL_ADC_Stop+0x36>
 800178c:	2501      	movs	r5, #1
 800178e:	54c5      	strb	r5, [r0, r3]
 8001790:	f7ff fec2 	bl	8001518 <ADC_ConversionStop>
 8001794:	2800      	cmp	r0, #0
 8001796:	d003      	beq.n	80017a0 <HAL_ADC_Stop+0x20>
 8001798:	2334      	movs	r3, #52	; 0x34
 800179a:	2200      	movs	r2, #0
 800179c:	54e2      	strb	r2, [r4, r3]
 800179e:	bd70      	pop	{r4, r5, r6, pc}
 80017a0:	0020      	movs	r0, r4
 80017a2:	f7ff fe75 	bl	8001490 <ADC_Disable>
 80017a6:	2800      	cmp	r0, #0
 80017a8:	d1f6      	bne.n	8001798 <HAL_ADC_Stop+0x18>
 80017aa:	6ba3      	ldr	r3, [r4, #56]	; 0x38
 80017ac:	4a03      	ldr	r2, [pc, #12]	; (80017bc <HAL_ADC_Stop+0x3c>)
 80017ae:	4013      	ands	r3, r2
 80017b0:	432b      	orrs	r3, r5
 80017b2:	63a3      	str	r3, [r4, #56]	; 0x38
 80017b4:	e7f0      	b.n	8001798 <HAL_ADC_Stop+0x18>
 80017b6:	2002      	movs	r0, #2
 80017b8:	e7f1      	b.n	800179e <HAL_ADC_Stop+0x1e>
 80017ba:	46c0      	nop			; (mov r8, r8)
 80017bc:	fffffefe 	.word	0xfffffefe

080017c0 <HAL_ADC_Start_DMA>:
 80017c0:	b5d0      	push	{r4, r6, r7, lr}
 80017c2:	000e      	movs	r6, r1
 80017c4:	6801      	ldr	r1, [r0, #0]
 80017c6:	0004      	movs	r4, r0
 80017c8:	688b      	ldr	r3, [r1, #8]
 80017ca:	0017      	movs	r7, r2
 80017cc:	075b      	lsls	r3, r3, #29
 80017ce:	d435      	bmi.n	800183c <HAL_ADC_Start_DMA+0x7c>
 80017d0:	2334      	movs	r3, #52	; 0x34
 80017d2:	5cc2      	ldrb	r2, [r0, r3]
 80017d4:	2a01      	cmp	r2, #1
 80017d6:	d031      	beq.n	800183c <HAL_ADC_Start_DMA+0x7c>
 80017d8:	2201      	movs	r2, #1
 80017da:	54c2      	strb	r2, [r0, r3]
 80017dc:	7e43      	ldrb	r3, [r0, #25]
 80017de:	2b01      	cmp	r3, #1
 80017e0:	d004      	beq.n	80017ec <HAL_ADC_Start_DMA+0x2c>
 80017e2:	f7ff fecb 	bl	800157c <ADC_Enable.constprop.0>
 80017e6:	2800      	cmp	r0, #0
 80017e8:	d127      	bne.n	800183a <HAL_ADC_Start_DMA+0x7a>
 80017ea:	6821      	ldr	r1, [r4, #0]
 80017ec:	6ba2      	ldr	r2, [r4, #56]	; 0x38
 80017ee:	4b14      	ldr	r3, [pc, #80]	; (8001840 <HAL_ADC_Start_DMA+0x80>)
 80017f0:	401a      	ands	r2, r3
 80017f2:	2380      	movs	r3, #128	; 0x80
 80017f4:	005b      	lsls	r3, r3, #1
 80017f6:	4313      	orrs	r3, r2
 80017f8:	63a3      	str	r3, [r4, #56]	; 0x38
 80017fa:	2234      	movs	r2, #52	; 0x34
 80017fc:	2300      	movs	r3, #0
 80017fe:	63e3      	str	r3, [r4, #60]	; 0x3c
 8001800:	54a3      	strb	r3, [r4, r2]
 8001802:	6b20      	ldr	r0, [r4, #48]	; 0x30
 8001804:	4b0f      	ldr	r3, [pc, #60]	; (8001844 <HAL_ADC_Start_DMA+0x84>)
 8001806:	3a24      	subs	r2, #36	; 0x24
 8001808:	6283      	str	r3, [r0, #40]	; 0x28
 800180a:	4b0f      	ldr	r3, [pc, #60]	; (8001848 <HAL_ADC_Start_DMA+0x88>)
 800180c:	62c3      	str	r3, [r0, #44]	; 0x2c
 800180e:	4b0f      	ldr	r3, [pc, #60]	; (800184c <HAL_ADC_Start_DMA+0x8c>)
 8001810:	6303      	str	r3, [r0, #48]	; 0x30
 8001812:	231c      	movs	r3, #28
 8001814:	600b      	str	r3, [r1, #0]
 8001816:	684b      	ldr	r3, [r1, #4]
 8001818:	4313      	orrs	r3, r2
 800181a:	604b      	str	r3, [r1, #4]
 800181c:	68cb      	ldr	r3, [r1, #12]
 800181e:	3a0f      	subs	r2, #15
 8001820:	4313      	orrs	r3, r2
 8001822:	60cb      	str	r3, [r1, #12]
 8001824:	0032      	movs	r2, r6
 8001826:	003b      	movs	r3, r7
 8001828:	3140      	adds	r1, #64	; 0x40
 800182a:	f000 f9dd 	bl	8001be8 <HAL_DMA_Start_IT>
 800182e:	2104      	movs	r1, #4
 8001830:	2000      	movs	r0, #0
 8001832:	6822      	ldr	r2, [r4, #0]
 8001834:	6893      	ldr	r3, [r2, #8]
 8001836:	430b      	orrs	r3, r1
 8001838:	6093      	str	r3, [r2, #8]
 800183a:	bdd0      	pop	{r4, r6, r7, pc}
 800183c:	2002      	movs	r0, #2
 800183e:	e7fc      	b.n	800183a <HAL_ADC_Start_DMA+0x7a>
 8001840:	fffff0fe 	.word	0xfffff0fe
 8001844:	08001851 	.word	0x08001851
 8001848:	080018c9 	.word	0x080018c9
 800184c:	080018d9 	.word	0x080018d9

08001850 <ADC_DMAConvCplt>:
 8001850:	2150      	movs	r1, #80	; 0x50
 8001852:	6a43      	ldr	r3, [r0, #36]	; 0x24
 8001854:	b510      	push	{r4, lr}
 8001856:	6b9a      	ldr	r2, [r3, #56]	; 0x38
 8001858:	4211      	tst	r1, r2
 800185a:	d10e      	bne.n	800187a <ADC_DMAConvCplt+0x2a>
 800185c:	2280      	movs	r2, #128	; 0x80
 800185e:	6b99      	ldr	r1, [r3, #56]	; 0x38
 8001860:	0092      	lsls	r2, r2, #2
 8001862:	430a      	orrs	r2, r1
 8001864:	21c0      	movs	r1, #192	; 0xc0
 8001866:	639a      	str	r2, [r3, #56]	; 0x38
 8001868:	681a      	ldr	r2, [r3, #0]
 800186a:	0109      	lsls	r1, r1, #4
 800186c:	68d0      	ldr	r0, [r2, #12]
 800186e:	4208      	tst	r0, r1
 8001870:	d007      	beq.n	8001882 <ADC_DMAConvCplt+0x32>
 8001872:	0018      	movs	r0, r3
 8001874:	f7ff f824 	bl	80008c0 <HAL_ADC_ConvCpltCallback>
 8001878:	bd10      	pop	{r4, pc}
 800187a:	6b1b      	ldr	r3, [r3, #48]	; 0x30
 800187c:	6b1b      	ldr	r3, [r3, #48]	; 0x30
 800187e:	4798      	blx	r3
 8001880:	e7fa      	b.n	8001878 <ADC_DMAConvCplt+0x28>
 8001882:	7e99      	ldrb	r1, [r3, #26]
 8001884:	2900      	cmp	r1, #0
 8001886:	d1f4      	bne.n	8001872 <ADC_DMAConvCplt+0x22>
 8001888:	6811      	ldr	r1, [r2, #0]
 800188a:	0709      	lsls	r1, r1, #28
 800188c:	d5f1      	bpl.n	8001872 <ADC_DMAConvCplt+0x22>
 800188e:	6891      	ldr	r1, [r2, #8]
 8001890:	0749      	lsls	r1, r1, #29
 8001892:	d40b      	bmi.n	80018ac <ADC_DMAConvCplt+0x5c>
 8001894:	200c      	movs	r0, #12
 8001896:	6851      	ldr	r1, [r2, #4]
 8001898:	4381      	bics	r1, r0
 800189a:	6051      	str	r1, [r2, #4]
 800189c:	6b9a      	ldr	r2, [r3, #56]	; 0x38
 800189e:	4908      	ldr	r1, [pc, #32]	; (80018c0 <ADC_DMAConvCplt+0x70>)
 80018a0:	400a      	ands	r2, r1
 80018a2:	3104      	adds	r1, #4
 80018a4:	31ff      	adds	r1, #255	; 0xff
 80018a6:	430a      	orrs	r2, r1
 80018a8:	639a      	str	r2, [r3, #56]	; 0x38
 80018aa:	e7e2      	b.n	8001872 <ADC_DMAConvCplt+0x22>
 80018ac:	2120      	movs	r1, #32
 80018ae:	6b9a      	ldr	r2, [r3, #56]	; 0x38
 80018b0:	430a      	orrs	r2, r1
 80018b2:	639a      	str	r2, [r3, #56]	; 0x38
 80018b4:	6bda      	ldr	r2, [r3, #60]	; 0x3c
 80018b6:	391f      	subs	r1, #31
 80018b8:	430a      	orrs	r2, r1
 80018ba:	63da      	str	r2, [r3, #60]	; 0x3c
 80018bc:	e7d9      	b.n	8001872 <ADC_DMAConvCplt+0x22>
 80018be:	46c0      	nop			; (mov r8, r8)
 80018c0:	fffffefe 	.word	0xfffffefe

080018c4 <HAL_ADC_ConvHalfCpltCallback>:
 80018c4:	4770      	bx	lr
 80018c6:	46c0      	nop			; (mov r8, r8)

080018c8 <ADC_DMAHalfConvCplt>:
 80018c8:	b510      	push	{r4, lr}
 80018ca:	6a40      	ldr	r0, [r0, #36]	; 0x24
 80018cc:	f7ff fffa 	bl	80018c4 <HAL_ADC_ConvHalfCpltCallback>
 80018d0:	bd10      	pop	{r4, pc}
 80018d2:	46c0      	nop			; (mov r8, r8)

080018d4 <HAL_ADC_ErrorCallback>:
 80018d4:	4770      	bx	lr
 80018d6:	46c0      	nop			; (mov r8, r8)

080018d8 <ADC_DMAError>:
 80018d8:	2240      	movs	r2, #64	; 0x40
 80018da:	6a40      	ldr	r0, [r0, #36]	; 0x24
 80018dc:	b510      	push	{r4, lr}
 80018de:	6b83      	ldr	r3, [r0, #56]	; 0x38
 80018e0:	4313      	orrs	r3, r2
 80018e2:	6383      	str	r3, [r0, #56]	; 0x38
 80018e4:	6bc3      	ldr	r3, [r0, #60]	; 0x3c
 80018e6:	3a3c      	subs	r2, #60	; 0x3c
 80018e8:	4313      	orrs	r3, r2
 80018ea:	63c3      	str	r3, [r0, #60]	; 0x3c
 80018ec:	f7ff fff2 	bl	80018d4 <HAL_ADC_ErrorCallback>
 80018f0:	bd10      	pop	{r4, pc}
 80018f2:	46c0      	nop			; (mov r8, r8)

080018f4 <HAL_ADC_ConfigChannel>:
 80018f4:	2300      	movs	r3, #0
 80018f6:	2234      	movs	r2, #52	; 0x34
 80018f8:	b5f0      	push	{r4, r5, r6, r7, lr}
 80018fa:	b083      	sub	sp, #12
 80018fc:	9301      	str	r3, [sp, #4]
 80018fe:	5c83      	ldrb	r3, [r0, r2]
 8001900:	0004      	movs	r4, r0
 8001902:	6ac6      	ldr	r6, [r0, #44]	; 0x2c
 8001904:	2b01      	cmp	r3, #1
 8001906:	d060      	beq.n	80019ca <HAL_ADC_ConfigChannel+0xd6>
 8001908:	2301      	movs	r3, #1
 800190a:	5483      	strb	r3, [r0, r2]
 800190c:	6805      	ldr	r5, [r0, #0]
 800190e:	68aa      	ldr	r2, [r5, #8]
 8001910:	0752      	lsls	r2, r2, #29
 8001912:	d509      	bpl.n	8001928 <HAL_ADC_ConfigChannel+0x34>
 8001914:	2220      	movs	r2, #32
 8001916:	6b83      	ldr	r3, [r0, #56]	; 0x38
 8001918:	4313      	orrs	r3, r2
 800191a:	6383      	str	r3, [r0, #56]	; 0x38
 800191c:	2001      	movs	r0, #1
 800191e:	2334      	movs	r3, #52	; 0x34
 8001920:	2200      	movs	r2, #0
 8001922:	54e2      	strb	r2, [r4, r3]
 8001924:	b003      	add	sp, #12
 8001926:	bdf0      	pop	{r4, r5, r6, r7, pc}
 8001928:	4a36      	ldr	r2, [pc, #216]	; (8001a04 <HAL_ADC_ConfigChannel+0x110>)
 800192a:	6848      	ldr	r0, [r1, #4]
 800192c:	4290      	cmp	r0, r2
 800192e:	d030      	beq.n	8001992 <HAL_ADC_ConfigChannel+0x9e>
 8001930:	680a      	ldr	r2, [r1, #0]
 8001932:	6aaf      	ldr	r7, [r5, #40]	; 0x28
 8001934:	4093      	lsls	r3, r2
 8001936:	0018      	movs	r0, r3
 8001938:	2380      	movs	r3, #128	; 0x80
 800193a:	4338      	orrs	r0, r7
 800193c:	62a8      	str	r0, [r5, #40]	; 0x28
 800193e:	055b      	lsls	r3, r3, #21
 8001940:	429e      	cmp	r6, r3
 8001942:	d00f      	beq.n	8001964 <HAL_ADC_ConfigChannel+0x70>
 8001944:	3e01      	subs	r6, #1
 8001946:	2e06      	cmp	r6, #6
 8001948:	d90c      	bls.n	8001964 <HAL_ADC_ConfigChannel+0x70>
 800194a:	2307      	movs	r3, #7
 800194c:	6888      	ldr	r0, [r1, #8]
 800194e:	6969      	ldr	r1, [r5, #20]
 8001950:	4019      	ands	r1, r3
 8001952:	4288      	cmp	r0, r1
 8001954:	d006      	beq.n	8001964 <HAL_ADC_ConfigChannel+0x70>
 8001956:	6969      	ldr	r1, [r5, #20]
 8001958:	4399      	bics	r1, r3
 800195a:	6169      	str	r1, [r5, #20]
 800195c:	6969      	ldr	r1, [r5, #20]
 800195e:	4003      	ands	r3, r0
 8001960:	430b      	orrs	r3, r1
 8001962:	616b      	str	r3, [r5, #20]
 8001964:	0013      	movs	r3, r2
 8001966:	3b10      	subs	r3, #16
 8001968:	2b02      	cmp	r3, #2
 800196a:	d810      	bhi.n	800198e <HAL_ADC_ConfigChannel+0x9a>
 800196c:	4926      	ldr	r1, [pc, #152]	; (8001a08 <HAL_ADC_ConfigChannel+0x114>)
 800196e:	680b      	ldr	r3, [r1, #0]
 8001970:	2a10      	cmp	r2, #16
 8001972:	d02e      	beq.n	80019d2 <HAL_ADC_ConfigChannel+0xde>
 8001974:	3a11      	subs	r2, #17
 8001976:	1e50      	subs	r0, r2, #1
 8001978:	4182      	sbcs	r2, r0
 800197a:	20c0      	movs	r0, #192	; 0xc0
 800197c:	4252      	negs	r2, r2
 800197e:	0400      	lsls	r0, r0, #16
 8001980:	4002      	ands	r2, r0
 8001982:	2080      	movs	r0, #128	; 0x80
 8001984:	03c0      	lsls	r0, r0, #15
 8001986:	4684      	mov	ip, r0
 8001988:	4462      	add	r2, ip
 800198a:	4313      	orrs	r3, r2
 800198c:	600b      	str	r3, [r1, #0]
 800198e:	2000      	movs	r0, #0
 8001990:	e7c5      	b.n	800191e <HAL_ADC_ConfigChannel+0x2a>
 8001992:	680a      	ldr	r2, [r1, #0]
 8001994:	6aa8      	ldr	r0, [r5, #40]	; 0x28
 8001996:	4093      	lsls	r3, r2
 8001998:	4398      	bics	r0, r3
 800199a:	0013      	movs	r3, r2
 800199c:	3b10      	subs	r3, #16
 800199e:	62a8      	str	r0, [r5, #40]	; 0x28
 80019a0:	2b02      	cmp	r3, #2
 80019a2:	d8f4      	bhi.n	800198e <HAL_ADC_ConfigChannel+0x9a>
 80019a4:	4b18      	ldr	r3, [pc, #96]	; (8001a08 <HAL_ADC_ConfigChannel+0x114>)
 80019a6:	681b      	ldr	r3, [r3, #0]
 80019a8:	2a10      	cmp	r2, #16
 80019aa:	d010      	beq.n	80019ce <HAL_ADC_ConfigChannel+0xda>
 80019ac:	3a11      	subs	r2, #17
 80019ae:	4251      	negs	r1, r2
 80019b0:	414a      	adcs	r2, r1
 80019b2:	21c0      	movs	r1, #192	; 0xc0
 80019b4:	4252      	negs	r2, r2
 80019b6:	0409      	lsls	r1, r1, #16
 80019b8:	400a      	ands	r2, r1
 80019ba:	4914      	ldr	r1, [pc, #80]	; (8001a0c <HAL_ADC_ConfigChannel+0x118>)
 80019bc:	468c      	mov	ip, r1
 80019be:	4462      	add	r2, ip
 80019c0:	401a      	ands	r2, r3
 80019c2:	4b11      	ldr	r3, [pc, #68]	; (8001a08 <HAL_ADC_ConfigChannel+0x114>)
 80019c4:	2000      	movs	r0, #0
 80019c6:	601a      	str	r2, [r3, #0]
 80019c8:	e7a9      	b.n	800191e <HAL_ADC_ConfigChannel+0x2a>
 80019ca:	2002      	movs	r0, #2
 80019cc:	e7aa      	b.n	8001924 <HAL_ADC_ConfigChannel+0x30>
 80019ce:	4a10      	ldr	r2, [pc, #64]	; (8001a10 <HAL_ADC_ConfigChannel+0x11c>)
 80019d0:	e7f6      	b.n	80019c0 <HAL_ADC_ConfigChannel+0xcc>
 80019d2:	2280      	movs	r2, #128	; 0x80
 80019d4:	0412      	lsls	r2, r2, #16
 80019d6:	4313      	orrs	r3, r2
 80019d8:	600b      	str	r3, [r1, #0]
 80019da:	4b0e      	ldr	r3, [pc, #56]	; (8001a14 <HAL_ADC_ConfigChannel+0x120>)
 80019dc:	490e      	ldr	r1, [pc, #56]	; (8001a18 <HAL_ADC_ConfigChannel+0x124>)
 80019de:	6818      	ldr	r0, [r3, #0]
 80019e0:	f7fe fb92 	bl	8000108 <__udivsi3>
 80019e4:	0083      	lsls	r3, r0, #2
 80019e6:	181b      	adds	r3, r3, r0
 80019e8:	005b      	lsls	r3, r3, #1
 80019ea:	9301      	str	r3, [sp, #4]
 80019ec:	9b01      	ldr	r3, [sp, #4]
 80019ee:	2b00      	cmp	r3, #0
 80019f0:	d0cd      	beq.n	800198e <HAL_ADC_ConfigChannel+0x9a>
 80019f2:	9b01      	ldr	r3, [sp, #4]
 80019f4:	3b01      	subs	r3, #1
 80019f6:	9301      	str	r3, [sp, #4]
 80019f8:	9b01      	ldr	r3, [sp, #4]
 80019fa:	2b00      	cmp	r3, #0
 80019fc:	d1f9      	bne.n	80019f2 <HAL_ADC_ConfigChannel+0xfe>
 80019fe:	2000      	movs	r0, #0
 8001a00:	e78d      	b.n	800191e <HAL_ADC_ConfigChannel+0x2a>
 8001a02:	46c0      	nop			; (mov r8, r8)
 8001a04:	00001001 	.word	0x00001001
 8001a08:	40012708 	.word	0x40012708
 8001a0c:	feffffff 	.word	0xfeffffff
 8001a10:	ff7fffff 	.word	0xff7fffff
 8001a14:	20000004 	.word	0x20000004
 8001a18:	000f4240 	.word	0x000f4240

08001a1c <HAL_ADCEx_Calibration_Start>:
 8001a1c:	2334      	movs	r3, #52	; 0x34
 8001a1e:	b570      	push	{r4, r5, r6, lr}
 8001a20:	5cc2      	ldrb	r2, [r0, r3]
 8001a22:	0004      	movs	r4, r0
 8001a24:	2a01      	cmp	r2, #1
 8001a26:	d04e      	beq.n	8001ac6 <HAL_ADCEx_Calibration_Start+0xaa>
 8001a28:	2201      	movs	r2, #1
 8001a2a:	54c2      	strb	r2, [r0, r3]
 8001a2c:	6803      	ldr	r3, [r0, #0]
 8001a2e:	3202      	adds	r2, #2
 8001a30:	6899      	ldr	r1, [r3, #8]
 8001a32:	400a      	ands	r2, r1
 8001a34:	2a01      	cmp	r2, #1
 8001a36:	d105      	bne.n	8001a44 <HAL_ADCEx_Calibration_Start+0x28>
 8001a38:	6819      	ldr	r1, [r3, #0]
 8001a3a:	420a      	tst	r2, r1
 8001a3c:	d12e      	bne.n	8001a9c <HAL_ADCEx_Calibration_Start+0x80>
 8001a3e:	68da      	ldr	r2, [r3, #12]
 8001a40:	0412      	lsls	r2, r2, #16
 8001a42:	d42b      	bmi.n	8001a9c <HAL_ADCEx_Calibration_Start+0x80>
 8001a44:	6ba2      	ldr	r2, [r4, #56]	; 0x38
 8001a46:	4921      	ldr	r1, [pc, #132]	; (8001acc <HAL_ADCEx_Calibration_Start+0xb0>)
 8001a48:	400a      	ands	r2, r1
 8001a4a:	3106      	adds	r1, #6
 8001a4c:	31ff      	adds	r1, #255	; 0xff
 8001a4e:	430a      	orrs	r2, r1
 8001a50:	63a2      	str	r2, [r4, #56]	; 0x38
 8001a52:	68de      	ldr	r6, [r3, #12]
 8001a54:	68da      	ldr	r2, [r3, #12]
 8001a56:	3101      	adds	r1, #1
 8001a58:	438a      	bics	r2, r1
 8001a5a:	60da      	str	r2, [r3, #12]
 8001a5c:	2280      	movs	r2, #128	; 0x80
 8001a5e:	6899      	ldr	r1, [r3, #8]
 8001a60:	0612      	lsls	r2, r2, #24
 8001a62:	430a      	orrs	r2, r1
 8001a64:	609a      	str	r2, [r3, #8]
 8001a66:	f7ff fcfb 	bl	8001460 <HAL_GetTick>
 8001a6a:	0005      	movs	r5, r0
 8001a6c:	6823      	ldr	r3, [r4, #0]
 8001a6e:	689a      	ldr	r2, [r3, #8]
 8001a70:	2a00      	cmp	r2, #0
 8001a72:	da1c      	bge.n	8001aae <HAL_ADCEx_Calibration_Start+0x92>
 8001a74:	f7ff fcf4 	bl	8001460 <HAL_GetTick>
 8001a78:	6823      	ldr	r3, [r4, #0]
 8001a7a:	1b40      	subs	r0, r0, r5
 8001a7c:	2802      	cmp	r0, #2
 8001a7e:	d9f6      	bls.n	8001a6e <HAL_ADCEx_Calibration_Start+0x52>
 8001a80:	689a      	ldr	r2, [r3, #8]
 8001a82:	2a00      	cmp	r2, #0
 8001a84:	daf3      	bge.n	8001a6e <HAL_ADCEx_Calibration_Start+0x52>
 8001a86:	2212      	movs	r2, #18
 8001a88:	6ba3      	ldr	r3, [r4, #56]	; 0x38
 8001a8a:	2001      	movs	r0, #1
 8001a8c:	4393      	bics	r3, r2
 8001a8e:	3a02      	subs	r2, #2
 8001a90:	4313      	orrs	r3, r2
 8001a92:	63a3      	str	r3, [r4, #56]	; 0x38
 8001a94:	2200      	movs	r2, #0
 8001a96:	2334      	movs	r3, #52	; 0x34
 8001a98:	54e2      	strb	r2, [r4, r3]
 8001a9a:	e007      	b.n	8001aac <HAL_ADCEx_Calibration_Start+0x90>
 8001a9c:	2220      	movs	r2, #32
 8001a9e:	2001      	movs	r0, #1
 8001aa0:	6ba3      	ldr	r3, [r4, #56]	; 0x38
 8001aa2:	4313      	orrs	r3, r2
 8001aa4:	63a3      	str	r3, [r4, #56]	; 0x38
 8001aa6:	2334      	movs	r3, #52	; 0x34
 8001aa8:	2200      	movs	r2, #0
 8001aaa:	54e2      	strb	r2, [r4, r3]
 8001aac:	bd70      	pop	{r4, r5, r6, pc}
 8001aae:	2203      	movs	r2, #3
 8001ab0:	68d9      	ldr	r1, [r3, #12]
 8001ab2:	4016      	ands	r6, r2
 8001ab4:	430e      	orrs	r6, r1
 8001ab6:	60de      	str	r6, [r3, #12]
 8001ab8:	6ba3      	ldr	r3, [r4, #56]	; 0x38
 8001aba:	2000      	movs	r0, #0
 8001abc:	4393      	bics	r3, r2
 8001abe:	3a02      	subs	r2, #2
 8001ac0:	4313      	orrs	r3, r2
 8001ac2:	63a3      	str	r3, [r4, #56]	; 0x38
 8001ac4:	e7ef      	b.n	8001aa6 <HAL_ADCEx_Calibration_Start+0x8a>
 8001ac6:	2002      	movs	r0, #2
 8001ac8:	e7f0      	b.n	8001aac <HAL_ADCEx_Calibration_Start+0x90>
 8001aca:	46c0      	nop			; (mov r8, r8)
 8001acc:	fffffefd 	.word	0xfffffefd

08001ad0 <HAL_NVIC_SetPriority>:
 8001ad0:	b570      	push	{r4, r5, r6, lr}
 8001ad2:	2800      	cmp	r0, #0
 8001ad4:	db14      	blt.n	8001b00 <HAL_NVIC_SetPriority+0x30>
 8001ad6:	4b15      	ldr	r3, [pc, #84]	; (8001b2c <HAL_NVIC_SetPriority+0x5c>)
 8001ad8:	2203      	movs	r2, #3
 8001ada:	469c      	mov	ip, r3
 8001adc:	23ff      	movs	r3, #255	; 0xff
 8001ade:	0884      	lsrs	r4, r0, #2
 8001ae0:	4002      	ands	r2, r0
 8001ae2:	0018      	movs	r0, r3
 8001ae4:	26c0      	movs	r6, #192	; 0xc0
 8001ae6:	00d2      	lsls	r2, r2, #3
 8001ae8:	0189      	lsls	r1, r1, #6
 8001aea:	4090      	lsls	r0, r2
 8001aec:	400b      	ands	r3, r1
 8001aee:	4093      	lsls	r3, r2
 8001af0:	00a4      	lsls	r4, r4, #2
 8001af2:	4464      	add	r4, ip
 8001af4:	00b6      	lsls	r6, r6, #2
 8001af6:	59a5      	ldr	r5, [r4, r6]
 8001af8:	4385      	bics	r5, r0
 8001afa:	432b      	orrs	r3, r5
 8001afc:	51a3      	str	r3, [r4, r6]
 8001afe:	bd70      	pop	{r4, r5, r6, pc}
 8001b00:	4a0b      	ldr	r2, [pc, #44]	; (8001b30 <HAL_NVIC_SetPriority+0x60>)
 8001b02:	230f      	movs	r3, #15
 8001b04:	4694      	mov	ip, r2
 8001b06:	2203      	movs	r2, #3
 8001b08:	4003      	ands	r3, r0
 8001b0a:	4010      	ands	r0, r2
 8001b0c:	32fc      	adds	r2, #252	; 0xfc
 8001b0e:	0015      	movs	r5, r2
 8001b10:	00c0      	lsls	r0, r0, #3
 8001b12:	0189      	lsls	r1, r1, #6
 8001b14:	4085      	lsls	r5, r0
 8001b16:	400a      	ands	r2, r1
 8001b18:	4082      	lsls	r2, r0
 8001b1a:	3b08      	subs	r3, #8
 8001b1c:	089b      	lsrs	r3, r3, #2
 8001b1e:	009b      	lsls	r3, r3, #2
 8001b20:	4463      	add	r3, ip
 8001b22:	69dc      	ldr	r4, [r3, #28]
 8001b24:	43ac      	bics	r4, r5
 8001b26:	4322      	orrs	r2, r4
 8001b28:	61da      	str	r2, [r3, #28]
 8001b2a:	e7e8      	b.n	8001afe <HAL_NVIC_SetPriority+0x2e>
 8001b2c:	e000e100 	.word	0xe000e100
 8001b30:	e000ed00 	.word	0xe000ed00

08001b34 <HAL_NVIC_EnableIRQ>:
 8001b34:	2800      	cmp	r0, #0
 8001b36:	db05      	blt.n	8001b44 <HAL_NVIC_EnableIRQ+0x10>
 8001b38:	221f      	movs	r2, #31
 8001b3a:	2301      	movs	r3, #1
 8001b3c:	4002      	ands	r2, r0
 8001b3e:	4093      	lsls	r3, r2
 8001b40:	4a01      	ldr	r2, [pc, #4]	; (8001b48 <HAL_NVIC_EnableIRQ+0x14>)
 8001b42:	6013      	str	r3, [r2, #0]
 8001b44:	4770      	bx	lr
 8001b46:	46c0      	nop			; (mov r8, r8)
 8001b48:	e000e100 	.word	0xe000e100

08001b4c <HAL_SYSTICK_Config>:
 8001b4c:	2280      	movs	r2, #128	; 0x80
 8001b4e:	1e43      	subs	r3, r0, #1
 8001b50:	0452      	lsls	r2, r2, #17
 8001b52:	2001      	movs	r0, #1
 8001b54:	4293      	cmp	r3, r2
 8001b56:	d20e      	bcs.n	8001b76 <HAL_SYSTICK_Config+0x2a>
 8001b58:	21c0      	movs	r1, #192	; 0xc0
 8001b5a:	4a07      	ldr	r2, [pc, #28]	; (8001b78 <HAL_SYSTICK_Config+0x2c>)
 8001b5c:	4807      	ldr	r0, [pc, #28]	; (8001b7c <HAL_SYSTICK_Config+0x30>)
 8001b5e:	6053      	str	r3, [r2, #4]
 8001b60:	6a03      	ldr	r3, [r0, #32]
 8001b62:	0609      	lsls	r1, r1, #24
 8001b64:	021b      	lsls	r3, r3, #8
 8001b66:	0a1b      	lsrs	r3, r3, #8
 8001b68:	430b      	orrs	r3, r1
 8001b6a:	6203      	str	r3, [r0, #32]
 8001b6c:	2300      	movs	r3, #0
 8001b6e:	2000      	movs	r0, #0
 8001b70:	6093      	str	r3, [r2, #8]
 8001b72:	3307      	adds	r3, #7
 8001b74:	6013      	str	r3, [r2, #0]
 8001b76:	4770      	bx	lr
 8001b78:	e000e010 	.word	0xe000e010
 8001b7c:	e000ed00 	.word	0xe000ed00

08001b80 <HAL_DMA_Init>:
 8001b80:	b570      	push	{r4, r5, r6, lr}
 8001b82:	1e04      	subs	r4, r0, #0
 8001b84:	d027      	beq.n	8001bd6 <HAL_DMA_Init+0x56>
 8001b86:	2521      	movs	r5, #33	; 0x21
 8001b88:	2302      	movs	r3, #2
 8001b8a:	5543      	strb	r3, [r0, r5]
 8001b8c:	6800      	ldr	r0, [r0, #0]
 8001b8e:	4b13      	ldr	r3, [pc, #76]	; (8001bdc <HAL_DMA_Init+0x5c>)
 8001b90:	6802      	ldr	r2, [r0, #0]
 8001b92:	68a1      	ldr	r1, [r4, #8]
 8001b94:	401a      	ands	r2, r3
 8001b96:	6863      	ldr	r3, [r4, #4]
 8001b98:	430b      	orrs	r3, r1
 8001b9a:	68e1      	ldr	r1, [r4, #12]
 8001b9c:	430b      	orrs	r3, r1
 8001b9e:	6921      	ldr	r1, [r4, #16]
 8001ba0:	430b      	orrs	r3, r1
 8001ba2:	6961      	ldr	r1, [r4, #20]
 8001ba4:	430b      	orrs	r3, r1
 8001ba6:	69a1      	ldr	r1, [r4, #24]
 8001ba8:	430b      	orrs	r3, r1
 8001baa:	69e1      	ldr	r1, [r4, #28]
 8001bac:	430b      	orrs	r3, r1
 8001bae:	4313      	orrs	r3, r2
 8001bb0:	6003      	str	r3, [r0, #0]
 8001bb2:	4b0b      	ldr	r3, [pc, #44]	; (8001be0 <HAL_DMA_Init+0x60>)
 8001bb4:	2114      	movs	r1, #20
 8001bb6:	469c      	mov	ip, r3
 8001bb8:	4460      	add	r0, ip
 8001bba:	f7fe faa5 	bl	8000108 <__udivsi3>
 8001bbe:	4b09      	ldr	r3, [pc, #36]	; (8001be4 <HAL_DMA_Init+0x64>)
 8001bc0:	2201      	movs	r2, #1
 8001bc2:	63e3      	str	r3, [r4, #60]	; 0x3c
 8001bc4:	2300      	movs	r3, #0
 8001bc6:	0080      	lsls	r0, r0, #2
 8001bc8:	6420      	str	r0, [r4, #64]	; 0x40
 8001bca:	2000      	movs	r0, #0
 8001bcc:	63a3      	str	r3, [r4, #56]	; 0x38
 8001bce:	5562      	strb	r2, [r4, r5]
 8001bd0:	321f      	adds	r2, #31
 8001bd2:	54a3      	strb	r3, [r4, r2]
 8001bd4:	bd70      	pop	{r4, r5, r6, pc}
 8001bd6:	2001      	movs	r0, #1
 8001bd8:	e7fc      	b.n	8001bd4 <HAL_DMA_Init+0x54>
 8001bda:	46c0      	nop			; (mov r8, r8)
 8001bdc:	ffffc00f 	.word	0xffffc00f
 8001be0:	bffdfff8 	.word	0xbffdfff8
 8001be4:	40020000 	.word	0x40020000

08001be8 <HAL_DMA_Start_IT>:
 8001be8:	b5f0      	push	{r4, r5, r6, r7, lr}
 8001bea:	2420      	movs	r4, #32
 8001bec:	5d05      	ldrb	r5, [r0, r4]
 8001bee:	2d01      	cmp	r5, #1
 8001bf0:	d037      	beq.n	8001c62 <HAL_DMA_Start_IT+0x7a>
 8001bf2:	2501      	movs	r5, #1
 8001bf4:	2721      	movs	r7, #33	; 0x21
 8001bf6:	5505      	strb	r5, [r0, r4]
 8001bf8:	5dc5      	ldrb	r5, [r0, r7]
 8001bfa:	b2ee      	uxtb	r6, r5
 8001bfc:	2d01      	cmp	r5, #1
 8001bfe:	d003      	beq.n	8001c08 <HAL_DMA_Start_IT+0x20>
 8001c00:	2300      	movs	r3, #0
 8001c02:	5503      	strb	r3, [r0, r4]
 8001c04:	2002      	movs	r0, #2
 8001c06:	bdf0      	pop	{r4, r5, r6, r7, pc}
 8001c08:	3c1e      	subs	r4, #30
 8001c0a:	55c4      	strb	r4, [r0, r7]
 8001c0c:	2400      	movs	r4, #0
 8001c0e:	6384      	str	r4, [r0, #56]	; 0x38
 8001c10:	6804      	ldr	r4, [r0, #0]
 8001c12:	6c07      	ldr	r7, [r0, #64]	; 0x40
 8001c14:	6825      	ldr	r5, [r4, #0]
 8001c16:	43b5      	bics	r5, r6
 8001c18:	40be      	lsls	r6, r7
 8001c1a:	6025      	str	r5, [r4, #0]
 8001c1c:	6bc5      	ldr	r5, [r0, #60]	; 0x3c
 8001c1e:	606e      	str	r6, [r5, #4]
 8001c20:	6063      	str	r3, [r4, #4]
 8001c22:	6843      	ldr	r3, [r0, #4]
 8001c24:	2b10      	cmp	r3, #16
 8001c26:	d00e      	beq.n	8001c46 <HAL_DMA_Start_IT+0x5e>
 8001c28:	6ac3      	ldr	r3, [r0, #44]	; 0x2c
 8001c2a:	60a1      	str	r1, [r4, #8]
 8001c2c:	60e2      	str	r2, [r4, #12]
 8001c2e:	2b00      	cmp	r3, #0
 8001c30:	d00e      	beq.n	8001c50 <HAL_DMA_Start_IT+0x68>
 8001c32:	220e      	movs	r2, #14
 8001c34:	6823      	ldr	r3, [r4, #0]
 8001c36:	4313      	orrs	r3, r2
 8001c38:	6023      	str	r3, [r4, #0]
 8001c3a:	2201      	movs	r2, #1
 8001c3c:	6823      	ldr	r3, [r4, #0]
 8001c3e:	2000      	movs	r0, #0
 8001c40:	4313      	orrs	r3, r2
 8001c42:	6023      	str	r3, [r4, #0]
 8001c44:	e7df      	b.n	8001c06 <HAL_DMA_Start_IT+0x1e>
 8001c46:	6ac3      	ldr	r3, [r0, #44]	; 0x2c
 8001c48:	60a2      	str	r2, [r4, #8]
 8001c4a:	60e1      	str	r1, [r4, #12]
 8001c4c:	2b00      	cmp	r3, #0
 8001c4e:	d1f0      	bne.n	8001c32 <HAL_DMA_Start_IT+0x4a>
 8001c50:	220a      	movs	r2, #10
 8001c52:	6823      	ldr	r3, [r4, #0]
 8001c54:	4313      	orrs	r3, r2
 8001c56:	6023      	str	r3, [r4, #0]
 8001c58:	6823      	ldr	r3, [r4, #0]
 8001c5a:	3a06      	subs	r2, #6
 8001c5c:	4393      	bics	r3, r2
 8001c5e:	6023      	str	r3, [r4, #0]
 8001c60:	e7eb      	b.n	8001c3a <HAL_DMA_Start_IT+0x52>
 8001c62:	2002      	movs	r0, #2
 8001c64:	e7cf      	b.n	8001c06 <HAL_DMA_Start_IT+0x1e>
 8001c66:	46c0      	nop			; (mov r8, r8)

08001c68 <HAL_DMA_Abort>:
 8001c68:	2221      	movs	r2, #33	; 0x21
 8001c6a:	b530      	push	{r4, r5, lr}
 8001c6c:	5c81      	ldrb	r1, [r0, r2]
 8001c6e:	0003      	movs	r3, r0
 8001c70:	2902      	cmp	r1, #2
 8001c72:	d006      	beq.n	8001c82 <HAL_DMA_Abort+0x1a>
 8001c74:	3a1d      	subs	r2, #29
 8001c76:	6382      	str	r2, [r0, #56]	; 0x38
 8001c78:	2001      	movs	r0, #1
 8001c7a:	2220      	movs	r2, #32
 8001c7c:	2100      	movs	r1, #0
 8001c7e:	5499      	strb	r1, [r3, r2]
 8001c80:	bd30      	pop	{r4, r5, pc}
 8001c82:	240e      	movs	r4, #14
 8001c84:	6801      	ldr	r1, [r0, #0]
 8001c86:	6808      	ldr	r0, [r1, #0]
 8001c88:	43a0      	bics	r0, r4
 8001c8a:	6008      	str	r0, [r1, #0]
 8001c8c:	2001      	movs	r0, #1
 8001c8e:	0005      	movs	r5, r0
 8001c90:	680c      	ldr	r4, [r1, #0]
 8001c92:	4384      	bics	r4, r0
 8001c94:	600c      	str	r4, [r1, #0]
 8001c96:	6c1c      	ldr	r4, [r3, #64]	; 0x40
 8001c98:	6bd9      	ldr	r1, [r3, #60]	; 0x3c
 8001c9a:	40a5      	lsls	r5, r4
 8001c9c:	604d      	str	r5, [r1, #4]
 8001c9e:	5498      	strb	r0, [r3, r2]
 8001ca0:	2000      	movs	r0, #0
 8001ca2:	e7ea      	b.n	8001c7a <HAL_DMA_Abort+0x12>

08001ca4 <HAL_DMA_Abort_IT>:
 8001ca4:	2321      	movs	r3, #33	; 0x21
 8001ca6:	b570      	push	{r4, r5, r6, lr}
 8001ca8:	5cc2      	ldrb	r2, [r0, r3]
 8001caa:	2a02      	cmp	r2, #2
 8001cac:	d003      	beq.n	8001cb6 <HAL_DMA_Abort_IT+0x12>
 8001cae:	3b1d      	subs	r3, #29
 8001cb0:	6383      	str	r3, [r0, #56]	; 0x38
 8001cb2:	2001      	movs	r0, #1
 8001cb4:	bd70      	pop	{r4, r5, r6, pc}
 8001cb6:	240e      	movs	r4, #14
 8001cb8:	6802      	ldr	r2, [r0, #0]
 8001cba:	6811      	ldr	r1, [r2, #0]
 8001cbc:	43a1      	bics	r1, r4
 8001cbe:	6011      	str	r1, [r2, #0]
 8001cc0:	2101      	movs	r1, #1
 8001cc2:	000d      	movs	r5, r1
 8001cc4:	6814      	ldr	r4, [r2, #0]
 8001cc6:	438c      	bics	r4, r1
 8001cc8:	6014      	str	r4, [r2, #0]
 8001cca:	6c04      	ldr	r4, [r0, #64]	; 0x40
 8001ccc:	6bc2      	ldr	r2, [r0, #60]	; 0x3c
 8001cce:	40a5      	lsls	r5, r4
 8001cd0:	6055      	str	r5, [r2, #4]
 8001cd2:	54c1      	strb	r1, [r0, r3]
 8001cd4:	2200      	movs	r2, #0
 8001cd6:	2320      	movs	r3, #32
 8001cd8:	54c2      	strb	r2, [r0, r3]
 8001cda:	6b43      	ldr	r3, [r0, #52]	; 0x34
 8001cdc:	2b00      	cmp	r3, #0
 8001cde:	d002      	beq.n	8001ce6 <HAL_DMA_Abort_IT+0x42>
 8001ce0:	4798      	blx	r3
 8001ce2:	2000      	movs	r0, #0
 8001ce4:	e7e6      	b.n	8001cb4 <HAL_DMA_Abort_IT+0x10>
 8001ce6:	2000      	movs	r0, #0
 8001ce8:	e7e4      	b.n	8001cb4 <HAL_DMA_Abort_IT+0x10>
 8001cea:	46c0      	nop			; (mov r8, r8)

08001cec <HAL_DMA_IRQHandler>:
 8001cec:	2104      	movs	r1, #4
 8001cee:	b5f8      	push	{r3, r4, r5, r6, r7, lr}
 8001cf0:	000c      	movs	r4, r1
 8001cf2:	6c03      	ldr	r3, [r0, #64]	; 0x40
 8001cf4:	6bc7      	ldr	r7, [r0, #60]	; 0x3c
 8001cf6:	409c      	lsls	r4, r3
 8001cf8:	683a      	ldr	r2, [r7, #0]
 8001cfa:	6806      	ldr	r6, [r0, #0]
 8001cfc:	6835      	ldr	r5, [r6, #0]
 8001cfe:	4222      	tst	r2, r4
 8001d00:	d00d      	beq.n	8001d1e <HAL_DMA_IRQHandler+0x32>
 8001d02:	4229      	tst	r1, r5
 8001d04:	d00b      	beq.n	8001d1e <HAL_DMA_IRQHandler+0x32>
 8001d06:	6833      	ldr	r3, [r6, #0]
 8001d08:	069b      	lsls	r3, r3, #26
 8001d0a:	d402      	bmi.n	8001d12 <HAL_DMA_IRQHandler+0x26>
 8001d0c:	6833      	ldr	r3, [r6, #0]
 8001d0e:	438b      	bics	r3, r1
 8001d10:	6033      	str	r3, [r6, #0]
 8001d12:	6ac3      	ldr	r3, [r0, #44]	; 0x2c
 8001d14:	607c      	str	r4, [r7, #4]
 8001d16:	2b00      	cmp	r3, #0
 8001d18:	d000      	beq.n	8001d1c <HAL_DMA_IRQHandler+0x30>
 8001d1a:	4798      	blx	r3
 8001d1c:	bdf8      	pop	{r3, r4, r5, r6, r7, pc}
 8001d1e:	2102      	movs	r1, #2
 8001d20:	000c      	movs	r4, r1
 8001d22:	409c      	lsls	r4, r3
 8001d24:	4222      	tst	r2, r4
 8001d26:	d014      	beq.n	8001d52 <HAL_DMA_IRQHandler+0x66>
 8001d28:	4229      	tst	r1, r5
 8001d2a:	d012      	beq.n	8001d52 <HAL_DMA_IRQHandler+0x66>
 8001d2c:	6833      	ldr	r3, [r6, #0]
 8001d2e:	069b      	lsls	r3, r3, #26
 8001d30:	d406      	bmi.n	8001d40 <HAL_DMA_IRQHandler+0x54>
 8001d32:	220a      	movs	r2, #10
 8001d34:	6833      	ldr	r3, [r6, #0]
 8001d36:	4393      	bics	r3, r2
 8001d38:	6033      	str	r3, [r6, #0]
 8001d3a:	2321      	movs	r3, #33	; 0x21
 8001d3c:	3a09      	subs	r2, #9
 8001d3e:	54c2      	strb	r2, [r0, r3]
 8001d40:	2320      	movs	r3, #32
 8001d42:	2200      	movs	r2, #0
 8001d44:	607c      	str	r4, [r7, #4]
 8001d46:	54c2      	strb	r2, [r0, r3]
 8001d48:	6a83      	ldr	r3, [r0, #40]	; 0x28
 8001d4a:	2b00      	cmp	r3, #0
 8001d4c:	d0e6      	beq.n	8001d1c <HAL_DMA_IRQHandler+0x30>
 8001d4e:	4798      	blx	r3
 8001d50:	e7e4      	b.n	8001d1c <HAL_DMA_IRQHandler+0x30>
 8001d52:	2108      	movs	r1, #8
 8001d54:	000c      	movs	r4, r1
 8001d56:	409c      	lsls	r4, r3
 8001d58:	4222      	tst	r2, r4
 8001d5a:	d0df      	beq.n	8001d1c <HAL_DMA_IRQHandler+0x30>
 8001d5c:	4229      	tst	r1, r5
 8001d5e:	d0dd      	beq.n	8001d1c <HAL_DMA_IRQHandler+0x30>
 8001d60:	6832      	ldr	r2, [r6, #0]
 8001d62:	3106      	adds	r1, #6
 8001d64:	438a      	bics	r2, r1
 8001d66:	6032      	str	r2, [r6, #0]
 8001d68:	2201      	movs	r2, #1
 8001d6a:	0011      	movs	r1, r2
 8001d6c:	4099      	lsls	r1, r3
 8001d6e:	2321      	movs	r3, #33	; 0x21
 8001d70:	6079      	str	r1, [r7, #4]
 8001d72:	6382      	str	r2, [r0, #56]	; 0x38
 8001d74:	54c2      	strb	r2, [r0, r3]
 8001d76:	2200      	movs	r2, #0
 8001d78:	3b01      	subs	r3, #1
 8001d7a:	54c2      	strb	r2, [r0, r3]
 8001d7c:	6b03      	ldr	r3, [r0, #48]	; 0x30
 8001d7e:	2b00      	cmp	r3, #0
 8001d80:	d0cc      	beq.n	8001d1c <HAL_DMA_IRQHandler+0x30>
 8001d82:	4798      	blx	r3
 8001d84:	e7ca      	b.n	8001d1c <HAL_DMA_IRQHandler+0x30>
 8001d86:	46c0      	nop			; (mov r8, r8)

08001d88 <HAL_DMA_GetState>:
 8001d88:	2321      	movs	r3, #33	; 0x21
 8001d8a:	5cc0      	ldrb	r0, [r0, r3]
 8001d8c:	b2c0      	uxtb	r0, r0
 8001d8e:	4770      	bx	lr

08001d90 <HAL_GPIO_Init>:
 8001d90:	b5f0      	push	{r4, r5, r6, r7, lr}
 8001d92:	46de      	mov	lr, fp
 8001d94:	4657      	mov	r7, sl
 8001d96:	464e      	mov	r6, r9
 8001d98:	4645      	mov	r5, r8
 8001d9a:	b5e0      	push	{r5, r6, r7, lr}
 8001d9c:	468c      	mov	ip, r1
 8001d9e:	6809      	ldr	r1, [r1, #0]
 8001da0:	2200      	movs	r2, #0
 8001da2:	2300      	movs	r3, #0
 8001da4:	b087      	sub	sp, #28
 8001da6:	2900      	cmp	r1, #0
 8001da8:	d100      	bne.n	8001dac <HAL_GPIO_Init+0x1c>
 8001daa:	e0d0      	b.n	8001f4e <HAL_GPIO_Init+0x1be>
 8001dac:	4c72      	ldr	r4, [pc, #456]	; (8001f78 <HAL_GPIO_Init+0x1e8>)
 8001dae:	46e2      	mov	sl, ip
 8001db0:	46a3      	mov	fp, r4
 8001db2:	e064      	b.n	8001e7e <HAL_GPIO_Init+0xee>
 8001db4:	4665      	mov	r5, ip
 8001db6:	2d03      	cmp	r5, #3
 8001db8:	d000      	beq.n	8001dbc <HAL_GPIO_Init+0x2c>
 8001dba:	e0b6      	b.n	8001f2a <HAL_GPIO_Init+0x19a>
 8001dbc:	4666      	mov	r6, ip
 8001dbe:	4096      	lsls	r6, r2
 8001dc0:	43f5      	mvns	r5, r6
 8001dc2:	9502      	str	r5, [sp, #8]
 8001dc4:	6807      	ldr	r7, [r0, #0]
 8001dc6:	9d02      	ldr	r5, [sp, #8]
 8001dc8:	403d      	ands	r5, r7
 8001dca:	432e      	orrs	r6, r5
 8001dcc:	25c0      	movs	r5, #192	; 0xc0
 8001dce:	02ad      	lsls	r5, r5, #10
 8001dd0:	6006      	str	r6, [r0, #0]
 8001dd2:	422c      	tst	r4, r5
 8001dd4:	d04d      	beq.n	8001e72 <HAL_GPIO_Init+0xe2>
 8001dd6:	465d      	mov	r5, fp
 8001dd8:	2601      	movs	r6, #1
 8001dda:	465f      	mov	r7, fp
 8001ddc:	69ad      	ldr	r5, [r5, #24]
 8001dde:	4335      	orrs	r5, r6
 8001de0:	61bd      	str	r5, [r7, #24]
 8001de2:	69bd      	ldr	r5, [r7, #24]
 8001de4:	2703      	movs	r7, #3
 8001de6:	4035      	ands	r5, r6
 8001de8:	4e64      	ldr	r6, [pc, #400]	; (8001f7c <HAL_GPIO_Init+0x1ec>)
 8001dea:	9505      	str	r5, [sp, #20]
 8001dec:	46b4      	mov	ip, r6
 8001dee:	9d05      	ldr	r5, [sp, #20]
 8001df0:	401f      	ands	r7, r3
 8001df2:	089d      	lsrs	r5, r3, #2
 8001df4:	00bf      	lsls	r7, r7, #2
 8001df6:	00ad      	lsls	r5, r5, #2
 8001df8:	4465      	add	r5, ip
 8001dfa:	46bc      	mov	ip, r7
 8001dfc:	68ae      	ldr	r6, [r5, #8]
 8001dfe:	270f      	movs	r7, #15
 8001e00:	46b1      	mov	r9, r6
 8001e02:	4666      	mov	r6, ip
 8001e04:	40b7      	lsls	r7, r6
 8001e06:	003e      	movs	r6, r7
 8001e08:	464f      	mov	r7, r9
 8001e0a:	43b7      	bics	r7, r6
 8001e0c:	46b9      	mov	r9, r7
 8001e0e:	2790      	movs	r7, #144	; 0x90
 8001e10:	05ff      	lsls	r7, r7, #23
 8001e12:	42b8      	cmp	r0, r7
 8001e14:	d00e      	beq.n	8001e34 <HAL_GPIO_Init+0xa4>
 8001e16:	4f5a      	ldr	r7, [pc, #360]	; (8001f80 <HAL_GPIO_Init+0x1f0>)
 8001e18:	42b8      	cmp	r0, r7
 8001e1a:	d100      	bne.n	8001e1e <HAL_GPIO_Init+0x8e>
 8001e1c:	e09e      	b.n	8001f5c <HAL_GPIO_Init+0x1cc>
 8001e1e:	4f59      	ldr	r7, [pc, #356]	; (8001f84 <HAL_GPIO_Init+0x1f4>)
 8001e20:	42b8      	cmp	r0, r7
 8001e22:	d100      	bne.n	8001e26 <HAL_GPIO_Init+0x96>
 8001e24:	e0a1      	b.n	8001f6a <HAL_GPIO_Init+0x1da>
 8001e26:	4666      	mov	r6, ip
 8001e28:	2705      	movs	r7, #5
 8001e2a:	40b7      	lsls	r7, r6
 8001e2c:	003e      	movs	r6, r7
 8001e2e:	464f      	mov	r7, r9
 8001e30:	4337      	orrs	r7, r6
 8001e32:	46b9      	mov	r9, r7
 8001e34:	464e      	mov	r6, r9
 8001e36:	2780      	movs	r7, #128	; 0x80
 8001e38:	60ae      	str	r6, [r5, #8]
 8001e3a:	4d53      	ldr	r5, [pc, #332]	; (8001f88 <HAL_GPIO_Init+0x1f8>)
 8001e3c:	9e01      	ldr	r6, [sp, #4]
 8001e3e:	037f      	lsls	r7, r7, #13
 8001e40:	43f6      	mvns	r6, r6
 8001e42:	68ad      	ldr	r5, [r5, #8]
 8001e44:	423c      	tst	r4, r7
 8001e46:	d17f      	bne.n	8001f48 <HAL_GPIO_Init+0x1b8>
 8001e48:	4035      	ands	r5, r6
 8001e4a:	4f4f      	ldr	r7, [pc, #316]	; (8001f88 <HAL_GPIO_Init+0x1f8>)
 8001e4c:	60bd      	str	r5, [r7, #8]
 8001e4e:	68fd      	ldr	r5, [r7, #12]
 8001e50:	02a7      	lsls	r7, r4, #10
 8001e52:	d476      	bmi.n	8001f42 <HAL_GPIO_Init+0x1b2>
 8001e54:	4035      	ands	r5, r6
 8001e56:	4f4c      	ldr	r7, [pc, #304]	; (8001f88 <HAL_GPIO_Init+0x1f8>)
 8001e58:	60fd      	str	r5, [r7, #12]
 8001e5a:	687d      	ldr	r5, [r7, #4]
 8001e5c:	03a7      	lsls	r7, r4, #14
 8001e5e:	d46d      	bmi.n	8001f3c <HAL_GPIO_Init+0x1ac>
 8001e60:	4035      	ands	r5, r6
 8001e62:	4f49      	ldr	r7, [pc, #292]	; (8001f88 <HAL_GPIO_Init+0x1f8>)
 8001e64:	607d      	str	r5, [r7, #4]
 8001e66:	683d      	ldr	r5, [r7, #0]
 8001e68:	03e4      	lsls	r4, r4, #15
 8001e6a:	d463      	bmi.n	8001f34 <HAL_GPIO_Init+0x1a4>
 8001e6c:	4035      	ands	r5, r6
 8001e6e:	4c46      	ldr	r4, [pc, #280]	; (8001f88 <HAL_GPIO_Init+0x1f8>)
 8001e70:	6025      	str	r5, [r4, #0]
 8001e72:	000c      	movs	r4, r1
 8001e74:	3301      	adds	r3, #1
 8001e76:	40dc      	lsrs	r4, r3
 8001e78:	3202      	adds	r2, #2
 8001e7a:	2c00      	cmp	r4, #0
 8001e7c:	d067      	beq.n	8001f4e <HAL_GPIO_Init+0x1be>
 8001e7e:	2601      	movs	r6, #1
 8001e80:	000c      	movs	r4, r1
 8001e82:	409e      	lsls	r6, r3
 8001e84:	4034      	ands	r4, r6
 8001e86:	9401      	str	r4, [sp, #4]
 8001e88:	4231      	tst	r1, r6
 8001e8a:	d0f2      	beq.n	8001e72 <HAL_GPIO_Init+0xe2>
 8001e8c:	4654      	mov	r4, sl
 8001e8e:	2503      	movs	r5, #3
 8001e90:	6864      	ldr	r4, [r4, #4]
 8001e92:	4025      	ands	r5, r4
 8001e94:	46ac      	mov	ip, r5
 8001e96:	3d01      	subs	r5, #1
 8001e98:	2d01      	cmp	r5, #1
 8001e9a:	d88b      	bhi.n	8001db4 <HAL_GPIO_Init+0x24>
 8001e9c:	6885      	ldr	r5, [r0, #8]
 8001e9e:	46a9      	mov	r9, r5
 8001ea0:	2503      	movs	r5, #3
 8001ea2:	4095      	lsls	r5, r2
 8001ea4:	46a8      	mov	r8, r5
 8001ea6:	43ed      	mvns	r5, r5
 8001ea8:	464f      	mov	r7, r9
 8001eaa:	9502      	str	r5, [sp, #8]
 8001eac:	4645      	mov	r5, r8
 8001eae:	43af      	bics	r7, r5
 8001eb0:	4655      	mov	r5, sl
 8001eb2:	68ed      	ldr	r5, [r5, #12]
 8001eb4:	46b9      	mov	r9, r7
 8001eb6:	002f      	movs	r7, r5
 8001eb8:	4097      	lsls	r7, r2
 8001eba:	46b8      	mov	r8, r7
 8001ebc:	464f      	mov	r7, r9
 8001ebe:	4645      	mov	r5, r8
 8001ec0:	432f      	orrs	r7, r5
 8001ec2:	6087      	str	r7, [r0, #8]
 8001ec4:	6845      	ldr	r5, [r0, #4]
 8001ec6:	002f      	movs	r7, r5
 8001ec8:	2501      	movs	r5, #1
 8001eca:	43b7      	bics	r7, r6
 8001ecc:	0926      	lsrs	r6, r4, #4
 8001ece:	402e      	ands	r6, r5
 8001ed0:	409e      	lsls	r6, r3
 8001ed2:	433e      	orrs	r6, r7
 8001ed4:	6046      	str	r6, [r0, #4]
 8001ed6:	68c6      	ldr	r6, [r0, #12]
 8001ed8:	9d02      	ldr	r5, [sp, #8]
 8001eda:	402e      	ands	r6, r5
 8001edc:	46b0      	mov	r8, r6
 8001ede:	4656      	mov	r6, sl
 8001ee0:	68b6      	ldr	r6, [r6, #8]
 8001ee2:	4647      	mov	r7, r8
 8001ee4:	4096      	lsls	r6, r2
 8001ee6:	433e      	orrs	r6, r7
 8001ee8:	60c6      	str	r6, [r0, #12]
 8001eea:	4667      	mov	r7, ip
 8001eec:	4666      	mov	r6, ip
 8001eee:	4096      	lsls	r6, r2
 8001ef0:	2f02      	cmp	r7, #2
 8001ef2:	d000      	beq.n	8001ef6 <HAL_GPIO_Init+0x166>
 8001ef4:	e766      	b.n	8001dc4 <HAL_GPIO_Init+0x34>
 8001ef6:	08dd      	lsrs	r5, r3, #3
 8001ef8:	00ad      	lsls	r5, r5, #2
 8001efa:	46ac      	mov	ip, r5
 8001efc:	4484      	add	ip, r0
 8001efe:	4665      	mov	r5, ip
 8001f00:	6a2f      	ldr	r7, [r5, #32]
 8001f02:	2507      	movs	r5, #7
 8001f04:	401d      	ands	r5, r3
 8001f06:	00ad      	lsls	r5, r5, #2
 8001f08:	46a8      	mov	r8, r5
 8001f0a:	9703      	str	r7, [sp, #12]
 8001f0c:	250f      	movs	r5, #15
 8001f0e:	4647      	mov	r7, r8
 8001f10:	40bd      	lsls	r5, r7
 8001f12:	9f03      	ldr	r7, [sp, #12]
 8001f14:	43af      	bics	r7, r5
 8001f16:	4655      	mov	r5, sl
 8001f18:	9703      	str	r7, [sp, #12]
 8001f1a:	4647      	mov	r7, r8
 8001f1c:	692d      	ldr	r5, [r5, #16]
 8001f1e:	40bd      	lsls	r5, r7
 8001f20:	9f03      	ldr	r7, [sp, #12]
 8001f22:	432f      	orrs	r7, r5
 8001f24:	4665      	mov	r5, ip
 8001f26:	622f      	str	r7, [r5, #32]
 8001f28:	e74c      	b.n	8001dc4 <HAL_GPIO_Init+0x34>
 8001f2a:	2503      	movs	r5, #3
 8001f2c:	4095      	lsls	r5, r2
 8001f2e:	43ed      	mvns	r5, r5
 8001f30:	9502      	str	r5, [sp, #8]
 8001f32:	e7d0      	b.n	8001ed6 <HAL_GPIO_Init+0x146>
 8001f34:	9c01      	ldr	r4, [sp, #4]
 8001f36:	432c      	orrs	r4, r5
 8001f38:	0025      	movs	r5, r4
 8001f3a:	e798      	b.n	8001e6e <HAL_GPIO_Init+0xde>
 8001f3c:	9f01      	ldr	r7, [sp, #4]
 8001f3e:	433d      	orrs	r5, r7
 8001f40:	e78f      	b.n	8001e62 <HAL_GPIO_Init+0xd2>
 8001f42:	9f01      	ldr	r7, [sp, #4]
 8001f44:	433d      	orrs	r5, r7
 8001f46:	e786      	b.n	8001e56 <HAL_GPIO_Init+0xc6>
 8001f48:	9f01      	ldr	r7, [sp, #4]
 8001f4a:	433d      	orrs	r5, r7
 8001f4c:	e77d      	b.n	8001e4a <HAL_GPIO_Init+0xba>
 8001f4e:	b007      	add	sp, #28
 8001f50:	bcf0      	pop	{r4, r5, r6, r7}
 8001f52:	46bb      	mov	fp, r7
 8001f54:	46b2      	mov	sl, r6
 8001f56:	46a9      	mov	r9, r5
 8001f58:	46a0      	mov	r8, r4
 8001f5a:	bdf0      	pop	{r4, r5, r6, r7, pc}
 8001f5c:	4667      	mov	r7, ip
 8001f5e:	2601      	movs	r6, #1
 8001f60:	40be      	lsls	r6, r7
 8001f62:	464f      	mov	r7, r9
 8001f64:	4337      	orrs	r7, r6
 8001f66:	46b9      	mov	r9, r7
 8001f68:	e764      	b.n	8001e34 <HAL_GPIO_Init+0xa4>
 8001f6a:	4667      	mov	r7, ip
 8001f6c:	2602      	movs	r6, #2
 8001f6e:	40be      	lsls	r6, r7
 8001f70:	464f      	mov	r7, r9
 8001f72:	4337      	orrs	r7, r6
 8001f74:	46b9      	mov	r9, r7
 8001f76:	e75d      	b.n	8001e34 <HAL_GPIO_Init+0xa4>
 8001f78:	40021000 	.word	0x40021000
 8001f7c:	40010000 	.word	0x40010000
 8001f80:	48000400 	.word	0x48000400
 8001f84:	48000800 	.word	0x48000800
 8001f88:	40010400 	.word	0x40010400

08001f8c <HAL_GPIO_WritePin>:
 8001f8c:	2a00      	cmp	r2, #0
 8001f8e:	d001      	beq.n	8001f94 <HAL_GPIO_WritePin+0x8>
 8001f90:	6181      	str	r1, [r0, #24]
 8001f92:	4770      	bx	lr
 8001f94:	6281      	str	r1, [r0, #40]	; 0x28
 8001f96:	e7fc      	b.n	8001f92 <HAL_GPIO_WritePin+0x6>

08001f98 <HAL_I2C_Init>:
 8001f98:	b510      	push	{r4, lr}
 8001f9a:	1e04      	subs	r4, r0, #0
 8001f9c:	d04d      	beq.n	800203a <HAL_I2C_Init+0xa2>
 8001f9e:	2341      	movs	r3, #65	; 0x41
 8001fa0:	5cc3      	ldrb	r3, [r0, r3]
 8001fa2:	b2da      	uxtb	r2, r3
 8001fa4:	2b00      	cmp	r3, #0
 8001fa6:	d043      	beq.n	8002030 <HAL_I2C_Init+0x98>
 8001fa8:	2341      	movs	r3, #65	; 0x41
 8001faa:	2224      	movs	r2, #36	; 0x24
 8001fac:	2101      	movs	r1, #1
 8001fae:	54e2      	strb	r2, [r4, r3]
 8001fb0:	6823      	ldr	r3, [r4, #0]
 8001fb2:	681a      	ldr	r2, [r3, #0]
 8001fb4:	438a      	bics	r2, r1
 8001fb6:	601a      	str	r2, [r3, #0]
 8001fb8:	4921      	ldr	r1, [pc, #132]	; (8002040 <HAL_I2C_Init+0xa8>)
 8001fba:	6862      	ldr	r2, [r4, #4]
 8001fbc:	400a      	ands	r2, r1
 8001fbe:	611a      	str	r2, [r3, #16]
 8001fc0:	689a      	ldr	r2, [r3, #8]
 8001fc2:	4920      	ldr	r1, [pc, #128]	; (8002044 <HAL_I2C_Init+0xac>)
 8001fc4:	400a      	ands	r2, r1
 8001fc6:	609a      	str	r2, [r3, #8]
 8001fc8:	68e2      	ldr	r2, [r4, #12]
 8001fca:	2a01      	cmp	r2, #1
 8001fcc:	d02a      	beq.n	8002024 <HAL_I2C_Init+0x8c>
 8001fce:	2184      	movs	r1, #132	; 0x84
 8001fd0:	68a0      	ldr	r0, [r4, #8]
 8001fd2:	0209      	lsls	r1, r1, #8
 8001fd4:	4301      	orrs	r1, r0
 8001fd6:	6099      	str	r1, [r3, #8]
 8001fd8:	2a02      	cmp	r2, #2
 8001fda:	d102      	bne.n	8001fe2 <HAL_I2C_Init+0x4a>
 8001fdc:	2280      	movs	r2, #128	; 0x80
 8001fde:	0112      	lsls	r2, r2, #4
 8001fe0:	605a      	str	r2, [r3, #4]
 8001fe2:	6859      	ldr	r1, [r3, #4]
 8001fe4:	4a18      	ldr	r2, [pc, #96]	; (8002048 <HAL_I2C_Init+0xb0>)
 8001fe6:	2000      	movs	r0, #0
 8001fe8:	430a      	orrs	r2, r1
 8001fea:	605a      	str	r2, [r3, #4]
 8001fec:	68da      	ldr	r2, [r3, #12]
 8001fee:	4915      	ldr	r1, [pc, #84]	; (8002044 <HAL_I2C_Init+0xac>)
 8001ff0:	400a      	ands	r2, r1
 8001ff2:	60da      	str	r2, [r3, #12]
 8001ff4:	6961      	ldr	r1, [r4, #20]
 8001ff6:	6922      	ldr	r2, [r4, #16]
 8001ff8:	430a      	orrs	r2, r1
 8001ffa:	69a1      	ldr	r1, [r4, #24]
 8001ffc:	0209      	lsls	r1, r1, #8
 8001ffe:	430a      	orrs	r2, r1
 8002000:	60da      	str	r2, [r3, #12]
 8002002:	6a21      	ldr	r1, [r4, #32]
 8002004:	69e2      	ldr	r2, [r4, #28]
 8002006:	430a      	orrs	r2, r1
 8002008:	2101      	movs	r1, #1
 800200a:	601a      	str	r2, [r3, #0]
 800200c:	681a      	ldr	r2, [r3, #0]
 800200e:	430a      	orrs	r2, r1
 8002010:	601a      	str	r2, [r3, #0]
 8002012:	2300      	movs	r3, #0
 8002014:	2241      	movs	r2, #65	; 0x41
 8002016:	311f      	adds	r1, #31
 8002018:	6463      	str	r3, [r4, #68]	; 0x44
 800201a:	54a1      	strb	r1, [r4, r2]
 800201c:	3201      	adds	r2, #1
 800201e:	6323      	str	r3, [r4, #48]	; 0x30
 8002020:	54a3      	strb	r3, [r4, r2]
 8002022:	bd10      	pop	{r4, pc}
 8002024:	2280      	movs	r2, #128	; 0x80
 8002026:	68a1      	ldr	r1, [r4, #8]
 8002028:	0212      	lsls	r2, r2, #8
 800202a:	430a      	orrs	r2, r1
 800202c:	609a      	str	r2, [r3, #8]
 800202e:	e7d8      	b.n	8001fe2 <HAL_I2C_Init+0x4a>
 8002030:	3340      	adds	r3, #64	; 0x40
 8002032:	54c2      	strb	r2, [r0, r3]
 8002034:	f7fe ff68 	bl	8000f08 <HAL_I2C_MspInit>
 8002038:	e7b6      	b.n	8001fa8 <HAL_I2C_Init+0x10>
 800203a:	2001      	movs	r0, #1
 800203c:	e7f1      	b.n	8002022 <HAL_I2C_Init+0x8a>
 800203e:	46c0      	nop			; (mov r8, r8)
 8002040:	f0ffffff 	.word	0xf0ffffff
 8002044:	ffff7fff 	.word	0xffff7fff
 8002048:	02008000 	.word	0x02008000

0800204c <HAL_I2C_EV_IRQHandler>:
 800204c:	6803      	ldr	r3, [r0, #0]
 800204e:	b510      	push	{r4, lr}
 8002050:	6999      	ldr	r1, [r3, #24]
 8002052:	681a      	ldr	r2, [r3, #0]
 8002054:	6b43      	ldr	r3, [r0, #52]	; 0x34
 8002056:	2b00      	cmp	r3, #0
 8002058:	d000      	beq.n	800205c <HAL_I2C_EV_IRQHandler+0x10>
 800205a:	4798      	blx	r3
 800205c:	bd10      	pop	{r4, pc}
 800205e:	46c0      	nop			; (mov r8, r8)

08002060 <HAL_I2C_SlaveTxCpltCallback>:
 8002060:	4770      	bx	lr
 8002062:	46c0      	nop			; (mov r8, r8)

08002064 <HAL_I2C_SlaveRxCpltCallback>:
 8002064:	4770      	bx	lr
 8002066:	46c0      	nop			; (mov r8, r8)

08002068 <I2C_ITSlaveSeqCplt>:
 8002068:	2142      	movs	r1, #66	; 0x42
 800206a:	b510      	push	{r4, lr}
 800206c:	2400      	movs	r4, #0
 800206e:	6803      	ldr	r3, [r0, #0]
 8002070:	681a      	ldr	r2, [r3, #0]
 8002072:	5444      	strb	r4, [r0, r1]
 8002074:	0451      	lsls	r1, r2, #17
 8002076:	d50b      	bpl.n	8002090 <I2C_ITSlaveSeqCplt+0x28>
 8002078:	681a      	ldr	r2, [r3, #0]
 800207a:	4920      	ldr	r1, [pc, #128]	; (80020fc <I2C_ITSlaveSeqCplt+0x94>)
 800207c:	400a      	ands	r2, r1
 800207e:	601a      	str	r2, [r3, #0]
 8002080:	2141      	movs	r1, #65	; 0x41
 8002082:	5c42      	ldrb	r2, [r0, r1]
 8002084:	2a29      	cmp	r2, #41	; 0x29
 8002086:	d00d      	beq.n	80020a4 <I2C_ITSlaveSeqCplt+0x3c>
 8002088:	5c42      	ldrb	r2, [r0, r1]
 800208a:	2a2a      	cmp	r2, #42	; 0x2a
 800208c:	d020      	beq.n	80020d0 <I2C_ITSlaveSeqCplt+0x68>
 800208e:	bd10      	pop	{r4, pc}
 8002090:	0412      	lsls	r2, r2, #16
 8002092:	d5f5      	bpl.n	8002080 <I2C_ITSlaveSeqCplt+0x18>
 8002094:	681a      	ldr	r2, [r3, #0]
 8002096:	491a      	ldr	r1, [pc, #104]	; (8002100 <I2C_ITSlaveSeqCplt+0x98>)
 8002098:	400a      	ands	r2, r1
 800209a:	2141      	movs	r1, #65	; 0x41
 800209c:	601a      	str	r2, [r3, #0]
 800209e:	5c42      	ldrb	r2, [r0, r1]
 80020a0:	2a29      	cmp	r2, #41	; 0x29
 80020a2:	d1f1      	bne.n	8002088 <I2C_ITSlaveSeqCplt+0x20>
 80020a4:	2421      	movs	r4, #33	; 0x21
 80020a6:	3a01      	subs	r2, #1
 80020a8:	5442      	strb	r2, [r0, r1]
 80020aa:	6304      	str	r4, [r0, #48]	; 0x30
 80020ac:	5c41      	ldrb	r1, [r0, r1]
 80020ae:	400a      	ands	r2, r1
 80020b0:	3a28      	subs	r2, #40	; 0x28
 80020b2:	4251      	negs	r1, r2
 80020b4:	414a      	adcs	r2, r1
 80020b6:	21b0      	movs	r1, #176	; 0xb0
 80020b8:	4252      	negs	r2, r2
 80020ba:	400a      	ands	r2, r1
 80020bc:	6819      	ldr	r1, [r3, #0]
 80020be:	3af3      	subs	r2, #243	; 0xf3
 80020c0:	400a      	ands	r2, r1
 80020c2:	601a      	str	r2, [r3, #0]
 80020c4:	2340      	movs	r3, #64	; 0x40
 80020c6:	2200      	movs	r2, #0
 80020c8:	54c2      	strb	r2, [r0, r3]
 80020ca:	f7ff ffc9 	bl	8002060 <HAL_I2C_SlaveTxCpltCallback>
 80020ce:	e7de      	b.n	800208e <I2C_ITSlaveSeqCplt+0x26>
 80020d0:	2422      	movs	r4, #34	; 0x22
 80020d2:	3a02      	subs	r2, #2
 80020d4:	5442      	strb	r2, [r0, r1]
 80020d6:	6304      	str	r4, [r0, #48]	; 0x30
 80020d8:	5c41      	ldrb	r1, [r0, r1]
 80020da:	400a      	ands	r2, r1
 80020dc:	3a28      	subs	r2, #40	; 0x28
 80020de:	4251      	negs	r1, r2
 80020e0:	414a      	adcs	r2, r1
 80020e2:	21b0      	movs	r1, #176	; 0xb0
 80020e4:	4252      	negs	r2, r2
 80020e6:	400a      	ands	r2, r1
 80020e8:	6819      	ldr	r1, [r3, #0]
 80020ea:	3af5      	subs	r2, #245	; 0xf5
 80020ec:	400a      	ands	r2, r1
 80020ee:	601a      	str	r2, [r3, #0]
 80020f0:	2340      	movs	r3, #64	; 0x40
 80020f2:	2200      	movs	r2, #0
 80020f4:	54c2      	strb	r2, [r0, r3]
 80020f6:	f7ff ffb5 	bl	8002064 <HAL_I2C_SlaveRxCpltCallback>
 80020fa:	e7c8      	b.n	800208e <I2C_ITSlaveSeqCplt+0x26>
 80020fc:	ffffbfff 	.word	0xffffbfff
 8002100:	ffff7fff 	.word	0xffff7fff

08002104 <HAL_I2C_AddrCallback>:
 8002104:	4770      	bx	lr
 8002106:	46c0      	nop			; (mov r8, r8)

08002108 <I2C_ITAddrCplt.part.0>:
 8002108:	b5f0      	push	{r4, r5, r6, r7, lr}
 800210a:	46c6      	mov	lr, r8
 800210c:	25fe      	movs	r5, #254	; 0xfe
 800210e:	6803      	ldr	r3, [r0, #0]
 8002110:	68c6      	ldr	r6, [r0, #12]
 8002112:	6999      	ldr	r1, [r3, #24]
 8002114:	699a      	ldr	r2, [r3, #24]
 8002116:	03c9      	lsls	r1, r1, #15
 8002118:	0c12      	lsrs	r2, r2, #16
 800211a:	689c      	ldr	r4, [r3, #8]
 800211c:	b500      	push	{lr}
 800211e:	68df      	ldr	r7, [r3, #12]
 8002120:	0fc9      	lsrs	r1, r1, #31
 8002122:	402a      	ands	r2, r5
 8002124:	2e02      	cmp	r6, #2
 8002126:	d113      	bne.n	8002150 <I2C_ITAddrCplt.part.0+0x48>
 8002128:	05a4      	lsls	r4, r4, #22
 800212a:	0da6      	lsrs	r6, r4, #22
 800212c:	46b4      	mov	ip, r6
 800212e:	2606      	movs	r6, #6
 8002130:	0f64      	lsrs	r4, r4, #29
 8002132:	4054      	eors	r4, r2
 8002134:	0032      	movs	r2, r6
 8002136:	4022      	ands	r2, r4
 8002138:	4690      	mov	r8, r2
 800213a:	4226      	tst	r6, r4
 800213c:	d112      	bne.n	8002164 <I2C_ITAddrCplt.part.0+0x5c>
 800213e:	6c84      	ldr	r4, [r0, #72]	; 0x48
 8002140:	3401      	adds	r4, #1
 8002142:	6484      	str	r4, [r0, #72]	; 0x48
 8002144:	6c82      	ldr	r2, [r0, #72]	; 0x48
 8002146:	2a02      	cmp	r2, #2
 8002148:	d018      	beq.n	800217c <I2C_ITAddrCplt.part.0+0x74>
 800214a:	bc80      	pop	{r7}
 800214c:	46b8      	mov	r8, r7
 800214e:	bdf0      	pop	{r4, r5, r6, r7, pc}
 8002150:	25b8      	movs	r5, #184	; 0xb8
 8002152:	681c      	ldr	r4, [r3, #0]
 8002154:	43ac      	bics	r4, r5
 8002156:	601c      	str	r4, [r3, #0]
 8002158:	2340      	movs	r3, #64	; 0x40
 800215a:	2400      	movs	r4, #0
 800215c:	54c4      	strb	r4, [r0, r3]
 800215e:	f7ff ffd1 	bl	8002104 <HAL_I2C_AddrCallback>
 8002162:	e7f2      	b.n	800214a <I2C_ITAddrCplt.part.0+0x42>
 8002164:	24b8      	movs	r4, #184	; 0xb8
 8002166:	681a      	ldr	r2, [r3, #0]
 8002168:	43a2      	bics	r2, r4
 800216a:	601a      	str	r2, [r3, #0]
 800216c:	2340      	movs	r3, #64	; 0x40
 800216e:	2200      	movs	r2, #0
 8002170:	54c2      	strb	r2, [r0, r3]
 8002172:	002a      	movs	r2, r5
 8002174:	403a      	ands	r2, r7
 8002176:	f7ff ffc5 	bl	8002104 <HAL_I2C_AddrCallback>
 800217a:	e7e6      	b.n	800214a <I2C_ITAddrCplt.part.0+0x42>
 800217c:	4642      	mov	r2, r8
 800217e:	6482      	str	r2, [r0, #72]	; 0x48
 8002180:	2208      	movs	r2, #8
 8002182:	61da      	str	r2, [r3, #28]
 8002184:	4642      	mov	r2, r8
 8002186:	2340      	movs	r3, #64	; 0x40
 8002188:	54c2      	strb	r2, [r0, r3]
 800218a:	4662      	mov	r2, ip
 800218c:	f7ff ffba 	bl	8002104 <HAL_I2C_AddrCallback>
 8002190:	e7db      	b.n	800214a <I2C_ITAddrCplt.part.0+0x42>
 8002192:	46c0      	nop			; (mov r8, r8)

08002194 <HAL_I2C_ListenCpltCallback>:
 8002194:	4770      	bx	lr
 8002196:	46c0      	nop			; (mov r8, r8)

08002198 <I2C_ITListenCplt>:
 8002198:	4b18      	ldr	r3, [pc, #96]	; (80021fc <I2C_ITListenCplt+0x64>)
 800219a:	2241      	movs	r2, #65	; 0x41
 800219c:	62c3      	str	r3, [r0, #44]	; 0x2c
 800219e:	b510      	push	{r4, lr}
 80021a0:	2300      	movs	r3, #0
 80021a2:	2420      	movs	r4, #32
 80021a4:	6303      	str	r3, [r0, #48]	; 0x30
 80021a6:	5484      	strb	r4, [r0, r2]
 80021a8:	3201      	adds	r2, #1
 80021aa:	5483      	strb	r3, [r0, r2]
 80021ac:	6343      	str	r3, [r0, #52]	; 0x34
 80021ae:	3304      	adds	r3, #4
 80021b0:	420b      	tst	r3, r1
 80021b2:	d012      	beq.n	80021da <I2C_ITListenCplt+0x42>
 80021b4:	6802      	ldr	r2, [r0, #0]
 80021b6:	6a51      	ldr	r1, [r2, #36]	; 0x24
 80021b8:	6a42      	ldr	r2, [r0, #36]	; 0x24
 80021ba:	7011      	strb	r1, [r2, #0]
 80021bc:	6a42      	ldr	r2, [r0, #36]	; 0x24
 80021be:	3201      	adds	r2, #1
 80021c0:	6242      	str	r2, [r0, #36]	; 0x24
 80021c2:	8d02      	ldrh	r2, [r0, #40]	; 0x28
 80021c4:	2a00      	cmp	r2, #0
 80021c6:	d008      	beq.n	80021da <I2C_ITListenCplt+0x42>
 80021c8:	3a01      	subs	r2, #1
 80021ca:	8502      	strh	r2, [r0, #40]	; 0x28
 80021cc:	8d42      	ldrh	r2, [r0, #42]	; 0x2a
 80021ce:	3a01      	subs	r2, #1
 80021d0:	b292      	uxth	r2, r2
 80021d2:	8542      	strh	r2, [r0, #42]	; 0x2a
 80021d4:	6c42      	ldr	r2, [r0, #68]	; 0x44
 80021d6:	4313      	orrs	r3, r2
 80021d8:	6443      	str	r3, [r0, #68]	; 0x44
 80021da:	2341      	movs	r3, #65	; 0x41
 80021dc:	21fe      	movs	r1, #254	; 0xfe
 80021de:	5cc2      	ldrb	r2, [r0, r3]
 80021e0:	5cc3      	ldrb	r3, [r0, r3]
 80021e2:	6803      	ldr	r3, [r0, #0]
 80021e4:	681a      	ldr	r2, [r3, #0]
 80021e6:	438a      	bics	r2, r1
 80021e8:	601a      	str	r2, [r3, #0]
 80021ea:	2210      	movs	r2, #16
 80021ec:	61da      	str	r2, [r3, #28]
 80021ee:	2340      	movs	r3, #64	; 0x40
 80021f0:	2200      	movs	r2, #0
 80021f2:	54c2      	strb	r2, [r0, r3]
 80021f4:	f7ff ffce 	bl	8002194 <HAL_I2C_ListenCpltCallback>
 80021f8:	bd10      	pop	{r4, pc}
 80021fa:	46c0      	nop			; (mov r8, r8)
 80021fc:	ffff0000 	.word	0xffff0000

08002200 <HAL_I2C_ErrorCallback>:
 8002200:	4770      	bx	lr
 8002202:	46c0      	nop			; (mov r8, r8)

08002204 <HAL_I2C_AbortCpltCallback>:
 8002204:	4770      	bx	lr
 8002206:	46c0      	nop			; (mov r8, r8)

08002208 <I2C_DMAAbort>:
 8002208:	6a40      	ldr	r0, [r0, #36]	; 0x24
 800220a:	b510      	push	{r4, lr}
 800220c:	6b83      	ldr	r3, [r0, #56]	; 0x38
 800220e:	2b00      	cmp	r3, #0
 8002210:	d001      	beq.n	8002216 <I2C_DMAAbort+0xe>
 8002212:	2200      	movs	r2, #0
 8002214:	635a      	str	r2, [r3, #52]	; 0x34
 8002216:	6bc3      	ldr	r3, [r0, #60]	; 0x3c
 8002218:	2b00      	cmp	r3, #0
 800221a:	d001      	beq.n	8002220 <I2C_DMAAbort+0x18>
 800221c:	2200      	movs	r2, #0
 800221e:	635a      	str	r2, [r3, #52]	; 0x34
 8002220:	2341      	movs	r3, #65	; 0x41
 8002222:	5cc2      	ldrb	r2, [r0, r3]
 8002224:	2a60      	cmp	r2, #96	; 0x60
 8002226:	d006      	beq.n	8002236 <I2C_DMAAbort+0x2e>
 8002228:	2300      	movs	r3, #0
 800222a:	2240      	movs	r2, #64	; 0x40
 800222c:	6303      	str	r3, [r0, #48]	; 0x30
 800222e:	5483      	strb	r3, [r0, r2]
 8002230:	f7ff ffe6 	bl	8002200 <HAL_I2C_ErrorCallback>
 8002234:	bd10      	pop	{r4, pc}
 8002236:	3a40      	subs	r2, #64	; 0x40
 8002238:	54c2      	strb	r2, [r0, r3]
 800223a:	2300      	movs	r3, #0
 800223c:	3220      	adds	r2, #32
 800223e:	6303      	str	r3, [r0, #48]	; 0x30
 8002240:	5483      	strb	r3, [r0, r2]
 8002242:	f7ff ffdf 	bl	8002204 <HAL_I2C_AbortCpltCallback>
 8002246:	e7f5      	b.n	8002234 <I2C_DMAAbort+0x2c>

08002248 <I2C_ITError>:
 8002248:	2242      	movs	r2, #66	; 0x42
 800224a:	b570      	push	{r4, r5, r6, lr}
 800224c:	0004      	movs	r4, r0
 800224e:	2500      	movs	r5, #0
 8002250:	2041      	movs	r0, #65	; 0x41
 8002252:	5c23      	ldrb	r3, [r4, r0]
 8002254:	54a5      	strb	r5, [r4, r2]
 8002256:	4a52      	ldr	r2, [pc, #328]	; (80023a0 <I2C_ITError+0x158>)
 8002258:	3b28      	subs	r3, #40	; 0x28
 800225a:	62e2      	str	r2, [r4, #44]	; 0x2c
 800225c:	8565      	strh	r5, [r4, #42]	; 0x2a
 800225e:	6c62      	ldr	r2, [r4, #68]	; 0x44
 8002260:	430a      	orrs	r2, r1
 8002262:	6462      	str	r2, [r4, #68]	; 0x44
 8002264:	2b02      	cmp	r3, #2
 8002266:	d835      	bhi.n	80022d4 <I2C_ITError+0x8c>
 8002268:	2328      	movs	r3, #40	; 0x28
 800226a:	5c22      	ldrb	r2, [r4, r0]
 800226c:	401a      	ands	r2, r3
 800226e:	3a28      	subs	r2, #40	; 0x28
 8002270:	4251      	negs	r1, r2
 8002272:	414a      	adcs	r2, r1
 8002274:	21af      	movs	r1, #175	; 0xaf
 8002276:	4252      	negs	r2, r2
 8002278:	438a      	bics	r2, r1
 800227a:	5c21      	ldrb	r1, [r4, r0]
 800227c:	32f6      	adds	r2, #246	; 0xf6
 800227e:	43d2      	mvns	r2, r2
 8002280:	400b      	ands	r3, r1
 8002282:	2b28      	cmp	r3, #40	; 0x28
 8002284:	d001      	beq.n	800228a <I2C_ITError+0x42>
 8002286:	22f7      	movs	r2, #247	; 0xf7
 8002288:	4252      	negs	r2, r2
 800228a:	6823      	ldr	r3, [r4, #0]
 800228c:	6819      	ldr	r1, [r3, #0]
 800228e:	400a      	ands	r2, r1
 8002290:	601a      	str	r2, [r3, #0]
 8002292:	2128      	movs	r1, #40	; 0x28
 8002294:	2241      	movs	r2, #65	; 0x41
 8002296:	54a1      	strb	r1, [r4, r2]
 8002298:	4a42      	ldr	r2, [pc, #264]	; (80023a4 <I2C_ITError+0x15c>)
 800229a:	6ba0      	ldr	r0, [r4, #56]	; 0x38
 800229c:	6362      	str	r2, [r4, #52]	; 0x34
 800229e:	6b22      	ldr	r2, [r4, #48]	; 0x30
 80022a0:	2800      	cmp	r0, #0
 80022a2:	d004      	beq.n	80022ae <I2C_ITError+0x66>
 80022a4:	0011      	movs	r1, r2
 80022a6:	2510      	movs	r5, #16
 80022a8:	3911      	subs	r1, #17
 80022aa:	43a9      	bics	r1, r5
 80022ac:	d03a      	beq.n	8002324 <I2C_ITError+0xdc>
 80022ae:	6be0      	ldr	r0, [r4, #60]	; 0x3c
 80022b0:	2800      	cmp	r0, #0
 80022b2:	d003      	beq.n	80022bc <I2C_ITError+0x74>
 80022b4:	2110      	movs	r1, #16
 80022b6:	3a12      	subs	r2, #18
 80022b8:	438a      	bics	r2, r1
 80022ba:	d048      	beq.n	800234e <I2C_ITError+0x106>
 80022bc:	2341      	movs	r3, #65	; 0x41
 80022be:	5ce2      	ldrb	r2, [r4, r3]
 80022c0:	2a60      	cmp	r2, #96	; 0x60
 80022c2:	d062      	beq.n	800238a <I2C_ITError+0x142>
 80022c4:	2300      	movs	r3, #0
 80022c6:	2240      	movs	r2, #64	; 0x40
 80022c8:	6323      	str	r3, [r4, #48]	; 0x30
 80022ca:	0020      	movs	r0, r4
 80022cc:	54a3      	strb	r3, [r4, r2]
 80022ce:	f7ff ff97 	bl	8002200 <HAL_I2C_ErrorCallback>
 80022d2:	bd70      	pop	{r4, r5, r6, pc}
 80022d4:	21fe      	movs	r1, #254	; 0xfe
 80022d6:	5c23      	ldrb	r3, [r4, r0]
 80022d8:	5c23      	ldrb	r3, [r4, r0]
 80022da:	6823      	ldr	r3, [r4, #0]
 80022dc:	681a      	ldr	r2, [r3, #0]
 80022de:	438a      	bics	r2, r1
 80022e0:	601a      	str	r2, [r3, #0]
 80022e2:	699a      	ldr	r2, [r3, #24]
 80022e4:	0792      	lsls	r2, r2, #30
 80022e6:	d500      	bpl.n	80022ea <I2C_ITError+0xa2>
 80022e8:	629d      	str	r5, [r3, #40]	; 0x28
 80022ea:	2201      	movs	r2, #1
 80022ec:	6999      	ldr	r1, [r3, #24]
 80022ee:	420a      	tst	r2, r1
 80022f0:	d102      	bne.n	80022f8 <I2C_ITError+0xb0>
 80022f2:	6999      	ldr	r1, [r3, #24]
 80022f4:	430a      	orrs	r2, r1
 80022f6:	619a      	str	r2, [r3, #24]
 80022f8:	2241      	movs	r2, #65	; 0x41
 80022fa:	5ca1      	ldrb	r1, [r4, r2]
 80022fc:	2960      	cmp	r1, #96	; 0x60
 80022fe:	d00f      	beq.n	8002320 <I2C_ITError+0xd8>
 8002300:	2120      	movs	r1, #32
 8002302:	54a1      	strb	r1, [r4, r2]
 8002304:	699a      	ldr	r2, [r3, #24]
 8002306:	4211      	tst	r1, r2
 8002308:	d00a      	beq.n	8002320 <I2C_ITError+0xd8>
 800230a:	2210      	movs	r2, #16
 800230c:	6999      	ldr	r1, [r3, #24]
 800230e:	420a      	tst	r2, r1
 8002310:	d004      	beq.n	800231c <I2C_ITError+0xd4>
 8002312:	2104      	movs	r1, #4
 8002314:	61da      	str	r2, [r3, #28]
 8002316:	6c62      	ldr	r2, [r4, #68]	; 0x44
 8002318:	430a      	orrs	r2, r1
 800231a:	6462      	str	r2, [r4, #68]	; 0x44
 800231c:	2220      	movs	r2, #32
 800231e:	61da      	str	r2, [r3, #28]
 8002320:	2200      	movs	r2, #0
 8002322:	e7ba      	b.n	800229a <I2C_ITError+0x52>
 8002324:	681a      	ldr	r2, [r3, #0]
 8002326:	0452      	lsls	r2, r2, #17
 8002328:	d42a      	bmi.n	8002380 <I2C_ITError+0x138>
 800232a:	f7ff fd2d 	bl	8001d88 <HAL_DMA_GetState>
 800232e:	2801      	cmp	r0, #1
 8002330:	d0c4      	beq.n	80022bc <I2C_ITError+0x74>
 8002332:	6ba0      	ldr	r0, [r4, #56]	; 0x38
 8002334:	4b1c      	ldr	r3, [pc, #112]	; (80023a8 <I2C_ITError+0x160>)
 8002336:	2200      	movs	r2, #0
 8002338:	6343      	str	r3, [r0, #52]	; 0x34
 800233a:	2340      	movs	r3, #64	; 0x40
 800233c:	54e2      	strb	r2, [r4, r3]
 800233e:	f7ff fcb1 	bl	8001ca4 <HAL_DMA_Abort_IT>
 8002342:	2800      	cmp	r0, #0
 8002344:	d0c5      	beq.n	80022d2 <I2C_ITError+0x8a>
 8002346:	6ba0      	ldr	r0, [r4, #56]	; 0x38
 8002348:	6b43      	ldr	r3, [r0, #52]	; 0x34
 800234a:	4798      	blx	r3
 800234c:	e7c1      	b.n	80022d2 <I2C_ITError+0x8a>
 800234e:	681a      	ldr	r2, [r3, #0]
 8002350:	0412      	lsls	r2, r2, #16
 8002352:	d503      	bpl.n	800235c <I2C_ITError+0x114>
 8002354:	681a      	ldr	r2, [r3, #0]
 8002356:	4915      	ldr	r1, [pc, #84]	; (80023ac <I2C_ITError+0x164>)
 8002358:	400a      	ands	r2, r1
 800235a:	601a      	str	r2, [r3, #0]
 800235c:	f7ff fd14 	bl	8001d88 <HAL_DMA_GetState>
 8002360:	2801      	cmp	r0, #1
 8002362:	d0ab      	beq.n	80022bc <I2C_ITError+0x74>
 8002364:	6be0      	ldr	r0, [r4, #60]	; 0x3c
 8002366:	4b10      	ldr	r3, [pc, #64]	; (80023a8 <I2C_ITError+0x160>)
 8002368:	2200      	movs	r2, #0
 800236a:	6343      	str	r3, [r0, #52]	; 0x34
 800236c:	2340      	movs	r3, #64	; 0x40
 800236e:	54e2      	strb	r2, [r4, r3]
 8002370:	f7ff fc98 	bl	8001ca4 <HAL_DMA_Abort_IT>
 8002374:	2800      	cmp	r0, #0
 8002376:	d0ac      	beq.n	80022d2 <I2C_ITError+0x8a>
 8002378:	6be0      	ldr	r0, [r4, #60]	; 0x3c
 800237a:	6b43      	ldr	r3, [r0, #52]	; 0x34
 800237c:	4798      	blx	r3
 800237e:	e7a8      	b.n	80022d2 <I2C_ITError+0x8a>
 8002380:	681a      	ldr	r2, [r3, #0]
 8002382:	490b      	ldr	r1, [pc, #44]	; (80023b0 <I2C_ITError+0x168>)
 8002384:	400a      	ands	r2, r1
 8002386:	601a      	str	r2, [r3, #0]
 8002388:	e7cf      	b.n	800232a <I2C_ITError+0xe2>
 800238a:	3a40      	subs	r2, #64	; 0x40
 800238c:	54e2      	strb	r2, [r4, r3]
 800238e:	2300      	movs	r3, #0
 8002390:	3220      	adds	r2, #32
 8002392:	6323      	str	r3, [r4, #48]	; 0x30
 8002394:	0020      	movs	r0, r4
 8002396:	54a3      	strb	r3, [r4, r2]
 8002398:	f7ff ff34 	bl	8002204 <HAL_I2C_AbortCpltCallback>
 800239c:	e799      	b.n	80022d2 <I2C_ITError+0x8a>
 800239e:	46c0      	nop			; (mov r8, r8)
 80023a0:	ffff0000 	.word	0xffff0000
 80023a4:	08002581 	.word	0x08002581
 80023a8:	08002209 	.word	0x08002209
 80023ac:	ffff7fff 	.word	0xffff7fff
 80023b0:	ffffbfff 	.word	0xffffbfff

080023b4 <HAL_I2C_ER_IRQHandler>:
 80023b4:	b570      	push	{r4, r5, r6, lr}
 80023b6:	2480      	movs	r4, #128	; 0x80
 80023b8:	6802      	ldr	r2, [r0, #0]
 80023ba:	0064      	lsls	r4, r4, #1
 80023bc:	6993      	ldr	r3, [r2, #24]
 80023be:	6811      	ldr	r1, [r2, #0]
 80023c0:	4223      	tst	r3, r4
 80023c2:	d02a      	beq.n	800241a <HAL_I2C_ER_IRQHandler+0x66>
 80023c4:	060d      	lsls	r5, r1, #24
 80023c6:	d51b      	bpl.n	8002400 <HAL_I2C_ER_IRQHandler+0x4c>
 80023c8:	2501      	movs	r5, #1
 80023ca:	6c41      	ldr	r1, [r0, #68]	; 0x44
 80023cc:	4329      	orrs	r1, r5
 80023ce:	6441      	str	r1, [r0, #68]	; 0x44
 80023d0:	61d4      	str	r4, [r2, #28]
 80023d2:	0559      	lsls	r1, r3, #21
 80023d4:	d526      	bpl.n	8002424 <HAL_I2C_ER_IRQHandler+0x70>
 80023d6:	2408      	movs	r4, #8
 80023d8:	6c41      	ldr	r1, [r0, #68]	; 0x44
 80023da:	4321      	orrs	r1, r4
 80023dc:	6441      	str	r1, [r0, #68]	; 0x44
 80023de:	2180      	movs	r1, #128	; 0x80
 80023e0:	00c9      	lsls	r1, r1, #3
 80023e2:	61d1      	str	r1, [r2, #28]
 80023e4:	059b      	lsls	r3, r3, #22
 80023e6:	d506      	bpl.n	80023f6 <HAL_I2C_ER_IRQHandler+0x42>
 80023e8:	2102      	movs	r1, #2
 80023ea:	6c43      	ldr	r3, [r0, #68]	; 0x44
 80023ec:	430b      	orrs	r3, r1
 80023ee:	6443      	str	r3, [r0, #68]	; 0x44
 80023f0:	2380      	movs	r3, #128	; 0x80
 80023f2:	009b      	lsls	r3, r3, #2
 80023f4:	61d3      	str	r3, [r2, #28]
 80023f6:	230b      	movs	r3, #11
 80023f8:	6c41      	ldr	r1, [r0, #68]	; 0x44
 80023fa:	420b      	tst	r3, r1
 80023fc:	d10a      	bne.n	8002414 <HAL_I2C_ER_IRQHandler+0x60>
 80023fe:	bd70      	pop	{r4, r5, r6, pc}
 8002400:	055c      	lsls	r4, r3, #21
 8002402:	d4f8      	bmi.n	80023f6 <HAL_I2C_ER_IRQHandler+0x42>
 8002404:	059b      	lsls	r3, r3, #22
 8002406:	d5f6      	bpl.n	80023f6 <HAL_I2C_ER_IRQHandler+0x42>
 8002408:	0609      	lsls	r1, r1, #24
 800240a:	d4ed      	bmi.n	80023e8 <HAL_I2C_ER_IRQHandler+0x34>
 800240c:	230b      	movs	r3, #11
 800240e:	6c41      	ldr	r1, [r0, #68]	; 0x44
 8002410:	420b      	tst	r3, r1
 8002412:	d0f4      	beq.n	80023fe <HAL_I2C_ER_IRQHandler+0x4a>
 8002414:	f7ff ff18 	bl	8002248 <I2C_ITError>
 8002418:	e7f1      	b.n	80023fe <HAL_I2C_ER_IRQHandler+0x4a>
 800241a:	055c      	lsls	r4, r3, #21
 800241c:	d5f2      	bpl.n	8002404 <HAL_I2C_ER_IRQHandler+0x50>
 800241e:	0609      	lsls	r1, r1, #24
 8002420:	d4d9      	bmi.n	80023d6 <HAL_I2C_ER_IRQHandler+0x22>
 8002422:	e7e8      	b.n	80023f6 <HAL_I2C_ER_IRQHandler+0x42>
 8002424:	059b      	lsls	r3, r3, #22
 8002426:	d4df      	bmi.n	80023e8 <HAL_I2C_ER_IRQHandler+0x34>
 8002428:	e7e5      	b.n	80023f6 <HAL_I2C_ER_IRQHandler+0x42>
 800242a:	46c0      	nop			; (mov r8, r8)

0800242c <I2C_ITSlaveCplt.constprop.0>:
 800242c:	b570      	push	{r4, r5, r6, lr}
 800242e:	6803      	ldr	r3, [r0, #0]
 8002430:	0004      	movs	r4, r0
 8002432:	2041      	movs	r0, #65	; 0x41
 8002434:	2620      	movs	r6, #32
 8002436:	000d      	movs	r5, r1
 8002438:	6819      	ldr	r1, [r3, #0]
 800243a:	5c22      	ldrb	r2, [r4, r0]
 800243c:	61de      	str	r6, [r3, #28]
 800243e:	3e18      	subs	r6, #24
 8002440:	43b2      	bics	r2, r6
 8002442:	2a21      	cmp	r2, #33	; 0x21
 8002444:	d050      	beq.n	80024e8 <I2C_ITSlaveCplt.constprop.0+0xbc>
 8002446:	2a22      	cmp	r2, #34	; 0x22
 8002448:	d100      	bne.n	800244c <I2C_ITSlaveCplt.constprop.0+0x20>
 800244a:	e073      	b.n	8002534 <I2C_ITSlaveCplt.constprop.0+0x108>
 800244c:	2280      	movs	r2, #128	; 0x80
 800244e:	6858      	ldr	r0, [r3, #4]
 8002450:	0212      	lsls	r2, r2, #8
 8002452:	4302      	orrs	r2, r0
 8002454:	605a      	str	r2, [r3, #4]
 8002456:	685a      	ldr	r2, [r3, #4]
 8002458:	4845      	ldr	r0, [pc, #276]	; (8002570 <I2C_ITSlaveCplt.constprop.0+0x144>)
 800245a:	4002      	ands	r2, r0
 800245c:	605a      	str	r2, [r3, #4]
 800245e:	699a      	ldr	r2, [r3, #24]
 8002460:	0792      	lsls	r2, r2, #30
 8002462:	d501      	bpl.n	8002468 <I2C_ITSlaveCplt.constprop.0+0x3c>
 8002464:	2200      	movs	r2, #0
 8002466:	629a      	str	r2, [r3, #40]	; 0x28
 8002468:	2201      	movs	r2, #1
 800246a:	6998      	ldr	r0, [r3, #24]
 800246c:	4202      	tst	r2, r0
 800246e:	d102      	bne.n	8002476 <I2C_ITSlaveCplt.constprop.0+0x4a>
 8002470:	6998      	ldr	r0, [r3, #24]
 8002472:	4302      	orrs	r2, r0
 8002474:	619a      	str	r2, [r3, #24]
 8002476:	044a      	lsls	r2, r1, #17
 8002478:	d53d      	bpl.n	80024f6 <I2C_ITSlaveCplt.constprop.0+0xca>
 800247a:	681a      	ldr	r2, [r3, #0]
 800247c:	493d      	ldr	r1, [pc, #244]	; (8002574 <I2C_ITSlaveCplt.constprop.0+0x148>)
 800247e:	400a      	ands	r2, r1
 8002480:	601a      	str	r2, [r3, #0]
 8002482:	6ba2      	ldr	r2, [r4, #56]	; 0x38
 8002484:	2a00      	cmp	r2, #0
 8002486:	d003      	beq.n	8002490 <I2C_ITSlaveCplt.constprop.0+0x64>
 8002488:	6812      	ldr	r2, [r2, #0]
 800248a:	6852      	ldr	r2, [r2, #4]
 800248c:	b292      	uxth	r2, r2
 800248e:	8562      	strh	r2, [r4, #42]	; 0x2a
 8002490:	2204      	movs	r2, #4
 8002492:	422a      	tst	r2, r5
 8002494:	d009      	beq.n	80024aa <I2C_ITSlaveCplt.constprop.0+0x7e>
 8002496:	4395      	bics	r5, r2
 8002498:	6a5a      	ldr	r2, [r3, #36]	; 0x24
 800249a:	6a63      	ldr	r3, [r4, #36]	; 0x24
 800249c:	701a      	strb	r2, [r3, #0]
 800249e:	6a63      	ldr	r3, [r4, #36]	; 0x24
 80024a0:	3301      	adds	r3, #1
 80024a2:	6263      	str	r3, [r4, #36]	; 0x24
 80024a4:	8d23      	ldrh	r3, [r4, #40]	; 0x28
 80024a6:	2b00      	cmp	r3, #0
 80024a8:	d13d      	bne.n	8002526 <I2C_ITSlaveCplt.constprop.0+0xfa>
 80024aa:	8d63      	ldrh	r3, [r4, #42]	; 0x2a
 80024ac:	2b00      	cmp	r3, #0
 80024ae:	d003      	beq.n	80024b8 <I2C_ITSlaveCplt.constprop.0+0x8c>
 80024b0:	2204      	movs	r2, #4
 80024b2:	6c63      	ldr	r3, [r4, #68]	; 0x44
 80024b4:	4313      	orrs	r3, r2
 80024b6:	6463      	str	r3, [r4, #68]	; 0x44
 80024b8:	2300      	movs	r3, #0
 80024ba:	2242      	movs	r2, #66	; 0x42
 80024bc:	54a3      	strb	r3, [r4, r2]
 80024be:	6c66      	ldr	r6, [r4, #68]	; 0x44
 80024c0:	6363      	str	r3, [r4, #52]	; 0x34
 80024c2:	2e00      	cmp	r6, #0
 80024c4:	d13d      	bne.n	8002542 <I2C_ITSlaveCplt.constprop.0+0x116>
 80024c6:	6ae3      	ldr	r3, [r4, #44]	; 0x2c
 80024c8:	4d2b      	ldr	r5, [pc, #172]	; (8002578 <I2C_ITSlaveCplt.constprop.0+0x14c>)
 80024ca:	42ab      	cmp	r3, r5
 80024cc:	d11d      	bne.n	800250a <I2C_ITSlaveCplt.constprop.0+0xde>
 80024ce:	2341      	movs	r3, #65	; 0x41
 80024d0:	5ce2      	ldrb	r2, [r4, r3]
 80024d2:	2a22      	cmp	r2, #34	; 0x22
 80024d4:	d042      	beq.n	800255c <I2C_ITSlaveCplt.constprop.0+0x130>
 80024d6:	2220      	movs	r2, #32
 80024d8:	54e2      	strb	r2, [r4, r3]
 80024da:	2340      	movs	r3, #64	; 0x40
 80024dc:	6326      	str	r6, [r4, #48]	; 0x30
 80024de:	0020      	movs	r0, r4
 80024e0:	54e6      	strb	r6, [r4, r3]
 80024e2:	f7ff fdbd 	bl	8002060 <HAL_I2C_SlaveTxCpltCallback>
 80024e6:	bd70      	pop	{r4, r5, r6, pc}
 80024e8:	5c20      	ldrb	r0, [r4, r0]
 80024ea:	6818      	ldr	r0, [r3, #0]
 80024ec:	36f2      	adds	r6, #242	; 0xf2
 80024ee:	43b0      	bics	r0, r6
 80024f0:	6018      	str	r0, [r3, #0]
 80024f2:	6322      	str	r2, [r4, #48]	; 0x30
 80024f4:	e7aa      	b.n	800244c <I2C_ITSlaveCplt.constprop.0+0x20>
 80024f6:	0409      	lsls	r1, r1, #16
 80024f8:	d5ca      	bpl.n	8002490 <I2C_ITSlaveCplt.constprop.0+0x64>
 80024fa:	681a      	ldr	r2, [r3, #0]
 80024fc:	491f      	ldr	r1, [pc, #124]	; (800257c <I2C_ITSlaveCplt.constprop.0+0x150>)
 80024fe:	400a      	ands	r2, r1
 8002500:	601a      	str	r2, [r3, #0]
 8002502:	6be2      	ldr	r2, [r4, #60]	; 0x3c
 8002504:	2a00      	cmp	r2, #0
 8002506:	d1bf      	bne.n	8002488 <I2C_ITSlaveCplt.constprop.0+0x5c>
 8002508:	e7c2      	b.n	8002490 <I2C_ITSlaveCplt.constprop.0+0x64>
 800250a:	0020      	movs	r0, r4
 800250c:	f7ff fdac 	bl	8002068 <I2C_ITSlaveSeqCplt>
 8002510:	2341      	movs	r3, #65	; 0x41
 8002512:	2220      	movs	r2, #32
 8002514:	62e5      	str	r5, [r4, #44]	; 0x2c
 8002516:	54e2      	strb	r2, [r4, r3]
 8002518:	3b01      	subs	r3, #1
 800251a:	6326      	str	r6, [r4, #48]	; 0x30
 800251c:	0020      	movs	r0, r4
 800251e:	54e6      	strb	r6, [r4, r3]
 8002520:	f7ff fe38 	bl	8002194 <HAL_I2C_ListenCpltCallback>
 8002524:	e7df      	b.n	80024e6 <I2C_ITSlaveCplt.constprop.0+0xba>
 8002526:	3b01      	subs	r3, #1
 8002528:	8523      	strh	r3, [r4, #40]	; 0x28
 800252a:	8d63      	ldrh	r3, [r4, #42]	; 0x2a
 800252c:	3b01      	subs	r3, #1
 800252e:	b29b      	uxth	r3, r3
 8002530:	8563      	strh	r3, [r4, #42]	; 0x2a
 8002532:	e7ba      	b.n	80024aa <I2C_ITSlaveCplt.constprop.0+0x7e>
 8002534:	26fc      	movs	r6, #252	; 0xfc
 8002536:	5c20      	ldrb	r0, [r4, r0]
 8002538:	6818      	ldr	r0, [r3, #0]
 800253a:	43b0      	bics	r0, r6
 800253c:	6018      	str	r0, [r3, #0]
 800253e:	6322      	str	r2, [r4, #48]	; 0x30
 8002540:	e784      	b.n	800244c <I2C_ITSlaveCplt.constprop.0+0x20>
 8002542:	0020      	movs	r0, r4
 8002544:	6c61      	ldr	r1, [r4, #68]	; 0x44
 8002546:	f7ff fe7f 	bl	8002248 <I2C_ITError>
 800254a:	2341      	movs	r3, #65	; 0x41
 800254c:	5ce3      	ldrb	r3, [r4, r3]
 800254e:	2b28      	cmp	r3, #40	; 0x28
 8002550:	d1c9      	bne.n	80024e6 <I2C_ITSlaveCplt.constprop.0+0xba>
 8002552:	0029      	movs	r1, r5
 8002554:	0020      	movs	r0, r4
 8002556:	f7ff fe1f 	bl	8002198 <I2C_ITListenCplt>
 800255a:	e7c4      	b.n	80024e6 <I2C_ITSlaveCplt.constprop.0+0xba>
 800255c:	3a02      	subs	r2, #2
 800255e:	54e2      	strb	r2, [r4, r3]
 8002560:	3b01      	subs	r3, #1
 8002562:	6326      	str	r6, [r4, #48]	; 0x30
 8002564:	0020      	movs	r0, r4
 8002566:	54e6      	strb	r6, [r4, r3]
 8002568:	f7ff fd7c 	bl	8002064 <HAL_I2C_SlaveRxCpltCallback>
 800256c:	e7bb      	b.n	80024e6 <I2C_ITSlaveCplt.constprop.0+0xba>
 800256e:	46c0      	nop			; (mov r8, r8)
 8002570:	fe00e800 	.word	0xfe00e800
 8002574:	ffffbfff 	.word	0xffffbfff
 8002578:	ffff0000 	.word	0xffff0000
 800257c:	ffff7fff 	.word	0xffff7fff

08002580 <I2C_Slave_ISR_IT>:
 8002580:	b5f8      	push	{r3, r4, r5, r6, r7, lr}
 8002582:	2340      	movs	r3, #64	; 0x40
 8002584:	0016      	movs	r6, r2
 8002586:	5cc2      	ldrb	r2, [r0, r3]
 8002588:	0004      	movs	r4, r0
 800258a:	000d      	movs	r5, r1
 800258c:	6ac7      	ldr	r7, [r0, #44]	; 0x2c
 800258e:	2a01      	cmp	r2, #1
 8002590:	d100      	bne.n	8002594 <I2C_Slave_ISR_IT+0x14>
 8002592:	e06e      	b.n	8002672 <I2C_Slave_ISR_IT+0xf2>
 8002594:	2201      	movs	r2, #1
 8002596:	54c2      	strb	r2, [r0, r3]
 8002598:	3b20      	subs	r3, #32
 800259a:	420b      	tst	r3, r1
 800259c:	d001      	beq.n	80025a2 <I2C_Slave_ISR_IT+0x22>
 800259e:	4233      	tst	r3, r6
 80025a0:	d14a      	bne.n	8002638 <I2C_Slave_ISR_IT+0xb8>
 80025a2:	2310      	movs	r3, #16
 80025a4:	422b      	tst	r3, r5
 80025a6:	d016      	beq.n	80025d6 <I2C_Slave_ISR_IT+0x56>
 80025a8:	4233      	tst	r3, r6
 80025aa:	d014      	beq.n	80025d6 <I2C_Slave_ISR_IT+0x56>
 80025ac:	8d62      	ldrh	r2, [r4, #42]	; 0x2a
 80025ae:	2a00      	cmp	r2, #0
 80025b0:	d148      	bne.n	8002644 <I2C_Slave_ISR_IT+0xc4>
 80025b2:	3331      	adds	r3, #49	; 0x31
 80025b4:	5ce3      	ldrb	r3, [r4, r3]
 80025b6:	2b28      	cmp	r3, #40	; 0x28
 80025b8:	d100      	bne.n	80025bc <I2C_Slave_ISR_IT+0x3c>
 80025ba:	e06a      	b.n	8002692 <I2C_Slave_ISR_IT+0x112>
 80025bc:	2341      	movs	r3, #65	; 0x41
 80025be:	5ce3      	ldrb	r3, [r4, r3]
 80025c0:	2b29      	cmp	r3, #41	; 0x29
 80025c2:	d100      	bne.n	80025c6 <I2C_Slave_ISR_IT+0x46>
 80025c4:	e06f      	b.n	80026a6 <I2C_Slave_ISR_IT+0x126>
 80025c6:	2210      	movs	r2, #16
 80025c8:	6823      	ldr	r3, [r4, #0]
 80025ca:	61da      	str	r2, [r3, #28]
 80025cc:	2340      	movs	r3, #64	; 0x40
 80025ce:	2200      	movs	r2, #0
 80025d0:	2000      	movs	r0, #0
 80025d2:	54e2      	strb	r2, [r4, r3]
 80025d4:	bdf8      	pop	{r3, r4, r5, r6, r7, pc}
 80025d6:	2304      	movs	r3, #4
 80025d8:	422b      	tst	r3, r5
 80025da:	d113      	bne.n	8002604 <I2C_Slave_ISR_IT+0x84>
 80025dc:	2308      	movs	r3, #8
 80025de:	422b      	tst	r3, r5
 80025e0:	d001      	beq.n	80025e6 <I2C_Slave_ISR_IT+0x66>
 80025e2:	4233      	tst	r3, r6
 80025e4:	d13c      	bne.n	8002660 <I2C_Slave_ISR_IT+0xe0>
 80025e6:	2302      	movs	r3, #2
 80025e8:	422b      	tst	r3, r5
 80025ea:	d0ef      	beq.n	80025cc <I2C_Slave_ISR_IT+0x4c>
 80025ec:	4233      	tst	r3, r6
 80025ee:	d0ed      	beq.n	80025cc <I2C_Slave_ISR_IT+0x4c>
 80025f0:	8d63      	ldrh	r3, [r4, #42]	; 0x2a
 80025f2:	2b00      	cmp	r3, #0
 80025f4:	d13f      	bne.n	8002676 <I2C_Slave_ISR_IT+0xf6>
 80025f6:	4b38      	ldr	r3, [pc, #224]	; (80026d8 <I2C_Slave_ISR_IT+0x158>)
 80025f8:	421f      	tst	r7, r3
 80025fa:	d1e7      	bne.n	80025cc <I2C_Slave_ISR_IT+0x4c>
 80025fc:	0020      	movs	r0, r4
 80025fe:	f7ff fd33 	bl	8002068 <I2C_ITSlaveSeqCplt>
 8002602:	e7e3      	b.n	80025cc <I2C_Slave_ISR_IT+0x4c>
 8002604:	4233      	tst	r3, r6
 8002606:	d0e9      	beq.n	80025dc <I2C_Slave_ISR_IT+0x5c>
 8002608:	8d63      	ldrh	r3, [r4, #42]	; 0x2a
 800260a:	2b00      	cmp	r3, #0
 800260c:	d00d      	beq.n	800262a <I2C_Slave_ISR_IT+0xaa>
 800260e:	6823      	ldr	r3, [r4, #0]
 8002610:	6a5a      	ldr	r2, [r3, #36]	; 0x24
 8002612:	6a63      	ldr	r3, [r4, #36]	; 0x24
 8002614:	701a      	strb	r2, [r3, #0]
 8002616:	6a63      	ldr	r3, [r4, #36]	; 0x24
 8002618:	3301      	adds	r3, #1
 800261a:	6263      	str	r3, [r4, #36]	; 0x24
 800261c:	8d23      	ldrh	r3, [r4, #40]	; 0x28
 800261e:	3b01      	subs	r3, #1
 8002620:	8523      	strh	r3, [r4, #40]	; 0x28
 8002622:	8d63      	ldrh	r3, [r4, #42]	; 0x2a
 8002624:	3b01      	subs	r3, #1
 8002626:	b29b      	uxth	r3, r3
 8002628:	8563      	strh	r3, [r4, #42]	; 0x2a
 800262a:	8d63      	ldrh	r3, [r4, #42]	; 0x2a
 800262c:	2b00      	cmp	r3, #0
 800262e:	d1cd      	bne.n	80025cc <I2C_Slave_ISR_IT+0x4c>
 8002630:	4b2a      	ldr	r3, [pc, #168]	; (80026dc <I2C_Slave_ISR_IT+0x15c>)
 8002632:	429f      	cmp	r7, r3
 8002634:	d0ca      	beq.n	80025cc <I2C_Slave_ISR_IT+0x4c>
 8002636:	e7e1      	b.n	80025fc <I2C_Slave_ISR_IT+0x7c>
 8002638:	f7ff fef8 	bl	800242c <I2C_ITSlaveCplt.constprop.0>
 800263c:	2310      	movs	r3, #16
 800263e:	422b      	tst	r3, r5
 8002640:	d0c9      	beq.n	80025d6 <I2C_Slave_ISR_IT+0x56>
 8002642:	e7b1      	b.n	80025a8 <I2C_Slave_ISR_IT+0x28>
 8002644:	6822      	ldr	r2, [r4, #0]
 8002646:	61d3      	str	r3, [r2, #28]
 8002648:	2204      	movs	r2, #4
 800264a:	6c63      	ldr	r3, [r4, #68]	; 0x44
 800264c:	4313      	orrs	r3, r2
 800264e:	6463      	str	r3, [r4, #68]	; 0x44
 8002650:	4b21      	ldr	r3, [pc, #132]	; (80026d8 <I2C_Slave_ISR_IT+0x158>)
 8002652:	421f      	tst	r7, r3
 8002654:	d1ba      	bne.n	80025cc <I2C_Slave_ISR_IT+0x4c>
 8002656:	0020      	movs	r0, r4
 8002658:	6c61      	ldr	r1, [r4, #68]	; 0x44
 800265a:	f7ff fdf5 	bl	8002248 <I2C_ITError>
 800265e:	e7b5      	b.n	80025cc <I2C_Slave_ISR_IT+0x4c>
 8002660:	2241      	movs	r2, #65	; 0x41
 8002662:	5ca1      	ldrb	r1, [r4, r2]
 8002664:	3a19      	subs	r2, #25
 8002666:	400a      	ands	r2, r1
 8002668:	2a28      	cmp	r2, #40	; 0x28
 800266a:	d030      	beq.n	80026ce <I2C_Slave_ISR_IT+0x14e>
 800266c:	6822      	ldr	r2, [r4, #0]
 800266e:	61d3      	str	r3, [r2, #28]
 8002670:	e7ac      	b.n	80025cc <I2C_Slave_ISR_IT+0x4c>
 8002672:	2002      	movs	r0, #2
 8002674:	e7ae      	b.n	80025d4 <I2C_Slave_ISR_IT+0x54>
 8002676:	6a63      	ldr	r3, [r4, #36]	; 0x24
 8002678:	6822      	ldr	r2, [r4, #0]
 800267a:	7819      	ldrb	r1, [r3, #0]
 800267c:	3301      	adds	r3, #1
 800267e:	6291      	str	r1, [r2, #40]	; 0x28
 8002680:	6263      	str	r3, [r4, #36]	; 0x24
 8002682:	8d63      	ldrh	r3, [r4, #42]	; 0x2a
 8002684:	3b01      	subs	r3, #1
 8002686:	b29b      	uxth	r3, r3
 8002688:	8563      	strh	r3, [r4, #42]	; 0x2a
 800268a:	8d23      	ldrh	r3, [r4, #40]	; 0x28
 800268c:	3b01      	subs	r3, #1
 800268e:	8523      	strh	r3, [r4, #40]	; 0x28
 8002690:	e79c      	b.n	80025cc <I2C_Slave_ISR_IT+0x4c>
 8002692:	2380      	movs	r3, #128	; 0x80
 8002694:	049b      	lsls	r3, r3, #18
 8002696:	429f      	cmp	r7, r3
 8002698:	d000      	beq.n	800269c <I2C_Slave_ISR_IT+0x11c>
 800269a:	e78f      	b.n	80025bc <I2C_Slave_ISR_IT+0x3c>
 800269c:	0029      	movs	r1, r5
 800269e:	0020      	movs	r0, r4
 80026a0:	f7ff fd7a 	bl	8002198 <I2C_ITListenCplt>
 80026a4:	e792      	b.n	80025cc <I2C_Slave_ISR_IT+0x4c>
 80026a6:	4b0d      	ldr	r3, [pc, #52]	; (80026dc <I2C_Slave_ISR_IT+0x15c>)
 80026a8:	429f      	cmp	r7, r3
 80026aa:	d100      	bne.n	80026ae <I2C_Slave_ISR_IT+0x12e>
 80026ac:	e78b      	b.n	80025c6 <I2C_Slave_ISR_IT+0x46>
 80026ae:	2210      	movs	r2, #16
 80026b0:	6823      	ldr	r3, [r4, #0]
 80026b2:	61da      	str	r2, [r3, #28]
 80026b4:	699a      	ldr	r2, [r3, #24]
 80026b6:	0792      	lsls	r2, r2, #30
 80026b8:	d501      	bpl.n	80026be <I2C_Slave_ISR_IT+0x13e>
 80026ba:	2200      	movs	r2, #0
 80026bc:	629a      	str	r2, [r3, #40]	; 0x28
 80026be:	2201      	movs	r2, #1
 80026c0:	6999      	ldr	r1, [r3, #24]
 80026c2:	420a      	tst	r2, r1
 80026c4:	d19a      	bne.n	80025fc <I2C_Slave_ISR_IT+0x7c>
 80026c6:	6999      	ldr	r1, [r3, #24]
 80026c8:	430a      	orrs	r2, r1
 80026ca:	619a      	str	r2, [r3, #24]
 80026cc:	e796      	b.n	80025fc <I2C_Slave_ISR_IT+0x7c>
 80026ce:	0020      	movs	r0, r4
 80026d0:	f7ff fd1a 	bl	8002108 <I2C_ITAddrCplt.part.0>
 80026d4:	e77a      	b.n	80025cc <I2C_Slave_ISR_IT+0x4c>
 80026d6:	46c0      	nop			; (mov r8, r8)
 80026d8:	feffffff 	.word	0xfeffffff
 80026dc:	ffff0000 	.word	0xffff0000

080026e0 <HAL_I2CEx_ConfigAnalogFilter>:
 80026e0:	b5f0      	push	{r4, r5, r6, r7, lr}
 80026e2:	2441      	movs	r4, #65	; 0x41
 80026e4:	5d03      	ldrb	r3, [r0, r4]
 80026e6:	468c      	mov	ip, r1
 80026e8:	b2dd      	uxtb	r5, r3
 80026ea:	2b20      	cmp	r3, #32
 80026ec:	d11a      	bne.n	8002724 <HAL_I2CEx_ConfigAnalogFilter+0x44>
 80026ee:	2640      	movs	r6, #64	; 0x40
 80026f0:	5d83      	ldrb	r3, [r0, r6]
 80026f2:	2b01      	cmp	r3, #1
 80026f4:	d016      	beq.n	8002724 <HAL_I2CEx_ConfigAnalogFilter+0x44>
 80026f6:	2324      	movs	r3, #36	; 0x24
 80026f8:	2701      	movs	r7, #1
 80026fa:	5503      	strb	r3, [r0, r4]
 80026fc:	6803      	ldr	r3, [r0, #0]
 80026fe:	490a      	ldr	r1, [pc, #40]	; (8002728 <HAL_I2CEx_ConfigAnalogFilter+0x48>)
 8002700:	681a      	ldr	r2, [r3, #0]
 8002702:	43ba      	bics	r2, r7
 8002704:	601a      	str	r2, [r3, #0]
 8002706:	681a      	ldr	r2, [r3, #0]
 8002708:	400a      	ands	r2, r1
 800270a:	601a      	str	r2, [r3, #0]
 800270c:	4662      	mov	r2, ip
 800270e:	6819      	ldr	r1, [r3, #0]
 8002710:	4311      	orrs	r1, r2
 8002712:	6019      	str	r1, [r3, #0]
 8002714:	681a      	ldr	r2, [r3, #0]
 8002716:	433a      	orrs	r2, r7
 8002718:	601a      	str	r2, [r3, #0]
 800271a:	2300      	movs	r3, #0
 800271c:	5505      	strb	r5, [r0, r4]
 800271e:	5583      	strb	r3, [r0, r6]
 8002720:	2000      	movs	r0, #0
 8002722:	bdf0      	pop	{r4, r5, r6, r7, pc}
 8002724:	2002      	movs	r0, #2
 8002726:	e7fc      	b.n	8002722 <HAL_I2CEx_ConfigAnalogFilter+0x42>
 8002728:	ffffefff 	.word	0xffffefff

0800272c <HAL_I2CEx_ConfigDigitalFilter>:
 800272c:	b5f0      	push	{r4, r5, r6, r7, lr}
 800272e:	46ce      	mov	lr, r9
 8002730:	4647      	mov	r7, r8
 8002732:	2441      	movs	r4, #65	; 0x41
 8002734:	b580      	push	{r7, lr}
 8002736:	5d03      	ldrb	r3, [r0, r4]
 8002738:	b2dd      	uxtb	r5, r3
 800273a:	2b20      	cmp	r3, #32
 800273c:	d11f      	bne.n	800277e <HAL_I2CEx_ConfigDigitalFilter+0x52>
 800273e:	2640      	movs	r6, #64	; 0x40
 8002740:	5d83      	ldrb	r3, [r0, r6]
 8002742:	2b01      	cmp	r3, #1
 8002744:	d01b      	beq.n	800277e <HAL_I2CEx_ConfigDigitalFilter+0x52>
 8002746:	2324      	movs	r3, #36	; 0x24
 8002748:	2701      	movs	r7, #1
 800274a:	5503      	strb	r3, [r0, r4]
 800274c:	6802      	ldr	r2, [r0, #0]
 800274e:	46b9      	mov	r9, r7
 8002750:	6813      	ldr	r3, [r2, #0]
 8002752:	0209      	lsls	r1, r1, #8
 8002754:	43bb      	bics	r3, r7
 8002756:	6013      	str	r3, [r2, #0]
 8002758:	6813      	ldr	r3, [r2, #0]
 800275a:	4698      	mov	r8, r3
 800275c:	4647      	mov	r7, r8
 800275e:	4b09      	ldr	r3, [pc, #36]	; (8002784 <HAL_I2CEx_ConfigDigitalFilter+0x58>)
 8002760:	401f      	ands	r7, r3
 8002762:	4339      	orrs	r1, r7
 8002764:	6011      	str	r1, [r2, #0]
 8002766:	4649      	mov	r1, r9
 8002768:	6813      	ldr	r3, [r2, #0]
 800276a:	430b      	orrs	r3, r1
 800276c:	6013      	str	r3, [r2, #0]
 800276e:	2300      	movs	r3, #0
 8002770:	5505      	strb	r5, [r0, r4]
 8002772:	5583      	strb	r3, [r0, r6]
 8002774:	2000      	movs	r0, #0
 8002776:	bcc0      	pop	{r6, r7}
 8002778:	46b9      	mov	r9, r7
 800277a:	46b0      	mov	r8, r6
 800277c:	bdf0      	pop	{r4, r5, r6, r7, pc}
 800277e:	2002      	movs	r0, #2
 8002780:	e7f9      	b.n	8002776 <HAL_I2CEx_ConfigDigitalFilter+0x4a>
 8002782:	46c0      	nop			; (mov r8, r8)
 8002784:	fffff0ff 	.word	0xfffff0ff

08002788 <HAL_RCC_OscConfig>:
 8002788:	b5f0      	push	{r4, r5, r6, r7, lr}
 800278a:	46ce      	mov	lr, r9
 800278c:	4647      	mov	r7, r8
 800278e:	b580      	push	{r7, lr}
 8002790:	0004      	movs	r4, r0
 8002792:	b083      	sub	sp, #12
 8002794:	2800      	cmp	r0, #0
 8002796:	d100      	bne.n	800279a <HAL_RCC_OscConfig+0x12>
 8002798:	e0ee      	b.n	8002978 <HAL_RCC_OscConfig+0x1f0>
 800279a:	6803      	ldr	r3, [r0, #0]
 800279c:	07da      	lsls	r2, r3, #31
 800279e:	d535      	bpl.n	800280c <HAL_RCC_OscConfig+0x84>
 80027a0:	210c      	movs	r1, #12
 80027a2:	48c3      	ldr	r0, [pc, #780]	; (8002ab0 <HAL_RCC_OscConfig+0x328>)
 80027a4:	6842      	ldr	r2, [r0, #4]
 80027a6:	400a      	ands	r2, r1
 80027a8:	2a04      	cmp	r2, #4
 80027aa:	d100      	bne.n	80027ae <HAL_RCC_OscConfig+0x26>
 80027ac:	e101      	b.n	80029b2 <HAL_RCC_OscConfig+0x22a>
 80027ae:	6842      	ldr	r2, [r0, #4]
 80027b0:	4011      	ands	r1, r2
 80027b2:	2908      	cmp	r1, #8
 80027b4:	d100      	bne.n	80027b8 <HAL_RCC_OscConfig+0x30>
 80027b6:	e0f8      	b.n	80029aa <HAL_RCC_OscConfig+0x222>
 80027b8:	6863      	ldr	r3, [r4, #4]
 80027ba:	2b01      	cmp	r3, #1
 80027bc:	d00f      	beq.n	80027de <HAL_RCC_OscConfig+0x56>
 80027be:	2b00      	cmp	r3, #0
 80027c0:	d100      	bne.n	80027c4 <HAL_RCC_OscConfig+0x3c>
 80027c2:	e11e      	b.n	8002a02 <HAL_RCC_OscConfig+0x27a>
 80027c4:	2b05      	cmp	r3, #5
 80027c6:	d100      	bne.n	80027ca <HAL_RCC_OscConfig+0x42>
 80027c8:	e1a7      	b.n	8002b1a <HAL_RCC_OscConfig+0x392>
 80027ca:	4bb9      	ldr	r3, [pc, #740]	; (8002ab0 <HAL_RCC_OscConfig+0x328>)
 80027cc:	49b9      	ldr	r1, [pc, #740]	; (8002ab4 <HAL_RCC_OscConfig+0x32c>)
 80027ce:	681a      	ldr	r2, [r3, #0]
 80027d0:	400a      	ands	r2, r1
 80027d2:	601a      	str	r2, [r3, #0]
 80027d4:	681a      	ldr	r2, [r3, #0]
 80027d6:	49b8      	ldr	r1, [pc, #736]	; (8002ab8 <HAL_RCC_OscConfig+0x330>)
 80027d8:	400a      	ands	r2, r1
 80027da:	601a      	str	r2, [r3, #0]
 80027dc:	e005      	b.n	80027ea <HAL_RCC_OscConfig+0x62>
 80027de:	2380      	movs	r3, #128	; 0x80
 80027e0:	4ab3      	ldr	r2, [pc, #716]	; (8002ab0 <HAL_RCC_OscConfig+0x328>)
 80027e2:	025b      	lsls	r3, r3, #9
 80027e4:	6811      	ldr	r1, [r2, #0]
 80027e6:	430b      	orrs	r3, r1
 80027e8:	6013      	str	r3, [r2, #0]
 80027ea:	f7fe fe39 	bl	8001460 <HAL_GetTick>
 80027ee:	2680      	movs	r6, #128	; 0x80
 80027f0:	0005      	movs	r5, r0
 80027f2:	4faf      	ldr	r7, [pc, #700]	; (8002ab0 <HAL_RCC_OscConfig+0x328>)
 80027f4:	02b6      	lsls	r6, r6, #10
 80027f6:	e005      	b.n	8002804 <HAL_RCC_OscConfig+0x7c>
 80027f8:	f7fe fe32 	bl	8001460 <HAL_GetTick>
 80027fc:	1b40      	subs	r0, r0, r5
 80027fe:	2864      	cmp	r0, #100	; 0x64
 8002800:	d900      	bls.n	8002804 <HAL_RCC_OscConfig+0x7c>
 8002802:	e0fc      	b.n	80029fe <HAL_RCC_OscConfig+0x276>
 8002804:	683b      	ldr	r3, [r7, #0]
 8002806:	4233      	tst	r3, r6
 8002808:	d0f6      	beq.n	80027f8 <HAL_RCC_OscConfig+0x70>
 800280a:	6823      	ldr	r3, [r4, #0]
 800280c:	079a      	lsls	r2, r3, #30
 800280e:	d529      	bpl.n	8002864 <HAL_RCC_OscConfig+0xdc>
 8002810:	220c      	movs	r2, #12
 8002812:	49a7      	ldr	r1, [pc, #668]	; (8002ab0 <HAL_RCC_OscConfig+0x328>)
 8002814:	6848      	ldr	r0, [r1, #4]
 8002816:	4202      	tst	r2, r0
 8002818:	d100      	bne.n	800281c <HAL_RCC_OscConfig+0x94>
 800281a:	e0a6      	b.n	800296a <HAL_RCC_OscConfig+0x1e2>
 800281c:	6848      	ldr	r0, [r1, #4]
 800281e:	4002      	ands	r2, r0
 8002820:	2a08      	cmp	r2, #8
 8002822:	d100      	bne.n	8002826 <HAL_RCC_OscConfig+0x9e>
 8002824:	e09d      	b.n	8002962 <HAL_RCC_OscConfig+0x1da>
 8002826:	68e3      	ldr	r3, [r4, #12]
 8002828:	4da1      	ldr	r5, [pc, #644]	; (8002ab0 <HAL_RCC_OscConfig+0x328>)
 800282a:	2b00      	cmp	r3, #0
 800282c:	d100      	bne.n	8002830 <HAL_RCC_OscConfig+0xa8>
 800282e:	e11f      	b.n	8002a70 <HAL_RCC_OscConfig+0x2e8>
 8002830:	2201      	movs	r2, #1
 8002832:	682b      	ldr	r3, [r5, #0]
 8002834:	2702      	movs	r7, #2
 8002836:	4313      	orrs	r3, r2
 8002838:	602b      	str	r3, [r5, #0]
 800283a:	f7fe fe11 	bl	8001460 <HAL_GetTick>
 800283e:	0006      	movs	r6, r0
 8002840:	e005      	b.n	800284e <HAL_RCC_OscConfig+0xc6>
 8002842:	f7fe fe0d 	bl	8001460 <HAL_GetTick>
 8002846:	1b80      	subs	r0, r0, r6
 8002848:	2802      	cmp	r0, #2
 800284a:	d900      	bls.n	800284e <HAL_RCC_OscConfig+0xc6>
 800284c:	e0d7      	b.n	80029fe <HAL_RCC_OscConfig+0x276>
 800284e:	682b      	ldr	r3, [r5, #0]
 8002850:	421f      	tst	r7, r3
 8002852:	d0f6      	beq.n	8002842 <HAL_RCC_OscConfig+0xba>
 8002854:	21f8      	movs	r1, #248	; 0xf8
 8002856:	682a      	ldr	r2, [r5, #0]
 8002858:	6923      	ldr	r3, [r4, #16]
 800285a:	438a      	bics	r2, r1
 800285c:	00db      	lsls	r3, r3, #3
 800285e:	4313      	orrs	r3, r2
 8002860:	602b      	str	r3, [r5, #0]
 8002862:	6823      	ldr	r3, [r4, #0]
 8002864:	071a      	lsls	r2, r3, #28
 8002866:	d42d      	bmi.n	80028c4 <HAL_RCC_OscConfig+0x13c>
 8002868:	075a      	lsls	r2, r3, #29
 800286a:	d544      	bpl.n	80028f6 <HAL_RCC_OscConfig+0x16e>
 800286c:	2280      	movs	r2, #128	; 0x80
 800286e:	2000      	movs	r0, #0
 8002870:	4b8f      	ldr	r3, [pc, #572]	; (8002ab0 <HAL_RCC_OscConfig+0x328>)
 8002872:	0552      	lsls	r2, r2, #21
 8002874:	69d9      	ldr	r1, [r3, #28]
 8002876:	4681      	mov	r9, r0
 8002878:	4211      	tst	r1, r2
 800287a:	d108      	bne.n	800288e <HAL_RCC_OscConfig+0x106>
 800287c:	69d9      	ldr	r1, [r3, #28]
 800287e:	4311      	orrs	r1, r2
 8002880:	61d9      	str	r1, [r3, #28]
 8002882:	69db      	ldr	r3, [r3, #28]
 8002884:	4013      	ands	r3, r2
 8002886:	9301      	str	r3, [sp, #4]
 8002888:	9b01      	ldr	r3, [sp, #4]
 800288a:	2301      	movs	r3, #1
 800288c:	4699      	mov	r9, r3
 800288e:	2780      	movs	r7, #128	; 0x80
 8002890:	4e8a      	ldr	r6, [pc, #552]	; (8002abc <HAL_RCC_OscConfig+0x334>)
 8002892:	007f      	lsls	r7, r7, #1
 8002894:	6833      	ldr	r3, [r6, #0]
 8002896:	423b      	tst	r3, r7
 8002898:	d100      	bne.n	800289c <HAL_RCC_OscConfig+0x114>
 800289a:	e094      	b.n	80029c6 <HAL_RCC_OscConfig+0x23e>
 800289c:	68a3      	ldr	r3, [r4, #8]
 800289e:	2b01      	cmp	r3, #1
 80028a0:	d100      	bne.n	80028a4 <HAL_RCC_OscConfig+0x11c>
 80028a2:	e0f8      	b.n	8002a96 <HAL_RCC_OscConfig+0x30e>
 80028a4:	2b00      	cmp	r3, #0
 80028a6:	d100      	bne.n	80028aa <HAL_RCC_OscConfig+0x122>
 80028a8:	e0c4      	b.n	8002a34 <HAL_RCC_OscConfig+0x2ac>
 80028aa:	2b05      	cmp	r3, #5
 80028ac:	d100      	bne.n	80028b0 <HAL_RCC_OscConfig+0x128>
 80028ae:	e140      	b.n	8002b32 <HAL_RCC_OscConfig+0x3aa>
 80028b0:	2101      	movs	r1, #1
 80028b2:	4b7f      	ldr	r3, [pc, #508]	; (8002ab0 <HAL_RCC_OscConfig+0x328>)
 80028b4:	6a1a      	ldr	r2, [r3, #32]
 80028b6:	438a      	bics	r2, r1
 80028b8:	621a      	str	r2, [r3, #32]
 80028ba:	6a1a      	ldr	r2, [r3, #32]
 80028bc:	3103      	adds	r1, #3
 80028be:	438a      	bics	r2, r1
 80028c0:	621a      	str	r2, [r3, #32]
 80028c2:	e0ec      	b.n	8002a9e <HAL_RCC_OscConfig+0x316>
 80028c4:	69e3      	ldr	r3, [r4, #28]
 80028c6:	4d7a      	ldr	r5, [pc, #488]	; (8002ab0 <HAL_RCC_OscConfig+0x328>)
 80028c8:	2b00      	cmp	r3, #0
 80028ca:	d05b      	beq.n	8002984 <HAL_RCC_OscConfig+0x1fc>
 80028cc:	2201      	movs	r2, #1
 80028ce:	6a6b      	ldr	r3, [r5, #36]	; 0x24
 80028d0:	2702      	movs	r7, #2
 80028d2:	4313      	orrs	r3, r2
 80028d4:	626b      	str	r3, [r5, #36]	; 0x24
 80028d6:	f7fe fdc3 	bl	8001460 <HAL_GetTick>
 80028da:	0006      	movs	r6, r0
 80028dc:	e005      	b.n	80028ea <HAL_RCC_OscConfig+0x162>
 80028de:	f7fe fdbf 	bl	8001460 <HAL_GetTick>
 80028e2:	1b80      	subs	r0, r0, r6
 80028e4:	2802      	cmp	r0, #2
 80028e6:	d900      	bls.n	80028ea <HAL_RCC_OscConfig+0x162>
 80028e8:	e089      	b.n	80029fe <HAL_RCC_OscConfig+0x276>
 80028ea:	6a6b      	ldr	r3, [r5, #36]	; 0x24
 80028ec:	421f      	tst	r7, r3
 80028ee:	d0f6      	beq.n	80028de <HAL_RCC_OscConfig+0x156>
 80028f0:	6823      	ldr	r3, [r4, #0]
 80028f2:	075a      	lsls	r2, r3, #29
 80028f4:	d4ba      	bmi.n	800286c <HAL_RCC_OscConfig+0xe4>
 80028f6:	06db      	lsls	r3, r3, #27
 80028f8:	d512      	bpl.n	8002920 <HAL_RCC_OscConfig+0x198>
 80028fa:	6963      	ldr	r3, [r4, #20]
 80028fc:	2b01      	cmp	r3, #1
 80028fe:	d100      	bne.n	8002902 <HAL_RCC_OscConfig+0x17a>
 8002900:	e13d      	b.n	8002b7e <HAL_RCC_OscConfig+0x3f6>
 8002902:	3305      	adds	r3, #5
 8002904:	d000      	beq.n	8002908 <HAL_RCC_OscConfig+0x180>
 8002906:	e0e9      	b.n	8002adc <HAL_RCC_OscConfig+0x354>
 8002908:	2104      	movs	r1, #4
 800290a:	20f8      	movs	r0, #248	; 0xf8
 800290c:	4a68      	ldr	r2, [pc, #416]	; (8002ab0 <HAL_RCC_OscConfig+0x328>)
 800290e:	6b53      	ldr	r3, [r2, #52]	; 0x34
 8002910:	438b      	bics	r3, r1
 8002912:	6353      	str	r3, [r2, #52]	; 0x34
 8002914:	6b51      	ldr	r1, [r2, #52]	; 0x34
 8002916:	69a3      	ldr	r3, [r4, #24]
 8002918:	4381      	bics	r1, r0
 800291a:	00db      	lsls	r3, r3, #3
 800291c:	430b      	orrs	r3, r1
 800291e:	6353      	str	r3, [r2, #52]	; 0x34
 8002920:	6a23      	ldr	r3, [r4, #32]
 8002922:	2b00      	cmp	r3, #0
 8002924:	d01b      	beq.n	800295e <HAL_RCC_OscConfig+0x1d6>
 8002926:	220c      	movs	r2, #12
 8002928:	4d61      	ldr	r5, [pc, #388]	; (8002ab0 <HAL_RCC_OscConfig+0x328>)
 800292a:	6869      	ldr	r1, [r5, #4]
 800292c:	400a      	ands	r2, r1
 800292e:	2a08      	cmp	r2, #8
 8002930:	d100      	bne.n	8002934 <HAL_RCC_OscConfig+0x1ac>
 8002932:	e108      	b.n	8002b46 <HAL_RCC_OscConfig+0x3be>
 8002934:	2b02      	cmp	r3, #2
 8002936:	d100      	bne.n	800293a <HAL_RCC_OscConfig+0x1b2>
 8002938:	e13f      	b.n	8002bba <HAL_RCC_OscConfig+0x432>
 800293a:	682b      	ldr	r3, [r5, #0]
 800293c:	4a60      	ldr	r2, [pc, #384]	; (8002ac0 <HAL_RCC_OscConfig+0x338>)
 800293e:	2680      	movs	r6, #128	; 0x80
 8002940:	4013      	ands	r3, r2
 8002942:	602b      	str	r3, [r5, #0]
 8002944:	f7fe fd8c 	bl	8001460 <HAL_GetTick>
 8002948:	04b6      	lsls	r6, r6, #18
 800294a:	0004      	movs	r4, r0
 800294c:	e004      	b.n	8002958 <HAL_RCC_OscConfig+0x1d0>
 800294e:	f7fe fd87 	bl	8001460 <HAL_GetTick>
 8002952:	1b00      	subs	r0, r0, r4
 8002954:	2802      	cmp	r0, #2
 8002956:	d852      	bhi.n	80029fe <HAL_RCC_OscConfig+0x276>
 8002958:	682b      	ldr	r3, [r5, #0]
 800295a:	4233      	tst	r3, r6
 800295c:	d1f7      	bne.n	800294e <HAL_RCC_OscConfig+0x1c6>
 800295e:	2000      	movs	r0, #0
 8002960:	e00b      	b.n	800297a <HAL_RCC_OscConfig+0x1f2>
 8002962:	684a      	ldr	r2, [r1, #4]
 8002964:	03d2      	lsls	r2, r2, #15
 8002966:	d500      	bpl.n	800296a <HAL_RCC_OscConfig+0x1e2>
 8002968:	e75d      	b.n	8002826 <HAL_RCC_OscConfig+0x9e>
 800296a:	4a51      	ldr	r2, [pc, #324]	; (8002ab0 <HAL_RCC_OscConfig+0x328>)
 800296c:	6812      	ldr	r2, [r2, #0]
 800296e:	0792      	lsls	r2, r2, #30
 8002970:	d539      	bpl.n	80029e6 <HAL_RCC_OscConfig+0x25e>
 8002972:	68e2      	ldr	r2, [r4, #12]
 8002974:	2a01      	cmp	r2, #1
 8002976:	d036      	beq.n	80029e6 <HAL_RCC_OscConfig+0x25e>
 8002978:	2001      	movs	r0, #1
 800297a:	b003      	add	sp, #12
 800297c:	bcc0      	pop	{r6, r7}
 800297e:	46b9      	mov	r9, r7
 8002980:	46b0      	mov	r8, r6
 8002982:	bdf0      	pop	{r4, r5, r6, r7, pc}
 8002984:	2201      	movs	r2, #1
 8002986:	6a6b      	ldr	r3, [r5, #36]	; 0x24
 8002988:	2702      	movs	r7, #2
 800298a:	4393      	bics	r3, r2
 800298c:	626b      	str	r3, [r5, #36]	; 0x24
 800298e:	f7fe fd67 	bl	8001460 <HAL_GetTick>
 8002992:	0006      	movs	r6, r0
 8002994:	e004      	b.n	80029a0 <HAL_RCC_OscConfig+0x218>
 8002996:	f7fe fd63 	bl	8001460 <HAL_GetTick>
 800299a:	1b80      	subs	r0, r0, r6
 800299c:	2802      	cmp	r0, #2
 800299e:	d82e      	bhi.n	80029fe <HAL_RCC_OscConfig+0x276>
 80029a0:	6a6b      	ldr	r3, [r5, #36]	; 0x24
 80029a2:	421f      	tst	r7, r3
 80029a4:	d1f7      	bne.n	8002996 <HAL_RCC_OscConfig+0x20e>
 80029a6:	6823      	ldr	r3, [r4, #0]
 80029a8:	e7a3      	b.n	80028f2 <HAL_RCC_OscConfig+0x16a>
 80029aa:	6842      	ldr	r2, [r0, #4]
 80029ac:	03d2      	lsls	r2, r2, #15
 80029ae:	d400      	bmi.n	80029b2 <HAL_RCC_OscConfig+0x22a>
 80029b0:	e702      	b.n	80027b8 <HAL_RCC_OscConfig+0x30>
 80029b2:	4a3f      	ldr	r2, [pc, #252]	; (8002ab0 <HAL_RCC_OscConfig+0x328>)
 80029b4:	6812      	ldr	r2, [r2, #0]
 80029b6:	0392      	lsls	r2, r2, #14
 80029b8:	d400      	bmi.n	80029bc <HAL_RCC_OscConfig+0x234>
 80029ba:	e727      	b.n	800280c <HAL_RCC_OscConfig+0x84>
 80029bc:	6862      	ldr	r2, [r4, #4]
 80029be:	2a00      	cmp	r2, #0
 80029c0:	d000      	beq.n	80029c4 <HAL_RCC_OscConfig+0x23c>
 80029c2:	e723      	b.n	800280c <HAL_RCC_OscConfig+0x84>
 80029c4:	e7d8      	b.n	8002978 <HAL_RCC_OscConfig+0x1f0>
 80029c6:	6833      	ldr	r3, [r6, #0]
 80029c8:	433b      	orrs	r3, r7
 80029ca:	6033      	str	r3, [r6, #0]
 80029cc:	f7fe fd48 	bl	8001460 <HAL_GetTick>
 80029d0:	0005      	movs	r5, r0
 80029d2:	e004      	b.n	80029de <HAL_RCC_OscConfig+0x256>
 80029d4:	f7fe fd44 	bl	8001460 <HAL_GetTick>
 80029d8:	1b40      	subs	r0, r0, r5
 80029da:	2864      	cmp	r0, #100	; 0x64
 80029dc:	d80f      	bhi.n	80029fe <HAL_RCC_OscConfig+0x276>
 80029de:	6833      	ldr	r3, [r6, #0]
 80029e0:	423b      	tst	r3, r7
 80029e2:	d0f7      	beq.n	80029d4 <HAL_RCC_OscConfig+0x24c>
 80029e4:	e75a      	b.n	800289c <HAL_RCC_OscConfig+0x114>
 80029e6:	25f8      	movs	r5, #248	; 0xf8
 80029e8:	4831      	ldr	r0, [pc, #196]	; (8002ab0 <HAL_RCC_OscConfig+0x328>)
 80029ea:	6922      	ldr	r2, [r4, #16]
 80029ec:	6801      	ldr	r1, [r0, #0]
 80029ee:	00d2      	lsls	r2, r2, #3
 80029f0:	43a9      	bics	r1, r5
 80029f2:	430a      	orrs	r2, r1
 80029f4:	6002      	str	r2, [r0, #0]
 80029f6:	071a      	lsls	r2, r3, #28
 80029f8:	d400      	bmi.n	80029fc <HAL_RCC_OscConfig+0x274>
 80029fa:	e735      	b.n	8002868 <HAL_RCC_OscConfig+0xe0>
 80029fc:	e762      	b.n	80028c4 <HAL_RCC_OscConfig+0x13c>
 80029fe:	2003      	movs	r0, #3
 8002a00:	e7bb      	b.n	800297a <HAL_RCC_OscConfig+0x1f2>
 8002a02:	4d2b      	ldr	r5, [pc, #172]	; (8002ab0 <HAL_RCC_OscConfig+0x328>)
 8002a04:	4a2b      	ldr	r2, [pc, #172]	; (8002ab4 <HAL_RCC_OscConfig+0x32c>)
 8002a06:	682b      	ldr	r3, [r5, #0]
 8002a08:	2780      	movs	r7, #128	; 0x80
 8002a0a:	4013      	ands	r3, r2
 8002a0c:	602b      	str	r3, [r5, #0]
 8002a0e:	682b      	ldr	r3, [r5, #0]
 8002a10:	4a29      	ldr	r2, [pc, #164]	; (8002ab8 <HAL_RCC_OscConfig+0x330>)
 8002a12:	02bf      	lsls	r7, r7, #10
 8002a14:	4013      	ands	r3, r2
 8002a16:	602b      	str	r3, [r5, #0]
 8002a18:	f7fe fd22 	bl	8001460 <HAL_GetTick>
 8002a1c:	0006      	movs	r6, r0
 8002a1e:	e004      	b.n	8002a2a <HAL_RCC_OscConfig+0x2a2>
 8002a20:	f7fe fd1e 	bl	8001460 <HAL_GetTick>
 8002a24:	1b80      	subs	r0, r0, r6
 8002a26:	2864      	cmp	r0, #100	; 0x64
 8002a28:	d8e9      	bhi.n	80029fe <HAL_RCC_OscConfig+0x276>
 8002a2a:	682b      	ldr	r3, [r5, #0]
 8002a2c:	423b      	tst	r3, r7
 8002a2e:	d1f7      	bne.n	8002a20 <HAL_RCC_OscConfig+0x298>
 8002a30:	6823      	ldr	r3, [r4, #0]
 8002a32:	e6eb      	b.n	800280c <HAL_RCC_OscConfig+0x84>
 8002a34:	2201      	movs	r2, #1
 8002a36:	4e1e      	ldr	r6, [pc, #120]	; (8002ab0 <HAL_RCC_OscConfig+0x328>)
 8002a38:	4d22      	ldr	r5, [pc, #136]	; (8002ac4 <HAL_RCC_OscConfig+0x33c>)
 8002a3a:	6a33      	ldr	r3, [r6, #32]
 8002a3c:	4393      	bics	r3, r2
 8002a3e:	6233      	str	r3, [r6, #32]
 8002a40:	6a33      	ldr	r3, [r6, #32]
 8002a42:	3203      	adds	r2, #3
 8002a44:	4393      	bics	r3, r2
 8002a46:	6233      	str	r3, [r6, #32]
 8002a48:	f7fe fd0a 	bl	8001460 <HAL_GetTick>
 8002a4c:	2302      	movs	r3, #2
 8002a4e:	0007      	movs	r7, r0
 8002a50:	4698      	mov	r8, r3
 8002a52:	e004      	b.n	8002a5e <HAL_RCC_OscConfig+0x2d6>
 8002a54:	f7fe fd04 	bl	8001460 <HAL_GetTick>
 8002a58:	1bc0      	subs	r0, r0, r7
 8002a5a:	42a8      	cmp	r0, r5
 8002a5c:	d8cf      	bhi.n	80029fe <HAL_RCC_OscConfig+0x276>
 8002a5e:	4642      	mov	r2, r8
 8002a60:	6a33      	ldr	r3, [r6, #32]
 8002a62:	421a      	tst	r2, r3
 8002a64:	d1f6      	bne.n	8002a54 <HAL_RCC_OscConfig+0x2cc>
 8002a66:	464b      	mov	r3, r9
 8002a68:	2b01      	cmp	r3, #1
 8002a6a:	d04f      	beq.n	8002b0c <HAL_RCC_OscConfig+0x384>
 8002a6c:	6823      	ldr	r3, [r4, #0]
 8002a6e:	e742      	b.n	80028f6 <HAL_RCC_OscConfig+0x16e>
 8002a70:	2201      	movs	r2, #1
 8002a72:	682b      	ldr	r3, [r5, #0]
 8002a74:	2702      	movs	r7, #2
 8002a76:	4393      	bics	r3, r2
 8002a78:	602b      	str	r3, [r5, #0]
 8002a7a:	f7fe fcf1 	bl	8001460 <HAL_GetTick>
 8002a7e:	0006      	movs	r6, r0
 8002a80:	e004      	b.n	8002a8c <HAL_RCC_OscConfig+0x304>
 8002a82:	f7fe fced 	bl	8001460 <HAL_GetTick>
 8002a86:	1b80      	subs	r0, r0, r6
 8002a88:	2802      	cmp	r0, #2
 8002a8a:	d8b8      	bhi.n	80029fe <HAL_RCC_OscConfig+0x276>
 8002a8c:	682b      	ldr	r3, [r5, #0]
 8002a8e:	421f      	tst	r7, r3
 8002a90:	d1f7      	bne.n	8002a82 <HAL_RCC_OscConfig+0x2fa>
 8002a92:	6823      	ldr	r3, [r4, #0]
 8002a94:	e6e6      	b.n	8002864 <HAL_RCC_OscConfig+0xdc>
 8002a96:	4906      	ldr	r1, [pc, #24]	; (8002ab0 <HAL_RCC_OscConfig+0x328>)
 8002a98:	6a0a      	ldr	r2, [r1, #32]
 8002a9a:	4313      	orrs	r3, r2
 8002a9c:	620b      	str	r3, [r1, #32]
 8002a9e:	f7fe fcdf 	bl	8001460 <HAL_GetTick>
 8002aa2:	4b03      	ldr	r3, [pc, #12]	; (8002ab0 <HAL_RCC_OscConfig+0x328>)
 8002aa4:	0006      	movs	r6, r0
 8002aa6:	4698      	mov	r8, r3
 8002aa8:	2702      	movs	r7, #2
 8002aaa:	4d06      	ldr	r5, [pc, #24]	; (8002ac4 <HAL_RCC_OscConfig+0x33c>)
 8002aac:	e011      	b.n	8002ad2 <HAL_RCC_OscConfig+0x34a>
 8002aae:	46c0      	nop			; (mov r8, r8)
 8002ab0:	40021000 	.word	0x40021000
 8002ab4:	fffeffff 	.word	0xfffeffff
 8002ab8:	fffbffff 	.word	0xfffbffff
 8002abc:	40007000 	.word	0x40007000
 8002ac0:	feffffff 	.word	0xfeffffff
 8002ac4:	00001388 	.word	0x00001388
 8002ac8:	f7fe fcca 	bl	8001460 <HAL_GetTick>
 8002acc:	1b80      	subs	r0, r0, r6
 8002ace:	42a8      	cmp	r0, r5
 8002ad0:	d895      	bhi.n	80029fe <HAL_RCC_OscConfig+0x276>
 8002ad2:	4643      	mov	r3, r8
 8002ad4:	6a1b      	ldr	r3, [r3, #32]
 8002ad6:	421f      	tst	r7, r3
 8002ad8:	d0f6      	beq.n	8002ac8 <HAL_RCC_OscConfig+0x340>
 8002ada:	e7c4      	b.n	8002a66 <HAL_RCC_OscConfig+0x2de>
 8002adc:	2204      	movs	r2, #4
 8002ade:	4d53      	ldr	r5, [pc, #332]	; (8002c2c <HAL_RCC_OscConfig+0x4a4>)
 8002ae0:	2702      	movs	r7, #2
 8002ae2:	6b6b      	ldr	r3, [r5, #52]	; 0x34
 8002ae4:	4313      	orrs	r3, r2
 8002ae6:	636b      	str	r3, [r5, #52]	; 0x34
 8002ae8:	6b6b      	ldr	r3, [r5, #52]	; 0x34
 8002aea:	3a03      	subs	r2, #3
 8002aec:	4393      	bics	r3, r2
 8002aee:	636b      	str	r3, [r5, #52]	; 0x34
 8002af0:	f7fe fcb6 	bl	8001460 <HAL_GetTick>
 8002af4:	0006      	movs	r6, r0
 8002af6:	e005      	b.n	8002b04 <HAL_RCC_OscConfig+0x37c>
 8002af8:	f7fe fcb2 	bl	8001460 <HAL_GetTick>
 8002afc:	1b80      	subs	r0, r0, r6
 8002afe:	2802      	cmp	r0, #2
 8002b00:	d900      	bls.n	8002b04 <HAL_RCC_OscConfig+0x37c>
 8002b02:	e77c      	b.n	80029fe <HAL_RCC_OscConfig+0x276>
 8002b04:	6b6b      	ldr	r3, [r5, #52]	; 0x34
 8002b06:	421f      	tst	r7, r3
 8002b08:	d1f6      	bne.n	8002af8 <HAL_RCC_OscConfig+0x370>
 8002b0a:	e709      	b.n	8002920 <HAL_RCC_OscConfig+0x198>
 8002b0c:	4a47      	ldr	r2, [pc, #284]	; (8002c2c <HAL_RCC_OscConfig+0x4a4>)
 8002b0e:	4948      	ldr	r1, [pc, #288]	; (8002c30 <HAL_RCC_OscConfig+0x4a8>)
 8002b10:	69d3      	ldr	r3, [r2, #28]
 8002b12:	400b      	ands	r3, r1
 8002b14:	61d3      	str	r3, [r2, #28]
 8002b16:	6823      	ldr	r3, [r4, #0]
 8002b18:	e6ed      	b.n	80028f6 <HAL_RCC_OscConfig+0x16e>
 8002b1a:	2280      	movs	r2, #128	; 0x80
 8002b1c:	4b43      	ldr	r3, [pc, #268]	; (8002c2c <HAL_RCC_OscConfig+0x4a4>)
 8002b1e:	02d2      	lsls	r2, r2, #11
 8002b20:	6819      	ldr	r1, [r3, #0]
 8002b22:	430a      	orrs	r2, r1
 8002b24:	601a      	str	r2, [r3, #0]
 8002b26:	2280      	movs	r2, #128	; 0x80
 8002b28:	6819      	ldr	r1, [r3, #0]
 8002b2a:	0252      	lsls	r2, r2, #9
 8002b2c:	430a      	orrs	r2, r1
 8002b2e:	601a      	str	r2, [r3, #0]
 8002b30:	e65b      	b.n	80027ea <HAL_RCC_OscConfig+0x62>
 8002b32:	2104      	movs	r1, #4
 8002b34:	4b3d      	ldr	r3, [pc, #244]	; (8002c2c <HAL_RCC_OscConfig+0x4a4>)
 8002b36:	6a1a      	ldr	r2, [r3, #32]
 8002b38:	430a      	orrs	r2, r1
 8002b3a:	621a      	str	r2, [r3, #32]
 8002b3c:	6a1a      	ldr	r2, [r3, #32]
 8002b3e:	3903      	subs	r1, #3
 8002b40:	430a      	orrs	r2, r1
 8002b42:	621a      	str	r2, [r3, #32]
 8002b44:	e7ab      	b.n	8002a9e <HAL_RCC_OscConfig+0x316>
 8002b46:	2b01      	cmp	r3, #1
 8002b48:	d100      	bne.n	8002b4c <HAL_RCC_OscConfig+0x3c4>
 8002b4a:	e715      	b.n	8002978 <HAL_RCC_OscConfig+0x1f0>
 8002b4c:	2380      	movs	r3, #128	; 0x80
 8002b4e:	686a      	ldr	r2, [r5, #4]
 8002b50:	6a61      	ldr	r1, [r4, #36]	; 0x24
 8002b52:	025b      	lsls	r3, r3, #9
 8002b54:	2001      	movs	r0, #1
 8002b56:	6aed      	ldr	r5, [r5, #44]	; 0x2c
 8002b58:	4013      	ands	r3, r2
 8002b5a:	428b      	cmp	r3, r1
 8002b5c:	d000      	beq.n	8002b60 <HAL_RCC_OscConfig+0x3d8>
 8002b5e:	e70c      	b.n	800297a <HAL_RCC_OscConfig+0x1f2>
 8002b60:	230f      	movs	r3, #15
 8002b62:	6ae1      	ldr	r1, [r4, #44]	; 0x2c
 8002b64:	402b      	ands	r3, r5
 8002b66:	428b      	cmp	r3, r1
 8002b68:	d000      	beq.n	8002b6c <HAL_RCC_OscConfig+0x3e4>
 8002b6a:	e706      	b.n	800297a <HAL_RCC_OscConfig+0x1f2>
 8002b6c:	23f0      	movs	r3, #240	; 0xf0
 8002b6e:	039b      	lsls	r3, r3, #14
 8002b70:	401a      	ands	r2, r3
 8002b72:	6aa3      	ldr	r3, [r4, #40]	; 0x28
 8002b74:	1ad2      	subs	r2, r2, r3
 8002b76:	1e53      	subs	r3, r2, #1
 8002b78:	419a      	sbcs	r2, r3
 8002b7a:	b2d0      	uxtb	r0, r2
 8002b7c:	e6fd      	b.n	800297a <HAL_RCC_OscConfig+0x1f2>
 8002b7e:	2104      	movs	r1, #4
 8002b80:	4d2a      	ldr	r5, [pc, #168]	; (8002c2c <HAL_RCC_OscConfig+0x4a4>)
 8002b82:	2702      	movs	r7, #2
 8002b84:	6b6a      	ldr	r2, [r5, #52]	; 0x34
 8002b86:	430a      	orrs	r2, r1
 8002b88:	636a      	str	r2, [r5, #52]	; 0x34
 8002b8a:	6b6a      	ldr	r2, [r5, #52]	; 0x34
 8002b8c:	4313      	orrs	r3, r2
 8002b8e:	636b      	str	r3, [r5, #52]	; 0x34
 8002b90:	f7fe fc66 	bl	8001460 <HAL_GetTick>
 8002b94:	0006      	movs	r6, r0
 8002b96:	e005      	b.n	8002ba4 <HAL_RCC_OscConfig+0x41c>
 8002b98:	f7fe fc62 	bl	8001460 <HAL_GetTick>
 8002b9c:	1b80      	subs	r0, r0, r6
 8002b9e:	2802      	cmp	r0, #2
 8002ba0:	d900      	bls.n	8002ba4 <HAL_RCC_OscConfig+0x41c>
 8002ba2:	e72c      	b.n	80029fe <HAL_RCC_OscConfig+0x276>
 8002ba4:	6b6b      	ldr	r3, [r5, #52]	; 0x34
 8002ba6:	421f      	tst	r7, r3
 8002ba8:	d0f6      	beq.n	8002b98 <HAL_RCC_OscConfig+0x410>
 8002baa:	21f8      	movs	r1, #248	; 0xf8
 8002bac:	6b6a      	ldr	r2, [r5, #52]	; 0x34
 8002bae:	69a3      	ldr	r3, [r4, #24]
 8002bb0:	438a      	bics	r2, r1
 8002bb2:	00db      	lsls	r3, r3, #3
 8002bb4:	4313      	orrs	r3, r2
 8002bb6:	636b      	str	r3, [r5, #52]	; 0x34
 8002bb8:	e6b2      	b.n	8002920 <HAL_RCC_OscConfig+0x198>
 8002bba:	682b      	ldr	r3, [r5, #0]
 8002bbc:	4a1d      	ldr	r2, [pc, #116]	; (8002c34 <HAL_RCC_OscConfig+0x4ac>)
 8002bbe:	2780      	movs	r7, #128	; 0x80
 8002bc0:	4013      	ands	r3, r2
 8002bc2:	602b      	str	r3, [r5, #0]
 8002bc4:	f7fe fc4c 	bl	8001460 <HAL_GetTick>
 8002bc8:	04bf      	lsls	r7, r7, #18
 8002bca:	0006      	movs	r6, r0
 8002bcc:	e005      	b.n	8002bda <HAL_RCC_OscConfig+0x452>
 8002bce:	f7fe fc47 	bl	8001460 <HAL_GetTick>
 8002bd2:	1b80      	subs	r0, r0, r6
 8002bd4:	2802      	cmp	r0, #2
 8002bd6:	d900      	bls.n	8002bda <HAL_RCC_OscConfig+0x452>
 8002bd8:	e711      	b.n	80029fe <HAL_RCC_OscConfig+0x276>
 8002bda:	682b      	ldr	r3, [r5, #0]
 8002bdc:	423b      	tst	r3, r7
 8002bde:	d1f6      	bne.n	8002bce <HAL_RCC_OscConfig+0x446>
 8002be0:	220f      	movs	r2, #15
 8002be2:	6aeb      	ldr	r3, [r5, #44]	; 0x2c
 8002be4:	4e11      	ldr	r6, [pc, #68]	; (8002c2c <HAL_RCC_OscConfig+0x4a4>)
 8002be6:	4393      	bics	r3, r2
 8002be8:	6ae2      	ldr	r2, [r4, #44]	; 0x2c
 8002bea:	4313      	orrs	r3, r2
 8002bec:	62eb      	str	r3, [r5, #44]	; 0x2c
 8002bee:	6a61      	ldr	r1, [r4, #36]	; 0x24
 8002bf0:	6aa3      	ldr	r3, [r4, #40]	; 0x28
 8002bf2:	686a      	ldr	r2, [r5, #4]
 8002bf4:	430b      	orrs	r3, r1
 8002bf6:	4910      	ldr	r1, [pc, #64]	; (8002c38 <HAL_RCC_OscConfig+0x4b0>)
 8002bf8:	400a      	ands	r2, r1
 8002bfa:	4313      	orrs	r3, r2
 8002bfc:	606b      	str	r3, [r5, #4]
 8002bfe:	2380      	movs	r3, #128	; 0x80
 8002c00:	682a      	ldr	r2, [r5, #0]
 8002c02:	045b      	lsls	r3, r3, #17
 8002c04:	4313      	orrs	r3, r2
 8002c06:	602b      	str	r3, [r5, #0]
 8002c08:	f7fe fc2a 	bl	8001460 <HAL_GetTick>
 8002c0c:	2580      	movs	r5, #128	; 0x80
 8002c0e:	0004      	movs	r4, r0
 8002c10:	04ad      	lsls	r5, r5, #18
 8002c12:	e005      	b.n	8002c20 <HAL_RCC_OscConfig+0x498>
 8002c14:	f7fe fc24 	bl	8001460 <HAL_GetTick>
 8002c18:	1b00      	subs	r0, r0, r4
 8002c1a:	2802      	cmp	r0, #2
 8002c1c:	d900      	bls.n	8002c20 <HAL_RCC_OscConfig+0x498>
 8002c1e:	e6ee      	b.n	80029fe <HAL_RCC_OscConfig+0x276>
 8002c20:	6833      	ldr	r3, [r6, #0]
 8002c22:	422b      	tst	r3, r5
 8002c24:	d0f6      	beq.n	8002c14 <HAL_RCC_OscConfig+0x48c>
 8002c26:	2000      	movs	r0, #0
 8002c28:	e6a7      	b.n	800297a <HAL_RCC_OscConfig+0x1f2>
 8002c2a:	46c0      	nop			; (mov r8, r8)
 8002c2c:	40021000 	.word	0x40021000
 8002c30:	efffffff 	.word	0xefffffff
 8002c34:	feffffff 	.word	0xfeffffff
 8002c38:	ffc2ffff 	.word	0xffc2ffff

08002c3c <HAL_RCC_GetSysClockFreq>:
 8002c3c:	230c      	movs	r3, #12
 8002c3e:	4910      	ldr	r1, [pc, #64]	; (8002c80 <HAL_RCC_GetSysClockFreq+0x44>)
 8002c40:	b570      	push	{r4, r5, r6, lr}
 8002c42:	684a      	ldr	r2, [r1, #4]
 8002c44:	4013      	ands	r3, r2
 8002c46:	2b08      	cmp	r3, #8
 8002c48:	d001      	beq.n	8002c4e <HAL_RCC_GetSysClockFreq+0x12>
 8002c4a:	480e      	ldr	r0, [pc, #56]	; (8002c84 <HAL_RCC_GetSysClockFreq+0x48>)
 8002c4c:	bd70      	pop	{r4, r5, r6, pc}
 8002c4e:	250f      	movs	r5, #15
 8002c50:	480d      	ldr	r0, [pc, #52]	; (8002c88 <HAL_RCC_GetSysClockFreq+0x4c>)
 8002c52:	0c93      	lsrs	r3, r2, #18
 8002c54:	402b      	ands	r3, r5
 8002c56:	5cc4      	ldrb	r4, [r0, r3]
 8002c58:	6ac9      	ldr	r1, [r1, #44]	; 0x2c
 8002c5a:	03d2      	lsls	r2, r2, #15
 8002c5c:	d507      	bpl.n	8002c6e <HAL_RCC_GetSysClockFreq+0x32>
 8002c5e:	4b0b      	ldr	r3, [pc, #44]	; (8002c8c <HAL_RCC_GetSysClockFreq+0x50>)
 8002c60:	400d      	ands	r5, r1
 8002c62:	5d59      	ldrb	r1, [r3, r5]
 8002c64:	4807      	ldr	r0, [pc, #28]	; (8002c84 <HAL_RCC_GetSysClockFreq+0x48>)
 8002c66:	f7fd fa4f 	bl	8000108 <__udivsi3>
 8002c6a:	4360      	muls	r0, r4
 8002c6c:	e7ee      	b.n	8002c4c <HAL_RCC_GetSysClockFreq+0x10>
 8002c6e:	0162      	lsls	r2, r4, #5
 8002c70:	1b12      	subs	r2, r2, r4
 8002c72:	0193      	lsls	r3, r2, #6
 8002c74:	1a9b      	subs	r3, r3, r2
 8002c76:	00db      	lsls	r3, r3, #3
 8002c78:	191b      	adds	r3, r3, r4
 8002c7a:	0218      	lsls	r0, r3, #8
 8002c7c:	e7e6      	b.n	8002c4c <HAL_RCC_GetSysClockFreq+0x10>
 8002c7e:	46c0      	nop			; (mov r8, r8)
 8002c80:	40021000 	.word	0x40021000
 8002c84:	007a1200 	.word	0x007a1200
 8002c88:	08005ad4 	.word	0x08005ad4
 8002c8c:	08005ae4 	.word	0x08005ae4

08002c90 <HAL_RCC_ClockConfig>:
 8002c90:	b5f8      	push	{r3, r4, r5, r6, r7, lr}
 8002c92:	46ce      	mov	lr, r9
 8002c94:	4647      	mov	r7, r8
 8002c96:	0004      	movs	r4, r0
 8002c98:	000d      	movs	r5, r1
 8002c9a:	b580      	push	{r7, lr}
 8002c9c:	2800      	cmp	r0, #0
 8002c9e:	d00d      	beq.n	8002cbc <HAL_RCC_ClockConfig+0x2c>
 8002ca0:	2301      	movs	r3, #1
 8002ca2:	493b      	ldr	r1, [pc, #236]	; (8002d90 <HAL_RCC_ClockConfig+0x100>)
 8002ca4:	680a      	ldr	r2, [r1, #0]
 8002ca6:	401a      	ands	r2, r3
 8002ca8:	42aa      	cmp	r2, r5
 8002caa:	d20c      	bcs.n	8002cc6 <HAL_RCC_ClockConfig+0x36>
 8002cac:	680a      	ldr	r2, [r1, #0]
 8002cae:	439a      	bics	r2, r3
 8002cb0:	432a      	orrs	r2, r5
 8002cb2:	600a      	str	r2, [r1, #0]
 8002cb4:	680a      	ldr	r2, [r1, #0]
 8002cb6:	4013      	ands	r3, r2
 8002cb8:	42ab      	cmp	r3, r5
 8002cba:	d004      	beq.n	8002cc6 <HAL_RCC_ClockConfig+0x36>
 8002cbc:	2001      	movs	r0, #1
 8002cbe:	bcc0      	pop	{r6, r7}
 8002cc0:	46b9      	mov	r9, r7
 8002cc2:	46b0      	mov	r8, r6
 8002cc4:	bdf8      	pop	{r3, r4, r5, r6, r7, pc}
 8002cc6:	6823      	ldr	r3, [r4, #0]
 8002cc8:	079a      	lsls	r2, r3, #30
 8002cca:	d50e      	bpl.n	8002cea <HAL_RCC_ClockConfig+0x5a>
 8002ccc:	075a      	lsls	r2, r3, #29
 8002cce:	d505      	bpl.n	8002cdc <HAL_RCC_ClockConfig+0x4c>
 8002cd0:	22e0      	movs	r2, #224	; 0xe0
 8002cd2:	4930      	ldr	r1, [pc, #192]	; (8002d94 <HAL_RCC_ClockConfig+0x104>)
 8002cd4:	00d2      	lsls	r2, r2, #3
 8002cd6:	6848      	ldr	r0, [r1, #4]
 8002cd8:	4302      	orrs	r2, r0
 8002cda:	604a      	str	r2, [r1, #4]
 8002cdc:	20f0      	movs	r0, #240	; 0xf0
 8002cde:	492d      	ldr	r1, [pc, #180]	; (8002d94 <HAL_RCC_ClockConfig+0x104>)
 8002ce0:	684a      	ldr	r2, [r1, #4]
 8002ce2:	4382      	bics	r2, r0
 8002ce4:	68a0      	ldr	r0, [r4, #8]
 8002ce6:	4302      	orrs	r2, r0
 8002ce8:	604a      	str	r2, [r1, #4]
 8002cea:	07db      	lsls	r3, r3, #31
 8002cec:	d522      	bpl.n	8002d34 <HAL_RCC_ClockConfig+0xa4>
 8002cee:	4b29      	ldr	r3, [pc, #164]	; (8002d94 <HAL_RCC_ClockConfig+0x104>)
 8002cf0:	6862      	ldr	r2, [r4, #4]
 8002cf2:	681b      	ldr	r3, [r3, #0]
 8002cf4:	2a01      	cmp	r2, #1
 8002cf6:	d046      	beq.n	8002d86 <HAL_RCC_ClockConfig+0xf6>
 8002cf8:	2a02      	cmp	r2, #2
 8002cfa:	d041      	beq.n	8002d80 <HAL_RCC_ClockConfig+0xf0>
 8002cfc:	079b      	lsls	r3, r3, #30
 8002cfe:	d5dd      	bpl.n	8002cbc <HAL_RCC_ClockConfig+0x2c>
 8002d00:	2103      	movs	r1, #3
 8002d02:	4e24      	ldr	r6, [pc, #144]	; (8002d94 <HAL_RCC_ClockConfig+0x104>)
 8002d04:	6873      	ldr	r3, [r6, #4]
 8002d06:	438b      	bics	r3, r1
 8002d08:	4313      	orrs	r3, r2
 8002d0a:	6073      	str	r3, [r6, #4]
 8002d0c:	f7fe fba8 	bl	8001460 <HAL_GetTick>
 8002d10:	230c      	movs	r3, #12
 8002d12:	4698      	mov	r8, r3
 8002d14:	4b20      	ldr	r3, [pc, #128]	; (8002d98 <HAL_RCC_ClockConfig+0x108>)
 8002d16:	0007      	movs	r7, r0
 8002d18:	4699      	mov	r9, r3
 8002d1a:	e004      	b.n	8002d26 <HAL_RCC_ClockConfig+0x96>
 8002d1c:	f7fe fba0 	bl	8001460 <HAL_GetTick>
 8002d20:	1bc0      	subs	r0, r0, r7
 8002d22:	4548      	cmp	r0, r9
 8002d24:	d832      	bhi.n	8002d8c <HAL_RCC_ClockConfig+0xfc>
 8002d26:	4643      	mov	r3, r8
 8002d28:	6872      	ldr	r2, [r6, #4]
 8002d2a:	401a      	ands	r2, r3
 8002d2c:	6863      	ldr	r3, [r4, #4]
 8002d2e:	009b      	lsls	r3, r3, #2
 8002d30:	429a      	cmp	r2, r3
 8002d32:	d1f3      	bne.n	8002d1c <HAL_RCC_ClockConfig+0x8c>
 8002d34:	2101      	movs	r1, #1
 8002d36:	4a16      	ldr	r2, [pc, #88]	; (8002d90 <HAL_RCC_ClockConfig+0x100>)
 8002d38:	6813      	ldr	r3, [r2, #0]
 8002d3a:	400b      	ands	r3, r1
 8002d3c:	42ab      	cmp	r3, r5
 8002d3e:	d905      	bls.n	8002d4c <HAL_RCC_ClockConfig+0xbc>
 8002d40:	6813      	ldr	r3, [r2, #0]
 8002d42:	438b      	bics	r3, r1
 8002d44:	6013      	str	r3, [r2, #0]
 8002d46:	6813      	ldr	r3, [r2, #0]
 8002d48:	4219      	tst	r1, r3
 8002d4a:	d1b7      	bne.n	8002cbc <HAL_RCC_ClockConfig+0x2c>
 8002d4c:	6823      	ldr	r3, [r4, #0]
 8002d4e:	075b      	lsls	r3, r3, #29
 8002d50:	d506      	bpl.n	8002d60 <HAL_RCC_ClockConfig+0xd0>
 8002d52:	4a10      	ldr	r2, [pc, #64]	; (8002d94 <HAL_RCC_ClockConfig+0x104>)
 8002d54:	4911      	ldr	r1, [pc, #68]	; (8002d9c <HAL_RCC_ClockConfig+0x10c>)
 8002d56:	6853      	ldr	r3, [r2, #4]
 8002d58:	400b      	ands	r3, r1
 8002d5a:	68e1      	ldr	r1, [r4, #12]
 8002d5c:	430b      	orrs	r3, r1
 8002d5e:	6053      	str	r3, [r2, #4]
 8002d60:	f7ff ff6c 	bl	8002c3c <HAL_RCC_GetSysClockFreq>
 8002d64:	4b0b      	ldr	r3, [pc, #44]	; (8002d94 <HAL_RCC_ClockConfig+0x104>)
 8002d66:	4a0e      	ldr	r2, [pc, #56]	; (8002da0 <HAL_RCC_ClockConfig+0x110>)
 8002d68:	685b      	ldr	r3, [r3, #4]
 8002d6a:	490e      	ldr	r1, [pc, #56]	; (8002da4 <HAL_RCC_ClockConfig+0x114>)
 8002d6c:	061b      	lsls	r3, r3, #24
 8002d6e:	0f1b      	lsrs	r3, r3, #28
 8002d70:	5cd3      	ldrb	r3, [r2, r3]
 8002d72:	40d8      	lsrs	r0, r3
 8002d74:	6008      	str	r0, [r1, #0]
 8002d76:	2003      	movs	r0, #3
 8002d78:	f7fe fb30 	bl	80013dc <HAL_InitTick>
 8002d7c:	2000      	movs	r0, #0
 8002d7e:	e79e      	b.n	8002cbe <HAL_RCC_ClockConfig+0x2e>
 8002d80:	019b      	lsls	r3, r3, #6
 8002d82:	d4bd      	bmi.n	8002d00 <HAL_RCC_ClockConfig+0x70>
 8002d84:	e79a      	b.n	8002cbc <HAL_RCC_ClockConfig+0x2c>
 8002d86:	039b      	lsls	r3, r3, #14
 8002d88:	d4ba      	bmi.n	8002d00 <HAL_RCC_ClockConfig+0x70>
 8002d8a:	e797      	b.n	8002cbc <HAL_RCC_ClockConfig+0x2c>
 8002d8c:	2003      	movs	r0, #3
 8002d8e:	e796      	b.n	8002cbe <HAL_RCC_ClockConfig+0x2e>
 8002d90:	40022000 	.word	0x40022000
 8002d94:	40021000 	.word	0x40021000
 8002d98:	00001388 	.word	0x00001388
 8002d9c:	fffff8ff 	.word	0xfffff8ff
 8002da0:	08005abc 	.word	0x08005abc
 8002da4:	20000004 	.word	0x20000004

08002da8 <HAL_RCC_GetPCLK1Freq>:
 8002da8:	4b04      	ldr	r3, [pc, #16]	; (8002dbc <HAL_RCC_GetPCLK1Freq+0x14>)
 8002daa:	4a05      	ldr	r2, [pc, #20]	; (8002dc0 <HAL_RCC_GetPCLK1Freq+0x18>)
 8002dac:	685b      	ldr	r3, [r3, #4]
 8002dae:	4905      	ldr	r1, [pc, #20]	; (8002dc4 <HAL_RCC_GetPCLK1Freq+0x1c>)
 8002db0:	055b      	lsls	r3, r3, #21
 8002db2:	0f5b      	lsrs	r3, r3, #29
 8002db4:	5ccb      	ldrb	r3, [r1, r3]
 8002db6:	6810      	ldr	r0, [r2, #0]
 8002db8:	40d8      	lsrs	r0, r3
 8002dba:	4770      	bx	lr
 8002dbc:	40021000 	.word	0x40021000
 8002dc0:	20000004 	.word	0x20000004
 8002dc4:	08005acc 	.word	0x08005acc

08002dc8 <HAL_RCCEx_PeriphCLKConfig>:
 8002dc8:	b5f0      	push	{r4, r5, r6, r7, lr}
 8002dca:	46ce      	mov	lr, r9
 8002dcc:	4647      	mov	r7, r8
 8002dce:	b580      	push	{r7, lr}
 8002dd0:	6803      	ldr	r3, [r0, #0]
 8002dd2:	0004      	movs	r4, r0
 8002dd4:	b083      	sub	sp, #12
 8002dd6:	03da      	lsls	r2, r3, #15
 8002dd8:	d530      	bpl.n	8002e3c <HAL_RCCEx_PeriphCLKConfig+0x74>
 8002dda:	2280      	movs	r2, #128	; 0x80
 8002ddc:	4b43      	ldr	r3, [pc, #268]	; (8002eec <HAL_RCCEx_PeriphCLKConfig+0x124>)
 8002dde:	0552      	lsls	r2, r2, #21
 8002de0:	69d9      	ldr	r1, [r3, #28]
 8002de2:	2700      	movs	r7, #0
 8002de4:	4211      	tst	r1, r2
 8002de6:	d041      	beq.n	8002e6c <HAL_RCCEx_PeriphCLKConfig+0xa4>
 8002de8:	2680      	movs	r6, #128	; 0x80
 8002dea:	4d41      	ldr	r5, [pc, #260]	; (8002ef0 <HAL_RCCEx_PeriphCLKConfig+0x128>)
 8002dec:	0076      	lsls	r6, r6, #1
 8002dee:	682b      	ldr	r3, [r5, #0]
 8002df0:	4233      	tst	r3, r6
 8002df2:	d049      	beq.n	8002e88 <HAL_RCCEx_PeriphCLKConfig+0xc0>
 8002df4:	4d3d      	ldr	r5, [pc, #244]	; (8002eec <HAL_RCCEx_PeriphCLKConfig+0x124>)
 8002df6:	23c0      	movs	r3, #192	; 0xc0
 8002df8:	6a2a      	ldr	r2, [r5, #32]
 8002dfa:	009b      	lsls	r3, r3, #2
 8002dfc:	0010      	movs	r0, r2
 8002dfe:	4018      	ands	r0, r3
 8002e00:	421a      	tst	r2, r3
 8002e02:	d063      	beq.n	8002ecc <HAL_RCCEx_PeriphCLKConfig+0x104>
 8002e04:	6861      	ldr	r1, [r4, #4]
 8002e06:	400b      	ands	r3, r1
 8002e08:	4283      	cmp	r3, r0
 8002e0a:	d00e      	beq.n	8002e2a <HAL_RCCEx_PeriphCLKConfig+0x62>
 8002e0c:	2080      	movs	r0, #128	; 0x80
 8002e0e:	6a2b      	ldr	r3, [r5, #32]
 8002e10:	6a2e      	ldr	r6, [r5, #32]
 8002e12:	0240      	lsls	r0, r0, #9
 8002e14:	4330      	orrs	r0, r6
 8002e16:	6228      	str	r0, [r5, #32]
 8002e18:	6a28      	ldr	r0, [r5, #32]
 8002e1a:	4a36      	ldr	r2, [pc, #216]	; (8002ef4 <HAL_RCCEx_PeriphCLKConfig+0x12c>)
 8002e1c:	4e36      	ldr	r6, [pc, #216]	; (8002ef8 <HAL_RCCEx_PeriphCLKConfig+0x130>)
 8002e1e:	401a      	ands	r2, r3
 8002e20:	4030      	ands	r0, r6
 8002e22:	6228      	str	r0, [r5, #32]
 8002e24:	622a      	str	r2, [r5, #32]
 8002e26:	07db      	lsls	r3, r3, #31
 8002e28:	d43f      	bmi.n	8002eaa <HAL_RCCEx_PeriphCLKConfig+0xe2>
 8002e2a:	4a30      	ldr	r2, [pc, #192]	; (8002eec <HAL_RCCEx_PeriphCLKConfig+0x124>)
 8002e2c:	4831      	ldr	r0, [pc, #196]	; (8002ef4 <HAL_RCCEx_PeriphCLKConfig+0x12c>)
 8002e2e:	6a13      	ldr	r3, [r2, #32]
 8002e30:	4003      	ands	r3, r0
 8002e32:	430b      	orrs	r3, r1
 8002e34:	6213      	str	r3, [r2, #32]
 8002e36:	2f01      	cmp	r7, #1
 8002e38:	d051      	beq.n	8002ede <HAL_RCCEx_PeriphCLKConfig+0x116>
 8002e3a:	6823      	ldr	r3, [r4, #0]
 8002e3c:	07da      	lsls	r2, r3, #31
 8002e3e:	d506      	bpl.n	8002e4e <HAL_RCCEx_PeriphCLKConfig+0x86>
 8002e40:	2003      	movs	r0, #3
 8002e42:	492a      	ldr	r1, [pc, #168]	; (8002eec <HAL_RCCEx_PeriphCLKConfig+0x124>)
 8002e44:	6b0a      	ldr	r2, [r1, #48]	; 0x30
 8002e46:	4382      	bics	r2, r0
 8002e48:	68a0      	ldr	r0, [r4, #8]
 8002e4a:	4302      	orrs	r2, r0
 8002e4c:	630a      	str	r2, [r1, #48]	; 0x30
 8002e4e:	2000      	movs	r0, #0
 8002e50:	069b      	lsls	r3, r3, #26
 8002e52:	d506      	bpl.n	8002e62 <HAL_RCCEx_PeriphCLKConfig+0x9a>
 8002e54:	2110      	movs	r1, #16
 8002e56:	4a25      	ldr	r2, [pc, #148]	; (8002eec <HAL_RCCEx_PeriphCLKConfig+0x124>)
 8002e58:	6b13      	ldr	r3, [r2, #48]	; 0x30
 8002e5a:	438b      	bics	r3, r1
 8002e5c:	68e1      	ldr	r1, [r4, #12]
 8002e5e:	430b      	orrs	r3, r1
 8002e60:	6313      	str	r3, [r2, #48]	; 0x30
 8002e62:	b003      	add	sp, #12
 8002e64:	bcc0      	pop	{r6, r7}
 8002e66:	46b9      	mov	r9, r7
 8002e68:	46b0      	mov	r8, r6
 8002e6a:	bdf0      	pop	{r4, r5, r6, r7, pc}
 8002e6c:	2680      	movs	r6, #128	; 0x80
 8002e6e:	69d9      	ldr	r1, [r3, #28]
 8002e70:	4d1f      	ldr	r5, [pc, #124]	; (8002ef0 <HAL_RCCEx_PeriphCLKConfig+0x128>)
 8002e72:	4311      	orrs	r1, r2
 8002e74:	61d9      	str	r1, [r3, #28]
 8002e76:	69db      	ldr	r3, [r3, #28]
 8002e78:	0076      	lsls	r6, r6, #1
 8002e7a:	4013      	ands	r3, r2
 8002e7c:	9301      	str	r3, [sp, #4]
 8002e7e:	9b01      	ldr	r3, [sp, #4]
 8002e80:	682b      	ldr	r3, [r5, #0]
 8002e82:	3701      	adds	r7, #1
 8002e84:	4233      	tst	r3, r6
 8002e86:	d1b5      	bne.n	8002df4 <HAL_RCCEx_PeriphCLKConfig+0x2c>
 8002e88:	682b      	ldr	r3, [r5, #0]
 8002e8a:	4333      	orrs	r3, r6
 8002e8c:	602b      	str	r3, [r5, #0]
 8002e8e:	f7fe fae7 	bl	8001460 <HAL_GetTick>
 8002e92:	4680      	mov	r8, r0
 8002e94:	682b      	ldr	r3, [r5, #0]
 8002e96:	4233      	tst	r3, r6
 8002e98:	d1ac      	bne.n	8002df4 <HAL_RCCEx_PeriphCLKConfig+0x2c>
 8002e9a:	f7fe fae1 	bl	8001460 <HAL_GetTick>
 8002e9e:	4643      	mov	r3, r8
 8002ea0:	1ac0      	subs	r0, r0, r3
 8002ea2:	2864      	cmp	r0, #100	; 0x64
 8002ea4:	d9f6      	bls.n	8002e94 <HAL_RCCEx_PeriphCLKConfig+0xcc>
 8002ea6:	2003      	movs	r0, #3
 8002ea8:	e7db      	b.n	8002e62 <HAL_RCCEx_PeriphCLKConfig+0x9a>
 8002eaa:	f7fe fad9 	bl	8001460 <HAL_GetTick>
 8002eae:	2302      	movs	r3, #2
 8002eb0:	4698      	mov	r8, r3
 8002eb2:	4b12      	ldr	r3, [pc, #72]	; (8002efc <HAL_RCCEx_PeriphCLKConfig+0x134>)
 8002eb4:	0006      	movs	r6, r0
 8002eb6:	4699      	mov	r9, r3
 8002eb8:	e004      	b.n	8002ec4 <HAL_RCCEx_PeriphCLKConfig+0xfc>
 8002eba:	f7fe fad1 	bl	8001460 <HAL_GetTick>
 8002ebe:	1b80      	subs	r0, r0, r6
 8002ec0:	4548      	cmp	r0, r9
 8002ec2:	d8f0      	bhi.n	8002ea6 <HAL_RCCEx_PeriphCLKConfig+0xde>
 8002ec4:	4642      	mov	r2, r8
 8002ec6:	6a2b      	ldr	r3, [r5, #32]
 8002ec8:	421a      	tst	r2, r3
 8002eca:	d0f6      	beq.n	8002eba <HAL_RCCEx_PeriphCLKConfig+0xf2>
 8002ecc:	4a07      	ldr	r2, [pc, #28]	; (8002eec <HAL_RCCEx_PeriphCLKConfig+0x124>)
 8002ece:	4809      	ldr	r0, [pc, #36]	; (8002ef4 <HAL_RCCEx_PeriphCLKConfig+0x12c>)
 8002ed0:	6a13      	ldr	r3, [r2, #32]
 8002ed2:	6861      	ldr	r1, [r4, #4]
 8002ed4:	4003      	ands	r3, r0
 8002ed6:	430b      	orrs	r3, r1
 8002ed8:	6213      	str	r3, [r2, #32]
 8002eda:	2f01      	cmp	r7, #1
 8002edc:	d1ad      	bne.n	8002e3a <HAL_RCCEx_PeriphCLKConfig+0x72>
 8002ede:	69d3      	ldr	r3, [r2, #28]
 8002ee0:	4907      	ldr	r1, [pc, #28]	; (8002f00 <HAL_RCCEx_PeriphCLKConfig+0x138>)
 8002ee2:	400b      	ands	r3, r1
 8002ee4:	61d3      	str	r3, [r2, #28]
 8002ee6:	6823      	ldr	r3, [r4, #0]
 8002ee8:	e7a8      	b.n	8002e3c <HAL_RCCEx_PeriphCLKConfig+0x74>
 8002eea:	46c0      	nop			; (mov r8, r8)
 8002eec:	40021000 	.word	0x40021000
 8002ef0:	40007000 	.word	0x40007000
 8002ef4:	fffffcff 	.word	0xfffffcff
 8002ef8:	fffeffff 	.word	0xfffeffff
 8002efc:	00001388 	.word	0x00001388
 8002f00:	efffffff 	.word	0xefffffff

08002f04 <SPI_WaitFifoStateUntilTimeout.constprop.0>:
 8002f04:	b5f0      	push	{r4, r5, r6, r7, lr}
 8002f06:	46de      	mov	lr, fp
 8002f08:	4657      	mov	r7, sl
 8002f0a:	464e      	mov	r6, r9
 8002f0c:	4645      	mov	r5, r8
 8002f0e:	b5e0      	push	{r5, r6, r7, lr}
 8002f10:	b083      	sub	sp, #12
 8002f12:	001e      	movs	r6, r3
 8002f14:	466b      	mov	r3, sp
 8002f16:	1cdf      	adds	r7, r3, #3
 8002f18:	2300      	movs	r3, #0
 8002f1a:	0015      	movs	r5, r2
 8002f1c:	4681      	mov	r9, r0
 8002f1e:	000c      	movs	r4, r1
 8002f20:	703b      	strb	r3, [r7, #0]
 8002f22:	f7fe fa9d 	bl	8001460 <HAL_GetTick>
 8002f26:	1976      	adds	r6, r6, r5
 8002f28:	1a33      	subs	r3, r6, r0
 8002f2a:	4698      	mov	r8, r3
 8002f2c:	f7fe fa98 	bl	8001460 <HAL_GetTick>
 8002f30:	464b      	mov	r3, r9
 8002f32:	681b      	ldr	r3, [r3, #0]
 8002f34:	26c0      	movs	r6, #192	; 0xc0
 8002f36:	469a      	mov	sl, r3
 8002f38:	4b34      	ldr	r3, [pc, #208]	; (800300c <SPI_WaitFifoStateUntilTimeout.constprop.0+0x108>)
 8002f3a:	4683      	mov	fp, r0
 8002f3c:	681b      	ldr	r3, [r3, #0]
 8002f3e:	00f6      	lsls	r6, r6, #3
 8002f40:	009a      	lsls	r2, r3, #2
 8002f42:	18d2      	adds	r2, r2, r3
 8002f44:	00d3      	lsls	r3, r2, #3
 8002f46:	1a9b      	subs	r3, r3, r2
 8002f48:	4642      	mov	r2, r8
 8002f4a:	0d1b      	lsrs	r3, r3, #20
 8002f4c:	4353      	muls	r3, r2
 8002f4e:	4652      	mov	r2, sl
 8002f50:	9301      	str	r3, [sp, #4]
 8002f52:	e001      	b.n	8002f58 <SPI_WaitFifoStateUntilTimeout.constprop.0+0x54>
 8002f54:	1c6b      	adds	r3, r5, #1
 8002f56:	d10b      	bne.n	8002f70 <SPI_WaitFifoStateUntilTimeout.constprop.0+0x6c>
 8002f58:	6893      	ldr	r3, [r2, #8]
 8002f5a:	4223      	tst	r3, r4
 8002f5c:	d01d      	beq.n	8002f9a <SPI_WaitFifoStateUntilTimeout.constprop.0+0x96>
 8002f5e:	42b4      	cmp	r4, r6
 8002f60:	d1f8      	bne.n	8002f54 <SPI_WaitFifoStateUntilTimeout.constprop.0+0x50>
 8002f62:	4653      	mov	r3, sl
 8002f64:	7b1b      	ldrb	r3, [r3, #12]
 8002f66:	b2db      	uxtb	r3, r3
 8002f68:	703b      	strb	r3, [r7, #0]
 8002f6a:	783b      	ldrb	r3, [r7, #0]
 8002f6c:	1c6b      	adds	r3, r5, #1
 8002f6e:	d0f3      	beq.n	8002f58 <SPI_WaitFifoStateUntilTimeout.constprop.0+0x54>
 8002f70:	f7fe fa76 	bl	8001460 <HAL_GetTick>
 8002f74:	465b      	mov	r3, fp
 8002f76:	1ac0      	subs	r0, r0, r3
 8002f78:	4540      	cmp	r0, r8
 8002f7a:	d216      	bcs.n	8002faa <SPI_WaitFifoStateUntilTimeout.constprop.0+0xa6>
 8002f7c:	9b01      	ldr	r3, [sp, #4]
 8002f7e:	1e5a      	subs	r2, r3, #1
 8002f80:	4193      	sbcs	r3, r2
 8002f82:	4642      	mov	r2, r8
 8002f84:	425b      	negs	r3, r3
 8002f86:	401a      	ands	r2, r3
 8002f88:	9b01      	ldr	r3, [sp, #4]
 8002f8a:	4690      	mov	r8, r2
 8002f8c:	3b01      	subs	r3, #1
 8002f8e:	9301      	str	r3, [sp, #4]
 8002f90:	464b      	mov	r3, r9
 8002f92:	681a      	ldr	r2, [r3, #0]
 8002f94:	6893      	ldr	r3, [r2, #8]
 8002f96:	4223      	tst	r3, r4
 8002f98:	d1e1      	bne.n	8002f5e <SPI_WaitFifoStateUntilTimeout.constprop.0+0x5a>
 8002f9a:	2000      	movs	r0, #0
 8002f9c:	b003      	add	sp, #12
 8002f9e:	bcf0      	pop	{r4, r5, r6, r7}
 8002fa0:	46bb      	mov	fp, r7
 8002fa2:	46b2      	mov	sl, r6
 8002fa4:	46a9      	mov	r9, r5
 8002fa6:	46a0      	mov	r8, r4
 8002fa8:	bdf0      	pop	{r4, r5, r6, r7, pc}
 8002faa:	464b      	mov	r3, r9
 8002fac:	21e0      	movs	r1, #224	; 0xe0
 8002fae:	681b      	ldr	r3, [r3, #0]
 8002fb0:	685a      	ldr	r2, [r3, #4]
 8002fb2:	438a      	bics	r2, r1
 8002fb4:	4649      	mov	r1, r9
 8002fb6:	605a      	str	r2, [r3, #4]
 8002fb8:	2282      	movs	r2, #130	; 0x82
 8002fba:	6849      	ldr	r1, [r1, #4]
 8002fbc:	0052      	lsls	r2, r2, #1
 8002fbe:	4291      	cmp	r1, r2
 8002fc0:	d015      	beq.n	8002fee <SPI_WaitFifoStateUntilTimeout.constprop.0+0xea>
 8002fc2:	464a      	mov	r2, r9
 8002fc4:	2180      	movs	r1, #128	; 0x80
 8002fc6:	6a92      	ldr	r2, [r2, #40]	; 0x28
 8002fc8:	0189      	lsls	r1, r1, #6
 8002fca:	428a      	cmp	r2, r1
 8002fcc:	d106      	bne.n	8002fdc <SPI_WaitFifoStateUntilTimeout.constprop.0+0xd8>
 8002fce:	6819      	ldr	r1, [r3, #0]
 8002fd0:	480f      	ldr	r0, [pc, #60]	; (8003010 <SPI_WaitFifoStateUntilTimeout.constprop.0+0x10c>)
 8002fd2:	4001      	ands	r1, r0
 8002fd4:	6019      	str	r1, [r3, #0]
 8002fd6:	6819      	ldr	r1, [r3, #0]
 8002fd8:	430a      	orrs	r2, r1
 8002fda:	601a      	str	r2, [r3, #0]
 8002fdc:	235d      	movs	r3, #93	; 0x5d
 8002fde:	2201      	movs	r2, #1
 8002fe0:	4649      	mov	r1, r9
 8002fe2:	54ca      	strb	r2, [r1, r3]
 8002fe4:	2200      	movs	r2, #0
 8002fe6:	3b01      	subs	r3, #1
 8002fe8:	2003      	movs	r0, #3
 8002fea:	54ca      	strb	r2, [r1, r3]
 8002fec:	e7d6      	b.n	8002f9c <SPI_WaitFifoStateUntilTimeout.constprop.0+0x98>
 8002fee:	464a      	mov	r2, r9
 8002ff0:	2180      	movs	r1, #128	; 0x80
 8002ff2:	6892      	ldr	r2, [r2, #8]
 8002ff4:	0209      	lsls	r1, r1, #8
 8002ff6:	428a      	cmp	r2, r1
 8002ff8:	d003      	beq.n	8003002 <SPI_WaitFifoStateUntilTimeout.constprop.0+0xfe>
 8002ffa:	2180      	movs	r1, #128	; 0x80
 8002ffc:	00c9      	lsls	r1, r1, #3
 8002ffe:	428a      	cmp	r2, r1
 8003000:	d1df      	bne.n	8002fc2 <SPI_WaitFifoStateUntilTimeout.constprop.0+0xbe>
 8003002:	2140      	movs	r1, #64	; 0x40
 8003004:	681a      	ldr	r2, [r3, #0]
 8003006:	438a      	bics	r2, r1
 8003008:	601a      	str	r2, [r3, #0]
 800300a:	e7da      	b.n	8002fc2 <SPI_WaitFifoStateUntilTimeout.constprop.0+0xbe>
 800300c:	20000004 	.word	0x20000004
 8003010:	ffffdfff 	.word	0xffffdfff

08003014 <SPI_WaitFlagStateUntilTimeout.constprop.0>:
 8003014:	b5f0      	push	{r4, r5, r6, r7, lr}
 8003016:	46c6      	mov	lr, r8
 8003018:	b500      	push	{lr}
 800301a:	000c      	movs	r4, r1
 800301c:	0016      	movs	r6, r2
 800301e:	b082      	sub	sp, #8
 8003020:	0007      	movs	r7, r0
 8003022:	f7fe fa1d 	bl	8001460 <HAL_GetTick>
 8003026:	1936      	adds	r6, r6, r4
 8003028:	1a36      	subs	r6, r6, r0
 800302a:	f7fe fa19 	bl	8001460 <HAL_GetTick>
 800302e:	2580      	movs	r5, #128	; 0x80
 8003030:	4680      	mov	r8, r0
 8003032:	4b26      	ldr	r3, [pc, #152]	; (80030cc <SPI_WaitFlagStateUntilTimeout.constprop.0+0xb8>)
 8003034:	681b      	ldr	r3, [r3, #0]
 8003036:	015b      	lsls	r3, r3, #5
 8003038:	0d1b      	lsrs	r3, r3, #20
 800303a:	4373      	muls	r3, r6
 800303c:	9301      	str	r3, [sp, #4]
 800303e:	683a      	ldr	r2, [r7, #0]
 8003040:	e001      	b.n	8003046 <SPI_WaitFlagStateUntilTimeout.constprop.0+0x32>
 8003042:	1c63      	adds	r3, r4, #1
 8003044:	d107      	bne.n	8003056 <SPI_WaitFlagStateUntilTimeout.constprop.0+0x42>
 8003046:	6893      	ldr	r3, [r2, #8]
 8003048:	421d      	tst	r5, r3
 800304a:	d1fa      	bne.n	8003042 <SPI_WaitFlagStateUntilTimeout.constprop.0+0x2e>
 800304c:	2000      	movs	r0, #0
 800304e:	b002      	add	sp, #8
 8003050:	bc80      	pop	{r7}
 8003052:	46b8      	mov	r8, r7
 8003054:	bdf0      	pop	{r4, r5, r6, r7, pc}
 8003056:	f7fe fa03 	bl	8001460 <HAL_GetTick>
 800305a:	4643      	mov	r3, r8
 800305c:	1ac0      	subs	r0, r0, r3
 800305e:	42b0      	cmp	r0, r6
 8003060:	d208      	bcs.n	8003074 <SPI_WaitFlagStateUntilTimeout.constprop.0+0x60>
 8003062:	9b01      	ldr	r3, [sp, #4]
 8003064:	1e5a      	subs	r2, r3, #1
 8003066:	4193      	sbcs	r3, r2
 8003068:	425b      	negs	r3, r3
 800306a:	401e      	ands	r6, r3
 800306c:	9b01      	ldr	r3, [sp, #4]
 800306e:	3b01      	subs	r3, #1
 8003070:	9301      	str	r3, [sp, #4]
 8003072:	e7e4      	b.n	800303e <SPI_WaitFlagStateUntilTimeout.constprop.0+0x2a>
 8003074:	21e0      	movs	r1, #224	; 0xe0
 8003076:	683b      	ldr	r3, [r7, #0]
 8003078:	685a      	ldr	r2, [r3, #4]
 800307a:	438a      	bics	r2, r1
 800307c:	605a      	str	r2, [r3, #4]
 800307e:	2282      	movs	r2, #130	; 0x82
 8003080:	6879      	ldr	r1, [r7, #4]
 8003082:	0052      	lsls	r2, r2, #1
 8003084:	4291      	cmp	r1, r2
 8003086:	d013      	beq.n	80030b0 <SPI_WaitFlagStateUntilTimeout.constprop.0+0x9c>
 8003088:	2180      	movs	r1, #128	; 0x80
 800308a:	6aba      	ldr	r2, [r7, #40]	; 0x28
 800308c:	0189      	lsls	r1, r1, #6
 800308e:	428a      	cmp	r2, r1
 8003090:	d106      	bne.n	80030a0 <SPI_WaitFlagStateUntilTimeout.constprop.0+0x8c>
 8003092:	6819      	ldr	r1, [r3, #0]
 8003094:	480e      	ldr	r0, [pc, #56]	; (80030d0 <SPI_WaitFlagStateUntilTimeout.constprop.0+0xbc>)
 8003096:	4001      	ands	r1, r0
 8003098:	6019      	str	r1, [r3, #0]
 800309a:	6819      	ldr	r1, [r3, #0]
 800309c:	430a      	orrs	r2, r1
 800309e:	601a      	str	r2, [r3, #0]
 80030a0:	235d      	movs	r3, #93	; 0x5d
 80030a2:	2201      	movs	r2, #1
 80030a4:	54fa      	strb	r2, [r7, r3]
 80030a6:	2200      	movs	r2, #0
 80030a8:	3b01      	subs	r3, #1
 80030aa:	2003      	movs	r0, #3
 80030ac:	54fa      	strb	r2, [r7, r3]
 80030ae:	e7ce      	b.n	800304e <SPI_WaitFlagStateUntilTimeout.constprop.0+0x3a>
 80030b0:	2180      	movs	r1, #128	; 0x80
 80030b2:	68ba      	ldr	r2, [r7, #8]
 80030b4:	0209      	lsls	r1, r1, #8
 80030b6:	428a      	cmp	r2, r1
 80030b8:	d003      	beq.n	80030c2 <SPI_WaitFlagStateUntilTimeout.constprop.0+0xae>
 80030ba:	2180      	movs	r1, #128	; 0x80
 80030bc:	00c9      	lsls	r1, r1, #3
 80030be:	428a      	cmp	r2, r1
 80030c0:	d1e2      	bne.n	8003088 <SPI_WaitFlagStateUntilTimeout.constprop.0+0x74>
 80030c2:	2140      	movs	r1, #64	; 0x40
 80030c4:	681a      	ldr	r2, [r3, #0]
 80030c6:	438a      	bics	r2, r1
 80030c8:	601a      	str	r2, [r3, #0]
 80030ca:	e7dd      	b.n	8003088 <SPI_WaitFlagStateUntilTimeout.constprop.0+0x74>
 80030cc:	20000004 	.word	0x20000004
 80030d0:	ffffdfff 	.word	0xffffdfff

080030d4 <SPI_EndRxTxTransaction>:
 80030d4:	b570      	push	{r4, r5, r6, lr}
 80030d6:	0013      	movs	r3, r2
 80030d8:	000d      	movs	r5, r1
 80030da:	0016      	movs	r6, r2
 80030dc:	000a      	movs	r2, r1
 80030de:	21c0      	movs	r1, #192	; 0xc0
 80030e0:	0149      	lsls	r1, r1, #5
 80030e2:	0004      	movs	r4, r0
 80030e4:	f7ff ff0e 	bl	8002f04 <SPI_WaitFifoStateUntilTimeout.constprop.0>
 80030e8:	2800      	cmp	r0, #0
 80030ea:	d10f      	bne.n	800310c <SPI_EndRxTxTransaction+0x38>
 80030ec:	0032      	movs	r2, r6
 80030ee:	0029      	movs	r1, r5
 80030f0:	0020      	movs	r0, r4
 80030f2:	f7ff ff8f 	bl	8003014 <SPI_WaitFlagStateUntilTimeout.constprop.0>
 80030f6:	2800      	cmp	r0, #0
 80030f8:	d108      	bne.n	800310c <SPI_EndRxTxTransaction+0x38>
 80030fa:	21c0      	movs	r1, #192	; 0xc0
 80030fc:	0033      	movs	r3, r6
 80030fe:	002a      	movs	r2, r5
 8003100:	0020      	movs	r0, r4
 8003102:	00c9      	lsls	r1, r1, #3
 8003104:	f7ff fefe 	bl	8002f04 <SPI_WaitFifoStateUntilTimeout.constprop.0>
 8003108:	2800      	cmp	r0, #0
 800310a:	d004      	beq.n	8003116 <SPI_EndRxTxTransaction+0x42>
 800310c:	2220      	movs	r2, #32
 800310e:	2003      	movs	r0, #3
 8003110:	6e23      	ldr	r3, [r4, #96]	; 0x60
 8003112:	4313      	orrs	r3, r2
 8003114:	6623      	str	r3, [r4, #96]	; 0x60
 8003116:	bd70      	pop	{r4, r5, r6, pc}

08003118 <HAL_SPI_Init>:
 8003118:	b5f8      	push	{r3, r4, r5, r6, r7, lr}
 800311a:	46de      	mov	lr, fp
 800311c:	4657      	mov	r7, sl
 800311e:	464e      	mov	r6, r9
 8003120:	4645      	mov	r5, r8
 8003122:	0004      	movs	r4, r0
 8003124:	b5e0      	push	{r5, r6, r7, lr}
 8003126:	2800      	cmp	r0, #0
 8003128:	d100      	bne.n	800312c <HAL_SPI_Init+0x14>
 800312a:	e094      	b.n	8003256 <HAL_SPI_Init+0x13e>
 800312c:	6a45      	ldr	r5, [r0, #36]	; 0x24
 800312e:	2d00      	cmp	r5, #0
 8003130:	d06b      	beq.n	800320a <HAL_SPI_Init+0xf2>
 8003132:	2300      	movs	r3, #0
 8003134:	6103      	str	r3, [r0, #16]
 8003136:	6143      	str	r3, [r0, #20]
 8003138:	2300      	movs	r3, #0
 800313a:	62a3      	str	r3, [r4, #40]	; 0x28
 800313c:	335d      	adds	r3, #93	; 0x5d
 800313e:	5ce3      	ldrb	r3, [r4, r3]
 8003140:	b2da      	uxtb	r2, r3
 8003142:	2b00      	cmp	r3, #0
 8003144:	d06e      	beq.n	8003224 <HAL_SPI_Init+0x10c>
 8003146:	235d      	movs	r3, #93	; 0x5d
 8003148:	2202      	movs	r2, #2
 800314a:	2140      	movs	r1, #64	; 0x40
 800314c:	54e2      	strb	r2, [r4, r3]
 800314e:	6822      	ldr	r2, [r4, #0]
 8003150:	68e0      	ldr	r0, [r4, #12]
 8003152:	6813      	ldr	r3, [r2, #0]
 8003154:	438b      	bics	r3, r1
 8003156:	6013      	str	r3, [r2, #0]
 8003158:	23e0      	movs	r3, #224	; 0xe0
 800315a:	00db      	lsls	r3, r3, #3
 800315c:	4298      	cmp	r0, r3
 800315e:	d968      	bls.n	8003232 <HAL_SPI_Init+0x11a>
 8003160:	23f0      	movs	r3, #240	; 0xf0
 8003162:	011b      	lsls	r3, r3, #4
 8003164:	4298      	cmp	r0, r3
 8003166:	d000      	beq.n	800316a <HAL_SPI_Init+0x52>
 8003168:	e077      	b.n	800325a <HAL_SPI_Init+0x142>
 800316a:	2380      	movs	r3, #128	; 0x80
 800316c:	6aa1      	ldr	r1, [r4, #40]	; 0x28
 800316e:	019b      	lsls	r3, r3, #6
 8003170:	4019      	ands	r1, r3
 8003172:	2300      	movs	r3, #0
 8003174:	468c      	mov	ip, r1
 8003176:	469b      	mov	fp, r3
 8003178:	2682      	movs	r6, #130	; 0x82
 800317a:	2784      	movs	r7, #132	; 0x84
 800317c:	6863      	ldr	r3, [r4, #4]
 800317e:	0076      	lsls	r6, r6, #1
 8003180:	4033      	ands	r3, r6
 8003182:	68a6      	ldr	r6, [r4, #8]
 8003184:	023f      	lsls	r7, r7, #8
 8003186:	403e      	ands	r6, r7
 8003188:	2702      	movs	r7, #2
 800318a:	4333      	orrs	r3, r6
 800318c:	6926      	ldr	r6, [r4, #16]
 800318e:	69a1      	ldr	r1, [r4, #24]
 8003190:	403e      	ands	r6, r7
 8003192:	4333      	orrs	r3, r6
 8003194:	2601      	movs	r6, #1
 8003196:	6967      	ldr	r7, [r4, #20]
 8003198:	46b2      	mov	sl, r6
 800319a:	4037      	ands	r7, r6
 800319c:	433b      	orrs	r3, r7
 800319e:	2780      	movs	r7, #128	; 0x80
 80031a0:	00bf      	lsls	r7, r7, #2
 80031a2:	400f      	ands	r7, r1
 80031a4:	433b      	orrs	r3, r7
 80031a6:	69e7      	ldr	r7, [r4, #28]
 80031a8:	0c09      	lsrs	r1, r1, #16
 80031aa:	46b8      	mov	r8, r7
 80031ac:	2738      	movs	r7, #56	; 0x38
 80031ae:	46b9      	mov	r9, r7
 80031b0:	4647      	mov	r7, r8
 80031b2:	464e      	mov	r6, r9
 80031b4:	4037      	ands	r7, r6
 80031b6:	6a26      	ldr	r6, [r4, #32]
 80031b8:	433b      	orrs	r3, r7
 80031ba:	46b0      	mov	r8, r6
 80031bc:	2680      	movs	r6, #128	; 0x80
 80031be:	4647      	mov	r7, r8
 80031c0:	4037      	ands	r7, r6
 80031c2:	4666      	mov	r6, ip
 80031c4:	433b      	orrs	r3, r7
 80031c6:	4333      	orrs	r3, r6
 80031c8:	2608      	movs	r6, #8
 80031ca:	6013      	str	r3, [r2, #0]
 80031cc:	6b63      	ldr	r3, [r4, #52]	; 0x34
 80031ce:	4033      	ands	r3, r6
 80031d0:	26f0      	movs	r6, #240	; 0xf0
 80031d2:	0136      	lsls	r6, r6, #4
 80031d4:	4030      	ands	r0, r6
 80031d6:	4303      	orrs	r3, r0
 80031d8:	2004      	movs	r0, #4
 80031da:	4001      	ands	r1, r0
 80031dc:	430b      	orrs	r3, r1
 80031de:	2110      	movs	r1, #16
 80031e0:	4029      	ands	r1, r5
 80031e2:	430b      	orrs	r3, r1
 80031e4:	4659      	mov	r1, fp
 80031e6:	430b      	orrs	r3, r1
 80031e8:	6053      	str	r3, [r2, #4]
 80031ea:	69d3      	ldr	r3, [r2, #28]
 80031ec:	491c      	ldr	r1, [pc, #112]	; (8003260 <HAL_SPI_Init+0x148>)
 80031ee:	2000      	movs	r0, #0
 80031f0:	400b      	ands	r3, r1
 80031f2:	61d3      	str	r3, [r2, #28]
 80031f4:	2300      	movs	r3, #0
 80031f6:	4652      	mov	r2, sl
 80031f8:	6623      	str	r3, [r4, #96]	; 0x60
 80031fa:	335d      	adds	r3, #93	; 0x5d
 80031fc:	54e2      	strb	r2, [r4, r3]
 80031fe:	bcf0      	pop	{r4, r5, r6, r7}
 8003200:	46bb      	mov	fp, r7
 8003202:	46b2      	mov	sl, r6
 8003204:	46a9      	mov	r9, r5
 8003206:	46a0      	mov	r8, r4
 8003208:	bdf8      	pop	{r3, r4, r5, r6, r7, pc}
 800320a:	2382      	movs	r3, #130	; 0x82
 800320c:	6842      	ldr	r2, [r0, #4]
 800320e:	005b      	lsls	r3, r3, #1
 8003210:	429a      	cmp	r2, r3
 8003212:	d091      	beq.n	8003138 <HAL_SPI_Init+0x20>
 8003214:	2300      	movs	r3, #0
 8003216:	61c5      	str	r5, [r0, #28]
 8003218:	62a3      	str	r3, [r4, #40]	; 0x28
 800321a:	335d      	adds	r3, #93	; 0x5d
 800321c:	5ce3      	ldrb	r3, [r4, r3]
 800321e:	b2da      	uxtb	r2, r3
 8003220:	2b00      	cmp	r3, #0
 8003222:	d190      	bne.n	8003146 <HAL_SPI_Init+0x2e>
 8003224:	335c      	adds	r3, #92	; 0x5c
 8003226:	0020      	movs	r0, r4
 8003228:	54e2      	strb	r2, [r4, r3]
 800322a:	f7fd fea9 	bl	8000f80 <HAL_SPI_MspInit>
 800322e:	6a65      	ldr	r5, [r4, #36]	; 0x24
 8003230:	e789      	b.n	8003146 <HAL_SPI_Init+0x2e>
 8003232:	4298      	cmp	r0, r3
 8003234:	d006      	beq.n	8003244 <HAL_SPI_Init+0x12c>
 8003236:	2380      	movs	r3, #128	; 0x80
 8003238:	015b      	lsls	r3, r3, #5
 800323a:	469b      	mov	fp, r3
 800323c:	2300      	movs	r3, #0
 800323e:	469c      	mov	ip, r3
 8003240:	62a3      	str	r3, [r4, #40]	; 0x28
 8003242:	e799      	b.n	8003178 <HAL_SPI_Init+0x60>
 8003244:	2380      	movs	r3, #128	; 0x80
 8003246:	6aa1      	ldr	r1, [r4, #40]	; 0x28
 8003248:	019b      	lsls	r3, r3, #6
 800324a:	4019      	ands	r1, r3
 800324c:	2380      	movs	r3, #128	; 0x80
 800324e:	015b      	lsls	r3, r3, #5
 8003250:	468c      	mov	ip, r1
 8003252:	469b      	mov	fp, r3
 8003254:	e790      	b.n	8003178 <HAL_SPI_Init+0x60>
 8003256:	2001      	movs	r0, #1
 8003258:	e7d1      	b.n	80031fe <HAL_SPI_Init+0xe6>
 800325a:	2300      	movs	r3, #0
 800325c:	469b      	mov	fp, r3
 800325e:	e7ed      	b.n	800323c <HAL_SPI_Init+0x124>
 8003260:	fffff7ff 	.word	0xfffff7ff

08003264 <HAL_SPI_TransmitReceive>:
 8003264:	b5f8      	push	{r3, r4, r5, r6, r7, lr}
 8003266:	4647      	mov	r7, r8
 8003268:	46ce      	mov	lr, r9
 800326a:	b580      	push	{r7, lr}
 800326c:	001f      	movs	r7, r3
 800326e:	235c      	movs	r3, #92	; 0x5c
 8003270:	4691      	mov	r9, r2
 8003272:	5cc2      	ldrb	r2, [r0, r3]
 8003274:	0004      	movs	r4, r0
 8003276:	4688      	mov	r8, r1
 8003278:	9d08      	ldr	r5, [sp, #32]
 800327a:	2a01      	cmp	r2, #1
 800327c:	d100      	bne.n	8003280 <HAL_SPI_TransmitReceive+0x1c>
 800327e:	e0a7      	b.n	80033d0 <HAL_SPI_TransmitReceive+0x16c>
 8003280:	2201      	movs	r2, #1
 8003282:	54c2      	strb	r2, [r0, r3]
 8003284:	f7fe f8ec 	bl	8001460 <HAL_GetTick>
 8003288:	235d      	movs	r3, #93	; 0x5d
 800328a:	5ce3      	ldrb	r3, [r4, r3]
 800328c:	0006      	movs	r6, r0
 800328e:	6862      	ldr	r2, [r4, #4]
 8003290:	b2d9      	uxtb	r1, r3
 8003292:	2b01      	cmp	r3, #1
 8003294:	d010      	beq.n	80032b8 <HAL_SPI_TransmitReceive+0x54>
 8003296:	2382      	movs	r3, #130	; 0x82
 8003298:	2002      	movs	r0, #2
 800329a:	005b      	lsls	r3, r3, #1
 800329c:	429a      	cmp	r2, r3
 800329e:	d006      	beq.n	80032ae <HAL_SPI_TransmitReceive+0x4a>
 80032a0:	235c      	movs	r3, #92	; 0x5c
 80032a2:	2200      	movs	r2, #0
 80032a4:	54e2      	strb	r2, [r4, r3]
 80032a6:	bcc0      	pop	{r6, r7}
 80032a8:	46b9      	mov	r9, r7
 80032aa:	46b0      	mov	r8, r6
 80032ac:	bdf8      	pop	{r3, r4, r5, r6, r7, pc}
 80032ae:	68a3      	ldr	r3, [r4, #8]
 80032b0:	2b00      	cmp	r3, #0
 80032b2:	d1f5      	bne.n	80032a0 <HAL_SPI_TransmitReceive+0x3c>
 80032b4:	2904      	cmp	r1, #4
 80032b6:	d1f3      	bne.n	80032a0 <HAL_SPI_TransmitReceive+0x3c>
 80032b8:	4643      	mov	r3, r8
 80032ba:	2b00      	cmp	r3, #0
 80032bc:	d100      	bne.n	80032c0 <HAL_SPI_TransmitReceive+0x5c>
 80032be:	e085      	b.n	80033cc <HAL_SPI_TransmitReceive+0x168>
 80032c0:	464b      	mov	r3, r9
 80032c2:	2b00      	cmp	r3, #0
 80032c4:	d100      	bne.n	80032c8 <HAL_SPI_TransmitReceive+0x64>
 80032c6:	e081      	b.n	80033cc <HAL_SPI_TransmitReceive+0x168>
 80032c8:	2f00      	cmp	r7, #0
 80032ca:	d100      	bne.n	80032ce <HAL_SPI_TransmitReceive+0x6a>
 80032cc:	e07e      	b.n	80033cc <HAL_SPI_TransmitReceive+0x168>
 80032ce:	235d      	movs	r3, #93	; 0x5d
 80032d0:	5ce1      	ldrb	r1, [r4, r3]
 80032d2:	2904      	cmp	r1, #4
 80032d4:	d001      	beq.n	80032da <HAL_SPI_TransmitReceive+0x76>
 80032d6:	2105      	movs	r1, #5
 80032d8:	54e1      	strb	r1, [r4, r3]
 80032da:	4649      	mov	r1, r9
 80032dc:	2300      	movs	r3, #0
 80032de:	6421      	str	r1, [r4, #64]	; 0x40
 80032e0:	2146      	movs	r1, #70	; 0x46
 80032e2:	6623      	str	r3, [r4, #96]	; 0x60
 80032e4:	5267      	strh	r7, [r4, r1]
 80032e6:	3902      	subs	r1, #2
 80032e8:	5267      	strh	r7, [r4, r1]
 80032ea:	4641      	mov	r1, r8
 80032ec:	64e3      	str	r3, [r4, #76]	; 0x4c
 80032ee:	6523      	str	r3, [r4, #80]	; 0x50
 80032f0:	23e0      	movs	r3, #224	; 0xe0
 80032f2:	63a1      	str	r1, [r4, #56]	; 0x38
 80032f4:	68e1      	ldr	r1, [r4, #12]
 80032f6:	87e7      	strh	r7, [r4, #62]	; 0x3e
 80032f8:	87a7      	strh	r7, [r4, #60]	; 0x3c
 80032fa:	00db      	lsls	r3, r3, #3
 80032fc:	4299      	cmp	r1, r3
 80032fe:	d969      	bls.n	80033d4 <HAL_SPI_TransmitReceive+0x170>
 8003300:	6823      	ldr	r3, [r4, #0]
 8003302:	4866      	ldr	r0, [pc, #408]	; (800349c <HAL_SPI_TransmitReceive+0x238>)
 8003304:	6859      	ldr	r1, [r3, #4]
 8003306:	4001      	ands	r1, r0
 8003308:	6059      	str	r1, [r3, #4]
 800330a:	2140      	movs	r1, #64	; 0x40
 800330c:	6818      	ldr	r0, [r3, #0]
 800330e:	4201      	tst	r1, r0
 8003310:	d102      	bne.n	8003318 <HAL_SPI_TransmitReceive+0xb4>
 8003312:	6818      	ldr	r0, [r3, #0]
 8003314:	4301      	orrs	r1, r0
 8003316:	6019      	str	r1, [r3, #0]
 8003318:	2a00      	cmp	r2, #0
 800331a:	d000      	beq.n	800331e <HAL_SPI_TransmitReceive+0xba>
 800331c:	e0b6      	b.n	800348c <HAL_SPI_TransmitReceive+0x228>
 800331e:	4642      	mov	r2, r8
 8003320:	8812      	ldrh	r2, [r2, #0]
 8003322:	60da      	str	r2, [r3, #12]
 8003324:	4643      	mov	r3, r8
 8003326:	3302      	adds	r3, #2
 8003328:	63a3      	str	r3, [r4, #56]	; 0x38
 800332a:	8fe3      	ldrh	r3, [r4, #62]	; 0x3e
 800332c:	3b01      	subs	r3, #1
 800332e:	b29b      	uxth	r3, r3
 8003330:	87e3      	strh	r3, [r4, #62]	; 0x3e
 8003332:	2301      	movs	r3, #1
 8003334:	4699      	mov	r9, r3
 8003336:	3301      	adds	r3, #1
 8003338:	2746      	movs	r7, #70	; 0x46
 800333a:	4698      	mov	r8, r3
 800333c:	8fe3      	ldrh	r3, [r4, #62]	; 0x3e
 800333e:	2b00      	cmp	r3, #0
 8003340:	d102      	bne.n	8003348 <HAL_SPI_TransmitReceive+0xe4>
 8003342:	5be3      	ldrh	r3, [r4, r7]
 8003344:	2b00      	cmp	r3, #0
 8003346:	d034      	beq.n	80033b2 <HAL_SPI_TransmitReceive+0x14e>
 8003348:	4641      	mov	r1, r8
 800334a:	6823      	ldr	r3, [r4, #0]
 800334c:	689a      	ldr	r2, [r3, #8]
 800334e:	4211      	tst	r1, r2
 8003350:	d010      	beq.n	8003374 <HAL_SPI_TransmitReceive+0x110>
 8003352:	8fe2      	ldrh	r2, [r4, #62]	; 0x3e
 8003354:	2a00      	cmp	r2, #0
 8003356:	d00d      	beq.n	8003374 <HAL_SPI_TransmitReceive+0x110>
 8003358:	464a      	mov	r2, r9
 800335a:	2a01      	cmp	r2, #1
 800335c:	d10a      	bne.n	8003374 <HAL_SPI_TransmitReceive+0x110>
 800335e:	6ba2      	ldr	r2, [r4, #56]	; 0x38
 8003360:	8811      	ldrh	r1, [r2, #0]
 8003362:	3202      	adds	r2, #2
 8003364:	60d9      	str	r1, [r3, #12]
 8003366:	63a2      	str	r2, [r4, #56]	; 0x38
 8003368:	8fe2      	ldrh	r2, [r4, #62]	; 0x3e
 800336a:	3a01      	subs	r2, #1
 800336c:	b292      	uxth	r2, r2
 800336e:	87e2      	strh	r2, [r4, #62]	; 0x3e
 8003370:	2200      	movs	r2, #0
 8003372:	4691      	mov	r9, r2
 8003374:	2101      	movs	r1, #1
 8003376:	0008      	movs	r0, r1
 8003378:	689a      	ldr	r2, [r3, #8]
 800337a:	4010      	ands	r0, r2
 800337c:	4211      	tst	r1, r2
 800337e:	d00c      	beq.n	800339a <HAL_SPI_TransmitReceive+0x136>
 8003380:	5be2      	ldrh	r2, [r4, r7]
 8003382:	2a00      	cmp	r2, #0
 8003384:	d009      	beq.n	800339a <HAL_SPI_TransmitReceive+0x136>
 8003386:	4681      	mov	r9, r0
 8003388:	68da      	ldr	r2, [r3, #12]
 800338a:	6c23      	ldr	r3, [r4, #64]	; 0x40
 800338c:	801a      	strh	r2, [r3, #0]
 800338e:	3302      	adds	r3, #2
 8003390:	6423      	str	r3, [r4, #64]	; 0x40
 8003392:	5be3      	ldrh	r3, [r4, r7]
 8003394:	3b01      	subs	r3, #1
 8003396:	b29b      	uxth	r3, r3
 8003398:	53e3      	strh	r3, [r4, r7]
 800339a:	f7fe f861 	bl	8001460 <HAL_GetTick>
 800339e:	1b80      	subs	r0, r0, r6
 80033a0:	42a8      	cmp	r0, r5
 80033a2:	d3cb      	bcc.n	800333c <HAL_SPI_TransmitReceive+0xd8>
 80033a4:	1c6b      	adds	r3, r5, #1
 80033a6:	d0c9      	beq.n	800333c <HAL_SPI_TransmitReceive+0xd8>
 80033a8:	235d      	movs	r3, #93	; 0x5d
 80033aa:	2201      	movs	r2, #1
 80033ac:	2003      	movs	r0, #3
 80033ae:	54e2      	strb	r2, [r4, r3]
 80033b0:	e776      	b.n	80032a0 <HAL_SPI_TransmitReceive+0x3c>
 80033b2:	0032      	movs	r2, r6
 80033b4:	0029      	movs	r1, r5
 80033b6:	0020      	movs	r0, r4
 80033b8:	f7ff fe8c 	bl	80030d4 <SPI_EndRxTxTransaction>
 80033bc:	2800      	cmp	r0, #0
 80033be:	d002      	beq.n	80033c6 <HAL_SPI_TransmitReceive+0x162>
 80033c0:	2320      	movs	r3, #32
 80033c2:	2001      	movs	r0, #1
 80033c4:	6623      	str	r3, [r4, #96]	; 0x60
 80033c6:	6e23      	ldr	r3, [r4, #96]	; 0x60
 80033c8:	2b00      	cmp	r3, #0
 80033ca:	d05b      	beq.n	8003484 <HAL_SPI_TransmitReceive+0x220>
 80033cc:	2001      	movs	r0, #1
 80033ce:	e767      	b.n	80032a0 <HAL_SPI_TransmitReceive+0x3c>
 80033d0:	2002      	movs	r0, #2
 80033d2:	e768      	b.n	80032a6 <HAL_SPI_TransmitReceive+0x42>
 80033d4:	2180      	movs	r1, #128	; 0x80
 80033d6:	6823      	ldr	r3, [r4, #0]
 80033d8:	0149      	lsls	r1, r1, #5
 80033da:	6858      	ldr	r0, [r3, #4]
 80033dc:	4301      	orrs	r1, r0
 80033de:	6059      	str	r1, [r3, #4]
 80033e0:	2140      	movs	r1, #64	; 0x40
 80033e2:	6818      	ldr	r0, [r3, #0]
 80033e4:	4201      	tst	r1, r0
 80033e6:	d102      	bne.n	80033ee <HAL_SPI_TransmitReceive+0x18a>
 80033e8:	6818      	ldr	r0, [r3, #0]
 80033ea:	4301      	orrs	r1, r0
 80033ec:	6019      	str	r1, [r3, #0]
 80033ee:	2a00      	cmp	r2, #0
 80033f0:	d150      	bne.n	8003494 <HAL_SPI_TransmitReceive+0x230>
 80033f2:	4642      	mov	r2, r8
 80033f4:	7812      	ldrb	r2, [r2, #0]
 80033f6:	731a      	strb	r2, [r3, #12]
 80033f8:	6ba3      	ldr	r3, [r4, #56]	; 0x38
 80033fa:	3301      	adds	r3, #1
 80033fc:	63a3      	str	r3, [r4, #56]	; 0x38
 80033fe:	8fe3      	ldrh	r3, [r4, #62]	; 0x3e
 8003400:	3b01      	subs	r3, #1
 8003402:	b29b      	uxth	r3, r3
 8003404:	87e3      	strh	r3, [r4, #62]	; 0x3e
 8003406:	2301      	movs	r3, #1
 8003408:	4699      	mov	r9, r3
 800340a:	3301      	adds	r3, #1
 800340c:	2746      	movs	r7, #70	; 0x46
 800340e:	4698      	mov	r8, r3
 8003410:	8fe3      	ldrh	r3, [r4, #62]	; 0x3e
 8003412:	2b00      	cmp	r3, #0
 8003414:	d102      	bne.n	800341c <HAL_SPI_TransmitReceive+0x1b8>
 8003416:	5be3      	ldrh	r3, [r4, r7]
 8003418:	2b00      	cmp	r3, #0
 800341a:	d0ca      	beq.n	80033b2 <HAL_SPI_TransmitReceive+0x14e>
 800341c:	4641      	mov	r1, r8
 800341e:	6823      	ldr	r3, [r4, #0]
 8003420:	689a      	ldr	r2, [r3, #8]
 8003422:	4211      	tst	r1, r2
 8003424:	d012      	beq.n	800344c <HAL_SPI_TransmitReceive+0x1e8>
 8003426:	8fe2      	ldrh	r2, [r4, #62]	; 0x3e
 8003428:	2a00      	cmp	r2, #0
 800342a:	d00f      	beq.n	800344c <HAL_SPI_TransmitReceive+0x1e8>
 800342c:	464a      	mov	r2, r9
 800342e:	2a01      	cmp	r2, #1
 8003430:	d10c      	bne.n	800344c <HAL_SPI_TransmitReceive+0x1e8>
 8003432:	6ba2      	ldr	r2, [r4, #56]	; 0x38
 8003434:	7812      	ldrb	r2, [r2, #0]
 8003436:	731a      	strb	r2, [r3, #12]
 8003438:	2200      	movs	r2, #0
 800343a:	4691      	mov	r9, r2
 800343c:	6ba3      	ldr	r3, [r4, #56]	; 0x38
 800343e:	3301      	adds	r3, #1
 8003440:	63a3      	str	r3, [r4, #56]	; 0x38
 8003442:	8fe3      	ldrh	r3, [r4, #62]	; 0x3e
 8003444:	3b01      	subs	r3, #1
 8003446:	b29b      	uxth	r3, r3
 8003448:	87e3      	strh	r3, [r4, #62]	; 0x3e
 800344a:	6823      	ldr	r3, [r4, #0]
 800344c:	2101      	movs	r1, #1
 800344e:	0008      	movs	r0, r1
 8003450:	689a      	ldr	r2, [r3, #8]
 8003452:	4010      	ands	r0, r2
 8003454:	4211      	tst	r1, r2
 8003456:	d00d      	beq.n	8003474 <HAL_SPI_TransmitReceive+0x210>
 8003458:	5be2      	ldrh	r2, [r4, r7]
 800345a:	2a00      	cmp	r2, #0
 800345c:	d00a      	beq.n	8003474 <HAL_SPI_TransmitReceive+0x210>
 800345e:	4681      	mov	r9, r0
 8003460:	7b1b      	ldrb	r3, [r3, #12]
 8003462:	6c22      	ldr	r2, [r4, #64]	; 0x40
 8003464:	7013      	strb	r3, [r2, #0]
 8003466:	6c23      	ldr	r3, [r4, #64]	; 0x40
 8003468:	3301      	adds	r3, #1
 800346a:	6423      	str	r3, [r4, #64]	; 0x40
 800346c:	5be3      	ldrh	r3, [r4, r7]
 800346e:	3b01      	subs	r3, #1
 8003470:	b29b      	uxth	r3, r3
 8003472:	53e3      	strh	r3, [r4, r7]
 8003474:	f7fd fff4 	bl	8001460 <HAL_GetTick>
 8003478:	1b80      	subs	r0, r0, r6
 800347a:	42a8      	cmp	r0, r5
 800347c:	d3c8      	bcc.n	8003410 <HAL_SPI_TransmitReceive+0x1ac>
 800347e:	1c6b      	adds	r3, r5, #1
 8003480:	d0c6      	beq.n	8003410 <HAL_SPI_TransmitReceive+0x1ac>
 8003482:	e791      	b.n	80033a8 <HAL_SPI_TransmitReceive+0x144>
 8003484:	2201      	movs	r2, #1
 8003486:	335d      	adds	r3, #93	; 0x5d
 8003488:	54e2      	strb	r2, [r4, r3]
 800348a:	e709      	b.n	80032a0 <HAL_SPI_TransmitReceive+0x3c>
 800348c:	2f01      	cmp	r7, #1
 800348e:	d000      	beq.n	8003492 <HAL_SPI_TransmitReceive+0x22e>
 8003490:	e74f      	b.n	8003332 <HAL_SPI_TransmitReceive+0xce>
 8003492:	e744      	b.n	800331e <HAL_SPI_TransmitReceive+0xba>
 8003494:	2f01      	cmp	r7, #1
 8003496:	d1b6      	bne.n	8003406 <HAL_SPI_TransmitReceive+0x1a2>
 8003498:	e7ab      	b.n	80033f2 <HAL_SPI_TransmitReceive+0x18e>
 800349a:	46c0      	nop			; (mov r8, r8)
 800349c:	ffffefff 	.word	0xffffefff

080034a0 <HAL_SPI_ErrorCallback>:
 80034a0:	4770      	bx	lr
 80034a2:	46c0      	nop			; (mov r8, r8)

080034a4 <HAL_SPI_IRQHandler>:
 80034a4:	2241      	movs	r2, #65	; 0x41
 80034a6:	b530      	push	{r4, r5, lr}
 80034a8:	6801      	ldr	r1, [r0, #0]
 80034aa:	0004      	movs	r4, r0
 80034ac:	6848      	ldr	r0, [r1, #4]
 80034ae:	688b      	ldr	r3, [r1, #8]
 80034b0:	b085      	sub	sp, #20
 80034b2:	401a      	ands	r2, r3
 80034b4:	2a01      	cmp	r2, #1
 80034b6:	d060      	beq.n	800357a <HAL_SPI_IRQHandler+0xd6>
 80034b8:	079a      	lsls	r2, r3, #30
 80034ba:	d501      	bpl.n	80034c0 <HAL_SPI_IRQHandler+0x1c>
 80034bc:	0602      	lsls	r2, r0, #24
 80034be:	d462      	bmi.n	8003586 <HAL_SPI_IRQHandler+0xe2>
 80034c0:	22b0      	movs	r2, #176	; 0xb0
 80034c2:	0052      	lsls	r2, r2, #1
 80034c4:	4213      	tst	r3, r2
 80034c6:	d056      	beq.n	8003576 <HAL_SPI_IRQHandler+0xd2>
 80034c8:	0682      	lsls	r2, r0, #26
 80034ca:	d554      	bpl.n	8003576 <HAL_SPI_IRQHandler+0xd2>
 80034cc:	065a      	lsls	r2, r3, #25
 80034ce:	d50e      	bpl.n	80034ee <HAL_SPI_IRQHandler+0x4a>
 80034d0:	225d      	movs	r2, #93	; 0x5d
 80034d2:	5ca2      	ldrb	r2, [r4, r2]
 80034d4:	2a03      	cmp	r2, #3
 80034d6:	d05e      	beq.n	8003596 <HAL_SPI_IRQHandler+0xf2>
 80034d8:	2504      	movs	r5, #4
 80034da:	6e22      	ldr	r2, [r4, #96]	; 0x60
 80034dc:	432a      	orrs	r2, r5
 80034de:	6622      	str	r2, [r4, #96]	; 0x60
 80034e0:	2200      	movs	r2, #0
 80034e2:	9200      	str	r2, [sp, #0]
 80034e4:	68ca      	ldr	r2, [r1, #12]
 80034e6:	9200      	str	r2, [sp, #0]
 80034e8:	688a      	ldr	r2, [r1, #8]
 80034ea:	9200      	str	r2, [sp, #0]
 80034ec:	9a00      	ldr	r2, [sp, #0]
 80034ee:	069a      	lsls	r2, r3, #26
 80034f0:	d50c      	bpl.n	800350c <HAL_SPI_IRQHandler+0x68>
 80034f2:	2501      	movs	r5, #1
 80034f4:	6e22      	ldr	r2, [r4, #96]	; 0x60
 80034f6:	432a      	orrs	r2, r5
 80034f8:	6622      	str	r2, [r4, #96]	; 0x60
 80034fa:	2200      	movs	r2, #0
 80034fc:	9202      	str	r2, [sp, #8]
 80034fe:	688a      	ldr	r2, [r1, #8]
 8003500:	353f      	adds	r5, #63	; 0x3f
 8003502:	9202      	str	r2, [sp, #8]
 8003504:	680a      	ldr	r2, [r1, #0]
 8003506:	43aa      	bics	r2, r5
 8003508:	600a      	str	r2, [r1, #0]
 800350a:	9a02      	ldr	r2, [sp, #8]
 800350c:	05db      	lsls	r3, r3, #23
 800350e:	d508      	bpl.n	8003522 <HAL_SPI_IRQHandler+0x7e>
 8003510:	2208      	movs	r2, #8
 8003512:	6e23      	ldr	r3, [r4, #96]	; 0x60
 8003514:	4313      	orrs	r3, r2
 8003516:	6623      	str	r3, [r4, #96]	; 0x60
 8003518:	2300      	movs	r3, #0
 800351a:	9303      	str	r3, [sp, #12]
 800351c:	688b      	ldr	r3, [r1, #8]
 800351e:	9303      	str	r3, [sp, #12]
 8003520:	9b03      	ldr	r3, [sp, #12]
 8003522:	6e23      	ldr	r3, [r4, #96]	; 0x60
 8003524:	2b00      	cmp	r3, #0
 8003526:	d026      	beq.n	8003576 <HAL_SPI_IRQHandler+0xd2>
 8003528:	22e0      	movs	r2, #224	; 0xe0
 800352a:	684b      	ldr	r3, [r1, #4]
 800352c:	4393      	bics	r3, r2
 800352e:	604b      	str	r3, [r1, #4]
 8003530:	235d      	movs	r3, #93	; 0x5d
 8003532:	3adf      	subs	r2, #223	; 0xdf
 8003534:	54e2      	strb	r2, [r4, r3]
 8003536:	3b5a      	subs	r3, #90	; 0x5a
 8003538:	4203      	tst	r3, r0
 800353a:	d028      	beq.n	800358e <HAL_SPI_IRQHandler+0xea>
 800353c:	684a      	ldr	r2, [r1, #4]
 800353e:	6da0      	ldr	r0, [r4, #88]	; 0x58
 8003540:	439a      	bics	r2, r3
 8003542:	604a      	str	r2, [r1, #4]
 8003544:	2800      	cmp	r0, #0
 8003546:	d009      	beq.n	800355c <HAL_SPI_IRQHandler+0xb8>
 8003548:	4b17      	ldr	r3, [pc, #92]	; (80035a8 <HAL_SPI_IRQHandler+0x104>)
 800354a:	6343      	str	r3, [r0, #52]	; 0x34
 800354c:	f7fe fbaa 	bl	8001ca4 <HAL_DMA_Abort_IT>
 8003550:	2800      	cmp	r0, #0
 8003552:	d003      	beq.n	800355c <HAL_SPI_IRQHandler+0xb8>
 8003554:	2240      	movs	r2, #64	; 0x40
 8003556:	6e23      	ldr	r3, [r4, #96]	; 0x60
 8003558:	4313      	orrs	r3, r2
 800355a:	6623      	str	r3, [r4, #96]	; 0x60
 800355c:	6d60      	ldr	r0, [r4, #84]	; 0x54
 800355e:	2800      	cmp	r0, #0
 8003560:	d009      	beq.n	8003576 <HAL_SPI_IRQHandler+0xd2>
 8003562:	4b11      	ldr	r3, [pc, #68]	; (80035a8 <HAL_SPI_IRQHandler+0x104>)
 8003564:	6343      	str	r3, [r0, #52]	; 0x34
 8003566:	f7fe fb9d 	bl	8001ca4 <HAL_DMA_Abort_IT>
 800356a:	2800      	cmp	r0, #0
 800356c:	d003      	beq.n	8003576 <HAL_SPI_IRQHandler+0xd2>
 800356e:	2240      	movs	r2, #64	; 0x40
 8003570:	6e23      	ldr	r3, [r4, #96]	; 0x60
 8003572:	4313      	orrs	r3, r2
 8003574:	6623      	str	r3, [r4, #96]	; 0x60
 8003576:	b005      	add	sp, #20
 8003578:	bd30      	pop	{r4, r5, pc}
 800357a:	0642      	lsls	r2, r0, #25
 800357c:	d59c      	bpl.n	80034b8 <HAL_SPI_IRQHandler+0x14>
 800357e:	0020      	movs	r0, r4
 8003580:	6ce3      	ldr	r3, [r4, #76]	; 0x4c
 8003582:	4798      	blx	r3
 8003584:	e7f7      	b.n	8003576 <HAL_SPI_IRQHandler+0xd2>
 8003586:	0020      	movs	r0, r4
 8003588:	6d23      	ldr	r3, [r4, #80]	; 0x50
 800358a:	4798      	blx	r3
 800358c:	e7f3      	b.n	8003576 <HAL_SPI_IRQHandler+0xd2>
 800358e:	0020      	movs	r0, r4
 8003590:	f7ff ff86 	bl	80034a0 <HAL_SPI_ErrorCallback>
 8003594:	e7ef      	b.n	8003576 <HAL_SPI_IRQHandler+0xd2>
 8003596:	2300      	movs	r3, #0
 8003598:	9301      	str	r3, [sp, #4]
 800359a:	68cb      	ldr	r3, [r1, #12]
 800359c:	9301      	str	r3, [sp, #4]
 800359e:	688b      	ldr	r3, [r1, #8]
 80035a0:	9301      	str	r3, [sp, #4]
 80035a2:	9b01      	ldr	r3, [sp, #4]
 80035a4:	e7e7      	b.n	8003576 <HAL_SPI_IRQHandler+0xd2>
 80035a6:	46c0      	nop			; (mov r8, r8)
 80035a8:	080035ad 	.word	0x080035ad

080035ac <SPI_DMAAbortOnError>:
 80035ac:	2300      	movs	r3, #0
 80035ae:	2246      	movs	r2, #70	; 0x46
 80035b0:	b510      	push	{r4, lr}
 80035b2:	6a40      	ldr	r0, [r0, #36]	; 0x24
 80035b4:	5283      	strh	r3, [r0, r2]
 80035b6:	87c3      	strh	r3, [r0, #62]	; 0x3e
 80035b8:	f7ff ff72 	bl	80034a0 <HAL_SPI_ErrorCallback>
 80035bc:	bd10      	pop	{r4, pc}
 80035be:	46c0      	nop			; (mov r8, r8)

080035c0 <TIM_OC1_SetConfig>:
 80035c0:	2201      	movs	r2, #1
 80035c2:	b570      	push	{r4, r5, r6, lr}
 80035c4:	2573      	movs	r5, #115	; 0x73
 80035c6:	6a03      	ldr	r3, [r0, #32]
 80035c8:	4393      	bics	r3, r2
 80035ca:	6203      	str	r3, [r0, #32]
 80035cc:	6a03      	ldr	r3, [r0, #32]
 80035ce:	6844      	ldr	r4, [r0, #4]
 80035d0:	6982      	ldr	r2, [r0, #24]
 80035d2:	43aa      	bics	r2, r5
 80035d4:	680d      	ldr	r5, [r1, #0]
 80035d6:	432a      	orrs	r2, r5
 80035d8:	2502      	movs	r5, #2
 80035da:	43ab      	bics	r3, r5
 80035dc:	688d      	ldr	r5, [r1, #8]
 80035de:	432b      	orrs	r3, r5
 80035e0:	4d0d      	ldr	r5, [pc, #52]	; (8003618 <TIM_OC1_SetConfig+0x58>)
 80035e2:	42a8      	cmp	r0, r5
 80035e4:	d005      	beq.n	80035f2 <TIM_OC1_SetConfig+0x32>
 80035e6:	4d0d      	ldr	r5, [pc, #52]	; (800361c <TIM_OC1_SetConfig+0x5c>)
 80035e8:	42a8      	cmp	r0, r5
 80035ea:	d002      	beq.n	80035f2 <TIM_OC1_SetConfig+0x32>
 80035ec:	4d0c      	ldr	r5, [pc, #48]	; (8003620 <TIM_OC1_SetConfig+0x60>)
 80035ee:	42a8      	cmp	r0, r5
 80035f0:	d10b      	bne.n	800360a <TIM_OC1_SetConfig+0x4a>
 80035f2:	2508      	movs	r5, #8
 80035f4:	43ab      	bics	r3, r5
 80035f6:	68cd      	ldr	r5, [r1, #12]
 80035f8:	698e      	ldr	r6, [r1, #24]
 80035fa:	432b      	orrs	r3, r5
 80035fc:	2504      	movs	r5, #4
 80035fe:	43ab      	bics	r3, r5
 8003600:	4d08      	ldr	r5, [pc, #32]	; (8003624 <TIM_OC1_SetConfig+0x64>)
 8003602:	4025      	ands	r5, r4
 8003604:	694c      	ldr	r4, [r1, #20]
 8003606:	4334      	orrs	r4, r6
 8003608:	432c      	orrs	r4, r5
 800360a:	6044      	str	r4, [r0, #4]
 800360c:	6182      	str	r2, [r0, #24]
 800360e:	684a      	ldr	r2, [r1, #4]
 8003610:	6342      	str	r2, [r0, #52]	; 0x34
 8003612:	6203      	str	r3, [r0, #32]
 8003614:	bd70      	pop	{r4, r5, r6, pc}
 8003616:	46c0      	nop			; (mov r8, r8)
 8003618:	40012c00 	.word	0x40012c00
 800361c:	40014400 	.word	0x40014400
 8003620:	40014800 	.word	0x40014800
 8003624:	fffffcff 	.word	0xfffffcff

08003628 <TIM_OC3_SetConfig>:
 8003628:	b570      	push	{r4, r5, r6, lr}
 800362a:	2573      	movs	r5, #115	; 0x73
 800362c:	6a03      	ldr	r3, [r0, #32]
 800362e:	4a16      	ldr	r2, [pc, #88]	; (8003688 <TIM_OC3_SetConfig+0x60>)
 8003630:	4013      	ands	r3, r2
 8003632:	6203      	str	r3, [r0, #32]
 8003634:	6a02      	ldr	r2, [r0, #32]
 8003636:	6844      	ldr	r4, [r0, #4]
 8003638:	69c3      	ldr	r3, [r0, #28]
 800363a:	43ab      	bics	r3, r5
 800363c:	680d      	ldr	r5, [r1, #0]
 800363e:	431d      	orrs	r5, r3
 8003640:	4b12      	ldr	r3, [pc, #72]	; (800368c <TIM_OC3_SetConfig+0x64>)
 8003642:	401a      	ands	r2, r3
 8003644:	688b      	ldr	r3, [r1, #8]
 8003646:	021b      	lsls	r3, r3, #8
 8003648:	4313      	orrs	r3, r2
 800364a:	4a11      	ldr	r2, [pc, #68]	; (8003690 <TIM_OC3_SetConfig+0x68>)
 800364c:	4290      	cmp	r0, r2
 800364e:	d012      	beq.n	8003676 <TIM_OC3_SetConfig+0x4e>
 8003650:	4a10      	ldr	r2, [pc, #64]	; (8003694 <TIM_OC3_SetConfig+0x6c>)
 8003652:	4290      	cmp	r0, r2
 8003654:	d002      	beq.n	800365c <TIM_OC3_SetConfig+0x34>
 8003656:	4a10      	ldr	r2, [pc, #64]	; (8003698 <TIM_OC3_SetConfig+0x70>)
 8003658:	4290      	cmp	r0, r2
 800365a:	d106      	bne.n	800366a <TIM_OC3_SetConfig+0x42>
 800365c:	4a0f      	ldr	r2, [pc, #60]	; (800369c <TIM_OC3_SetConfig+0x74>)
 800365e:	694e      	ldr	r6, [r1, #20]
 8003660:	4022      	ands	r2, r4
 8003662:	698c      	ldr	r4, [r1, #24]
 8003664:	4334      	orrs	r4, r6
 8003666:	0124      	lsls	r4, r4, #4
 8003668:	4314      	orrs	r4, r2
 800366a:	684a      	ldr	r2, [r1, #4]
 800366c:	6044      	str	r4, [r0, #4]
 800366e:	61c5      	str	r5, [r0, #28]
 8003670:	63c2      	str	r2, [r0, #60]	; 0x3c
 8003672:	6203      	str	r3, [r0, #32]
 8003674:	bd70      	pop	{r4, r5, r6, pc}
 8003676:	4a0a      	ldr	r2, [pc, #40]	; (80036a0 <TIM_OC3_SetConfig+0x78>)
 8003678:	401a      	ands	r2, r3
 800367a:	68cb      	ldr	r3, [r1, #12]
 800367c:	021b      	lsls	r3, r3, #8
 800367e:	4313      	orrs	r3, r2
 8003680:	4a08      	ldr	r2, [pc, #32]	; (80036a4 <TIM_OC3_SetConfig+0x7c>)
 8003682:	4013      	ands	r3, r2
 8003684:	e7ea      	b.n	800365c <TIM_OC3_SetConfig+0x34>
 8003686:	46c0      	nop			; (mov r8, r8)
 8003688:	fffffeff 	.word	0xfffffeff
 800368c:	fffffdff 	.word	0xfffffdff
 8003690:	40012c00 	.word	0x40012c00
 8003694:	40014400 	.word	0x40014400
 8003698:	40014800 	.word	0x40014800
 800369c:	ffffcfff 	.word	0xffffcfff
 80036a0:	fffff7ff 	.word	0xfffff7ff
 80036a4:	fffffbff 	.word	0xfffffbff

080036a8 <TIM_OC4_SetConfig>:
 80036a8:	6a03      	ldr	r3, [r0, #32]
 80036aa:	4a12      	ldr	r2, [pc, #72]	; (80036f4 <TIM_OC4_SetConfig+0x4c>)
 80036ac:	b530      	push	{r4, r5, lr}
 80036ae:	4013      	ands	r3, r2
 80036b0:	6203      	str	r3, [r0, #32]
 80036b2:	6a04      	ldr	r4, [r0, #32]
 80036b4:	4a10      	ldr	r2, [pc, #64]	; (80036f8 <TIM_OC4_SetConfig+0x50>)
 80036b6:	6845      	ldr	r5, [r0, #4]
 80036b8:	69c3      	ldr	r3, [r0, #28]
 80036ba:	4013      	ands	r3, r2
 80036bc:	680a      	ldr	r2, [r1, #0]
 80036be:	0212      	lsls	r2, r2, #8
 80036c0:	431a      	orrs	r2, r3
 80036c2:	4b0e      	ldr	r3, [pc, #56]	; (80036fc <TIM_OC4_SetConfig+0x54>)
 80036c4:	401c      	ands	r4, r3
 80036c6:	688b      	ldr	r3, [r1, #8]
 80036c8:	031b      	lsls	r3, r3, #12
 80036ca:	4323      	orrs	r3, r4
 80036cc:	4c0c      	ldr	r4, [pc, #48]	; (8003700 <TIM_OC4_SetConfig+0x58>)
 80036ce:	42a0      	cmp	r0, r4
 80036d0:	d005      	beq.n	80036de <TIM_OC4_SetConfig+0x36>
 80036d2:	4c0c      	ldr	r4, [pc, #48]	; (8003704 <TIM_OC4_SetConfig+0x5c>)
 80036d4:	42a0      	cmp	r0, r4
 80036d6:	d002      	beq.n	80036de <TIM_OC4_SetConfig+0x36>
 80036d8:	4c0b      	ldr	r4, [pc, #44]	; (8003708 <TIM_OC4_SetConfig+0x60>)
 80036da:	42a0      	cmp	r0, r4
 80036dc:	d104      	bne.n	80036e8 <TIM_OC4_SetConfig+0x40>
 80036de:	4c0b      	ldr	r4, [pc, #44]	; (800370c <TIM_OC4_SetConfig+0x64>)
 80036e0:	402c      	ands	r4, r5
 80036e2:	694d      	ldr	r5, [r1, #20]
 80036e4:	01ad      	lsls	r5, r5, #6
 80036e6:	4325      	orrs	r5, r4
 80036e8:	6045      	str	r5, [r0, #4]
 80036ea:	61c2      	str	r2, [r0, #28]
 80036ec:	684a      	ldr	r2, [r1, #4]
 80036ee:	6402      	str	r2, [r0, #64]	; 0x40
 80036f0:	6203      	str	r3, [r0, #32]
 80036f2:	bd30      	pop	{r4, r5, pc}
 80036f4:	ffffefff 	.word	0xffffefff
 80036f8:	ffff8cff 	.word	0xffff8cff
 80036fc:	ffffdfff 	.word	0xffffdfff
 8003700:	40012c00 	.word	0x40012c00
 8003704:	40014400 	.word	0x40014400
 8003708:	40014800 	.word	0x40014800
 800370c:	ffffbfff 	.word	0xffffbfff

08003710 <TIM_SlaveTimer_SetConfig.constprop.0>:
 8003710:	2370      	movs	r3, #112	; 0x70
 8003712:	b530      	push	{r4, r5, lr}
 8003714:	6804      	ldr	r4, [r0, #0]
 8003716:	2007      	movs	r0, #7
 8003718:	68a2      	ldr	r2, [r4, #8]
 800371a:	439a      	bics	r2, r3
 800371c:	684b      	ldr	r3, [r1, #4]
 800371e:	431a      	orrs	r2, r3
 8003720:	4382      	bics	r2, r0
 8003722:	6808      	ldr	r0, [r1, #0]
 8003724:	4302      	orrs	r2, r0
 8003726:	60a2      	str	r2, [r4, #8]
 8003728:	2b50      	cmp	r3, #80	; 0x50
 800372a:	d026      	beq.n	800377a <TIM_SlaveTimer_SetConfig.constprop.0+0x6a>
 800372c:	d910      	bls.n	8003750 <TIM_SlaveTimer_SetConfig.constprop.0+0x40>
 800372e:	2b60      	cmp	r3, #96	; 0x60
 8003730:	d036      	beq.n	80037a0 <TIM_SlaveTimer_SetConfig.constprop.0+0x90>
 8003732:	2b70      	cmp	r3, #112	; 0x70
 8003734:	d159      	bne.n	80037ea <TIM_SlaveTimer_SetConfig.constprop.0+0xda>
 8003736:	68a2      	ldr	r2, [r4, #8]
 8003738:	4b2d      	ldr	r3, [pc, #180]	; (80037f0 <TIM_SlaveTimer_SetConfig.constprop.0+0xe0>)
 800373a:	6888      	ldr	r0, [r1, #8]
 800373c:	401a      	ands	r2, r3
 800373e:	68cb      	ldr	r3, [r1, #12]
 8003740:	6909      	ldr	r1, [r1, #16]
 8003742:	4303      	orrs	r3, r0
 8003744:	2000      	movs	r0, #0
 8003746:	0209      	lsls	r1, r1, #8
 8003748:	430b      	orrs	r3, r1
 800374a:	4313      	orrs	r3, r2
 800374c:	60a3      	str	r3, [r4, #8]
 800374e:	bd30      	pop	{r4, r5, pc}
 8003750:	2b40      	cmp	r3, #64	; 0x40
 8003752:	d039      	beq.n	80037c8 <TIM_SlaveTimer_SetConfig.constprop.0+0xb8>
 8003754:	2001      	movs	r0, #1
 8003756:	2b40      	cmp	r3, #64	; 0x40
 8003758:	d8f9      	bhi.n	800374e <TIM_SlaveTimer_SetConfig.constprop.0+0x3e>
 800375a:	2b20      	cmp	r3, #32
 800375c:	d00b      	beq.n	8003776 <TIM_SlaveTimer_SetConfig.constprop.0+0x66>
 800375e:	d904      	bls.n	800376a <TIM_SlaveTimer_SetConfig.constprop.0+0x5a>
 8003760:	3b30      	subs	r3, #48	; 0x30
 8003762:	1e5a      	subs	r2, r3, #1
 8003764:	4193      	sbcs	r3, r2
 8003766:	b2d8      	uxtb	r0, r3
 8003768:	e7f1      	b.n	800374e <TIM_SlaveTimer_SetConfig.constprop.0+0x3e>
 800376a:	2210      	movs	r2, #16
 800376c:	4393      	bics	r3, r2
 800376e:	1e5a      	subs	r2, r3, #1
 8003770:	4193      	sbcs	r3, r2
 8003772:	b2d8      	uxtb	r0, r3
 8003774:	e7eb      	b.n	800374e <TIM_SlaveTimer_SetConfig.constprop.0+0x3e>
 8003776:	2000      	movs	r0, #0
 8003778:	e7e9      	b.n	800374e <TIM_SlaveTimer_SetConfig.constprop.0+0x3e>
 800377a:	2501      	movs	r5, #1
 800377c:	688a      	ldr	r2, [r1, #8]
 800377e:	690b      	ldr	r3, [r1, #16]
 8003780:	6a21      	ldr	r1, [r4, #32]
 8003782:	6a20      	ldr	r0, [r4, #32]
 8003784:	011b      	lsls	r3, r3, #4
 8003786:	43a8      	bics	r0, r5
 8003788:	6220      	str	r0, [r4, #32]
 800378a:	69a0      	ldr	r0, [r4, #24]
 800378c:	35ef      	adds	r5, #239	; 0xef
 800378e:	43a8      	bics	r0, r5
 8003790:	4303      	orrs	r3, r0
 8003792:	200a      	movs	r0, #10
 8003794:	4381      	bics	r1, r0
 8003796:	430a      	orrs	r2, r1
 8003798:	61a3      	str	r3, [r4, #24]
 800379a:	2000      	movs	r0, #0
 800379c:	6222      	str	r2, [r4, #32]
 800379e:	e7d6      	b.n	800374e <TIM_SlaveTimer_SetConfig.constprop.0+0x3e>
 80037a0:	2010      	movs	r0, #16
 80037a2:	688b      	ldr	r3, [r1, #8]
 80037a4:	690a      	ldr	r2, [r1, #16]
 80037a6:	6a21      	ldr	r1, [r4, #32]
 80037a8:	4d12      	ldr	r5, [pc, #72]	; (80037f4 <TIM_SlaveTimer_SetConfig.constprop.0+0xe4>)
 80037aa:	4381      	bics	r1, r0
 80037ac:	6221      	str	r1, [r4, #32]
 80037ae:	69a0      	ldr	r0, [r4, #24]
 80037b0:	0312      	lsls	r2, r2, #12
 80037b2:	4028      	ands	r0, r5
 80037b4:	4302      	orrs	r2, r0
 80037b6:	20a0      	movs	r0, #160	; 0xa0
 80037b8:	6a21      	ldr	r1, [r4, #32]
 80037ba:	011b      	lsls	r3, r3, #4
 80037bc:	4381      	bics	r1, r0
 80037be:	430b      	orrs	r3, r1
 80037c0:	61a2      	str	r2, [r4, #24]
 80037c2:	2000      	movs	r0, #0
 80037c4:	6223      	str	r3, [r4, #32]
 80037c6:	e7c2      	b.n	800374e <TIM_SlaveTimer_SetConfig.constprop.0+0x3e>
 80037c8:	2805      	cmp	r0, #5
 80037ca:	d00e      	beq.n	80037ea <TIM_SlaveTimer_SetConfig.constprop.0+0xda>
 80037cc:	2201      	movs	r2, #1
 80037ce:	6a20      	ldr	r0, [r4, #32]
 80037d0:	6a23      	ldr	r3, [r4, #32]
 80037d2:	4393      	bics	r3, r2
 80037d4:	6223      	str	r3, [r4, #32]
 80037d6:	23f0      	movs	r3, #240	; 0xf0
 80037d8:	69a2      	ldr	r2, [r4, #24]
 80037da:	439a      	bics	r2, r3
 80037dc:	690b      	ldr	r3, [r1, #16]
 80037de:	011b      	lsls	r3, r3, #4
 80037e0:	4313      	orrs	r3, r2
 80037e2:	61a3      	str	r3, [r4, #24]
 80037e4:	6220      	str	r0, [r4, #32]
 80037e6:	2000      	movs	r0, #0
 80037e8:	e7b1      	b.n	800374e <TIM_SlaveTimer_SetConfig.constprop.0+0x3e>
 80037ea:	2001      	movs	r0, #1
 80037ec:	e7af      	b.n	800374e <TIM_SlaveTimer_SetConfig.constprop.0+0x3e>
 80037ee:	46c0      	nop			; (mov r8, r8)
 80037f0:	ffff00ff 	.word	0xffff00ff
 80037f4:	ffff0fff 	.word	0xffff0fff

080037f8 <HAL_TIM_Base_Start>:
 80037f8:	223d      	movs	r2, #61	; 0x3d
 80037fa:	5c81      	ldrb	r1, [r0, r2]
 80037fc:	0003      	movs	r3, r0
 80037fe:	2001      	movs	r0, #1
 8003800:	2901      	cmp	r1, #1
 8003802:	d110      	bne.n	8003826 <HAL_TIM_Base_Start+0x2e>
 8003804:	3101      	adds	r1, #1
 8003806:	5499      	strb	r1, [r3, r2]
 8003808:	681b      	ldr	r3, [r3, #0]
 800380a:	4a0e      	ldr	r2, [pc, #56]	; (8003844 <HAL_TIM_Base_Start+0x4c>)
 800380c:	4293      	cmp	r3, r2
 800380e:	d00b      	beq.n	8003828 <HAL_TIM_Base_Start+0x30>
 8003810:	2280      	movs	r2, #128	; 0x80
 8003812:	05d2      	lsls	r2, r2, #23
 8003814:	4293      	cmp	r3, r2
 8003816:	d007      	beq.n	8003828 <HAL_TIM_Base_Start+0x30>
 8003818:	4a0b      	ldr	r2, [pc, #44]	; (8003848 <HAL_TIM_Base_Start+0x50>)
 800381a:	4293      	cmp	r3, r2
 800381c:	d004      	beq.n	8003828 <HAL_TIM_Base_Start+0x30>
 800381e:	681a      	ldr	r2, [r3, #0]
 8003820:	4302      	orrs	r2, r0
 8003822:	2000      	movs	r0, #0
 8003824:	601a      	str	r2, [r3, #0]
 8003826:	4770      	bx	lr
 8003828:	2207      	movs	r2, #7
 800382a:	6899      	ldr	r1, [r3, #8]
 800382c:	400a      	ands	r2, r1
 800382e:	2a06      	cmp	r2, #6
 8003830:	d005      	beq.n	800383e <HAL_TIM_Base_Start+0x46>
 8003832:	2101      	movs	r1, #1
 8003834:	681a      	ldr	r2, [r3, #0]
 8003836:	2000      	movs	r0, #0
 8003838:	430a      	orrs	r2, r1
 800383a:	601a      	str	r2, [r3, #0]
 800383c:	e7f3      	b.n	8003826 <HAL_TIM_Base_Start+0x2e>
 800383e:	2000      	movs	r0, #0
 8003840:	e7f1      	b.n	8003826 <HAL_TIM_Base_Start+0x2e>
 8003842:	46c0      	nop			; (mov r8, r8)
 8003844:	40012c00 	.word	0x40012c00
 8003848:	40000400 	.word	0x40000400

0800384c <HAL_TIM_Base_Start_IT>:
 800384c:	223d      	movs	r2, #61	; 0x3d
 800384e:	5c81      	ldrb	r1, [r0, r2]
 8003850:	0003      	movs	r3, r0
 8003852:	2001      	movs	r0, #1
 8003854:	2901      	cmp	r1, #1
 8003856:	d113      	bne.n	8003880 <HAL_TIM_Base_Start_IT+0x34>
 8003858:	3101      	adds	r1, #1
 800385a:	5499      	strb	r1, [r3, r2]
 800385c:	681b      	ldr	r3, [r3, #0]
 800385e:	68da      	ldr	r2, [r3, #12]
 8003860:	4302      	orrs	r2, r0
 8003862:	60da      	str	r2, [r3, #12]
 8003864:	4a0d      	ldr	r2, [pc, #52]	; (800389c <HAL_TIM_Base_Start_IT+0x50>)
 8003866:	4293      	cmp	r3, r2
 8003868:	d00b      	beq.n	8003882 <HAL_TIM_Base_Start_IT+0x36>
 800386a:	2280      	movs	r2, #128	; 0x80
 800386c:	05d2      	lsls	r2, r2, #23
 800386e:	4293      	cmp	r3, r2
 8003870:	d007      	beq.n	8003882 <HAL_TIM_Base_Start_IT+0x36>
 8003872:	4a0b      	ldr	r2, [pc, #44]	; (80038a0 <HAL_TIM_Base_Start_IT+0x54>)
 8003874:	4293      	cmp	r3, r2
 8003876:	d004      	beq.n	8003882 <HAL_TIM_Base_Start_IT+0x36>
 8003878:	681a      	ldr	r2, [r3, #0]
 800387a:	4302      	orrs	r2, r0
 800387c:	2000      	movs	r0, #0
 800387e:	601a      	str	r2, [r3, #0]
 8003880:	4770      	bx	lr
 8003882:	2207      	movs	r2, #7
 8003884:	6899      	ldr	r1, [r3, #8]
 8003886:	400a      	ands	r2, r1
 8003888:	2a06      	cmp	r2, #6
 800388a:	d005      	beq.n	8003898 <HAL_TIM_Base_Start_IT+0x4c>
 800388c:	2101      	movs	r1, #1
 800388e:	681a      	ldr	r2, [r3, #0]
 8003890:	2000      	movs	r0, #0
 8003892:	430a      	orrs	r2, r1
 8003894:	601a      	str	r2, [r3, #0]
 8003896:	e7f3      	b.n	8003880 <HAL_TIM_Base_Start_IT+0x34>
 8003898:	2000      	movs	r0, #0
 800389a:	e7f1      	b.n	8003880 <HAL_TIM_Base_Start_IT+0x34>
 800389c:	40012c00 	.word	0x40012c00
 80038a0:	40000400 	.word	0x40000400

080038a4 <HAL_TIM_OC_Start>:
 80038a4:	2900      	cmp	r1, #0
 80038a6:	d126      	bne.n	80038f6 <HAL_TIM_OC_Start+0x52>
 80038a8:	233e      	movs	r3, #62	; 0x3e
 80038aa:	5cc2      	ldrb	r2, [r0, r3]
 80038ac:	2a01      	cmp	r2, #1
 80038ae:	d12a      	bne.n	8003906 <HAL_TIM_OC_Start+0x62>
 80038b0:	2202      	movs	r2, #2
 80038b2:	54c2      	strb	r2, [r0, r3]
 80038b4:	221f      	movs	r2, #31
 80038b6:	4011      	ands	r1, r2
 80038b8:	3a1e      	subs	r2, #30
 80038ba:	408a      	lsls	r2, r1
 80038bc:	6803      	ldr	r3, [r0, #0]
 80038be:	6a19      	ldr	r1, [r3, #32]
 80038c0:	4391      	bics	r1, r2
 80038c2:	6219      	str	r1, [r3, #32]
 80038c4:	6a19      	ldr	r1, [r3, #32]
 80038c6:	430a      	orrs	r2, r1
 80038c8:	621a      	str	r2, [r3, #32]
 80038ca:	4a23      	ldr	r2, [pc, #140]	; (8003958 <HAL_TIM_OC_Start+0xb4>)
 80038cc:	4293      	cmp	r3, r2
 80038ce:	d024      	beq.n	800391a <HAL_TIM_OC_Start+0x76>
 80038d0:	4a22      	ldr	r2, [pc, #136]	; (800395c <HAL_TIM_OC_Start+0xb8>)
 80038d2:	4293      	cmp	r3, r2
 80038d4:	d02d      	beq.n	8003932 <HAL_TIM_OC_Start+0x8e>
 80038d6:	4a22      	ldr	r2, [pc, #136]	; (8003960 <HAL_TIM_OC_Start+0xbc>)
 80038d8:	4293      	cmp	r3, r2
 80038da:	d02a      	beq.n	8003932 <HAL_TIM_OC_Start+0x8e>
 80038dc:	2280      	movs	r2, #128	; 0x80
 80038de:	05d2      	lsls	r2, r2, #23
 80038e0:	4293      	cmp	r3, r2
 80038e2:	d01f      	beq.n	8003924 <HAL_TIM_OC_Start+0x80>
 80038e4:	4a1f      	ldr	r2, [pc, #124]	; (8003964 <HAL_TIM_OC_Start+0xc0>)
 80038e6:	4293      	cmp	r3, r2
 80038e8:	d01c      	beq.n	8003924 <HAL_TIM_OC_Start+0x80>
 80038ea:	2101      	movs	r1, #1
 80038ec:	2000      	movs	r0, #0
 80038ee:	681a      	ldr	r2, [r3, #0]
 80038f0:	430a      	orrs	r2, r1
 80038f2:	601a      	str	r2, [r3, #0]
 80038f4:	4770      	bx	lr
 80038f6:	2904      	cmp	r1, #4
 80038f8:	d021      	beq.n	800393e <HAL_TIM_OC_Start+0x9a>
 80038fa:	2908      	cmp	r1, #8
 80038fc:	d027      	beq.n	800394e <HAL_TIM_OC_Start+0xaa>
 80038fe:	2341      	movs	r3, #65	; 0x41
 8003900:	5cc2      	ldrb	r2, [r0, r3]
 8003902:	2a01      	cmp	r2, #1
 8003904:	d001      	beq.n	800390a <HAL_TIM_OC_Start+0x66>
 8003906:	2001      	movs	r0, #1
 8003908:	e7f4      	b.n	80038f4 <HAL_TIM_OC_Start+0x50>
 800390a:	2904      	cmp	r1, #4
 800390c:	d01b      	beq.n	8003946 <HAL_TIM_OC_Start+0xa2>
 800390e:	2908      	cmp	r1, #8
 8003910:	d1ce      	bne.n	80038b0 <HAL_TIM_OC_Start+0xc>
 8003912:	2340      	movs	r3, #64	; 0x40
 8003914:	2202      	movs	r2, #2
 8003916:	54c2      	strb	r2, [r0, r3]
 8003918:	e7cc      	b.n	80038b4 <HAL_TIM_OC_Start+0x10>
 800391a:	2280      	movs	r2, #128	; 0x80
 800391c:	6c59      	ldr	r1, [r3, #68]	; 0x44
 800391e:	0212      	lsls	r2, r2, #8
 8003920:	430a      	orrs	r2, r1
 8003922:	645a      	str	r2, [r3, #68]	; 0x44
 8003924:	2207      	movs	r2, #7
 8003926:	6899      	ldr	r1, [r3, #8]
 8003928:	400a      	ands	r2, r1
 800392a:	2a06      	cmp	r2, #6
 800392c:	d1dd      	bne.n	80038ea <HAL_TIM_OC_Start+0x46>
 800392e:	2000      	movs	r0, #0
 8003930:	e7e0      	b.n	80038f4 <HAL_TIM_OC_Start+0x50>
 8003932:	2280      	movs	r2, #128	; 0x80
 8003934:	6c59      	ldr	r1, [r3, #68]	; 0x44
 8003936:	0212      	lsls	r2, r2, #8
 8003938:	430a      	orrs	r2, r1
 800393a:	645a      	str	r2, [r3, #68]	; 0x44
 800393c:	e7ce      	b.n	80038dc <HAL_TIM_OC_Start+0x38>
 800393e:	233f      	movs	r3, #63	; 0x3f
 8003940:	5cc3      	ldrb	r3, [r0, r3]
 8003942:	2b01      	cmp	r3, #1
 8003944:	d1df      	bne.n	8003906 <HAL_TIM_OC_Start+0x62>
 8003946:	233f      	movs	r3, #63	; 0x3f
 8003948:	2202      	movs	r2, #2
 800394a:	54c2      	strb	r2, [r0, r3]
 800394c:	e7b2      	b.n	80038b4 <HAL_TIM_OC_Start+0x10>
 800394e:	2340      	movs	r3, #64	; 0x40
 8003950:	5cc3      	ldrb	r3, [r0, r3]
 8003952:	2b01      	cmp	r3, #1
 8003954:	d0dd      	beq.n	8003912 <HAL_TIM_OC_Start+0x6e>
 8003956:	e7d6      	b.n	8003906 <HAL_TIM_OC_Start+0x62>
 8003958:	40012c00 	.word	0x40012c00
 800395c:	40014400 	.word	0x40014400
 8003960:	40014800 	.word	0x40014800
 8003964:	40000400 	.word	0x40000400

08003968 <HAL_TIM_PWM_MspInit>:
 8003968:	4770      	bx	lr
 800396a:	46c0      	nop			; (mov r8, r8)

0800396c <HAL_TIM_PWM_Start>:
 800396c:	b510      	push	{r4, lr}
 800396e:	f7ff ff99 	bl	80038a4 <HAL_TIM_OC_Start>
 8003972:	bd10      	pop	{r4, pc}

08003974 <HAL_TIM_ConfigClockSource>:
 8003974:	233c      	movs	r3, #60	; 0x3c
 8003976:	b570      	push	{r4, r5, r6, lr}
 8003978:	0002      	movs	r2, r0
 800397a:	5cc0      	ldrb	r0, [r0, r3]
 800397c:	2801      	cmp	r0, #1
 800397e:	d100      	bne.n	8003982 <HAL_TIM_ConfigClockSource+0xe>
 8003980:	e075      	b.n	8003a6e <HAL_TIM_ConfigClockSource+0xfa>
 8003982:	2401      	movs	r4, #1
 8003984:	2002      	movs	r0, #2
 8003986:	54d4      	strb	r4, [r2, r3]
 8003988:	3301      	adds	r3, #1
 800398a:	54d0      	strb	r0, [r2, r3]
 800398c:	6810      	ldr	r0, [r2, #0]
 800398e:	4d52      	ldr	r5, [pc, #328]	; (8003ad8 <HAL_TIM_ConfigClockSource+0x164>)
 8003990:	6883      	ldr	r3, [r0, #8]
 8003992:	402b      	ands	r3, r5
 8003994:	6083      	str	r3, [r0, #8]
 8003996:	680b      	ldr	r3, [r1, #0]
 8003998:	2b60      	cmp	r3, #96	; 0x60
 800399a:	d100      	bne.n	800399e <HAL_TIM_ConfigClockSource+0x2a>
 800399c:	e069      	b.n	8003a72 <HAL_TIM_ConfigClockSource+0xfe>
 800399e:	d823      	bhi.n	80039e8 <HAL_TIM_ConfigClockSource+0x74>
 80039a0:	2b40      	cmp	r3, #64	; 0x40
 80039a2:	d100      	bne.n	80039a6 <HAL_TIM_ConfigClockSource+0x32>
 80039a4:	e07f      	b.n	8003aa6 <HAL_TIM_ConfigClockSource+0x132>
 80039a6:	d952      	bls.n	8003a4e <HAL_TIM_ConfigClockSource+0xda>
 80039a8:	2b50      	cmp	r3, #80	; 0x50
 80039aa:	d13b      	bne.n	8003a24 <HAL_TIM_ConfigClockSource+0xb0>
 80039ac:	684d      	ldr	r5, [r1, #4]
 80039ae:	68cb      	ldr	r3, [r1, #12]
 80039b0:	6a01      	ldr	r1, [r0, #32]
 80039b2:	6a06      	ldr	r6, [r0, #32]
 80039b4:	011b      	lsls	r3, r3, #4
 80039b6:	43a6      	bics	r6, r4
 80039b8:	6206      	str	r6, [r0, #32]
 80039ba:	26f0      	movs	r6, #240	; 0xf0
 80039bc:	6984      	ldr	r4, [r0, #24]
 80039be:	43b4      	bics	r4, r6
 80039c0:	4323      	orrs	r3, r4
 80039c2:	240a      	movs	r4, #10
 80039c4:	43a1      	bics	r1, r4
 80039c6:	4329      	orrs	r1, r5
 80039c8:	6183      	str	r3, [r0, #24]
 80039ca:	6201      	str	r1, [r0, #32]
 80039cc:	2170      	movs	r1, #112	; 0x70
 80039ce:	6883      	ldr	r3, [r0, #8]
 80039d0:	438b      	bics	r3, r1
 80039d2:	3919      	subs	r1, #25
 80039d4:	430b      	orrs	r3, r1
 80039d6:	6083      	str	r3, [r0, #8]
 80039d8:	2000      	movs	r0, #0
 80039da:	233d      	movs	r3, #61	; 0x3d
 80039dc:	2101      	movs	r1, #1
 80039de:	54d1      	strb	r1, [r2, r3]
 80039e0:	2100      	movs	r1, #0
 80039e2:	3b01      	subs	r3, #1
 80039e4:	54d1      	strb	r1, [r2, r3]
 80039e6:	bd70      	pop	{r4, r5, r6, pc}
 80039e8:	2480      	movs	r4, #128	; 0x80
 80039ea:	0164      	lsls	r4, r4, #5
 80039ec:	42a3      	cmp	r3, r4
 80039ee:	d03c      	beq.n	8003a6a <HAL_TIM_ConfigClockSource+0xf6>
 80039f0:	2480      	movs	r4, #128	; 0x80
 80039f2:	01a4      	lsls	r4, r4, #6
 80039f4:	42a3      	cmp	r3, r4
 80039f6:	d117      	bne.n	8003a28 <HAL_TIM_ConfigClockSource+0xb4>
 80039f8:	6884      	ldr	r4, [r0, #8]
 80039fa:	4b38      	ldr	r3, [pc, #224]	; (8003adc <HAL_TIM_ConfigClockSource+0x168>)
 80039fc:	684d      	ldr	r5, [r1, #4]
 80039fe:	401c      	ands	r4, r3
 8003a00:	688b      	ldr	r3, [r1, #8]
 8003a02:	68c9      	ldr	r1, [r1, #12]
 8003a04:	432b      	orrs	r3, r5
 8003a06:	0209      	lsls	r1, r1, #8
 8003a08:	430b      	orrs	r3, r1
 8003a0a:	4323      	orrs	r3, r4
 8003a0c:	6083      	str	r3, [r0, #8]
 8003a0e:	2380      	movs	r3, #128	; 0x80
 8003a10:	6881      	ldr	r1, [r0, #8]
 8003a12:	01db      	lsls	r3, r3, #7
 8003a14:	430b      	orrs	r3, r1
 8003a16:	6083      	str	r3, [r0, #8]
 8003a18:	2000      	movs	r0, #0
 8003a1a:	e7de      	b.n	80039da <HAL_TIM_ConfigClockSource+0x66>
 8003a1c:	2110      	movs	r1, #16
 8003a1e:	001c      	movs	r4, r3
 8003a20:	438c      	bics	r4, r1
 8003a22:	d019      	beq.n	8003a58 <HAL_TIM_ConfigClockSource+0xe4>
 8003a24:	2001      	movs	r0, #1
 8003a26:	e7d8      	b.n	80039da <HAL_TIM_ConfigClockSource+0x66>
 8003a28:	2b70      	cmp	r3, #112	; 0x70
 8003a2a:	d1fb      	bne.n	8003a24 <HAL_TIM_ConfigClockSource+0xb0>
 8003a2c:	6884      	ldr	r4, [r0, #8]
 8003a2e:	4b2b      	ldr	r3, [pc, #172]	; (8003adc <HAL_TIM_ConfigClockSource+0x168>)
 8003a30:	684d      	ldr	r5, [r1, #4]
 8003a32:	401c      	ands	r4, r3
 8003a34:	688b      	ldr	r3, [r1, #8]
 8003a36:	68c9      	ldr	r1, [r1, #12]
 8003a38:	432b      	orrs	r3, r5
 8003a3a:	0209      	lsls	r1, r1, #8
 8003a3c:	430b      	orrs	r3, r1
 8003a3e:	2177      	movs	r1, #119	; 0x77
 8003a40:	4323      	orrs	r3, r4
 8003a42:	6083      	str	r3, [r0, #8]
 8003a44:	6883      	ldr	r3, [r0, #8]
 8003a46:	430b      	orrs	r3, r1
 8003a48:	6083      	str	r3, [r0, #8]
 8003a4a:	2000      	movs	r0, #0
 8003a4c:	e7c5      	b.n	80039da <HAL_TIM_ConfigClockSource+0x66>
 8003a4e:	2b20      	cmp	r3, #32
 8003a50:	d002      	beq.n	8003a58 <HAL_TIM_ConfigClockSource+0xe4>
 8003a52:	d9e3      	bls.n	8003a1c <HAL_TIM_ConfigClockSource+0xa8>
 8003a54:	2b30      	cmp	r3, #48	; 0x30
 8003a56:	d1e5      	bne.n	8003a24 <HAL_TIM_ConfigClockSource+0xb0>
 8003a58:	2470      	movs	r4, #112	; 0x70
 8003a5a:	6881      	ldr	r1, [r0, #8]
 8003a5c:	43a1      	bics	r1, r4
 8003a5e:	430b      	orrs	r3, r1
 8003a60:	2107      	movs	r1, #7
 8003a62:	430b      	orrs	r3, r1
 8003a64:	6083      	str	r3, [r0, #8]
 8003a66:	2000      	movs	r0, #0
 8003a68:	e7b7      	b.n	80039da <HAL_TIM_ConfigClockSource+0x66>
 8003a6a:	2000      	movs	r0, #0
 8003a6c:	e7b5      	b.n	80039da <HAL_TIM_ConfigClockSource+0x66>
 8003a6e:	2002      	movs	r0, #2
 8003a70:	e7b9      	b.n	80039e6 <HAL_TIM_ConfigClockSource+0x72>
 8003a72:	2510      	movs	r5, #16
 8003a74:	6a04      	ldr	r4, [r0, #32]
 8003a76:	684b      	ldr	r3, [r1, #4]
 8003a78:	43ac      	bics	r4, r5
 8003a7a:	68c9      	ldr	r1, [r1, #12]
 8003a7c:	6204      	str	r4, [r0, #32]
 8003a7e:	6985      	ldr	r5, [r0, #24]
 8003a80:	4e17      	ldr	r6, [pc, #92]	; (8003ae0 <HAL_TIM_ConfigClockSource+0x16c>)
 8003a82:	0309      	lsls	r1, r1, #12
 8003a84:	4035      	ands	r5, r6
 8003a86:	4329      	orrs	r1, r5
 8003a88:	25a0      	movs	r5, #160	; 0xa0
 8003a8a:	6a04      	ldr	r4, [r0, #32]
 8003a8c:	6181      	str	r1, [r0, #24]
 8003a8e:	2170      	movs	r1, #112	; 0x70
 8003a90:	43ac      	bics	r4, r5
 8003a92:	011b      	lsls	r3, r3, #4
 8003a94:	4323      	orrs	r3, r4
 8003a96:	6203      	str	r3, [r0, #32]
 8003a98:	6883      	ldr	r3, [r0, #8]
 8003a9a:	438b      	bics	r3, r1
 8003a9c:	3909      	subs	r1, #9
 8003a9e:	430b      	orrs	r3, r1
 8003aa0:	6083      	str	r3, [r0, #8]
 8003aa2:	2000      	movs	r0, #0
 8003aa4:	e799      	b.n	80039da <HAL_TIM_ConfigClockSource+0x66>
 8003aa6:	684d      	ldr	r5, [r1, #4]
 8003aa8:	68cb      	ldr	r3, [r1, #12]
 8003aaa:	6a01      	ldr	r1, [r0, #32]
 8003aac:	6a06      	ldr	r6, [r0, #32]
 8003aae:	011b      	lsls	r3, r3, #4
 8003ab0:	43a6      	bics	r6, r4
 8003ab2:	6206      	str	r6, [r0, #32]
 8003ab4:	26f0      	movs	r6, #240	; 0xf0
 8003ab6:	6984      	ldr	r4, [r0, #24]
 8003ab8:	43b4      	bics	r4, r6
 8003aba:	4323      	orrs	r3, r4
 8003abc:	240a      	movs	r4, #10
 8003abe:	43a1      	bics	r1, r4
 8003ac0:	4329      	orrs	r1, r5
 8003ac2:	6183      	str	r3, [r0, #24]
 8003ac4:	6201      	str	r1, [r0, #32]
 8003ac6:	2170      	movs	r1, #112	; 0x70
 8003ac8:	6883      	ldr	r3, [r0, #8]
 8003aca:	438b      	bics	r3, r1
 8003acc:	3929      	subs	r1, #41	; 0x29
 8003ace:	430b      	orrs	r3, r1
 8003ad0:	6083      	str	r3, [r0, #8]
 8003ad2:	2000      	movs	r0, #0
 8003ad4:	e781      	b.n	80039da <HAL_TIM_ConfigClockSource+0x66>
 8003ad6:	46c0      	nop			; (mov r8, r8)
 8003ad8:	ffff0088 	.word	0xffff0088
 8003adc:	ffff00ff 	.word	0xffff00ff
 8003ae0:	ffff0fff 	.word	0xffff0fff

08003ae4 <HAL_TIM_SlaveConfigSynchro>:
 8003ae4:	b5f8      	push	{r3, r4, r5, r6, r7, lr}
 8003ae6:	253c      	movs	r5, #60	; 0x3c
 8003ae8:	5d43      	ldrb	r3, [r0, r5]
 8003aea:	0004      	movs	r4, r0
 8003aec:	2b01      	cmp	r3, #1
 8003aee:	d019      	beq.n	8003b24 <HAL_TIM_SlaveConfigSynchro+0x40>
 8003af0:	2701      	movs	r7, #1
 8003af2:	263d      	movs	r6, #61	; 0x3d
 8003af4:	2302      	movs	r3, #2
 8003af6:	5547      	strb	r7, [r0, r5]
 8003af8:	5583      	strb	r3, [r0, r6]
 8003afa:	f7ff fe09 	bl	8003710 <TIM_SlaveTimer_SetConfig.constprop.0>
 8003afe:	2800      	cmp	r0, #0
 8003b00:	d10b      	bne.n	8003b1a <HAL_TIM_SlaveConfigSynchro+0x36>
 8003b02:	2140      	movs	r1, #64	; 0x40
 8003b04:	6823      	ldr	r3, [r4, #0]
 8003b06:	68da      	ldr	r2, [r3, #12]
 8003b08:	438a      	bics	r2, r1
 8003b0a:	60da      	str	r2, [r3, #12]
 8003b0c:	68da      	ldr	r2, [r3, #12]
 8003b0e:	4906      	ldr	r1, [pc, #24]	; (8003b28 <HAL_TIM_SlaveConfigSynchro+0x44>)
 8003b10:	400a      	ands	r2, r1
 8003b12:	60da      	str	r2, [r3, #12]
 8003b14:	55a7      	strb	r7, [r4, r6]
 8003b16:	5560      	strb	r0, [r4, r5]
 8003b18:	bdf8      	pop	{r3, r4, r5, r6, r7, pc}
 8003b1a:	2300      	movs	r3, #0
 8003b1c:	55a7      	strb	r7, [r4, r6]
 8003b1e:	2001      	movs	r0, #1
 8003b20:	5563      	strb	r3, [r4, r5]
 8003b22:	e7f9      	b.n	8003b18 <HAL_TIM_SlaveConfigSynchro+0x34>
 8003b24:	2002      	movs	r0, #2
 8003b26:	e7f7      	b.n	8003b18 <HAL_TIM_SlaveConfigSynchro+0x34>
 8003b28:	ffffbfff 	.word	0xffffbfff

08003b2c <HAL_TIM_OC_DelayElapsedCallback>:
 8003b2c:	4770      	bx	lr
 8003b2e:	46c0      	nop			; (mov r8, r8)

08003b30 <HAL_TIM_IC_CaptureCallback>:
 8003b30:	4770      	bx	lr
 8003b32:	46c0      	nop			; (mov r8, r8)

08003b34 <HAL_TIM_PWM_PulseFinishedCallback>:
 8003b34:	4770      	bx	lr
 8003b36:	46c0      	nop			; (mov r8, r8)

08003b38 <HAL_TIM_TriggerCallback>:
 8003b38:	4770      	bx	lr
 8003b3a:	46c0      	nop			; (mov r8, r8)

08003b3c <HAL_TIM_IRQHandler>:
 8003b3c:	2202      	movs	r2, #2
 8003b3e:	6803      	ldr	r3, [r0, #0]
 8003b40:	b510      	push	{r4, lr}
 8003b42:	6919      	ldr	r1, [r3, #16]
 8003b44:	0004      	movs	r4, r0
 8003b46:	420a      	tst	r2, r1
 8003b48:	d002      	beq.n	8003b50 <HAL_TIM_IRQHandler+0x14>
 8003b4a:	68d9      	ldr	r1, [r3, #12]
 8003b4c:	420a      	tst	r2, r1
 8003b4e:	d165      	bne.n	8003c1c <HAL_TIM_IRQHandler+0xe0>
 8003b50:	2204      	movs	r2, #4
 8003b52:	6919      	ldr	r1, [r3, #16]
 8003b54:	420a      	tst	r2, r1
 8003b56:	d002      	beq.n	8003b5e <HAL_TIM_IRQHandler+0x22>
 8003b58:	68d9      	ldr	r1, [r3, #12]
 8003b5a:	420a      	tst	r2, r1
 8003b5c:	d14b      	bne.n	8003bf6 <HAL_TIM_IRQHandler+0xba>
 8003b5e:	2208      	movs	r2, #8
 8003b60:	6919      	ldr	r1, [r3, #16]
 8003b62:	420a      	tst	r2, r1
 8003b64:	d002      	beq.n	8003b6c <HAL_TIM_IRQHandler+0x30>
 8003b66:	68d9      	ldr	r1, [r3, #12]
 8003b68:	420a      	tst	r2, r1
 8003b6a:	d133      	bne.n	8003bd4 <HAL_TIM_IRQHandler+0x98>
 8003b6c:	2210      	movs	r2, #16
 8003b6e:	6919      	ldr	r1, [r3, #16]
 8003b70:	420a      	tst	r2, r1
 8003b72:	d002      	beq.n	8003b7a <HAL_TIM_IRQHandler+0x3e>
 8003b74:	68d9      	ldr	r1, [r3, #12]
 8003b76:	420a      	tst	r2, r1
 8003b78:	d11c      	bne.n	8003bb4 <HAL_TIM_IRQHandler+0x78>
 8003b7a:	2201      	movs	r2, #1
 8003b7c:	6919      	ldr	r1, [r3, #16]
 8003b7e:	420a      	tst	r2, r1
 8003b80:	d002      	beq.n	8003b88 <HAL_TIM_IRQHandler+0x4c>
 8003b82:	68d9      	ldr	r1, [r3, #12]
 8003b84:	420a      	tst	r2, r1
 8003b86:	d15c      	bne.n	8003c42 <HAL_TIM_IRQHandler+0x106>
 8003b88:	2280      	movs	r2, #128	; 0x80
 8003b8a:	6919      	ldr	r1, [r3, #16]
 8003b8c:	420a      	tst	r2, r1
 8003b8e:	d002      	beq.n	8003b96 <HAL_TIM_IRQHandler+0x5a>
 8003b90:	68d9      	ldr	r1, [r3, #12]
 8003b92:	420a      	tst	r2, r1
 8003b94:	d15c      	bne.n	8003c50 <HAL_TIM_IRQHandler+0x114>
 8003b96:	2240      	movs	r2, #64	; 0x40
 8003b98:	6919      	ldr	r1, [r3, #16]
 8003b9a:	420a      	tst	r2, r1
 8003b9c:	d002      	beq.n	8003ba4 <HAL_TIM_IRQHandler+0x68>
 8003b9e:	68d9      	ldr	r1, [r3, #12]
 8003ba0:	420a      	tst	r2, r1
 8003ba2:	d15d      	bne.n	8003c60 <HAL_TIM_IRQHandler+0x124>
 8003ba4:	2220      	movs	r2, #32
 8003ba6:	6919      	ldr	r1, [r3, #16]
 8003ba8:	420a      	tst	r2, r1
 8003baa:	d002      	beq.n	8003bb2 <HAL_TIM_IRQHandler+0x76>
 8003bac:	68d9      	ldr	r1, [r3, #12]
 8003bae:	420a      	tst	r2, r1
 8003bb0:	d141      	bne.n	8003c36 <HAL_TIM_IRQHandler+0xfa>
 8003bb2:	bd10      	pop	{r4, pc}
 8003bb4:	3a21      	subs	r2, #33	; 0x21
 8003bb6:	611a      	str	r2, [r3, #16]
 8003bb8:	3219      	adds	r2, #25
 8003bba:	7722      	strb	r2, [r4, #28]
 8003bbc:	69da      	ldr	r2, [r3, #28]
 8003bbe:	23c0      	movs	r3, #192	; 0xc0
 8003bc0:	009b      	lsls	r3, r3, #2
 8003bc2:	0020      	movs	r0, r4
 8003bc4:	421a      	tst	r2, r3
 8003bc6:	d05e      	beq.n	8003c86 <HAL_TIM_IRQHandler+0x14a>
 8003bc8:	f7ff ffb2 	bl	8003b30 <HAL_TIM_IC_CaptureCallback>
 8003bcc:	2300      	movs	r3, #0
 8003bce:	7723      	strb	r3, [r4, #28]
 8003bd0:	6823      	ldr	r3, [r4, #0]
 8003bd2:	e7d2      	b.n	8003b7a <HAL_TIM_IRQHandler+0x3e>
 8003bd4:	3a11      	subs	r2, #17
 8003bd6:	611a      	str	r2, [r3, #16]
 8003bd8:	320d      	adds	r2, #13
 8003bda:	7722      	strb	r2, [r4, #28]
 8003bdc:	69db      	ldr	r3, [r3, #28]
 8003bde:	0020      	movs	r0, r4
 8003be0:	079b      	lsls	r3, r3, #30
 8003be2:	d14d      	bne.n	8003c80 <HAL_TIM_IRQHandler+0x144>
 8003be4:	f7ff ffa2 	bl	8003b2c <HAL_TIM_OC_DelayElapsedCallback>
 8003be8:	0020      	movs	r0, r4
 8003bea:	f7ff ffa3 	bl	8003b34 <HAL_TIM_PWM_PulseFinishedCallback>
 8003bee:	2300      	movs	r3, #0
 8003bf0:	7723      	strb	r3, [r4, #28]
 8003bf2:	6823      	ldr	r3, [r4, #0]
 8003bf4:	e7ba      	b.n	8003b6c <HAL_TIM_IRQHandler+0x30>
 8003bf6:	3a09      	subs	r2, #9
 8003bf8:	611a      	str	r2, [r3, #16]
 8003bfa:	3207      	adds	r2, #7
 8003bfc:	7722      	strb	r2, [r4, #28]
 8003bfe:	699a      	ldr	r2, [r3, #24]
 8003c00:	23c0      	movs	r3, #192	; 0xc0
 8003c02:	009b      	lsls	r3, r3, #2
 8003c04:	0020      	movs	r0, r4
 8003c06:	421a      	tst	r2, r3
 8003c08:	d137      	bne.n	8003c7a <HAL_TIM_IRQHandler+0x13e>
 8003c0a:	f7ff ff8f 	bl	8003b2c <HAL_TIM_OC_DelayElapsedCallback>
 8003c0e:	0020      	movs	r0, r4
 8003c10:	f7ff ff90 	bl	8003b34 <HAL_TIM_PWM_PulseFinishedCallback>
 8003c14:	2300      	movs	r3, #0
 8003c16:	7723      	strb	r3, [r4, #28]
 8003c18:	6823      	ldr	r3, [r4, #0]
 8003c1a:	e7a0      	b.n	8003b5e <HAL_TIM_IRQHandler+0x22>
 8003c1c:	3a05      	subs	r2, #5
 8003c1e:	611a      	str	r2, [r3, #16]
 8003c20:	3204      	adds	r2, #4
 8003c22:	7702      	strb	r2, [r0, #28]
 8003c24:	699b      	ldr	r3, [r3, #24]
 8003c26:	079b      	lsls	r3, r3, #30
 8003c28:	d021      	beq.n	8003c6e <HAL_TIM_IRQHandler+0x132>
 8003c2a:	f7ff ff81 	bl	8003b30 <HAL_TIM_IC_CaptureCallback>
 8003c2e:	2300      	movs	r3, #0
 8003c30:	7723      	strb	r3, [r4, #28]
 8003c32:	6823      	ldr	r3, [r4, #0]
 8003c34:	e78c      	b.n	8003b50 <HAL_TIM_IRQHandler+0x14>
 8003c36:	3a41      	subs	r2, #65	; 0x41
 8003c38:	0020      	movs	r0, r4
 8003c3a:	611a      	str	r2, [r3, #16]
 8003c3c:	f000 fa1c 	bl	8004078 <HAL_TIMEx_CommutCallback>
 8003c40:	e7b7      	b.n	8003bb2 <HAL_TIM_IRQHandler+0x76>
 8003c42:	3a03      	subs	r2, #3
 8003c44:	611a      	str	r2, [r3, #16]
 8003c46:	0020      	movs	r0, r4
 8003c48:	f7fc fdd0 	bl	80007ec <HAL_TIM_PeriodElapsedCallback>
 8003c4c:	6823      	ldr	r3, [r4, #0]
 8003c4e:	e79b      	b.n	8003b88 <HAL_TIM_IRQHandler+0x4c>
 8003c50:	3a02      	subs	r2, #2
 8003c52:	3aff      	subs	r2, #255	; 0xff
 8003c54:	611a      	str	r2, [r3, #16]
 8003c56:	0020      	movs	r0, r4
 8003c58:	f000 fa10 	bl	800407c <HAL_TIMEx_BreakCallback>
 8003c5c:	6823      	ldr	r3, [r4, #0]
 8003c5e:	e79a      	b.n	8003b96 <HAL_TIM_IRQHandler+0x5a>
 8003c60:	3a81      	subs	r2, #129	; 0x81
 8003c62:	611a      	str	r2, [r3, #16]
 8003c64:	0020      	movs	r0, r4
 8003c66:	f7ff ff67 	bl	8003b38 <HAL_TIM_TriggerCallback>
 8003c6a:	6823      	ldr	r3, [r4, #0]
 8003c6c:	e79a      	b.n	8003ba4 <HAL_TIM_IRQHandler+0x68>
 8003c6e:	f7ff ff5d 	bl	8003b2c <HAL_TIM_OC_DelayElapsedCallback>
 8003c72:	0020      	movs	r0, r4
 8003c74:	f7ff ff5e 	bl	8003b34 <HAL_TIM_PWM_PulseFinishedCallback>
 8003c78:	e7d9      	b.n	8003c2e <HAL_TIM_IRQHandler+0xf2>
 8003c7a:	f7ff ff59 	bl	8003b30 <HAL_TIM_IC_CaptureCallback>
 8003c7e:	e7c9      	b.n	8003c14 <HAL_TIM_IRQHandler+0xd8>
 8003c80:	f7ff ff56 	bl	8003b30 <HAL_TIM_IC_CaptureCallback>
 8003c84:	e7b3      	b.n	8003bee <HAL_TIM_IRQHandler+0xb2>
 8003c86:	f7ff ff51 	bl	8003b2c <HAL_TIM_OC_DelayElapsedCallback>
 8003c8a:	0020      	movs	r0, r4
 8003c8c:	f7ff ff52 	bl	8003b34 <HAL_TIM_PWM_PulseFinishedCallback>
 8003c90:	e79c      	b.n	8003bcc <HAL_TIM_IRQHandler+0x90>
 8003c92:	46c0      	nop			; (mov r8, r8)

08003c94 <TIM_Base_SetConfig>:
 8003c94:	4a1e      	ldr	r2, [pc, #120]	; (8003d10 <TIM_Base_SetConfig+0x7c>)
 8003c96:	6803      	ldr	r3, [r0, #0]
 8003c98:	4290      	cmp	r0, r2
 8003c9a:	d033      	beq.n	8003d04 <TIM_Base_SetConfig+0x70>
 8003c9c:	2280      	movs	r2, #128	; 0x80
 8003c9e:	05d2      	lsls	r2, r2, #23
 8003ca0:	4290      	cmp	r0, r2
 8003ca2:	d01b      	beq.n	8003cdc <TIM_Base_SetConfig+0x48>
 8003ca4:	4a1b      	ldr	r2, [pc, #108]	; (8003d14 <TIM_Base_SetConfig+0x80>)
 8003ca6:	4290      	cmp	r0, r2
 8003ca8:	d018      	beq.n	8003cdc <TIM_Base_SetConfig+0x48>
 8003caa:	4a1b      	ldr	r2, [pc, #108]	; (8003d18 <TIM_Base_SetConfig+0x84>)
 8003cac:	4290      	cmp	r0, r2
 8003cae:	d019      	beq.n	8003ce4 <TIM_Base_SetConfig+0x50>
 8003cb0:	4a1a      	ldr	r2, [pc, #104]	; (8003d1c <TIM_Base_SetConfig+0x88>)
 8003cb2:	4290      	cmp	r0, r2
 8003cb4:	d002      	beq.n	8003cbc <TIM_Base_SetConfig+0x28>
 8003cb6:	4a1a      	ldr	r2, [pc, #104]	; (8003d20 <TIM_Base_SetConfig+0x8c>)
 8003cb8:	4290      	cmp	r0, r2
 8003cba:	d117      	bne.n	8003cec <TIM_Base_SetConfig+0x58>
 8003cbc:	4a19      	ldr	r2, [pc, #100]	; (8003d24 <TIM_Base_SetConfig+0x90>)
 8003cbe:	4013      	ands	r3, r2
 8003cc0:	68ca      	ldr	r2, [r1, #12]
 8003cc2:	4313      	orrs	r3, r2
 8003cc4:	2280      	movs	r2, #128	; 0x80
 8003cc6:	4393      	bics	r3, r2
 8003cc8:	694a      	ldr	r2, [r1, #20]
 8003cca:	4313      	orrs	r3, r2
 8003ccc:	6003      	str	r3, [r0, #0]
 8003cce:	688b      	ldr	r3, [r1, #8]
 8003cd0:	62c3      	str	r3, [r0, #44]	; 0x2c
 8003cd2:	680b      	ldr	r3, [r1, #0]
 8003cd4:	6283      	str	r3, [r0, #40]	; 0x28
 8003cd6:	690b      	ldr	r3, [r1, #16]
 8003cd8:	6303      	str	r3, [r0, #48]	; 0x30
 8003cda:	e010      	b.n	8003cfe <TIM_Base_SetConfig+0x6a>
 8003cdc:	2270      	movs	r2, #112	; 0x70
 8003cde:	4393      	bics	r3, r2
 8003ce0:	684a      	ldr	r2, [r1, #4]
 8003ce2:	4313      	orrs	r3, r2
 8003ce4:	4a0f      	ldr	r2, [pc, #60]	; (8003d24 <TIM_Base_SetConfig+0x90>)
 8003ce6:	4013      	ands	r3, r2
 8003ce8:	68ca      	ldr	r2, [r1, #12]
 8003cea:	4313      	orrs	r3, r2
 8003cec:	2280      	movs	r2, #128	; 0x80
 8003cee:	4393      	bics	r3, r2
 8003cf0:	694a      	ldr	r2, [r1, #20]
 8003cf2:	4313      	orrs	r3, r2
 8003cf4:	6003      	str	r3, [r0, #0]
 8003cf6:	688b      	ldr	r3, [r1, #8]
 8003cf8:	62c3      	str	r3, [r0, #44]	; 0x2c
 8003cfa:	680b      	ldr	r3, [r1, #0]
 8003cfc:	6283      	str	r3, [r0, #40]	; 0x28
 8003cfe:	2301      	movs	r3, #1
 8003d00:	6143      	str	r3, [r0, #20]
 8003d02:	4770      	bx	lr
 8003d04:	2270      	movs	r2, #112	; 0x70
 8003d06:	4393      	bics	r3, r2
 8003d08:	684a      	ldr	r2, [r1, #4]
 8003d0a:	4313      	orrs	r3, r2
 8003d0c:	e7d6      	b.n	8003cbc <TIM_Base_SetConfig+0x28>
 8003d0e:	46c0      	nop			; (mov r8, r8)
 8003d10:	40012c00 	.word	0x40012c00
 8003d14:	40000400 	.word	0x40000400
 8003d18:	40002000 	.word	0x40002000
 8003d1c:	40014400 	.word	0x40014400
 8003d20:	40014800 	.word	0x40014800
 8003d24:	fffffcff 	.word	0xfffffcff

08003d28 <HAL_TIM_Base_Init>:
 8003d28:	b570      	push	{r4, r5, r6, lr}
 8003d2a:	1e04      	subs	r4, r0, #0
 8003d2c:	d026      	beq.n	8003d7c <HAL_TIM_Base_Init+0x54>
 8003d2e:	233d      	movs	r3, #61	; 0x3d
 8003d30:	5cc3      	ldrb	r3, [r0, r3]
 8003d32:	b2da      	uxtb	r2, r3
 8003d34:	2b00      	cmp	r3, #0
 8003d36:	d01c      	beq.n	8003d72 <HAL_TIM_Base_Init+0x4a>
 8003d38:	2302      	movs	r3, #2
 8003d3a:	253d      	movs	r5, #61	; 0x3d
 8003d3c:	0021      	movs	r1, r4
 8003d3e:	5563      	strb	r3, [r4, r5]
 8003d40:	c901      	ldmia	r1!, {r0}
 8003d42:	f7ff ffa7 	bl	8003c94 <TIM_Base_SetConfig>
 8003d46:	2301      	movs	r3, #1
 8003d48:	2246      	movs	r2, #70	; 0x46
 8003d4a:	2000      	movs	r0, #0
 8003d4c:	54a3      	strb	r3, [r4, r2]
 8003d4e:	3a08      	subs	r2, #8
 8003d50:	54a3      	strb	r3, [r4, r2]
 8003d52:	3201      	adds	r2, #1
 8003d54:	54a3      	strb	r3, [r4, r2]
 8003d56:	3201      	adds	r2, #1
 8003d58:	54a3      	strb	r3, [r4, r2]
 8003d5a:	3201      	adds	r2, #1
 8003d5c:	54a3      	strb	r3, [r4, r2]
 8003d5e:	3201      	adds	r2, #1
 8003d60:	54a3      	strb	r3, [r4, r2]
 8003d62:	3201      	adds	r2, #1
 8003d64:	54a3      	strb	r3, [r4, r2]
 8003d66:	3201      	adds	r2, #1
 8003d68:	54a3      	strb	r3, [r4, r2]
 8003d6a:	3201      	adds	r2, #1
 8003d6c:	54a3      	strb	r3, [r4, r2]
 8003d6e:	5563      	strb	r3, [r4, r5]
 8003d70:	bd70      	pop	{r4, r5, r6, pc}
 8003d72:	333c      	adds	r3, #60	; 0x3c
 8003d74:	54c2      	strb	r2, [r0, r3]
 8003d76:	f7fd f93d 	bl	8000ff4 <HAL_TIM_Base_MspInit>
 8003d7a:	e7dd      	b.n	8003d38 <HAL_TIM_Base_Init+0x10>
 8003d7c:	2001      	movs	r0, #1
 8003d7e:	e7f7      	b.n	8003d70 <HAL_TIM_Base_Init+0x48>

08003d80 <HAL_TIM_PWM_Init>:
 8003d80:	b570      	push	{r4, r5, r6, lr}
 8003d82:	1e04      	subs	r4, r0, #0
 8003d84:	d026      	beq.n	8003dd4 <HAL_TIM_PWM_Init+0x54>
 8003d86:	233d      	movs	r3, #61	; 0x3d
 8003d88:	5cc3      	ldrb	r3, [r0, r3]
 8003d8a:	b2da      	uxtb	r2, r3
 8003d8c:	2b00      	cmp	r3, #0
 8003d8e:	d01c      	beq.n	8003dca <HAL_TIM_PWM_Init+0x4a>
 8003d90:	2302      	movs	r3, #2
 8003d92:	253d      	movs	r5, #61	; 0x3d
 8003d94:	0021      	movs	r1, r4
 8003d96:	5563      	strb	r3, [r4, r5]
 8003d98:	c901      	ldmia	r1!, {r0}
 8003d9a:	f7ff ff7b 	bl	8003c94 <TIM_Base_SetConfig>
 8003d9e:	2301      	movs	r3, #1
 8003da0:	2246      	movs	r2, #70	; 0x46
 8003da2:	2000      	movs	r0, #0
 8003da4:	54a3      	strb	r3, [r4, r2]
 8003da6:	3a08      	subs	r2, #8
 8003da8:	54a3      	strb	r3, [r4, r2]
 8003daa:	3201      	adds	r2, #1
 8003dac:	54a3      	strb	r3, [r4, r2]
 8003dae:	3201      	adds	r2, #1
 8003db0:	54a3      	strb	r3, [r4, r2]
 8003db2:	3201      	adds	r2, #1
 8003db4:	54a3      	strb	r3, [r4, r2]
 8003db6:	3201      	adds	r2, #1
 8003db8:	54a3      	strb	r3, [r4, r2]
 8003dba:	3201      	adds	r2, #1
 8003dbc:	54a3      	strb	r3, [r4, r2]
 8003dbe:	3201      	adds	r2, #1
 8003dc0:	54a3      	strb	r3, [r4, r2]
 8003dc2:	3201      	adds	r2, #1
 8003dc4:	54a3      	strb	r3, [r4, r2]
 8003dc6:	5563      	strb	r3, [r4, r5]
 8003dc8:	bd70      	pop	{r4, r5, r6, pc}
 8003dca:	333c      	adds	r3, #60	; 0x3c
 8003dcc:	54c2      	strb	r2, [r0, r3]
 8003dce:	f7ff fdcb 	bl	8003968 <HAL_TIM_PWM_MspInit>
 8003dd2:	e7dd      	b.n	8003d90 <HAL_TIM_PWM_Init+0x10>
 8003dd4:	2001      	movs	r0, #1
 8003dd6:	e7f7      	b.n	8003dc8 <HAL_TIM_PWM_Init+0x48>

08003dd8 <TIM_OC2_SetConfig>:
 8003dd8:	2210      	movs	r2, #16
 8003dda:	6a03      	ldr	r3, [r0, #32]
 8003ddc:	b570      	push	{r4, r5, r6, lr}
 8003dde:	4393      	bics	r3, r2
 8003de0:	6203      	str	r3, [r0, #32]
 8003de2:	6a04      	ldr	r4, [r0, #32]
 8003de4:	4d15      	ldr	r5, [pc, #84]	; (8003e3c <TIM_OC2_SetConfig+0x64>)
 8003de6:	6843      	ldr	r3, [r0, #4]
 8003de8:	6982      	ldr	r2, [r0, #24]
 8003dea:	402a      	ands	r2, r5
 8003dec:	680d      	ldr	r5, [r1, #0]
 8003dee:	022d      	lsls	r5, r5, #8
 8003df0:	4315      	orrs	r5, r2
 8003df2:	2220      	movs	r2, #32
 8003df4:	4394      	bics	r4, r2
 8003df6:	688a      	ldr	r2, [r1, #8]
 8003df8:	0112      	lsls	r2, r2, #4
 8003dfa:	4322      	orrs	r2, r4
 8003dfc:	4c10      	ldr	r4, [pc, #64]	; (8003e40 <TIM_OC2_SetConfig+0x68>)
 8003dfe:	42a0      	cmp	r0, r4
 8003e00:	d012      	beq.n	8003e28 <TIM_OC2_SetConfig+0x50>
 8003e02:	4c10      	ldr	r4, [pc, #64]	; (8003e44 <TIM_OC2_SetConfig+0x6c>)
 8003e04:	42a0      	cmp	r0, r4
 8003e06:	d002      	beq.n	8003e0e <TIM_OC2_SetConfig+0x36>
 8003e08:	4c0f      	ldr	r4, [pc, #60]	; (8003e48 <TIM_OC2_SetConfig+0x70>)
 8003e0a:	42a0      	cmp	r0, r4
 8003e0c:	d106      	bne.n	8003e1c <TIM_OC2_SetConfig+0x44>
 8003e0e:	4c0f      	ldr	r4, [pc, #60]	; (8003e4c <TIM_OC2_SetConfig+0x74>)
 8003e10:	694e      	ldr	r6, [r1, #20]
 8003e12:	401c      	ands	r4, r3
 8003e14:	698b      	ldr	r3, [r1, #24]
 8003e16:	4333      	orrs	r3, r6
 8003e18:	009b      	lsls	r3, r3, #2
 8003e1a:	4323      	orrs	r3, r4
 8003e1c:	6043      	str	r3, [r0, #4]
 8003e1e:	684b      	ldr	r3, [r1, #4]
 8003e20:	6185      	str	r5, [r0, #24]
 8003e22:	6383      	str	r3, [r0, #56]	; 0x38
 8003e24:	6202      	str	r2, [r0, #32]
 8003e26:	bd70      	pop	{r4, r5, r6, pc}
 8003e28:	2480      	movs	r4, #128	; 0x80
 8003e2a:	43a2      	bics	r2, r4
 8003e2c:	0016      	movs	r6, r2
 8003e2e:	68ca      	ldr	r2, [r1, #12]
 8003e30:	3c40      	subs	r4, #64	; 0x40
 8003e32:	0112      	lsls	r2, r2, #4
 8003e34:	4332      	orrs	r2, r6
 8003e36:	43a2      	bics	r2, r4
 8003e38:	e7e9      	b.n	8003e0e <TIM_OC2_SetConfig+0x36>
 8003e3a:	46c0      	nop			; (mov r8, r8)
 8003e3c:	ffff8cff 	.word	0xffff8cff
 8003e40:	40012c00 	.word	0x40012c00
 8003e44:	40014400 	.word	0x40014400
 8003e48:	40014800 	.word	0x40014800
 8003e4c:	fffff3ff 	.word	0xfffff3ff

08003e50 <HAL_TIM_PWM_ConfigChannel>:
 8003e50:	b5f8      	push	{r3, r4, r5, r6, r7, lr}
 8003e52:	233c      	movs	r3, #60	; 0x3c
 8003e54:	0014      	movs	r4, r2
 8003e56:	5cc2      	ldrb	r2, [r0, r3]
 8003e58:	0005      	movs	r5, r0
 8003e5a:	000e      	movs	r6, r1
 8003e5c:	2a01      	cmp	r2, #1
 8003e5e:	d05a      	beq.n	8003f16 <HAL_TIM_PWM_ConfigChannel+0xc6>
 8003e60:	2201      	movs	r2, #1
 8003e62:	54c2      	strb	r2, [r0, r3]
 8003e64:	2c08      	cmp	r4, #8
 8003e66:	d045      	beq.n	8003ef4 <HAL_TIM_PWM_ConfigChannel+0xa4>
 8003e68:	d81a      	bhi.n	8003ea0 <HAL_TIM_PWM_ConfigChannel+0x50>
 8003e6a:	2c00      	cmp	r4, #0
 8003e6c:	d030      	beq.n	8003ed0 <HAL_TIM_PWM_ConfigChannel+0x80>
 8003e6e:	2c04      	cmp	r4, #4
 8003e70:	d12c      	bne.n	8003ecc <HAL_TIM_PWM_ConfigChannel+0x7c>
 8003e72:	6804      	ldr	r4, [r0, #0]
 8003e74:	0020      	movs	r0, r4
 8003e76:	f7ff ffaf 	bl	8003dd8 <TIM_OC2_SetConfig>
 8003e7a:	2380      	movs	r3, #128	; 0x80
 8003e7c:	2000      	movs	r0, #0
 8003e7e:	69a2      	ldr	r2, [r4, #24]
 8003e80:	011b      	lsls	r3, r3, #4
 8003e82:	4313      	orrs	r3, r2
 8003e84:	61a3      	str	r3, [r4, #24]
 8003e86:	69a3      	ldr	r3, [r4, #24]
 8003e88:	4a24      	ldr	r2, [pc, #144]	; (8003f1c <HAL_TIM_PWM_ConfigChannel+0xcc>)
 8003e8a:	4013      	ands	r3, r2
 8003e8c:	61a3      	str	r3, [r4, #24]
 8003e8e:	6933      	ldr	r3, [r6, #16]
 8003e90:	69a2      	ldr	r2, [r4, #24]
 8003e92:	021b      	lsls	r3, r3, #8
 8003e94:	4313      	orrs	r3, r2
 8003e96:	61a3      	str	r3, [r4, #24]
 8003e98:	233c      	movs	r3, #60	; 0x3c
 8003e9a:	2200      	movs	r2, #0
 8003e9c:	54ea      	strb	r2, [r5, r3]
 8003e9e:	bdf8      	pop	{r3, r4, r5, r6, r7, pc}
 8003ea0:	2c0c      	cmp	r4, #12
 8003ea2:	d113      	bne.n	8003ecc <HAL_TIM_PWM_ConfigChannel+0x7c>
 8003ea4:	6804      	ldr	r4, [r0, #0]
 8003ea6:	0020      	movs	r0, r4
 8003ea8:	f7ff fbfe 	bl	80036a8 <TIM_OC4_SetConfig>
 8003eac:	2380      	movs	r3, #128	; 0x80
 8003eae:	69e2      	ldr	r2, [r4, #28]
 8003eb0:	011b      	lsls	r3, r3, #4
 8003eb2:	4313      	orrs	r3, r2
 8003eb4:	61e3      	str	r3, [r4, #28]
 8003eb6:	69e3      	ldr	r3, [r4, #28]
 8003eb8:	4a18      	ldr	r2, [pc, #96]	; (8003f1c <HAL_TIM_PWM_ConfigChannel+0xcc>)
 8003eba:	2000      	movs	r0, #0
 8003ebc:	4013      	ands	r3, r2
 8003ebe:	61e3      	str	r3, [r4, #28]
 8003ec0:	6933      	ldr	r3, [r6, #16]
 8003ec2:	69e2      	ldr	r2, [r4, #28]
 8003ec4:	021b      	lsls	r3, r3, #8
 8003ec6:	4313      	orrs	r3, r2
 8003ec8:	61e3      	str	r3, [r4, #28]
 8003eca:	e7e5      	b.n	8003e98 <HAL_TIM_PWM_ConfigChannel+0x48>
 8003ecc:	2001      	movs	r0, #1
 8003ece:	e7e3      	b.n	8003e98 <HAL_TIM_PWM_ConfigChannel+0x48>
 8003ed0:	6804      	ldr	r4, [r0, #0]
 8003ed2:	0020      	movs	r0, r4
 8003ed4:	f7ff fb74 	bl	80035c0 <TIM_OC1_SetConfig>
 8003ed8:	2208      	movs	r2, #8
 8003eda:	69a3      	ldr	r3, [r4, #24]
 8003edc:	2000      	movs	r0, #0
 8003ede:	4313      	orrs	r3, r2
 8003ee0:	61a3      	str	r3, [r4, #24]
 8003ee2:	69a3      	ldr	r3, [r4, #24]
 8003ee4:	3a04      	subs	r2, #4
 8003ee6:	4393      	bics	r3, r2
 8003ee8:	61a3      	str	r3, [r4, #24]
 8003eea:	69a3      	ldr	r3, [r4, #24]
 8003eec:	6932      	ldr	r2, [r6, #16]
 8003eee:	4313      	orrs	r3, r2
 8003ef0:	61a3      	str	r3, [r4, #24]
 8003ef2:	e7d1      	b.n	8003e98 <HAL_TIM_PWM_ConfigChannel+0x48>
 8003ef4:	6807      	ldr	r7, [r0, #0]
 8003ef6:	0038      	movs	r0, r7
 8003ef8:	f7ff fb96 	bl	8003628 <TIM_OC3_SetConfig>
 8003efc:	2204      	movs	r2, #4
 8003efe:	69fb      	ldr	r3, [r7, #28]
 8003f00:	2000      	movs	r0, #0
 8003f02:	4323      	orrs	r3, r4
 8003f04:	61fb      	str	r3, [r7, #28]
 8003f06:	69fb      	ldr	r3, [r7, #28]
 8003f08:	4393      	bics	r3, r2
 8003f0a:	61fb      	str	r3, [r7, #28]
 8003f0c:	69fb      	ldr	r3, [r7, #28]
 8003f0e:	6932      	ldr	r2, [r6, #16]
 8003f10:	4313      	orrs	r3, r2
 8003f12:	61fb      	str	r3, [r7, #28]
 8003f14:	e7c0      	b.n	8003e98 <HAL_TIM_PWM_ConfigChannel+0x48>
 8003f16:	2002      	movs	r0, #2
 8003f18:	e7c1      	b.n	8003e9e <HAL_TIM_PWM_ConfigChannel+0x4e>
 8003f1a:	46c0      	nop			; (mov r8, r8)
 8003f1c:	fffffbff 	.word	0xfffffbff

08003f20 <HAL_TIMEx_OCN_Start>:
 8003f20:	2900      	cmp	r1, #0
 8003f22:	d12c      	bne.n	8003f7e <HAL_TIMEx_OCN_Start+0x5e>
 8003f24:	2342      	movs	r3, #66	; 0x42
 8003f26:	5cc2      	ldrb	r2, [r0, r3]
 8003f28:	2a01      	cmp	r2, #1
 8003f2a:	d130      	bne.n	8003f8e <HAL_TIMEx_OCN_Start+0x6e>
 8003f2c:	2202      	movs	r2, #2
 8003f2e:	54c2      	strb	r2, [r0, r3]
 8003f30:	221f      	movs	r2, #31
 8003f32:	4011      	ands	r1, r2
 8003f34:	3a1b      	subs	r2, #27
 8003f36:	408a      	lsls	r2, r1
 8003f38:	6803      	ldr	r3, [r0, #0]
 8003f3a:	6a19      	ldr	r1, [r3, #32]
 8003f3c:	4391      	bics	r1, r2
 8003f3e:	6219      	str	r1, [r3, #32]
 8003f40:	6a19      	ldr	r1, [r3, #32]
 8003f42:	430a      	orrs	r2, r1
 8003f44:	621a      	str	r2, [r3, #32]
 8003f46:	2280      	movs	r2, #128	; 0x80
 8003f48:	6c59      	ldr	r1, [r3, #68]	; 0x44
 8003f4a:	0212      	lsls	r2, r2, #8
 8003f4c:	430a      	orrs	r2, r1
 8003f4e:	645a      	str	r2, [r3, #68]	; 0x44
 8003f50:	4a15      	ldr	r2, [pc, #84]	; (8003fa8 <HAL_TIMEx_OCN_Start+0x88>)
 8003f52:	4293      	cmp	r3, r2
 8003f54:	d00c      	beq.n	8003f70 <HAL_TIMEx_OCN_Start+0x50>
 8003f56:	2280      	movs	r2, #128	; 0x80
 8003f58:	05d2      	lsls	r2, r2, #23
 8003f5a:	4293      	cmp	r3, r2
 8003f5c:	d008      	beq.n	8003f70 <HAL_TIMEx_OCN_Start+0x50>
 8003f5e:	4a13      	ldr	r2, [pc, #76]	; (8003fac <HAL_TIMEx_OCN_Start+0x8c>)
 8003f60:	4293      	cmp	r3, r2
 8003f62:	d005      	beq.n	8003f70 <HAL_TIMEx_OCN_Start+0x50>
 8003f64:	2101      	movs	r1, #1
 8003f66:	2000      	movs	r0, #0
 8003f68:	681a      	ldr	r2, [r3, #0]
 8003f6a:	430a      	orrs	r2, r1
 8003f6c:	601a      	str	r2, [r3, #0]
 8003f6e:	4770      	bx	lr
 8003f70:	2207      	movs	r2, #7
 8003f72:	6899      	ldr	r1, [r3, #8]
 8003f74:	400a      	ands	r2, r1
 8003f76:	2a06      	cmp	r2, #6
 8003f78:	d1f4      	bne.n	8003f64 <HAL_TIMEx_OCN_Start+0x44>
 8003f7a:	2000      	movs	r0, #0
 8003f7c:	e7f7      	b.n	8003f6e <HAL_TIMEx_OCN_Start+0x4e>
 8003f7e:	2904      	cmp	r1, #4
 8003f80:	d007      	beq.n	8003f92 <HAL_TIMEx_OCN_Start+0x72>
 8003f82:	2908      	cmp	r1, #8
 8003f84:	d00a      	beq.n	8003f9c <HAL_TIMEx_OCN_Start+0x7c>
 8003f86:	2345      	movs	r3, #69	; 0x45
 8003f88:	5cc2      	ldrb	r2, [r0, r3]
 8003f8a:	2a01      	cmp	r2, #1
 8003f8c:	d0ce      	beq.n	8003f2c <HAL_TIMEx_OCN_Start+0xc>
 8003f8e:	2001      	movs	r0, #1
 8003f90:	e7ed      	b.n	8003f6e <HAL_TIMEx_OCN_Start+0x4e>
 8003f92:	2343      	movs	r3, #67	; 0x43
 8003f94:	5cc2      	ldrb	r2, [r0, r3]
 8003f96:	2a01      	cmp	r2, #1
 8003f98:	d0c8      	beq.n	8003f2c <HAL_TIMEx_OCN_Start+0xc>
 8003f9a:	e7f8      	b.n	8003f8e <HAL_TIMEx_OCN_Start+0x6e>
 8003f9c:	2344      	movs	r3, #68	; 0x44
 8003f9e:	5cc2      	ldrb	r2, [r0, r3]
 8003fa0:	2a01      	cmp	r2, #1
 8003fa2:	d0c3      	beq.n	8003f2c <HAL_TIMEx_OCN_Start+0xc>
 8003fa4:	e7f3      	b.n	8003f8e <HAL_TIMEx_OCN_Start+0x6e>
 8003fa6:	46c0      	nop			; (mov r8, r8)
 8003fa8:	40012c00 	.word	0x40012c00
 8003fac:	40000400 	.word	0x40000400

08003fb0 <HAL_TIMEx_PWMN_Start>:
 8003fb0:	b510      	push	{r4, lr}
 8003fb2:	f7ff ffb5 	bl	8003f20 <HAL_TIMEx_OCN_Start>
 8003fb6:	bd10      	pop	{r4, pc}

08003fb8 <HAL_TIMEx_MasterConfigSynchronization>:
 8003fb8:	233c      	movs	r3, #60	; 0x3c
 8003fba:	b530      	push	{r4, r5, lr}
 8003fbc:	5cc3      	ldrb	r3, [r0, r3]
 8003fbe:	2b01      	cmp	r3, #1
 8003fc0:	d021      	beq.n	8004006 <HAL_TIMEx_MasterConfigSynchronization+0x4e>
 8003fc2:	233d      	movs	r3, #61	; 0x3d
 8003fc4:	2202      	movs	r2, #2
 8003fc6:	2570      	movs	r5, #112	; 0x70
 8003fc8:	54c2      	strb	r2, [r0, r3]
 8003fca:	6803      	ldr	r3, [r0, #0]
 8003fcc:	685a      	ldr	r2, [r3, #4]
 8003fce:	689c      	ldr	r4, [r3, #8]
 8003fd0:	43aa      	bics	r2, r5
 8003fd2:	680d      	ldr	r5, [r1, #0]
 8003fd4:	432a      	orrs	r2, r5
 8003fd6:	605a      	str	r2, [r3, #4]
 8003fd8:	4a0c      	ldr	r2, [pc, #48]	; (800400c <HAL_TIMEx_MasterConfigSynchronization+0x54>)
 8003fda:	4293      	cmp	r3, r2
 8003fdc:	d006      	beq.n	8003fec <HAL_TIMEx_MasterConfigSynchronization+0x34>
 8003fde:	2280      	movs	r2, #128	; 0x80
 8003fe0:	05d2      	lsls	r2, r2, #23
 8003fe2:	4293      	cmp	r3, r2
 8003fe4:	d002      	beq.n	8003fec <HAL_TIMEx_MasterConfigSynchronization+0x34>
 8003fe6:	4a0a      	ldr	r2, [pc, #40]	; (8004010 <HAL_TIMEx_MasterConfigSynchronization+0x58>)
 8003fe8:	4293      	cmp	r3, r2
 8003fea:	d104      	bne.n	8003ff6 <HAL_TIMEx_MasterConfigSynchronization+0x3e>
 8003fec:	2280      	movs	r2, #128	; 0x80
 8003fee:	4394      	bics	r4, r2
 8003ff0:	684a      	ldr	r2, [r1, #4]
 8003ff2:	4314      	orrs	r4, r2
 8003ff4:	609c      	str	r4, [r3, #8]
 8003ff6:	233d      	movs	r3, #61	; 0x3d
 8003ff8:	2201      	movs	r2, #1
 8003ffa:	54c2      	strb	r2, [r0, r3]
 8003ffc:	2200      	movs	r2, #0
 8003ffe:	3b01      	subs	r3, #1
 8004000:	54c2      	strb	r2, [r0, r3]
 8004002:	2000      	movs	r0, #0
 8004004:	bd30      	pop	{r4, r5, pc}
 8004006:	2002      	movs	r0, #2
 8004008:	e7fc      	b.n	8004004 <HAL_TIMEx_MasterConfigSynchronization+0x4c>
 800400a:	46c0      	nop			; (mov r8, r8)
 800400c:	40012c00 	.word	0x40012c00
 8004010:	40000400 	.word	0x40000400

08004014 <HAL_TIMEx_ConfigBreakDeadTime>:
 8004014:	223c      	movs	r2, #60	; 0x3c
 8004016:	b510      	push	{r4, lr}
 8004018:	5c83      	ldrb	r3, [r0, r2]
 800401a:	2b01      	cmp	r3, #1
 800401c:	d01e      	beq.n	800405c <HAL_TIMEx_ConfigBreakDeadTime+0x48>
 800401e:	68cb      	ldr	r3, [r1, #12]
 8004020:	4c0f      	ldr	r4, [pc, #60]	; (8004060 <HAL_TIMEx_ConfigBreakDeadTime+0x4c>)
 8004022:	4023      	ands	r3, r4
 8004024:	688c      	ldr	r4, [r1, #8]
 8004026:	4323      	orrs	r3, r4
 8004028:	4c0e      	ldr	r4, [pc, #56]	; (8004064 <HAL_TIMEx_ConfigBreakDeadTime+0x50>)
 800402a:	4023      	ands	r3, r4
 800402c:	684c      	ldr	r4, [r1, #4]
 800402e:	4323      	orrs	r3, r4
 8004030:	4c0d      	ldr	r4, [pc, #52]	; (8004068 <HAL_TIMEx_ConfigBreakDeadTime+0x54>)
 8004032:	4023      	ands	r3, r4
 8004034:	680c      	ldr	r4, [r1, #0]
 8004036:	4323      	orrs	r3, r4
 8004038:	4c0c      	ldr	r4, [pc, #48]	; (800406c <HAL_TIMEx_ConfigBreakDeadTime+0x58>)
 800403a:	4023      	ands	r3, r4
 800403c:	690c      	ldr	r4, [r1, #16]
 800403e:	4323      	orrs	r3, r4
 8004040:	4c0b      	ldr	r4, [pc, #44]	; (8004070 <HAL_TIMEx_ConfigBreakDeadTime+0x5c>)
 8004042:	4023      	ands	r3, r4
 8004044:	694c      	ldr	r4, [r1, #20]
 8004046:	69c9      	ldr	r1, [r1, #28]
 8004048:	4323      	orrs	r3, r4
 800404a:	4c0a      	ldr	r4, [pc, #40]	; (8004074 <HAL_TIMEx_ConfigBreakDeadTime+0x60>)
 800404c:	4023      	ands	r3, r4
 800404e:	430b      	orrs	r3, r1
 8004050:	6801      	ldr	r1, [r0, #0]
 8004052:	644b      	str	r3, [r1, #68]	; 0x44
 8004054:	2300      	movs	r3, #0
 8004056:	5483      	strb	r3, [r0, r2]
 8004058:	2000      	movs	r0, #0
 800405a:	bd10      	pop	{r4, pc}
 800405c:	2002      	movs	r0, #2
 800405e:	e7fc      	b.n	800405a <HAL_TIMEx_ConfigBreakDeadTime+0x46>
 8004060:	fffffcff 	.word	0xfffffcff
 8004064:	fffffbff 	.word	0xfffffbff
 8004068:	fffff7ff 	.word	0xfffff7ff
 800406c:	ffffefff 	.word	0xffffefff
 8004070:	ffffdfff 	.word	0xffffdfff
 8004074:	ffffbfff 	.word	0xffffbfff

08004078 <HAL_TIMEx_CommutCallback>:
 8004078:	4770      	bx	lr
 800407a:	46c0      	nop			; (mov r8, r8)

0800407c <HAL_TIMEx_BreakCallback>:
 800407c:	4770      	bx	lr
 800407e:	46c0      	nop			; (mov r8, r8)

08004080 <UART_EndRxTransfer>:
 8004080:	b510      	push	{r4, lr}
 8004082:	f3ef 8c10 	mrs	ip, PRIMASK
 8004086:	2201      	movs	r2, #1
 8004088:	f382 8810 	msr	PRIMASK, r2
 800408c:	6801      	ldr	r1, [r0, #0]
 800408e:	4c13      	ldr	r4, [pc, #76]	; (80040dc <UART_EndRxTransfer+0x5c>)
 8004090:	680b      	ldr	r3, [r1, #0]
 8004092:	4023      	ands	r3, r4
 8004094:	600b      	str	r3, [r1, #0]
 8004096:	f38c 8810 	msr	PRIMASK, ip
 800409a:	f3ef 8c10 	mrs	ip, PRIMASK
 800409e:	f382 8810 	msr	PRIMASK, r2
 80040a2:	6801      	ldr	r1, [r0, #0]
 80040a4:	688b      	ldr	r3, [r1, #8]
 80040a6:	4393      	bics	r3, r2
 80040a8:	608b      	str	r3, [r1, #8]
 80040aa:	f38c 8810 	msr	PRIMASK, ip
 80040ae:	6e03      	ldr	r3, [r0, #96]	; 0x60
 80040b0:	2b01      	cmp	r3, #1
 80040b2:	d10b      	bne.n	80040cc <UART_EndRxTransfer+0x4c>
 80040b4:	f3ef 8110 	mrs	r1, PRIMASK
 80040b8:	f383 8810 	msr	PRIMASK, r3
 80040bc:	6802      	ldr	r2, [r0, #0]
 80040be:	3432      	adds	r4, #50	; 0x32
 80040c0:	6813      	ldr	r3, [r2, #0]
 80040c2:	34ff      	adds	r4, #255	; 0xff
 80040c4:	43a3      	bics	r3, r4
 80040c6:	6013      	str	r3, [r2, #0]
 80040c8:	f381 8810 	msr	PRIMASK, r1
 80040cc:	2380      	movs	r3, #128	; 0x80
 80040ce:	2220      	movs	r2, #32
 80040d0:	50c2      	str	r2, [r0, r3]
 80040d2:	2300      	movs	r3, #0
 80040d4:	6603      	str	r3, [r0, #96]	; 0x60
 80040d6:	6683      	str	r3, [r0, #104]	; 0x68
 80040d8:	bd10      	pop	{r4, pc}
 80040da:	46c0      	nop			; (mov r8, r8)
 80040dc:	fffffedf 	.word	0xfffffedf

080040e0 <HAL_UART_Transmit_DMA>:
 80040e0:	0013      	movs	r3, r2
 80040e2:	6fc2      	ldr	r2, [r0, #124]	; 0x7c
 80040e4:	b570      	push	{r4, r5, r6, lr}
 80040e6:	0004      	movs	r4, r0
 80040e8:	2a20      	cmp	r2, #32
 80040ea:	d140      	bne.n	800416e <HAL_UART_Transmit_DMA+0x8e>
 80040ec:	2900      	cmp	r1, #0
 80040ee:	d02b      	beq.n	8004148 <HAL_UART_Transmit_DMA+0x68>
 80040f0:	2b00      	cmp	r3, #0
 80040f2:	d029      	beq.n	8004148 <HAL_UART_Transmit_DMA+0x68>
 80040f4:	2280      	movs	r2, #128	; 0x80
 80040f6:	6880      	ldr	r0, [r0, #8]
 80040f8:	0152      	lsls	r2, r2, #5
 80040fa:	4290      	cmp	r0, r2
 80040fc:	d01f      	beq.n	800413e <HAL_UART_Transmit_DMA+0x5e>
 80040fe:	2250      	movs	r2, #80	; 0x50
 8004100:	64e1      	str	r1, [r4, #76]	; 0x4c
 8004102:	52a3      	strh	r3, [r4, r2]
 8004104:	3202      	adds	r2, #2
 8004106:	52a3      	strh	r3, [r4, r2]
 8004108:	2021      	movs	r0, #33	; 0x21
 800410a:	2584      	movs	r5, #132	; 0x84
 800410c:	2200      	movs	r2, #0
 800410e:	5162      	str	r2, [r4, r5]
 8004110:	67e0      	str	r0, [r4, #124]	; 0x7c
 8004112:	6f20      	ldr	r0, [r4, #112]	; 0x70
 8004114:	2800      	cmp	r0, #0
 8004116:	d019      	beq.n	800414c <HAL_UART_Transmit_DMA+0x6c>
 8004118:	4e16      	ldr	r6, [pc, #88]	; (8004174 <HAL_UART_Transmit_DMA+0x94>)
 800411a:	6342      	str	r2, [r0, #52]	; 0x34
 800411c:	6286      	str	r6, [r0, #40]	; 0x28
 800411e:	4e16      	ldr	r6, [pc, #88]	; (8004178 <HAL_UART_Transmit_DMA+0x98>)
 8004120:	6822      	ldr	r2, [r4, #0]
 8004122:	62c6      	str	r6, [r0, #44]	; 0x2c
 8004124:	4e15      	ldr	r6, [pc, #84]	; (800417c <HAL_UART_Transmit_DMA+0x9c>)
 8004126:	3228      	adds	r2, #40	; 0x28
 8004128:	6306      	str	r6, [r0, #48]	; 0x30
 800412a:	f7fd fd5d 	bl	8001be8 <HAL_DMA_Start_IT>
 800412e:	2800      	cmp	r0, #0
 8004130:	d00c      	beq.n	800414c <HAL_UART_Transmit_DMA+0x6c>
 8004132:	2310      	movs	r3, #16
 8004134:	5163      	str	r3, [r4, r5]
 8004136:	3310      	adds	r3, #16
 8004138:	2001      	movs	r0, #1
 800413a:	67e3      	str	r3, [r4, #124]	; 0x7c
 800413c:	e005      	b.n	800414a <HAL_UART_Transmit_DMA+0x6a>
 800413e:	6922      	ldr	r2, [r4, #16]
 8004140:	2a00      	cmp	r2, #0
 8004142:	d1dc      	bne.n	80040fe <HAL_UART_Transmit_DMA+0x1e>
 8004144:	07ca      	lsls	r2, r1, #31
 8004146:	d5da      	bpl.n	80040fe <HAL_UART_Transmit_DMA+0x1e>
 8004148:	2001      	movs	r0, #1
 800414a:	bd70      	pop	{r4, r5, r6, pc}
 800414c:	2240      	movs	r2, #64	; 0x40
 800414e:	6823      	ldr	r3, [r4, #0]
 8004150:	621a      	str	r2, [r3, #32]
 8004152:	f3ef 8110 	mrs	r1, PRIMASK
 8004156:	2301      	movs	r3, #1
 8004158:	f383 8810 	msr	PRIMASK, r3
 800415c:	2080      	movs	r0, #128	; 0x80
 800415e:	6822      	ldr	r2, [r4, #0]
 8004160:	6893      	ldr	r3, [r2, #8]
 8004162:	4303      	orrs	r3, r0
 8004164:	6093      	str	r3, [r2, #8]
 8004166:	f381 8810 	msr	PRIMASK, r1
 800416a:	2000      	movs	r0, #0
 800416c:	e7ed      	b.n	800414a <HAL_UART_Transmit_DMA+0x6a>
 800416e:	2002      	movs	r0, #2
 8004170:	e7eb      	b.n	800414a <HAL_UART_Transmit_DMA+0x6a>
 8004172:	46c0      	nop			; (mov r8, r8)
 8004174:	08004181 	.word	0x08004181
 8004178:	080041cd 	.word	0x080041cd
 800417c:	080041dd 	.word	0x080041dd

08004180 <UART_DMATransmitCplt>:
 8004180:	6982      	ldr	r2, [r0, #24]
 8004182:	b510      	push	{r4, lr}
 8004184:	6a43      	ldr	r3, [r0, #36]	; 0x24
 8004186:	2a20      	cmp	r2, #32
 8004188:	d01a      	beq.n	80041c0 <UART_DMATransmitCplt+0x40>
 800418a:	2252      	movs	r2, #82	; 0x52
 800418c:	2100      	movs	r1, #0
 800418e:	5299      	strh	r1, [r3, r2]
 8004190:	f3ef 8c10 	mrs	ip, PRIMASK
 8004194:	3101      	adds	r1, #1
 8004196:	f381 8810 	msr	PRIMASK, r1
 800419a:	2480      	movs	r4, #128	; 0x80
 800419c:	6818      	ldr	r0, [r3, #0]
 800419e:	6882      	ldr	r2, [r0, #8]
 80041a0:	43a2      	bics	r2, r4
 80041a2:	6082      	str	r2, [r0, #8]
 80041a4:	f38c 8810 	msr	PRIMASK, ip
 80041a8:	f3ef 8010 	mrs	r0, PRIMASK
 80041ac:	f381 8810 	msr	PRIMASK, r1
 80041b0:	681a      	ldr	r2, [r3, #0]
 80041b2:	313f      	adds	r1, #63	; 0x3f
 80041b4:	6813      	ldr	r3, [r2, #0]
 80041b6:	430b      	orrs	r3, r1
 80041b8:	6013      	str	r3, [r2, #0]
 80041ba:	f380 8810 	msr	PRIMASK, r0
 80041be:	bd10      	pop	{r4, pc}
 80041c0:	0018      	movs	r0, r3
 80041c2:	f7fc fb3d 	bl	8000840 <HAL_UART_TxCpltCallback>
 80041c6:	e7fa      	b.n	80041be <UART_DMATransmitCplt+0x3e>

080041c8 <HAL_UART_TxHalfCpltCallback>:
 80041c8:	4770      	bx	lr
 80041ca:	46c0      	nop			; (mov r8, r8)

080041cc <UART_DMATxHalfCplt>:
 80041cc:	b510      	push	{r4, lr}
 80041ce:	6a40      	ldr	r0, [r0, #36]	; 0x24
 80041d0:	f7ff fffa 	bl	80041c8 <HAL_UART_TxHalfCpltCallback>
 80041d4:	bd10      	pop	{r4, pc}
 80041d6:	46c0      	nop			; (mov r8, r8)

080041d8 <HAL_UART_RxCpltCallback>:
 80041d8:	4770      	bx	lr
 80041da:	46c0      	nop			; (mov r8, r8)

080041dc <UART_DMAError>:
 80041dc:	2280      	movs	r2, #128	; 0x80
 80041de:	b570      	push	{r4, r5, r6, lr}
 80041e0:	6a44      	ldr	r4, [r0, #36]	; 0x24
 80041e2:	6823      	ldr	r3, [r4, #0]
 80041e4:	6fe5      	ldr	r5, [r4, #124]	; 0x7c
 80041e6:	58a0      	ldr	r0, [r4, r2]
 80041e8:	6899      	ldr	r1, [r3, #8]
 80041ea:	420a      	tst	r2, r1
 80041ec:	d001      	beq.n	80041f2 <UART_DMAError+0x16>
 80041ee:	2d21      	cmp	r5, #33	; 0x21
 80041f0:	d00d      	beq.n	800420e <UART_DMAError+0x32>
 80041f2:	689b      	ldr	r3, [r3, #8]
 80041f4:	065b      	lsls	r3, r3, #25
 80041f6:	d501      	bpl.n	80041fc <UART_DMAError+0x20>
 80041f8:	2822      	cmp	r0, #34	; 0x22
 80041fa:	d01b      	beq.n	8004234 <UART_DMAError+0x58>
 80041fc:	2284      	movs	r2, #132	; 0x84
 80041fe:	2110      	movs	r1, #16
 8004200:	58a3      	ldr	r3, [r4, r2]
 8004202:	0020      	movs	r0, r4
 8004204:	430b      	orrs	r3, r1
 8004206:	50a3      	str	r3, [r4, r2]
 8004208:	f7fc fb2c 	bl	8000864 <HAL_UART_ErrorCallback>
 800420c:	bd70      	pop	{r4, r5, r6, pc}
 800420e:	2352      	movs	r3, #82	; 0x52
 8004210:	2200      	movs	r2, #0
 8004212:	52e2      	strh	r2, [r4, r3]
 8004214:	f3ef 8110 	mrs	r1, PRIMASK
 8004218:	3b51      	subs	r3, #81	; 0x51
 800421a:	f383 8810 	msr	PRIMASK, r3
 800421e:	6822      	ldr	r2, [r4, #0]
 8004220:	359f      	adds	r5, #159	; 0x9f
 8004222:	6813      	ldr	r3, [r2, #0]
 8004224:	43ab      	bics	r3, r5
 8004226:	6013      	str	r3, [r2, #0]
 8004228:	f381 8810 	msr	PRIMASK, r1
 800422c:	2320      	movs	r3, #32
 800422e:	67e3      	str	r3, [r4, #124]	; 0x7c
 8004230:	6823      	ldr	r3, [r4, #0]
 8004232:	e7de      	b.n	80041f2 <UART_DMAError+0x16>
 8004234:	235a      	movs	r3, #90	; 0x5a
 8004236:	2200      	movs	r2, #0
 8004238:	0020      	movs	r0, r4
 800423a:	52e2      	strh	r2, [r4, r3]
 800423c:	f7ff ff20 	bl	8004080 <UART_EndRxTransfer>
 8004240:	e7dc      	b.n	80041fc <UART_DMAError+0x20>
 8004242:	46c0      	nop			; (mov r8, r8)

08004244 <UART_DMAAbortOnError>:
 8004244:	2300      	movs	r3, #0
 8004246:	225a      	movs	r2, #90	; 0x5a
 8004248:	b510      	push	{r4, lr}
 800424a:	6a40      	ldr	r0, [r0, #36]	; 0x24
 800424c:	5283      	strh	r3, [r0, r2]
 800424e:	3a08      	subs	r2, #8
 8004250:	5283      	strh	r3, [r0, r2]
 8004252:	f7fc fb07 	bl	8000864 <HAL_UART_ErrorCallback>
 8004256:	bd10      	pop	{r4, pc}

08004258 <HAL_UART_IRQHandler>:
 8004258:	b5f8      	push	{r3, r4, r5, r6, r7, lr}
 800425a:	46ce      	mov	lr, r9
 800425c:	4647      	mov	r7, r8
 800425e:	6802      	ldr	r2, [r0, #0]
 8004260:	0004      	movs	r4, r0
 8004262:	69d3      	ldr	r3, [r2, #28]
 8004264:	48b0      	ldr	r0, [pc, #704]	; (8004528 <HAL_UART_IRQHandler+0x2d0>)
 8004266:	6811      	ldr	r1, [r2, #0]
 8004268:	b580      	push	{r7, lr}
 800426a:	6895      	ldr	r5, [r2, #8]
 800426c:	4203      	tst	r3, r0
 800426e:	d000      	beq.n	8004272 <HAL_UART_IRQHandler+0x1a>
 8004270:	e07e      	b.n	8004370 <HAL_UART_IRQHandler+0x118>
 8004272:	2020      	movs	r0, #32
 8004274:	4218      	tst	r0, r3
 8004276:	d002      	beq.n	800427e <HAL_UART_IRQHandler+0x26>
 8004278:	4208      	tst	r0, r1
 800427a:	d000      	beq.n	800427e <HAL_UART_IRQHandler+0x26>
 800427c:	e0ee      	b.n	800445c <HAL_UART_IRQHandler+0x204>
 800427e:	6e20      	ldr	r0, [r4, #96]	; 0x60
 8004280:	2801      	cmp	r0, #1
 8004282:	d01b      	beq.n	80042bc <HAL_UART_IRQHandler+0x64>
 8004284:	2080      	movs	r0, #128	; 0x80
 8004286:	0340      	lsls	r0, r0, #13
 8004288:	4203      	tst	r3, r0
 800428a:	d002      	beq.n	8004292 <HAL_UART_IRQHandler+0x3a>
 800428c:	026d      	lsls	r5, r5, #9
 800428e:	d500      	bpl.n	8004292 <HAL_UART_IRQHandler+0x3a>
 8004290:	e0e9      	b.n	8004466 <HAL_UART_IRQHandler+0x20e>
 8004292:	2280      	movs	r2, #128	; 0x80
 8004294:	421a      	tst	r2, r3
 8004296:	d109      	bne.n	80042ac <HAL_UART_IRQHandler+0x54>
 8004298:	2240      	movs	r2, #64	; 0x40
 800429a:	421a      	tst	r2, r3
 800429c:	d002      	beq.n	80042a4 <HAL_UART_IRQHandler+0x4c>
 800429e:	420a      	tst	r2, r1
 80042a0:	d000      	beq.n	80042a4 <HAL_UART_IRQHandler+0x4c>
 80042a2:	e0e9      	b.n	8004478 <HAL_UART_IRQHandler+0x220>
 80042a4:	bcc0      	pop	{r6, r7}
 80042a6:	46b9      	mov	r9, r7
 80042a8:	46b0      	mov	r8, r6
 80042aa:	bdf8      	pop	{r3, r4, r5, r6, r7, pc}
 80042ac:	420a      	tst	r2, r1
 80042ae:	d0f3      	beq.n	8004298 <HAL_UART_IRQHandler+0x40>
 80042b0:	6ee3      	ldr	r3, [r4, #108]	; 0x6c
 80042b2:	2b00      	cmp	r3, #0
 80042b4:	d0f6      	beq.n	80042a4 <HAL_UART_IRQHandler+0x4c>
 80042b6:	0020      	movs	r0, r4
 80042b8:	4798      	blx	r3
 80042ba:	e7f3      	b.n	80042a4 <HAL_UART_IRQHandler+0x4c>
 80042bc:	2610      	movs	r6, #16
 80042be:	421e      	tst	r6, r3
 80042c0:	d0e0      	beq.n	8004284 <HAL_UART_IRQHandler+0x2c>
 80042c2:	420e      	tst	r6, r1
 80042c4:	d0de      	beq.n	8004284 <HAL_UART_IRQHandler+0x2c>
 80042c6:	2340      	movs	r3, #64	; 0x40
 80042c8:	001d      	movs	r5, r3
 80042ca:	6216      	str	r6, [r2, #32]
 80042cc:	6892      	ldr	r2, [r2, #8]
 80042ce:	4015      	ands	r5, r2
 80042d0:	4213      	tst	r3, r2
 80042d2:	d100      	bne.n	80042d6 <HAL_UART_IRQHandler+0x7e>
 80042d4:	e0ea      	b.n	80044ac <HAL_UART_IRQHandler+0x254>
 80042d6:	6f65      	ldr	r5, [r4, #116]	; 0x74
 80042d8:	682a      	ldr	r2, [r5, #0]
 80042da:	6852      	ldr	r2, [r2, #4]
 80042dc:	b292      	uxth	r2, r2
 80042de:	2a00      	cmp	r2, #0
 80042e0:	d0e0      	beq.n	80042a4 <HAL_UART_IRQHandler+0x4c>
 80042e2:	2158      	movs	r1, #88	; 0x58
 80042e4:	4688      	mov	r8, r1
 80042e6:	5a61      	ldrh	r1, [r4, r1]
 80042e8:	4291      	cmp	r1, r2
 80042ea:	d9db      	bls.n	80042a4 <HAL_UART_IRQHandler+0x4c>
 80042ec:	275a      	movs	r7, #90	; 0x5a
 80042ee:	53e2      	strh	r2, [r4, r7]
 80042f0:	69aa      	ldr	r2, [r5, #24]
 80042f2:	2a20      	cmp	r2, #32
 80042f4:	d032      	beq.n	800435c <HAL_UART_IRQHandler+0x104>
 80042f6:	f3ef 8510 	mrs	r5, PRIMASK
 80042fa:	f380 8810 	msr	PRIMASK, r0
 80042fe:	6821      	ldr	r1, [r4, #0]
 8004300:	4f8a      	ldr	r7, [pc, #552]	; (800452c <HAL_UART_IRQHandler+0x2d4>)
 8004302:	680a      	ldr	r2, [r1, #0]
 8004304:	403a      	ands	r2, r7
 8004306:	600a      	str	r2, [r1, #0]
 8004308:	f385 8810 	msr	PRIMASK, r5
 800430c:	f3ef 8510 	mrs	r5, PRIMASK
 8004310:	f380 8810 	msr	PRIMASK, r0
 8004314:	6821      	ldr	r1, [r4, #0]
 8004316:	688a      	ldr	r2, [r1, #8]
 8004318:	4382      	bics	r2, r0
 800431a:	608a      	str	r2, [r1, #8]
 800431c:	f385 8810 	msr	PRIMASK, r5
 8004320:	f3ef 8510 	mrs	r5, PRIMASK
 8004324:	f380 8810 	msr	PRIMASK, r0
 8004328:	6821      	ldr	r1, [r4, #0]
 800432a:	688a      	ldr	r2, [r1, #8]
 800432c:	439a      	bics	r2, r3
 800432e:	608a      	str	r2, [r1, #8]
 8004330:	f385 8810 	msr	PRIMASK, r5
 8004334:	2220      	movs	r2, #32
 8004336:	3340      	adds	r3, #64	; 0x40
 8004338:	50e2      	str	r2, [r4, r3]
 800433a:	2300      	movs	r3, #0
 800433c:	6623      	str	r3, [r4, #96]	; 0x60
 800433e:	f3ef 8110 	mrs	r1, PRIMASK
 8004342:	f380 8810 	msr	PRIMASK, r0
 8004346:	6822      	ldr	r2, [r4, #0]
 8004348:	6813      	ldr	r3, [r2, #0]
 800434a:	43b3      	bics	r3, r6
 800434c:	6013      	str	r3, [r2, #0]
 800434e:	f381 8810 	msr	PRIMASK, r1
 8004352:	6f60      	ldr	r0, [r4, #116]	; 0x74
 8004354:	f7fd fc88 	bl	8001c68 <HAL_DMA_Abort>
 8004358:	4643      	mov	r3, r8
 800435a:	5ae1      	ldrh	r1, [r4, r3]
 800435c:	2302      	movs	r3, #2
 800435e:	6663      	str	r3, [r4, #100]	; 0x64
 8004360:	3358      	adds	r3, #88	; 0x58
 8004362:	5ae3      	ldrh	r3, [r4, r3]
 8004364:	0020      	movs	r0, r4
 8004366:	1ac9      	subs	r1, r1, r3
 8004368:	b289      	uxth	r1, r1
 800436a:	f7fc fa4d 	bl	8000808 <HAL_UARTEx_RxEventCallback>
 800436e:	e799      	b.n	80042a4 <HAL_UART_IRQHandler+0x4c>
 8004370:	2601      	movs	r6, #1
 8004372:	0037      	movs	r7, r6
 8004374:	486e      	ldr	r0, [pc, #440]	; (8004530 <HAL_UART_IRQHandler+0x2d8>)
 8004376:	402f      	ands	r7, r5
 8004378:	4008      	ands	r0, r1
 800437a:	4338      	orrs	r0, r7
 800437c:	d100      	bne.n	8004380 <HAL_UART_IRQHandler+0x128>
 800437e:	e77e      	b.n	800427e <HAL_UART_IRQHandler+0x26>
 8004380:	421e      	tst	r6, r3
 8004382:	d006      	beq.n	8004392 <HAL_UART_IRQHandler+0x13a>
 8004384:	05c8      	lsls	r0, r1, #23
 8004386:	d504      	bpl.n	8004392 <HAL_UART_IRQHandler+0x13a>
 8004388:	2584      	movs	r5, #132	; 0x84
 800438a:	6216      	str	r6, [r2, #32]
 800438c:	5960      	ldr	r0, [r4, r5]
 800438e:	4330      	orrs	r0, r6
 8004390:	5160      	str	r0, [r4, r5]
 8004392:	2002      	movs	r0, #2
 8004394:	4218      	tst	r0, r3
 8004396:	d05c      	beq.n	8004452 <HAL_UART_IRQHandler+0x1fa>
 8004398:	2f00      	cmp	r7, #0
 800439a:	d00e      	beq.n	80043ba <HAL_UART_IRQHandler+0x162>
 800439c:	2684      	movs	r6, #132	; 0x84
 800439e:	2504      	movs	r5, #4
 80043a0:	6210      	str	r0, [r2, #32]
 80043a2:	59a0      	ldr	r0, [r4, r6]
 80043a4:	4328      	orrs	r0, r5
 80043a6:	51a0      	str	r0, [r4, r6]
 80043a8:	421d      	tst	r5, r3
 80043aa:	d006      	beq.n	80043ba <HAL_UART_IRQHandler+0x162>
 80043ac:	2004      	movs	r0, #4
 80043ae:	2584      	movs	r5, #132	; 0x84
 80043b0:	2602      	movs	r6, #2
 80043b2:	6210      	str	r0, [r2, #32]
 80043b4:	5960      	ldr	r0, [r4, r5]
 80043b6:	4330      	orrs	r0, r6
 80043b8:	5160      	str	r0, [r4, r5]
 80043ba:	2508      	movs	r5, #8
 80043bc:	421d      	tst	r5, r3
 80043be:	d008      	beq.n	80043d2 <HAL_UART_IRQHandler+0x17a>
 80043c0:	2020      	movs	r0, #32
 80043c2:	4008      	ands	r0, r1
 80043c4:	4338      	orrs	r0, r7
 80043c6:	d004      	beq.n	80043d2 <HAL_UART_IRQHandler+0x17a>
 80043c8:	2684      	movs	r6, #132	; 0x84
 80043ca:	6215      	str	r5, [r2, #32]
 80043cc:	59a0      	ldr	r0, [r4, r6]
 80043ce:	4328      	orrs	r0, r5
 80043d0:	51a0      	str	r0, [r4, r6]
 80043d2:	2080      	movs	r0, #128	; 0x80
 80043d4:	0100      	lsls	r0, r0, #4
 80043d6:	4203      	tst	r3, r0
 80043d8:	d007      	beq.n	80043ea <HAL_UART_IRQHandler+0x192>
 80043da:	014d      	lsls	r5, r1, #5
 80043dc:	d505      	bpl.n	80043ea <HAL_UART_IRQHandler+0x192>
 80043de:	2584      	movs	r5, #132	; 0x84
 80043e0:	2620      	movs	r6, #32
 80043e2:	6210      	str	r0, [r2, #32]
 80043e4:	5960      	ldr	r0, [r4, r5]
 80043e6:	4330      	orrs	r0, r6
 80043e8:	5160      	str	r0, [r4, r5]
 80043ea:	2084      	movs	r0, #132	; 0x84
 80043ec:	5820      	ldr	r0, [r4, r0]
 80043ee:	2800      	cmp	r0, #0
 80043f0:	d100      	bne.n	80043f4 <HAL_UART_IRQHandler+0x19c>
 80043f2:	e757      	b.n	80042a4 <HAL_UART_IRQHandler+0x4c>
 80043f4:	2020      	movs	r0, #32
 80043f6:	4218      	tst	r0, r3
 80043f8:	d001      	beq.n	80043fe <HAL_UART_IRQHandler+0x1a6>
 80043fa:	4208      	tst	r0, r1
 80043fc:	d14f      	bne.n	800449e <HAL_UART_IRQHandler+0x246>
 80043fe:	2684      	movs	r6, #132	; 0x84
 8004400:	2740      	movs	r7, #64	; 0x40
 8004402:	2328      	movs	r3, #40	; 0x28
 8004404:	59a1      	ldr	r1, [r4, r6]
 8004406:	6895      	ldr	r5, [r2, #8]
 8004408:	400b      	ands	r3, r1
 800440a:	403d      	ands	r5, r7
 800440c:	0020      	movs	r0, r4
 800440e:	431d      	orrs	r5, r3
 8004410:	d100      	bne.n	8004414 <HAL_UART_IRQHandler+0x1bc>
 8004412:	e085      	b.n	8004520 <HAL_UART_IRQHandler+0x2c8>
 8004414:	f7ff fe34 	bl	8004080 <UART_EndRxTransfer>
 8004418:	6823      	ldr	r3, [r4, #0]
 800441a:	689b      	ldr	r3, [r3, #8]
 800441c:	421f      	tst	r7, r3
 800441e:	d027      	beq.n	8004470 <HAL_UART_IRQHandler+0x218>
 8004420:	f3ef 8110 	mrs	r1, PRIMASK
 8004424:	2301      	movs	r3, #1
 8004426:	f383 8810 	msr	PRIMASK, r3
 800442a:	6822      	ldr	r2, [r4, #0]
 800442c:	6893      	ldr	r3, [r2, #8]
 800442e:	43bb      	bics	r3, r7
 8004430:	6093      	str	r3, [r2, #8]
 8004432:	f381 8810 	msr	PRIMASK, r1
 8004436:	6f60      	ldr	r0, [r4, #116]	; 0x74
 8004438:	2800      	cmp	r0, #0
 800443a:	d019      	beq.n	8004470 <HAL_UART_IRQHandler+0x218>
 800443c:	4b3d      	ldr	r3, [pc, #244]	; (8004534 <HAL_UART_IRQHandler+0x2dc>)
 800443e:	6343      	str	r3, [r0, #52]	; 0x34
 8004440:	f7fd fc30 	bl	8001ca4 <HAL_DMA_Abort_IT>
 8004444:	2800      	cmp	r0, #0
 8004446:	d100      	bne.n	800444a <HAL_UART_IRQHandler+0x1f2>
 8004448:	e72c      	b.n	80042a4 <HAL_UART_IRQHandler+0x4c>
 800444a:	6f60      	ldr	r0, [r4, #116]	; 0x74
 800444c:	6b43      	ldr	r3, [r0, #52]	; 0x34
 800444e:	4798      	blx	r3
 8004450:	e728      	b.n	80042a4 <HAL_UART_IRQHandler+0x4c>
 8004452:	0758      	lsls	r0, r3, #29
 8004454:	d5b1      	bpl.n	80043ba <HAL_UART_IRQHandler+0x162>
 8004456:	2f00      	cmp	r7, #0
 8004458:	d1a8      	bne.n	80043ac <HAL_UART_IRQHandler+0x154>
 800445a:	e7ae      	b.n	80043ba <HAL_UART_IRQHandler+0x162>
 800445c:	6ea3      	ldr	r3, [r4, #104]	; 0x68
 800445e:	2b00      	cmp	r3, #0
 8004460:	d000      	beq.n	8004464 <HAL_UART_IRQHandler+0x20c>
 8004462:	e728      	b.n	80042b6 <HAL_UART_IRQHandler+0x5e>
 8004464:	e71e      	b.n	80042a4 <HAL_UART_IRQHandler+0x4c>
 8004466:	6210      	str	r0, [r2, #32]
 8004468:	0020      	movs	r0, r4
 800446a:	f000 fcf1 	bl	8004e50 <HAL_UARTEx_WakeupCallback>
 800446e:	e719      	b.n	80042a4 <HAL_UART_IRQHandler+0x4c>
 8004470:	0020      	movs	r0, r4
 8004472:	f7fc f9f7 	bl	8000864 <HAL_UART_ErrorCallback>
 8004476:	e715      	b.n	80042a4 <HAL_UART_IRQHandler+0x4c>
 8004478:	f3ef 8010 	mrs	r0, PRIMASK
 800447c:	2301      	movs	r3, #1
 800447e:	f383 8810 	msr	PRIMASK, r3
 8004482:	6821      	ldr	r1, [r4, #0]
 8004484:	680b      	ldr	r3, [r1, #0]
 8004486:	4393      	bics	r3, r2
 8004488:	600b      	str	r3, [r1, #0]
 800448a:	f380 8810 	msr	PRIMASK, r0
 800448e:	2320      	movs	r3, #32
 8004490:	67e3      	str	r3, [r4, #124]	; 0x7c
 8004492:	2300      	movs	r3, #0
 8004494:	0020      	movs	r0, r4
 8004496:	66e3      	str	r3, [r4, #108]	; 0x6c
 8004498:	f7fc f9d2 	bl	8000840 <HAL_UART_TxCpltCallback>
 800449c:	e702      	b.n	80042a4 <HAL_UART_IRQHandler+0x4c>
 800449e:	6ea3      	ldr	r3, [r4, #104]	; 0x68
 80044a0:	2b00      	cmp	r3, #0
 80044a2:	d0ac      	beq.n	80043fe <HAL_UART_IRQHandler+0x1a6>
 80044a4:	0020      	movs	r0, r4
 80044a6:	4798      	blx	r3
 80044a8:	6822      	ldr	r2, [r4, #0]
 80044aa:	e7a8      	b.n	80043fe <HAL_UART_IRQHandler+0x1a6>
 80044ac:	2358      	movs	r3, #88	; 0x58
 80044ae:	225a      	movs	r2, #90	; 0x5a
 80044b0:	5ae1      	ldrh	r1, [r4, r3]
 80044b2:	5aa3      	ldrh	r3, [r4, r2]
 80044b4:	5aa2      	ldrh	r2, [r4, r2]
 80044b6:	b29b      	uxth	r3, r3
 80044b8:	2a00      	cmp	r2, #0
 80044ba:	d100      	bne.n	80044be <HAL_UART_IRQHandler+0x266>
 80044bc:	e6f2      	b.n	80042a4 <HAL_UART_IRQHandler+0x4c>
 80044be:	1ac9      	subs	r1, r1, r3
 80044c0:	b289      	uxth	r1, r1
 80044c2:	2900      	cmp	r1, #0
 80044c4:	d100      	bne.n	80044c8 <HAL_UART_IRQHandler+0x270>
 80044c6:	e6ed      	b.n	80042a4 <HAL_UART_IRQHandler+0x4c>
 80044c8:	f3ef 8910 	mrs	r9, PRIMASK
 80044cc:	f380 8810 	msr	PRIMASK, r0
 80044d0:	6822      	ldr	r2, [r4, #0]
 80044d2:	6813      	ldr	r3, [r2, #0]
 80044d4:	4698      	mov	r8, r3
 80044d6:	4647      	mov	r7, r8
 80044d8:	4b17      	ldr	r3, [pc, #92]	; (8004538 <HAL_UART_IRQHandler+0x2e0>)
 80044da:	401f      	ands	r7, r3
 80044dc:	6017      	str	r7, [r2, #0]
 80044de:	f389 8810 	msr	PRIMASK, r9
 80044e2:	f3ef 8710 	mrs	r7, PRIMASK
 80044e6:	f380 8810 	msr	PRIMASK, r0
 80044ea:	6822      	ldr	r2, [r4, #0]
 80044ec:	6893      	ldr	r3, [r2, #8]
 80044ee:	4383      	bics	r3, r0
 80044f0:	6093      	str	r3, [r2, #8]
 80044f2:	f387 8810 	msr	PRIMASK, r7
 80044f6:	2380      	movs	r3, #128	; 0x80
 80044f8:	2220      	movs	r2, #32
 80044fa:	50e2      	str	r2, [r4, r3]
 80044fc:	6625      	str	r5, [r4, #96]	; 0x60
 80044fe:	66a5      	str	r5, [r4, #104]	; 0x68
 8004500:	f3ef 8510 	mrs	r5, PRIMASK
 8004504:	f380 8810 	msr	PRIMASK, r0
 8004508:	6822      	ldr	r2, [r4, #0]
 800450a:	6813      	ldr	r3, [r2, #0]
 800450c:	43b3      	bics	r3, r6
 800450e:	6013      	str	r3, [r2, #0]
 8004510:	f385 8810 	msr	PRIMASK, r5
 8004514:	2302      	movs	r3, #2
 8004516:	0020      	movs	r0, r4
 8004518:	6663      	str	r3, [r4, #100]	; 0x64
 800451a:	f7fc f975 	bl	8000808 <HAL_UARTEx_RxEventCallback>
 800451e:	e6c1      	b.n	80042a4 <HAL_UART_IRQHandler+0x4c>
 8004520:	f7fc f9a0 	bl	8000864 <HAL_UART_ErrorCallback>
 8004524:	51a5      	str	r5, [r4, r6]
 8004526:	e6bd      	b.n	80042a4 <HAL_UART_IRQHandler+0x4c>
 8004528:	0000080f 	.word	0x0000080f
 800452c:	fffffeff 	.word	0xfffffeff
 8004530:	04000120 	.word	0x04000120
 8004534:	08004245 	.word	0x08004245
 8004538:	fffffedf 	.word	0xfffffedf

0800453c <UART_RxISR_8BIT>:
 800453c:	235c      	movs	r3, #92	; 0x5c
 800453e:	5ac2      	ldrh	r2, [r0, r3]
 8004540:	3324      	adds	r3, #36	; 0x24
 8004542:	58c1      	ldr	r1, [r0, r3]
 8004544:	b570      	push	{r4, r5, r6, lr}
 8004546:	2922      	cmp	r1, #34	; 0x22
 8004548:	d005      	beq.n	8004556 <UART_RxISR_8BIT+0x1a>
 800454a:	2108      	movs	r1, #8
 800454c:	6802      	ldr	r2, [r0, #0]
 800454e:	6993      	ldr	r3, [r2, #24]
 8004550:	430b      	orrs	r3, r1
 8004552:	6193      	str	r3, [r2, #24]
 8004554:	bd70      	pop	{r4, r5, r6, pc}
 8004556:	6801      	ldr	r1, [r0, #0]
 8004558:	8c8c      	ldrh	r4, [r1, #36]	; 0x24
 800455a:	6d41      	ldr	r1, [r0, #84]	; 0x54
 800455c:	4022      	ands	r2, r4
 800455e:	700a      	strb	r2, [r1, #0]
 8004560:	215a      	movs	r1, #90	; 0x5a
 8004562:	6d42      	ldr	r2, [r0, #84]	; 0x54
 8004564:	3201      	adds	r2, #1
 8004566:	6542      	str	r2, [r0, #84]	; 0x54
 8004568:	5a42      	ldrh	r2, [r0, r1]
 800456a:	3a01      	subs	r2, #1
 800456c:	b292      	uxth	r2, r2
 800456e:	5242      	strh	r2, [r0, r1]
 8004570:	5a42      	ldrh	r2, [r0, r1]
 8004572:	b291      	uxth	r1, r2
 8004574:	2a00      	cmp	r2, #0
 8004576:	d1ed      	bne.n	8004554 <UART_RxISR_8BIT+0x18>
 8004578:	f3ef 8c10 	mrs	ip, PRIMASK
 800457c:	3201      	adds	r2, #1
 800457e:	f382 8810 	msr	PRIMASK, r2
 8004582:	6805      	ldr	r5, [r0, #0]
 8004584:	4e1f      	ldr	r6, [pc, #124]	; (8004604 <UART_RxISR_8BIT+0xc8>)
 8004586:	682c      	ldr	r4, [r5, #0]
 8004588:	4034      	ands	r4, r6
 800458a:	602c      	str	r4, [r5, #0]
 800458c:	f38c 8810 	msr	PRIMASK, ip
 8004590:	f3ef 8c10 	mrs	ip, PRIMASK
 8004594:	f382 8810 	msr	PRIMASK, r2
 8004598:	6805      	ldr	r5, [r0, #0]
 800459a:	68ac      	ldr	r4, [r5, #8]
 800459c:	4394      	bics	r4, r2
 800459e:	60ac      	str	r4, [r5, #8]
 80045a0:	f38c 8810 	msr	PRIMASK, ip
 80045a4:	2420      	movs	r4, #32
 80045a6:	50c4      	str	r4, [r0, r3]
 80045a8:	6803      	ldr	r3, [r0, #0]
 80045aa:	6641      	str	r1, [r0, #100]	; 0x64
 80045ac:	685b      	ldr	r3, [r3, #4]
 80045ae:	6681      	str	r1, [r0, #104]	; 0x68
 80045b0:	021b      	lsls	r3, r3, #8
 80045b2:	d50a      	bpl.n	80045ca <UART_RxISR_8BIT+0x8e>
 80045b4:	f3ef 8110 	mrs	r1, PRIMASK
 80045b8:	f382 8810 	msr	PRIMASK, r2
 80045bc:	6802      	ldr	r2, [r0, #0]
 80045be:	4c12      	ldr	r4, [pc, #72]	; (8004608 <UART_RxISR_8BIT+0xcc>)
 80045c0:	6813      	ldr	r3, [r2, #0]
 80045c2:	4023      	ands	r3, r4
 80045c4:	6013      	str	r3, [r2, #0]
 80045c6:	f381 8810 	msr	PRIMASK, r1
 80045ca:	6e03      	ldr	r3, [r0, #96]	; 0x60
 80045cc:	2b01      	cmp	r3, #1
 80045ce:	d116      	bne.n	80045fe <UART_RxISR_8BIT+0xc2>
 80045d0:	2200      	movs	r2, #0
 80045d2:	6602      	str	r2, [r0, #96]	; 0x60
 80045d4:	f3ef 8410 	mrs	r4, PRIMASK
 80045d8:	f383 8810 	msr	PRIMASK, r3
 80045dc:	6801      	ldr	r1, [r0, #0]
 80045de:	3210      	adds	r2, #16
 80045e0:	680b      	ldr	r3, [r1, #0]
 80045e2:	4393      	bics	r3, r2
 80045e4:	600b      	str	r3, [r1, #0]
 80045e6:	f384 8810 	msr	PRIMASK, r4
 80045ea:	6803      	ldr	r3, [r0, #0]
 80045ec:	69d9      	ldr	r1, [r3, #28]
 80045ee:	420a      	tst	r2, r1
 80045f0:	d000      	beq.n	80045f4 <UART_RxISR_8BIT+0xb8>
 80045f2:	621a      	str	r2, [r3, #32]
 80045f4:	2358      	movs	r3, #88	; 0x58
 80045f6:	5ac1      	ldrh	r1, [r0, r3]
 80045f8:	f7fc f906 	bl	8000808 <HAL_UARTEx_RxEventCallback>
 80045fc:	e7aa      	b.n	8004554 <UART_RxISR_8BIT+0x18>
 80045fe:	f7ff fdeb 	bl	80041d8 <HAL_UART_RxCpltCallback>
 8004602:	e7a7      	b.n	8004554 <UART_RxISR_8BIT+0x18>
 8004604:	fffffedf 	.word	0xfffffedf
 8004608:	fbffffff 	.word	0xfbffffff

0800460c <UART_RxISR_16BIT>:
 800460c:	235c      	movs	r3, #92	; 0x5c
 800460e:	b570      	push	{r4, r5, r6, lr}
 8004610:	5ac4      	ldrh	r4, [r0, r3]
 8004612:	3324      	adds	r3, #36	; 0x24
 8004614:	58c2      	ldr	r2, [r0, r3]
 8004616:	2a22      	cmp	r2, #34	; 0x22
 8004618:	d005      	beq.n	8004626 <UART_RxISR_16BIT+0x1a>
 800461a:	2108      	movs	r1, #8
 800461c:	6802      	ldr	r2, [r0, #0]
 800461e:	6993      	ldr	r3, [r2, #24]
 8004620:	430b      	orrs	r3, r1
 8004622:	6193      	str	r3, [r2, #24]
 8004624:	bd70      	pop	{r4, r5, r6, pc}
 8004626:	6802      	ldr	r2, [r0, #0]
 8004628:	8c91      	ldrh	r1, [r2, #36]	; 0x24
 800462a:	6d42      	ldr	r2, [r0, #84]	; 0x54
 800462c:	4021      	ands	r1, r4
 800462e:	8011      	strh	r1, [r2, #0]
 8004630:	215a      	movs	r1, #90	; 0x5a
 8004632:	3202      	adds	r2, #2
 8004634:	6542      	str	r2, [r0, #84]	; 0x54
 8004636:	5a42      	ldrh	r2, [r0, r1]
 8004638:	3a01      	subs	r2, #1
 800463a:	b292      	uxth	r2, r2
 800463c:	5242      	strh	r2, [r0, r1]
 800463e:	5a42      	ldrh	r2, [r0, r1]
 8004640:	b291      	uxth	r1, r2
 8004642:	2a00      	cmp	r2, #0
 8004644:	d1ee      	bne.n	8004624 <UART_RxISR_16BIT+0x18>
 8004646:	f3ef 8c10 	mrs	ip, PRIMASK
 800464a:	3201      	adds	r2, #1
 800464c:	f382 8810 	msr	PRIMASK, r2
 8004650:	6805      	ldr	r5, [r0, #0]
 8004652:	4e20      	ldr	r6, [pc, #128]	; (80046d4 <UART_RxISR_16BIT+0xc8>)
 8004654:	682c      	ldr	r4, [r5, #0]
 8004656:	4034      	ands	r4, r6
 8004658:	602c      	str	r4, [r5, #0]
 800465a:	f38c 8810 	msr	PRIMASK, ip
 800465e:	f3ef 8c10 	mrs	ip, PRIMASK
 8004662:	f382 8810 	msr	PRIMASK, r2
 8004666:	6805      	ldr	r5, [r0, #0]
 8004668:	68ac      	ldr	r4, [r5, #8]
 800466a:	4394      	bics	r4, r2
 800466c:	60ac      	str	r4, [r5, #8]
 800466e:	f38c 8810 	msr	PRIMASK, ip
 8004672:	2420      	movs	r4, #32
 8004674:	50c4      	str	r4, [r0, r3]
 8004676:	6803      	ldr	r3, [r0, #0]
 8004678:	6641      	str	r1, [r0, #100]	; 0x64
 800467a:	685b      	ldr	r3, [r3, #4]
 800467c:	6681      	str	r1, [r0, #104]	; 0x68
 800467e:	021b      	lsls	r3, r3, #8
 8004680:	d50a      	bpl.n	8004698 <UART_RxISR_16BIT+0x8c>
 8004682:	f3ef 8110 	mrs	r1, PRIMASK
 8004686:	f382 8810 	msr	PRIMASK, r2
 800468a:	6802      	ldr	r2, [r0, #0]
 800468c:	4c12      	ldr	r4, [pc, #72]	; (80046d8 <UART_RxISR_16BIT+0xcc>)
 800468e:	6813      	ldr	r3, [r2, #0]
 8004690:	4023      	ands	r3, r4
 8004692:	6013      	str	r3, [r2, #0]
 8004694:	f381 8810 	msr	PRIMASK, r1
 8004698:	6e03      	ldr	r3, [r0, #96]	; 0x60
 800469a:	2b01      	cmp	r3, #1
 800469c:	d116      	bne.n	80046cc <UART_RxISR_16BIT+0xc0>
 800469e:	2200      	movs	r2, #0
 80046a0:	6602      	str	r2, [r0, #96]	; 0x60
 80046a2:	f3ef 8410 	mrs	r4, PRIMASK
 80046a6:	f383 8810 	msr	PRIMASK, r3
 80046aa:	6801      	ldr	r1, [r0, #0]
 80046ac:	3210      	adds	r2, #16
 80046ae:	680b      	ldr	r3, [r1, #0]
 80046b0:	4393      	bics	r3, r2
 80046b2:	600b      	str	r3, [r1, #0]
 80046b4:	f384 8810 	msr	PRIMASK, r4
 80046b8:	6803      	ldr	r3, [r0, #0]
 80046ba:	69d9      	ldr	r1, [r3, #28]
 80046bc:	420a      	tst	r2, r1
 80046be:	d000      	beq.n	80046c2 <UART_RxISR_16BIT+0xb6>
 80046c0:	621a      	str	r2, [r3, #32]
 80046c2:	2358      	movs	r3, #88	; 0x58
 80046c4:	5ac1      	ldrh	r1, [r0, r3]
 80046c6:	f7fc f89f 	bl	8000808 <HAL_UARTEx_RxEventCallback>
 80046ca:	e7ab      	b.n	8004624 <UART_RxISR_16BIT+0x18>
 80046cc:	f7ff fd84 	bl	80041d8 <HAL_UART_RxCpltCallback>
 80046d0:	e7a8      	b.n	8004624 <UART_RxISR_16BIT+0x18>
 80046d2:	46c0      	nop			; (mov r8, r8)
 80046d4:	fffffedf 	.word	0xfffffedf
 80046d8:	fbffffff 	.word	0xfbffffff

080046dc <HAL_MultiProcessor_EnterMuteMode>:
 80046dc:	2104      	movs	r1, #4
 80046de:	6802      	ldr	r2, [r0, #0]
 80046e0:	6993      	ldr	r3, [r2, #24]
 80046e2:	430b      	orrs	r3, r1
 80046e4:	6193      	str	r3, [r2, #24]
 80046e6:	4770      	bx	lr

080046e8 <UART_SetConfig>:
 80046e8:	b570      	push	{r4, r5, r6, lr}
 80046ea:	0004      	movs	r4, r0
 80046ec:	6925      	ldr	r5, [r4, #16]
 80046ee:	68a3      	ldr	r3, [r4, #8]
 80046f0:	6802      	ldr	r2, [r0, #0]
 80046f2:	432b      	orrs	r3, r5
 80046f4:	6965      	ldr	r5, [r4, #20]
 80046f6:	69c1      	ldr	r1, [r0, #28]
 80046f8:	432b      	orrs	r3, r5
 80046fa:	6810      	ldr	r0, [r2, #0]
 80046fc:	4d39      	ldr	r5, [pc, #228]	; (80047e4 <UART_SetConfig+0xfc>)
 80046fe:	430b      	orrs	r3, r1
 8004700:	4028      	ands	r0, r5
 8004702:	4303      	orrs	r3, r0
 8004704:	6013      	str	r3, [r2, #0]
 8004706:	6853      	ldr	r3, [r2, #4]
 8004708:	4837      	ldr	r0, [pc, #220]	; (80047e8 <UART_SetConfig+0x100>)
 800470a:	6a25      	ldr	r5, [r4, #32]
 800470c:	4003      	ands	r3, r0
 800470e:	68e0      	ldr	r0, [r4, #12]
 8004710:	4303      	orrs	r3, r0
 8004712:	6053      	str	r3, [r2, #4]
 8004714:	69a3      	ldr	r3, [r4, #24]
 8004716:	6890      	ldr	r0, [r2, #8]
 8004718:	432b      	orrs	r3, r5
 800471a:	4d34      	ldr	r5, [pc, #208]	; (80047ec <UART_SetConfig+0x104>)
 800471c:	4028      	ands	r0, r5
 800471e:	4303      	orrs	r3, r0
 8004720:	6093      	str	r3, [r2, #8]
 8004722:	4b33      	ldr	r3, [pc, #204]	; (80047f0 <UART_SetConfig+0x108>)
 8004724:	6b1a      	ldr	r2, [r3, #48]	; 0x30
 8004726:	2303      	movs	r3, #3
 8004728:	4013      	ands	r3, r2
 800472a:	3b01      	subs	r3, #1
 800472c:	2b02      	cmp	r3, #2
 800472e:	d909      	bls.n	8004744 <UART_SetConfig+0x5c>
 8004730:	2380      	movs	r3, #128	; 0x80
 8004732:	021b      	lsls	r3, r3, #8
 8004734:	4299      	cmp	r1, r3
 8004736:	d029      	beq.n	800478c <UART_SetConfig+0xa4>
 8004738:	f7fe fb36 	bl	8002da8 <HAL_RCC_GetPCLK1Freq>
 800473c:	2800      	cmp	r0, #0
 800473e:	d10f      	bne.n	8004760 <UART_SetConfig+0x78>
 8004740:	2000      	movs	r0, #0
 8004742:	e018      	b.n	8004776 <UART_SetConfig+0x8e>
 8004744:	2080      	movs	r0, #128	; 0x80
 8004746:	4a2b      	ldr	r2, [pc, #172]	; (80047f4 <UART_SetConfig+0x10c>)
 8004748:	0200      	lsls	r0, r0, #8
 800474a:	5cd3      	ldrb	r3, [r2, r3]
 800474c:	4281      	cmp	r1, r0
 800474e:	d035      	beq.n	80047bc <UART_SetConfig+0xd4>
 8004750:	2b04      	cmp	r3, #4
 8004752:	d041      	beq.n	80047d8 <UART_SetConfig+0xf0>
 8004754:	d813      	bhi.n	800477e <UART_SetConfig+0x96>
 8004756:	2b00      	cmp	r3, #0
 8004758:	d0ee      	beq.n	8004738 <UART_SetConfig+0x50>
 800475a:	2b02      	cmp	r3, #2
 800475c:	d10a      	bne.n	8004774 <UART_SetConfig+0x8c>
 800475e:	4826      	ldr	r0, [pc, #152]	; (80047f8 <UART_SetConfig+0x110>)
 8004760:	6861      	ldr	r1, [r4, #4]
 8004762:	084b      	lsrs	r3, r1, #1
 8004764:	1818      	adds	r0, r3, r0
 8004766:	f7fb fccf 	bl	8000108 <__udivsi3>
 800476a:	0002      	movs	r2, r0
 800476c:	4b23      	ldr	r3, [pc, #140]	; (80047fc <UART_SetConfig+0x114>)
 800476e:	3a10      	subs	r2, #16
 8004770:	429a      	cmp	r2, r3
 8004772:	d907      	bls.n	8004784 <UART_SetConfig+0x9c>
 8004774:	2001      	movs	r0, #1
 8004776:	2300      	movs	r3, #0
 8004778:	66a3      	str	r3, [r4, #104]	; 0x68
 800477a:	66e3      	str	r3, [r4, #108]	; 0x6c
 800477c:	bd70      	pop	{r4, r5, r6, pc}
 800477e:	2b08      	cmp	r3, #8
 8004780:	d0ee      	beq.n	8004760 <UART_SetConfig+0x78>
 8004782:	e7f7      	b.n	8004774 <UART_SetConfig+0x8c>
 8004784:	6823      	ldr	r3, [r4, #0]
 8004786:	60d8      	str	r0, [r3, #12]
 8004788:	2000      	movs	r0, #0
 800478a:	e7f4      	b.n	8004776 <UART_SetConfig+0x8e>
 800478c:	f7fe fb0c 	bl	8002da8 <HAL_RCC_GetPCLK1Freq>
 8004790:	2800      	cmp	r0, #0
 8004792:	d0d5      	beq.n	8004740 <UART_SetConfig+0x58>
 8004794:	0043      	lsls	r3, r0, #1
 8004796:	6861      	ldr	r1, [r4, #4]
 8004798:	0848      	lsrs	r0, r1, #1
 800479a:	18c0      	adds	r0, r0, r3
 800479c:	f7fb fcb4 	bl	8000108 <__udivsi3>
 80047a0:	0002      	movs	r2, r0
 80047a2:	4b16      	ldr	r3, [pc, #88]	; (80047fc <UART_SetConfig+0x114>)
 80047a4:	3a10      	subs	r2, #16
 80047a6:	429a      	cmp	r2, r3
 80047a8:	d8e4      	bhi.n	8004774 <UART_SetConfig+0x8c>
 80047aa:	4b15      	ldr	r3, [pc, #84]	; (8004800 <UART_SetConfig+0x118>)
 80047ac:	6822      	ldr	r2, [r4, #0]
 80047ae:	4003      	ands	r3, r0
 80047b0:	0700      	lsls	r0, r0, #28
 80047b2:	0f40      	lsrs	r0, r0, #29
 80047b4:	4303      	orrs	r3, r0
 80047b6:	60d3      	str	r3, [r2, #12]
 80047b8:	2000      	movs	r0, #0
 80047ba:	e7dc      	b.n	8004776 <UART_SetConfig+0x8e>
 80047bc:	2b04      	cmp	r3, #4
 80047be:	d00e      	beq.n	80047de <UART_SetConfig+0xf6>
 80047c0:	d805      	bhi.n	80047ce <UART_SetConfig+0xe6>
 80047c2:	2b00      	cmp	r3, #0
 80047c4:	d0e2      	beq.n	800478c <UART_SetConfig+0xa4>
 80047c6:	2b02      	cmp	r3, #2
 80047c8:	d1d4      	bne.n	8004774 <UART_SetConfig+0x8c>
 80047ca:	4b0e      	ldr	r3, [pc, #56]	; (8004804 <UART_SetConfig+0x11c>)
 80047cc:	e7e3      	b.n	8004796 <UART_SetConfig+0xae>
 80047ce:	2b08      	cmp	r3, #8
 80047d0:	d1d0      	bne.n	8004774 <UART_SetConfig+0x8c>
 80047d2:	2380      	movs	r3, #128	; 0x80
 80047d4:	025b      	lsls	r3, r3, #9
 80047d6:	e7de      	b.n	8004796 <UART_SetConfig+0xae>
 80047d8:	f7fe fa30 	bl	8002c3c <HAL_RCC_GetSysClockFreq>
 80047dc:	e7ae      	b.n	800473c <UART_SetConfig+0x54>
 80047de:	f7fe fa2d 	bl	8002c3c <HAL_RCC_GetSysClockFreq>
 80047e2:	e7d5      	b.n	8004790 <UART_SetConfig+0xa8>
 80047e4:	ffff69f3 	.word	0xffff69f3
 80047e8:	ffffcfff 	.word	0xffffcfff
 80047ec:	fffff4ff 	.word	0xfffff4ff
 80047f0:	40021000 	.word	0x40021000
 80047f4:	08005af4 	.word	0x08005af4
 80047f8:	007a1200 	.word	0x007a1200
 80047fc:	0000ffef 	.word	0x0000ffef
 8004800:	0000fff0 	.word	0x0000fff0
 8004804:	00f42400 	.word	0x00f42400

08004808 <UART_AdvFeatureConfig>:
 8004808:	6a43      	ldr	r3, [r0, #36]	; 0x24
 800480a:	b530      	push	{r4, r5, lr}
 800480c:	07da      	lsls	r2, r3, #31
 800480e:	d506      	bpl.n	800481e <UART_AdvFeatureConfig+0x16>
 8004810:	6801      	ldr	r1, [r0, #0]
 8004812:	4c28      	ldr	r4, [pc, #160]	; (80048b4 <UART_AdvFeatureConfig+0xac>)
 8004814:	684a      	ldr	r2, [r1, #4]
 8004816:	4022      	ands	r2, r4
 8004818:	6a84      	ldr	r4, [r0, #40]	; 0x28
 800481a:	4322      	orrs	r2, r4
 800481c:	604a      	str	r2, [r1, #4]
 800481e:	079a      	lsls	r2, r3, #30
 8004820:	d506      	bpl.n	8004830 <UART_AdvFeatureConfig+0x28>
 8004822:	6801      	ldr	r1, [r0, #0]
 8004824:	4c24      	ldr	r4, [pc, #144]	; (80048b8 <UART_AdvFeatureConfig+0xb0>)
 8004826:	684a      	ldr	r2, [r1, #4]
 8004828:	4022      	ands	r2, r4
 800482a:	6ac4      	ldr	r4, [r0, #44]	; 0x2c
 800482c:	4322      	orrs	r2, r4
 800482e:	604a      	str	r2, [r1, #4]
 8004830:	075a      	lsls	r2, r3, #29
 8004832:	d506      	bpl.n	8004842 <UART_AdvFeatureConfig+0x3a>
 8004834:	6801      	ldr	r1, [r0, #0]
 8004836:	4c21      	ldr	r4, [pc, #132]	; (80048bc <UART_AdvFeatureConfig+0xb4>)
 8004838:	684a      	ldr	r2, [r1, #4]
 800483a:	4022      	ands	r2, r4
 800483c:	6b04      	ldr	r4, [r0, #48]	; 0x30
 800483e:	4322      	orrs	r2, r4
 8004840:	604a      	str	r2, [r1, #4]
 8004842:	071a      	lsls	r2, r3, #28
 8004844:	d506      	bpl.n	8004854 <UART_AdvFeatureConfig+0x4c>
 8004846:	6801      	ldr	r1, [r0, #0]
 8004848:	4c1d      	ldr	r4, [pc, #116]	; (80048c0 <UART_AdvFeatureConfig+0xb8>)
 800484a:	684a      	ldr	r2, [r1, #4]
 800484c:	4022      	ands	r2, r4
 800484e:	6b44      	ldr	r4, [r0, #52]	; 0x34
 8004850:	4322      	orrs	r2, r4
 8004852:	604a      	str	r2, [r1, #4]
 8004854:	06da      	lsls	r2, r3, #27
 8004856:	d506      	bpl.n	8004866 <UART_AdvFeatureConfig+0x5e>
 8004858:	6801      	ldr	r1, [r0, #0]
 800485a:	4c1a      	ldr	r4, [pc, #104]	; (80048c4 <UART_AdvFeatureConfig+0xbc>)
 800485c:	688a      	ldr	r2, [r1, #8]
 800485e:	4022      	ands	r2, r4
 8004860:	6b84      	ldr	r4, [r0, #56]	; 0x38
 8004862:	4322      	orrs	r2, r4
 8004864:	608a      	str	r2, [r1, #8]
 8004866:	069a      	lsls	r2, r3, #26
 8004868:	d506      	bpl.n	8004878 <UART_AdvFeatureConfig+0x70>
 800486a:	6801      	ldr	r1, [r0, #0]
 800486c:	4c16      	ldr	r4, [pc, #88]	; (80048c8 <UART_AdvFeatureConfig+0xc0>)
 800486e:	688a      	ldr	r2, [r1, #8]
 8004870:	4022      	ands	r2, r4
 8004872:	6bc4      	ldr	r4, [r0, #60]	; 0x3c
 8004874:	4322      	orrs	r2, r4
 8004876:	608a      	str	r2, [r1, #8]
 8004878:	065a      	lsls	r2, r3, #25
 800487a:	d50a      	bpl.n	8004892 <UART_AdvFeatureConfig+0x8a>
 800487c:	6801      	ldr	r1, [r0, #0]
 800487e:	4d13      	ldr	r5, [pc, #76]	; (80048cc <UART_AdvFeatureConfig+0xc4>)
 8004880:	684a      	ldr	r2, [r1, #4]
 8004882:	6c04      	ldr	r4, [r0, #64]	; 0x40
 8004884:	402a      	ands	r2, r5
 8004886:	4322      	orrs	r2, r4
 8004888:	604a      	str	r2, [r1, #4]
 800488a:	2280      	movs	r2, #128	; 0x80
 800488c:	0352      	lsls	r2, r2, #13
 800488e:	4294      	cmp	r4, r2
 8004890:	d009      	beq.n	80048a6 <UART_AdvFeatureConfig+0x9e>
 8004892:	061b      	lsls	r3, r3, #24
 8004894:	d506      	bpl.n	80048a4 <UART_AdvFeatureConfig+0x9c>
 8004896:	6802      	ldr	r2, [r0, #0]
 8004898:	490d      	ldr	r1, [pc, #52]	; (80048d0 <UART_AdvFeatureConfig+0xc8>)
 800489a:	6853      	ldr	r3, [r2, #4]
 800489c:	400b      	ands	r3, r1
 800489e:	6c81      	ldr	r1, [r0, #72]	; 0x48
 80048a0:	430b      	orrs	r3, r1
 80048a2:	6053      	str	r3, [r2, #4]
 80048a4:	bd30      	pop	{r4, r5, pc}
 80048a6:	684a      	ldr	r2, [r1, #4]
 80048a8:	4c0a      	ldr	r4, [pc, #40]	; (80048d4 <UART_AdvFeatureConfig+0xcc>)
 80048aa:	4022      	ands	r2, r4
 80048ac:	6c44      	ldr	r4, [r0, #68]	; 0x44
 80048ae:	4322      	orrs	r2, r4
 80048b0:	604a      	str	r2, [r1, #4]
 80048b2:	e7ee      	b.n	8004892 <UART_AdvFeatureConfig+0x8a>
 80048b4:	fffdffff 	.word	0xfffdffff
 80048b8:	fffeffff 	.word	0xfffeffff
 80048bc:	fffbffff 	.word	0xfffbffff
 80048c0:	ffff7fff 	.word	0xffff7fff
 80048c4:	ffffefff 	.word	0xffffefff
 80048c8:	ffffdfff 	.word	0xffffdfff
 80048cc:	ffefffff 	.word	0xffefffff
 80048d0:	fff7ffff 	.word	0xfff7ffff
 80048d4:	ff9fffff 	.word	0xff9fffff

080048d8 <UART_WaitOnFlagUntilTimeout>:
 80048d8:	b5f0      	push	{r4, r5, r6, r7, lr}
 80048da:	4645      	mov	r5, r8
 80048dc:	4698      	mov	r8, r3
 80048de:	2304      	movs	r3, #4
 80048e0:	4657      	mov	r7, sl
 80048e2:	464e      	mov	r6, r9
 80048e4:	46de      	mov	lr, fp
 80048e6:	469a      	mov	sl, r3
 80048e8:	3304      	adds	r3, #4
 80048ea:	4699      	mov	r9, r3
 80048ec:	2380      	movs	r3, #128	; 0x80
 80048ee:	b5e0      	push	{r5, r6, r7, lr}
 80048f0:	011b      	lsls	r3, r3, #4
 80048f2:	b083      	sub	sp, #12
 80048f4:	0015      	movs	r5, r2
 80048f6:	0007      	movs	r7, r0
 80048f8:	000c      	movs	r4, r1
 80048fa:	469b      	mov	fp, r3
 80048fc:	9e0c      	ldr	r6, [sp, #48]	; 0x30
 80048fe:	6802      	ldr	r2, [r0, #0]
 8004900:	e001      	b.n	8004906 <UART_WaitOnFlagUntilTimeout+0x2e>
 8004902:	1c73      	adds	r3, r6, #1
 8004904:	d10e      	bne.n	8004924 <UART_WaitOnFlagUntilTimeout+0x4c>
 8004906:	69d3      	ldr	r3, [r2, #28]
 8004908:	4023      	ands	r3, r4
 800490a:	1b1b      	subs	r3, r3, r4
 800490c:	4259      	negs	r1, r3
 800490e:	414b      	adcs	r3, r1
 8004910:	42ab      	cmp	r3, r5
 8004912:	d0f6      	beq.n	8004902 <UART_WaitOnFlagUntilTimeout+0x2a>
 8004914:	2000      	movs	r0, #0
 8004916:	b003      	add	sp, #12
 8004918:	bcf0      	pop	{r4, r5, r6, r7}
 800491a:	46bb      	mov	fp, r7
 800491c:	46b2      	mov	sl, r6
 800491e:	46a9      	mov	r9, r5
 8004920:	46a0      	mov	r8, r4
 8004922:	bdf0      	pop	{r4, r5, r6, r7, pc}
 8004924:	f7fc fd9c 	bl	8001460 <HAL_GetTick>
 8004928:	4643      	mov	r3, r8
 800492a:	1ac0      	subs	r0, r0, r3
 800492c:	42b0      	cmp	r0, r6
 800492e:	d81d      	bhi.n	800496c <UART_WaitOnFlagUntilTimeout+0x94>
 8004930:	2e00      	cmp	r6, #0
 8004932:	d01b      	beq.n	800496c <UART_WaitOnFlagUntilTimeout+0x94>
 8004934:	4651      	mov	r1, sl
 8004936:	683a      	ldr	r2, [r7, #0]
 8004938:	6813      	ldr	r3, [r2, #0]
 800493a:	4219      	tst	r1, r3
 800493c:	d0e3      	beq.n	8004906 <UART_WaitOnFlagUntilTimeout+0x2e>
 800493e:	4649      	mov	r1, r9
 8004940:	69d3      	ldr	r3, [r2, #28]
 8004942:	4019      	ands	r1, r3
 8004944:	9101      	str	r1, [sp, #4]
 8004946:	4649      	mov	r1, r9
 8004948:	4219      	tst	r1, r3
 800494a:	d111      	bne.n	8004970 <UART_WaitOnFlagUntilTimeout+0x98>
 800494c:	4659      	mov	r1, fp
 800494e:	69d3      	ldr	r3, [r2, #28]
 8004950:	420b      	tst	r3, r1
 8004952:	d0d8      	beq.n	8004906 <UART_WaitOnFlagUntilTimeout+0x2e>
 8004954:	0038      	movs	r0, r7
 8004956:	6211      	str	r1, [r2, #32]
 8004958:	f7ff fb92 	bl	8004080 <UART_EndRxTransfer>
 800495c:	2384      	movs	r3, #132	; 0x84
 800495e:	2220      	movs	r2, #32
 8004960:	50fa      	str	r2, [r7, r3]
 8004962:	9a01      	ldr	r2, [sp, #4]
 8004964:	3b0c      	subs	r3, #12
 8004966:	2003      	movs	r0, #3
 8004968:	54fa      	strb	r2, [r7, r3]
 800496a:	e7d4      	b.n	8004916 <UART_WaitOnFlagUntilTimeout+0x3e>
 800496c:	2003      	movs	r0, #3
 800496e:	e7d2      	b.n	8004916 <UART_WaitOnFlagUntilTimeout+0x3e>
 8004970:	0038      	movs	r0, r7
 8004972:	6211      	str	r1, [r2, #32]
 8004974:	f7ff fb84 	bl	8004080 <UART_EndRxTransfer>
 8004978:	2384      	movs	r3, #132	; 0x84
 800497a:	464a      	mov	r2, r9
 800497c:	50fa      	str	r2, [r7, r3]
 800497e:	2200      	movs	r2, #0
 8004980:	3b0c      	subs	r3, #12
 8004982:	2001      	movs	r0, #1
 8004984:	54fa      	strb	r2, [r7, r3]
 8004986:	e7c6      	b.n	8004916 <UART_WaitOnFlagUntilTimeout+0x3e>

08004988 <HAL_UART_Transmit>:
 8004988:	b5f0      	push	{r4, r5, r6, r7, lr}
 800498a:	4647      	mov	r7, r8
 800498c:	46ce      	mov	lr, r9
 800498e:	b580      	push	{r7, lr}
 8004990:	001f      	movs	r7, r3
 8004992:	6fc3      	ldr	r3, [r0, #124]	; 0x7c
 8004994:	0004      	movs	r4, r0
 8004996:	000d      	movs	r5, r1
 8004998:	0016      	movs	r6, r2
 800499a:	b083      	sub	sp, #12
 800499c:	2b20      	cmp	r3, #32
 800499e:	d14c      	bne.n	8004a3a <HAL_UART_Transmit+0xb2>
 80049a0:	2900      	cmp	r1, #0
 80049a2:	d044      	beq.n	8004a2e <HAL_UART_Transmit+0xa6>
 80049a4:	2a00      	cmp	r2, #0
 80049a6:	d042      	beq.n	8004a2e <HAL_UART_Transmit+0xa6>
 80049a8:	2380      	movs	r3, #128	; 0x80
 80049aa:	6882      	ldr	r2, [r0, #8]
 80049ac:	015b      	lsls	r3, r3, #5
 80049ae:	429a      	cmp	r2, r3
 80049b0:	d104      	bne.n	80049bc <HAL_UART_Transmit+0x34>
 80049b2:	6903      	ldr	r3, [r0, #16]
 80049b4:	2b00      	cmp	r3, #0
 80049b6:	d101      	bne.n	80049bc <HAL_UART_Transmit+0x34>
 80049b8:	07cb      	lsls	r3, r1, #31
 80049ba:	d438      	bmi.n	8004a2e <HAL_UART_Transmit+0xa6>
 80049bc:	2200      	movs	r2, #0
 80049be:	2384      	movs	r3, #132	; 0x84
 80049c0:	50e2      	str	r2, [r4, r3]
 80049c2:	3b63      	subs	r3, #99	; 0x63
 80049c4:	67e3      	str	r3, [r4, #124]	; 0x7c
 80049c6:	f7fc fd4b 	bl	8001460 <HAL_GetTick>
 80049ca:	2350      	movs	r3, #80	; 0x50
 80049cc:	52e6      	strh	r6, [r4, r3]
 80049ce:	3302      	adds	r3, #2
 80049d0:	2100      	movs	r1, #0
 80049d2:	52e6      	strh	r6, [r4, r3]
 80049d4:	2380      	movs	r3, #128	; 0x80
 80049d6:	68a2      	ldr	r2, [r4, #8]
 80049d8:	4680      	mov	r8, r0
 80049da:	4689      	mov	r9, r1
 80049dc:	015b      	lsls	r3, r3, #5
 80049de:	429a      	cmp	r2, r3
 80049e0:	d03e      	beq.n	8004a60 <HAL_UART_Transmit+0xd8>
 80049e2:	2352      	movs	r3, #82	; 0x52
 80049e4:	5ae3      	ldrh	r3, [r4, r3]
 80049e6:	2b00      	cmp	r3, #0
 80049e8:	d029      	beq.n	8004a3e <HAL_UART_Transmit+0xb6>
 80049ea:	2652      	movs	r6, #82	; 0x52
 80049ec:	e00a      	b.n	8004a04 <HAL_UART_Transmit+0x7c>
 80049ee:	782a      	ldrb	r2, [r5, #0]
 80049f0:	6823      	ldr	r3, [r4, #0]
 80049f2:	3501      	adds	r5, #1
 80049f4:	851a      	strh	r2, [r3, #40]	; 0x28
 80049f6:	5ba2      	ldrh	r2, [r4, r6]
 80049f8:	3a01      	subs	r2, #1
 80049fa:	b292      	uxth	r2, r2
 80049fc:	53a2      	strh	r2, [r4, r6]
 80049fe:	5ba3      	ldrh	r3, [r4, r6]
 8004a00:	2b00      	cmp	r3, #0
 8004a02:	d01c      	beq.n	8004a3e <HAL_UART_Transmit+0xb6>
 8004a04:	4643      	mov	r3, r8
 8004a06:	2200      	movs	r2, #0
 8004a08:	2180      	movs	r1, #128	; 0x80
 8004a0a:	0020      	movs	r0, r4
 8004a0c:	9700      	str	r7, [sp, #0]
 8004a0e:	f7ff ff63 	bl	80048d8 <UART_WaitOnFlagUntilTimeout>
 8004a12:	2800      	cmp	r0, #0
 8004a14:	d120      	bne.n	8004a58 <HAL_UART_Transmit+0xd0>
 8004a16:	2d00      	cmp	r5, #0
 8004a18:	d1e9      	bne.n	80049ee <HAL_UART_Transmit+0x66>
 8004a1a:	464b      	mov	r3, r9
 8004a1c:	881b      	ldrh	r3, [r3, #0]
 8004a1e:	6822      	ldr	r2, [r4, #0]
 8004a20:	05db      	lsls	r3, r3, #23
 8004a22:	0ddb      	lsrs	r3, r3, #23
 8004a24:	8513      	strh	r3, [r2, #40]	; 0x28
 8004a26:	2302      	movs	r3, #2
 8004a28:	469c      	mov	ip, r3
 8004a2a:	44e1      	add	r9, ip
 8004a2c:	e7e3      	b.n	80049f6 <HAL_UART_Transmit+0x6e>
 8004a2e:	2001      	movs	r0, #1
 8004a30:	b003      	add	sp, #12
 8004a32:	bcc0      	pop	{r6, r7}
 8004a34:	46b9      	mov	r9, r7
 8004a36:	46b0      	mov	r8, r6
 8004a38:	bdf0      	pop	{r4, r5, r6, r7, pc}
 8004a3a:	2002      	movs	r0, #2
 8004a3c:	e7f8      	b.n	8004a30 <HAL_UART_Transmit+0xa8>
 8004a3e:	4643      	mov	r3, r8
 8004a40:	2200      	movs	r2, #0
 8004a42:	2140      	movs	r1, #64	; 0x40
 8004a44:	0020      	movs	r0, r4
 8004a46:	9700      	str	r7, [sp, #0]
 8004a48:	f7ff ff46 	bl	80048d8 <UART_WaitOnFlagUntilTimeout>
 8004a4c:	2320      	movs	r3, #32
 8004a4e:	67e3      	str	r3, [r4, #124]	; 0x7c
 8004a50:	2800      	cmp	r0, #0
 8004a52:	d0ed      	beq.n	8004a30 <HAL_UART_Transmit+0xa8>
 8004a54:	2003      	movs	r0, #3
 8004a56:	e7eb      	b.n	8004a30 <HAL_UART_Transmit+0xa8>
 8004a58:	2320      	movs	r3, #32
 8004a5a:	2003      	movs	r0, #3
 8004a5c:	67e3      	str	r3, [r4, #124]	; 0x7c
 8004a5e:	e7e7      	b.n	8004a30 <HAL_UART_Transmit+0xa8>
 8004a60:	6923      	ldr	r3, [r4, #16]
 8004a62:	2b00      	cmp	r3, #0
 8004a64:	d1bd      	bne.n	80049e2 <HAL_UART_Transmit+0x5a>
 8004a66:	46a9      	mov	r9, r5
 8004a68:	2500      	movs	r5, #0
 8004a6a:	e7ba      	b.n	80049e2 <HAL_UART_Transmit+0x5a>

08004a6c <HAL_UART_Receive>:
 8004a6c:	b5f0      	push	{r4, r5, r6, r7, lr}
 8004a6e:	464f      	mov	r7, r9
 8004a70:	4646      	mov	r6, r8
 8004a72:	46d6      	mov	lr, sl
 8004a74:	b5c0      	push	{r6, r7, lr}
 8004a76:	001f      	movs	r7, r3
 8004a78:	2380      	movs	r3, #128	; 0x80
 8004a7a:	58c3      	ldr	r3, [r0, r3]
 8004a7c:	0004      	movs	r4, r0
 8004a7e:	000d      	movs	r5, r1
 8004a80:	0016      	movs	r6, r2
 8004a82:	b082      	sub	sp, #8
 8004a84:	2b20      	cmp	r3, #32
 8004a86:	d154      	bne.n	8004b32 <HAL_UART_Receive+0xc6>
 8004a88:	2900      	cmp	r1, #0
 8004a8a:	d04b      	beq.n	8004b24 <HAL_UART_Receive+0xb8>
 8004a8c:	2a00      	cmp	r2, #0
 8004a8e:	d049      	beq.n	8004b24 <HAL_UART_Receive+0xb8>
 8004a90:	2380      	movs	r3, #128	; 0x80
 8004a92:	6882      	ldr	r2, [r0, #8]
 8004a94:	015b      	lsls	r3, r3, #5
 8004a96:	429a      	cmp	r2, r3
 8004a98:	d104      	bne.n	8004aa4 <HAL_UART_Receive+0x38>
 8004a9a:	6903      	ldr	r3, [r0, #16]
 8004a9c:	2b00      	cmp	r3, #0
 8004a9e:	d101      	bne.n	8004aa4 <HAL_UART_Receive+0x38>
 8004aa0:	07cb      	lsls	r3, r1, #31
 8004aa2:	d43f      	bmi.n	8004b24 <HAL_UART_Receive+0xb8>
 8004aa4:	2300      	movs	r3, #0
 8004aa6:	2284      	movs	r2, #132	; 0x84
 8004aa8:	2122      	movs	r1, #34	; 0x22
 8004aaa:	50a3      	str	r3, [r4, r2]
 8004aac:	3a04      	subs	r2, #4
 8004aae:	50a1      	str	r1, [r4, r2]
 8004ab0:	6623      	str	r3, [r4, #96]	; 0x60
 8004ab2:	f7fc fcd5 	bl	8001460 <HAL_GetTick>
 8004ab6:	2358      	movs	r3, #88	; 0x58
 8004ab8:	2280      	movs	r2, #128	; 0x80
 8004aba:	52e6      	strh	r6, [r4, r3]
 8004abc:	3302      	adds	r3, #2
 8004abe:	52e6      	strh	r6, [r4, r3]
 8004ac0:	68a3      	ldr	r3, [r4, #8]
 8004ac2:	4681      	mov	r9, r0
 8004ac4:	0152      	lsls	r2, r2, #5
 8004ac6:	4293      	cmp	r3, r2
 8004ac8:	d04a      	beq.n	8004b60 <HAL_UART_Receive+0xf4>
 8004aca:	2200      	movs	r2, #0
 8004acc:	4690      	mov	r8, r2
 8004ace:	2b00      	cmp	r3, #0
 8004ad0:	d031      	beq.n	8004b36 <HAL_UART_Receive+0xca>
 8004ad2:	235c      	movs	r3, #92	; 0x5c
 8004ad4:	4642      	mov	r2, r8
 8004ad6:	52e2      	strh	r2, [r4, r3]
 8004ad8:	2300      	movs	r3, #0
 8004ada:	469a      	mov	sl, r3
 8004adc:	235a      	movs	r3, #90	; 0x5a
 8004ade:	5ae3      	ldrh	r3, [r4, r3]
 8004ae0:	265a      	movs	r6, #90	; 0x5a
 8004ae2:	2b00      	cmp	r3, #0
 8004ae4:	d109      	bne.n	8004afa <HAL_UART_Receive+0x8e>
 8004ae6:	e031      	b.n	8004b4c <HAL_UART_Receive+0xe0>
 8004ae8:	702b      	strb	r3, [r5, #0]
 8004aea:	3501      	adds	r5, #1
 8004aec:	5ba2      	ldrh	r2, [r4, r6]
 8004aee:	3a01      	subs	r2, #1
 8004af0:	b292      	uxth	r2, r2
 8004af2:	53a2      	strh	r2, [r4, r6]
 8004af4:	5ba3      	ldrh	r3, [r4, r6]
 8004af6:	2b00      	cmp	r3, #0
 8004af8:	d028      	beq.n	8004b4c <HAL_UART_Receive+0xe0>
 8004afa:	464b      	mov	r3, r9
 8004afc:	2200      	movs	r2, #0
 8004afe:	2120      	movs	r1, #32
 8004b00:	0020      	movs	r0, r4
 8004b02:	9700      	str	r7, [sp, #0]
 8004b04:	f7ff fee8 	bl	80048d8 <UART_WaitOnFlagUntilTimeout>
 8004b08:	2800      	cmp	r0, #0
 8004b0a:	d124      	bne.n	8004b56 <HAL_UART_Receive+0xea>
 8004b0c:	4642      	mov	r2, r8
 8004b0e:	6823      	ldr	r3, [r4, #0]
 8004b10:	8c9b      	ldrh	r3, [r3, #36]	; 0x24
 8004b12:	4013      	ands	r3, r2
 8004b14:	2d00      	cmp	r5, #0
 8004b16:	d1e7      	bne.n	8004ae8 <HAL_UART_Receive+0x7c>
 8004b18:	4652      	mov	r2, sl
 8004b1a:	8013      	strh	r3, [r2, #0]
 8004b1c:	2302      	movs	r3, #2
 8004b1e:	469c      	mov	ip, r3
 8004b20:	44e2      	add	sl, ip
 8004b22:	e7e3      	b.n	8004aec <HAL_UART_Receive+0x80>
 8004b24:	2001      	movs	r0, #1
 8004b26:	b002      	add	sp, #8
 8004b28:	bce0      	pop	{r5, r6, r7}
 8004b2a:	46ba      	mov	sl, r7
 8004b2c:	46b1      	mov	r9, r6
 8004b2e:	46a8      	mov	r8, r5
 8004b30:	bdf0      	pop	{r4, r5, r6, r7, pc}
 8004b32:	2002      	movs	r0, #2
 8004b34:	e7f7      	b.n	8004b26 <HAL_UART_Receive+0xba>
 8004b36:	6923      	ldr	r3, [r4, #16]
 8004b38:	1e5a      	subs	r2, r3, #1
 8004b3a:	4193      	sbcs	r3, r2
 8004b3c:	227f      	movs	r2, #127	; 0x7f
 8004b3e:	425b      	negs	r3, r3
 8004b40:	4393      	bics	r3, r2
 8004b42:	4698      	mov	r8, r3
 8004b44:	23ff      	movs	r3, #255	; 0xff
 8004b46:	469c      	mov	ip, r3
 8004b48:	44e0      	add	r8, ip
 8004b4a:	e7c2      	b.n	8004ad2 <HAL_UART_Receive+0x66>
 8004b4c:	2380      	movs	r3, #128	; 0x80
 8004b4e:	2220      	movs	r2, #32
 8004b50:	2000      	movs	r0, #0
 8004b52:	50e2      	str	r2, [r4, r3]
 8004b54:	e7e7      	b.n	8004b26 <HAL_UART_Receive+0xba>
 8004b56:	2380      	movs	r3, #128	; 0x80
 8004b58:	2220      	movs	r2, #32
 8004b5a:	2003      	movs	r0, #3
 8004b5c:	50e2      	str	r2, [r4, r3]
 8004b5e:	e7e2      	b.n	8004b26 <HAL_UART_Receive+0xba>
 8004b60:	6923      	ldr	r3, [r4, #16]
 8004b62:	2b00      	cmp	r3, #0
 8004b64:	d106      	bne.n	8004b74 <HAL_UART_Receive+0x108>
 8004b66:	225c      	movs	r2, #92	; 0x5c
 8004b68:	4b06      	ldr	r3, [pc, #24]	; (8004b84 <HAL_UART_Receive+0x118>)
 8004b6a:	46aa      	mov	sl, r5
 8004b6c:	4698      	mov	r8, r3
 8004b6e:	2500      	movs	r5, #0
 8004b70:	52a3      	strh	r3, [r4, r2]
 8004b72:	e7b3      	b.n	8004adc <HAL_UART_Receive+0x70>
 8004b74:	235c      	movs	r3, #92	; 0x5c
 8004b76:	22ff      	movs	r2, #255	; 0xff
 8004b78:	52e2      	strh	r2, [r4, r3]
 8004b7a:	33a3      	adds	r3, #163	; 0xa3
 8004b7c:	4698      	mov	r8, r3
 8004b7e:	2300      	movs	r3, #0
 8004b80:	469a      	mov	sl, r3
 8004b82:	e7ab      	b.n	8004adc <HAL_UART_Receive+0x70>
 8004b84:	000001ff 	.word	0x000001ff

08004b88 <UART_CheckIdleState>:
 8004b88:	2200      	movs	r2, #0
 8004b8a:	2384      	movs	r3, #132	; 0x84
 8004b8c:	b530      	push	{r4, r5, lr}
 8004b8e:	0004      	movs	r4, r0
 8004b90:	50c2      	str	r2, [r0, r3]
 8004b92:	b083      	sub	sp, #12
 8004b94:	f7fc fc64 	bl	8001460 <HAL_GetTick>
 8004b98:	6822      	ldr	r2, [r4, #0]
 8004b9a:	0005      	movs	r5, r0
 8004b9c:	6811      	ldr	r1, [r2, #0]
 8004b9e:	0709      	lsls	r1, r1, #28
 8004ba0:	d40f      	bmi.n	8004bc2 <UART_CheckIdleState+0x3a>
 8004ba2:	6812      	ldr	r2, [r2, #0]
 8004ba4:	0752      	lsls	r2, r2, #29
 8004ba6:	d41b      	bmi.n	8004be0 <UART_CheckIdleState+0x58>
 8004ba8:	2320      	movs	r3, #32
 8004baa:	2280      	movs	r2, #128	; 0x80
 8004bac:	67e3      	str	r3, [r4, #124]	; 0x7c
 8004bae:	50a3      	str	r3, [r4, r2]
 8004bb0:	2300      	movs	r3, #0
 8004bb2:	2000      	movs	r0, #0
 8004bb4:	6623      	str	r3, [r4, #96]	; 0x60
 8004bb6:	6663      	str	r3, [r4, #100]	; 0x64
 8004bb8:	2378      	movs	r3, #120	; 0x78
 8004bba:	2200      	movs	r2, #0
 8004bbc:	54e2      	strb	r2, [r4, r3]
 8004bbe:	b003      	add	sp, #12
 8004bc0:	bd30      	pop	{r4, r5, pc}
 8004bc2:	2180      	movs	r1, #128	; 0x80
 8004bc4:	4b21      	ldr	r3, [pc, #132]	; (8004c4c <UART_CheckIdleState+0xc4>)
 8004bc6:	2200      	movs	r2, #0
 8004bc8:	9300      	str	r3, [sp, #0]
 8004bca:	0389      	lsls	r1, r1, #14
 8004bcc:	0003      	movs	r3, r0
 8004bce:	0020      	movs	r0, r4
 8004bd0:	f7ff fe82 	bl	80048d8 <UART_WaitOnFlagUntilTimeout>
 8004bd4:	2800      	cmp	r0, #0
 8004bd6:	d129      	bne.n	8004c2c <UART_CheckIdleState+0xa4>
 8004bd8:	6822      	ldr	r2, [r4, #0]
 8004bda:	6812      	ldr	r2, [r2, #0]
 8004bdc:	0752      	lsls	r2, r2, #29
 8004bde:	d5e3      	bpl.n	8004ba8 <UART_CheckIdleState+0x20>
 8004be0:	2180      	movs	r1, #128	; 0x80
 8004be2:	4b1a      	ldr	r3, [pc, #104]	; (8004c4c <UART_CheckIdleState+0xc4>)
 8004be4:	2200      	movs	r2, #0
 8004be6:	9300      	str	r3, [sp, #0]
 8004be8:	0020      	movs	r0, r4
 8004bea:	002b      	movs	r3, r5
 8004bec:	03c9      	lsls	r1, r1, #15
 8004bee:	f7ff fe73 	bl	80048d8 <UART_WaitOnFlagUntilTimeout>
 8004bf2:	2800      	cmp	r0, #0
 8004bf4:	d0d8      	beq.n	8004ba8 <UART_CheckIdleState+0x20>
 8004bf6:	f3ef 8010 	mrs	r0, PRIMASK
 8004bfa:	2201      	movs	r2, #1
 8004bfc:	f382 8810 	msr	PRIMASK, r2
 8004c00:	6821      	ldr	r1, [r4, #0]
 8004c02:	4d13      	ldr	r5, [pc, #76]	; (8004c50 <UART_CheckIdleState+0xc8>)
 8004c04:	680b      	ldr	r3, [r1, #0]
 8004c06:	402b      	ands	r3, r5
 8004c08:	600b      	str	r3, [r1, #0]
 8004c0a:	f380 8810 	msr	PRIMASK, r0
 8004c0e:	f3ef 8010 	mrs	r0, PRIMASK
 8004c12:	f382 8810 	msr	PRIMASK, r2
 8004c16:	6821      	ldr	r1, [r4, #0]
 8004c18:	688b      	ldr	r3, [r1, #8]
 8004c1a:	4393      	bics	r3, r2
 8004c1c:	608b      	str	r3, [r1, #8]
 8004c1e:	f380 8810 	msr	PRIMASK, r0
 8004c22:	2380      	movs	r3, #128	; 0x80
 8004c24:	321f      	adds	r2, #31
 8004c26:	2003      	movs	r0, #3
 8004c28:	50e2      	str	r2, [r4, r3]
 8004c2a:	e7c5      	b.n	8004bb8 <UART_CheckIdleState+0x30>
 8004c2c:	f3ef 8110 	mrs	r1, PRIMASK
 8004c30:	2301      	movs	r3, #1
 8004c32:	f383 8810 	msr	PRIMASK, r3
 8004c36:	2080      	movs	r0, #128	; 0x80
 8004c38:	6822      	ldr	r2, [r4, #0]
 8004c3a:	6813      	ldr	r3, [r2, #0]
 8004c3c:	4383      	bics	r3, r0
 8004c3e:	6013      	str	r3, [r2, #0]
 8004c40:	f381 8810 	msr	PRIMASK, r1
 8004c44:	2320      	movs	r3, #32
 8004c46:	387d      	subs	r0, #125	; 0x7d
 8004c48:	67e3      	str	r3, [r4, #124]	; 0x7c
 8004c4a:	e7b5      	b.n	8004bb8 <UART_CheckIdleState+0x30>
 8004c4c:	01ffffff 	.word	0x01ffffff
 8004c50:	fffffedf 	.word	0xfffffedf

08004c54 <HAL_UART_Init>:
 8004c54:	b510      	push	{r4, lr}
 8004c56:	1e04      	subs	r4, r0, #0
 8004c58:	d026      	beq.n	8004ca8 <HAL_UART_Init+0x54>
 8004c5a:	6fc3      	ldr	r3, [r0, #124]	; 0x7c
 8004c5c:	2b00      	cmp	r3, #0
 8004c5e:	d025      	beq.n	8004cac <HAL_UART_Init+0x58>
 8004c60:	2324      	movs	r3, #36	; 0x24
 8004c62:	2101      	movs	r1, #1
 8004c64:	6822      	ldr	r2, [r4, #0]
 8004c66:	67e3      	str	r3, [r4, #124]	; 0x7c
 8004c68:	6813      	ldr	r3, [r2, #0]
 8004c6a:	0020      	movs	r0, r4
 8004c6c:	438b      	bics	r3, r1
 8004c6e:	6013      	str	r3, [r2, #0]
 8004c70:	f7ff fd3a 	bl	80046e8 <UART_SetConfig>
 8004c74:	2801      	cmp	r0, #1
 8004c76:	d017      	beq.n	8004ca8 <HAL_UART_Init+0x54>
 8004c78:	6a63      	ldr	r3, [r4, #36]	; 0x24
 8004c7a:	2b00      	cmp	r3, #0
 8004c7c:	d110      	bne.n	8004ca0 <HAL_UART_Init+0x4c>
 8004c7e:	6823      	ldr	r3, [r4, #0]
 8004c80:	490d      	ldr	r1, [pc, #52]	; (8004cb8 <HAL_UART_Init+0x64>)
 8004c82:	685a      	ldr	r2, [r3, #4]
 8004c84:	0020      	movs	r0, r4
 8004c86:	400a      	ands	r2, r1
 8004c88:	212a      	movs	r1, #42	; 0x2a
 8004c8a:	605a      	str	r2, [r3, #4]
 8004c8c:	689a      	ldr	r2, [r3, #8]
 8004c8e:	438a      	bics	r2, r1
 8004c90:	609a      	str	r2, [r3, #8]
 8004c92:	681a      	ldr	r2, [r3, #0]
 8004c94:	3929      	subs	r1, #41	; 0x29
 8004c96:	430a      	orrs	r2, r1
 8004c98:	601a      	str	r2, [r3, #0]
 8004c9a:	f7ff ff75 	bl	8004b88 <UART_CheckIdleState>
 8004c9e:	bd10      	pop	{r4, pc}
 8004ca0:	0020      	movs	r0, r4
 8004ca2:	f7ff fdb1 	bl	8004808 <UART_AdvFeatureConfig>
 8004ca6:	e7ea      	b.n	8004c7e <HAL_UART_Init+0x2a>
 8004ca8:	2001      	movs	r0, #1
 8004caa:	e7f8      	b.n	8004c9e <HAL_UART_Init+0x4a>
 8004cac:	2278      	movs	r2, #120	; 0x78
 8004cae:	5483      	strb	r3, [r0, r2]
 8004cb0:	f7fc fa3c 	bl	800112c <HAL_UART_MspInit>
 8004cb4:	e7d4      	b.n	8004c60 <HAL_UART_Init+0xc>
 8004cb6:	46c0      	nop			; (mov r8, r8)
 8004cb8:	ffffb7ff 	.word	0xffffb7ff

08004cbc <HAL_MultiProcessor_Init>:
 8004cbc:	b570      	push	{r4, r5, r6, lr}
 8004cbe:	0004      	movs	r4, r0
 8004cc0:	000e      	movs	r6, r1
 8004cc2:	0015      	movs	r5, r2
 8004cc4:	2800      	cmp	r0, #0
 8004cc6:	d036      	beq.n	8004d36 <HAL_MultiProcessor_Init+0x7a>
 8004cc8:	6fc3      	ldr	r3, [r0, #124]	; 0x7c
 8004cca:	2b00      	cmp	r3, #0
 8004ccc:	d035      	beq.n	8004d3a <HAL_MultiProcessor_Init+0x7e>
 8004cce:	2324      	movs	r3, #36	; 0x24
 8004cd0:	2101      	movs	r1, #1
 8004cd2:	6822      	ldr	r2, [r4, #0]
 8004cd4:	67e3      	str	r3, [r4, #124]	; 0x7c
 8004cd6:	6813      	ldr	r3, [r2, #0]
 8004cd8:	0020      	movs	r0, r4
 8004cda:	438b      	bics	r3, r1
 8004cdc:	6013      	str	r3, [r2, #0]
 8004cde:	f7ff fd03 	bl	80046e8 <UART_SetConfig>
 8004ce2:	2801      	cmp	r0, #1
 8004ce4:	d027      	beq.n	8004d36 <HAL_MultiProcessor_Init+0x7a>
 8004ce6:	6a63      	ldr	r3, [r4, #36]	; 0x24
 8004ce8:	2b00      	cmp	r3, #0
 8004cea:	d120      	bne.n	8004d2e <HAL_MultiProcessor_Init+0x72>
 8004cec:	6823      	ldr	r3, [r4, #0]
 8004cee:	4915      	ldr	r1, [pc, #84]	; (8004d44 <HAL_MultiProcessor_Init+0x88>)
 8004cf0:	685a      	ldr	r2, [r3, #4]
 8004cf2:	400a      	ands	r2, r1
 8004cf4:	212a      	movs	r1, #42	; 0x2a
 8004cf6:	605a      	str	r2, [r3, #4]
 8004cf8:	689a      	ldr	r2, [r3, #8]
 8004cfa:	438a      	bics	r2, r1
 8004cfc:	609a      	str	r2, [r3, #8]
 8004cfe:	2280      	movs	r2, #128	; 0x80
 8004d00:	0112      	lsls	r2, r2, #4
 8004d02:	4295      	cmp	r5, r2
 8004d04:	d00c      	beq.n	8004d20 <HAL_MultiProcessor_Init+0x64>
 8004d06:	681a      	ldr	r2, [r3, #0]
 8004d08:	490f      	ldr	r1, [pc, #60]	; (8004d48 <HAL_MultiProcessor_Init+0x8c>)
 8004d0a:	0020      	movs	r0, r4
 8004d0c:	400a      	ands	r2, r1
 8004d0e:	2101      	movs	r1, #1
 8004d10:	432a      	orrs	r2, r5
 8004d12:	601a      	str	r2, [r3, #0]
 8004d14:	681a      	ldr	r2, [r3, #0]
 8004d16:	430a      	orrs	r2, r1
 8004d18:	601a      	str	r2, [r3, #0]
 8004d1a:	f7ff ff35 	bl	8004b88 <UART_CheckIdleState>
 8004d1e:	bd70      	pop	{r4, r5, r6, pc}
 8004d20:	685a      	ldr	r2, [r3, #4]
 8004d22:	0636      	lsls	r6, r6, #24
 8004d24:	0212      	lsls	r2, r2, #8
 8004d26:	0a12      	lsrs	r2, r2, #8
 8004d28:	4316      	orrs	r6, r2
 8004d2a:	605e      	str	r6, [r3, #4]
 8004d2c:	e7eb      	b.n	8004d06 <HAL_MultiProcessor_Init+0x4a>
 8004d2e:	0020      	movs	r0, r4
 8004d30:	f7ff fd6a 	bl	8004808 <UART_AdvFeatureConfig>
 8004d34:	e7da      	b.n	8004cec <HAL_MultiProcessor_Init+0x30>
 8004d36:	2001      	movs	r0, #1
 8004d38:	e7f1      	b.n	8004d1e <HAL_MultiProcessor_Init+0x62>
 8004d3a:	2278      	movs	r2, #120	; 0x78
 8004d3c:	5483      	strb	r3, [r0, r2]
 8004d3e:	f7fc f9f5 	bl	800112c <HAL_UART_MspInit>
 8004d42:	e7c4      	b.n	8004cce <HAL_MultiProcessor_Init+0x12>
 8004d44:	ffffb7ff 	.word	0xffffb7ff
 8004d48:	fffff7ff 	.word	0xfffff7ff

08004d4c <HAL_MultiProcessor_EnableMuteMode>:
 8004d4c:	2378      	movs	r3, #120	; 0x78
 8004d4e:	b510      	push	{r4, lr}
 8004d50:	5cc2      	ldrb	r2, [r0, r3]
 8004d52:	2a01      	cmp	r2, #1
 8004d54:	d014      	beq.n	8004d80 <HAL_MultiProcessor_EnableMuteMode+0x34>
 8004d56:	2201      	movs	r2, #1
 8004d58:	54c2      	strb	r2, [r0, r3]
 8004d5a:	3b54      	subs	r3, #84	; 0x54
 8004d5c:	67c3      	str	r3, [r0, #124]	; 0x7c
 8004d5e:	f3ef 8110 	mrs	r1, PRIMASK
 8004d62:	f382 8810 	msr	PRIMASK, r2
 8004d66:	2380      	movs	r3, #128	; 0x80
 8004d68:	6802      	ldr	r2, [r0, #0]
 8004d6a:	019b      	lsls	r3, r3, #6
 8004d6c:	6814      	ldr	r4, [r2, #0]
 8004d6e:	4323      	orrs	r3, r4
 8004d70:	6013      	str	r3, [r2, #0]
 8004d72:	f381 8810 	msr	PRIMASK, r1
 8004d76:	2320      	movs	r3, #32
 8004d78:	67c3      	str	r3, [r0, #124]	; 0x7c
 8004d7a:	f7ff ff05 	bl	8004b88 <UART_CheckIdleState>
 8004d7e:	bd10      	pop	{r4, pc}
 8004d80:	2002      	movs	r0, #2
 8004d82:	e7fc      	b.n	8004d7e <HAL_MultiProcessor_EnableMuteMode+0x32>

08004d84 <UART_Start_Receive_IT>:
 8004d84:	2358      	movs	r3, #88	; 0x58
 8004d86:	6541      	str	r1, [r0, #84]	; 0x54
 8004d88:	52c2      	strh	r2, [r0, r3]
 8004d8a:	3302      	adds	r3, #2
 8004d8c:	52c2      	strh	r2, [r0, r3]
 8004d8e:	2300      	movs	r3, #0
 8004d90:	6683      	str	r3, [r0, #104]	; 0x68
 8004d92:	2380      	movs	r3, #128	; 0x80
 8004d94:	6882      	ldr	r2, [r0, #8]
 8004d96:	015b      	lsls	r3, r3, #5
 8004d98:	429a      	cmp	r2, r3
 8004d9a:	d046      	beq.n	8004e2a <UART_Start_Receive_IT+0xa6>
 8004d9c:	2300      	movs	r3, #0
 8004d9e:	2a00      	cmp	r2, #0
 8004da0:	d03d      	beq.n	8004e1e <UART_Start_Receive_IT+0x9a>
 8004da2:	225c      	movs	r2, #92	; 0x5c
 8004da4:	5283      	strh	r3, [r0, r2]
 8004da6:	2384      	movs	r3, #132	; 0x84
 8004da8:	2200      	movs	r2, #0
 8004daa:	50c2      	str	r2, [r0, r3]
 8004dac:	3b04      	subs	r3, #4
 8004dae:	3222      	adds	r2, #34	; 0x22
 8004db0:	50c2      	str	r2, [r0, r3]
 8004db2:	f3ef 8c10 	mrs	ip, PRIMASK
 8004db6:	2101      	movs	r1, #1
 8004db8:	f381 8810 	msr	PRIMASK, r1
 8004dbc:	6802      	ldr	r2, [r0, #0]
 8004dbe:	6893      	ldr	r3, [r2, #8]
 8004dc0:	430b      	orrs	r3, r1
 8004dc2:	6093      	str	r3, [r2, #8]
 8004dc4:	f38c 8810 	msr	PRIMASK, ip
 8004dc8:	2380      	movs	r3, #128	; 0x80
 8004dca:	6882      	ldr	r2, [r0, #8]
 8004dcc:	015b      	lsls	r3, r3, #5
 8004dce:	429a      	cmp	r2, r3
 8004dd0:	d012      	beq.n	8004df8 <UART_Start_Receive_IT+0x74>
 8004dd2:	4a1c      	ldr	r2, [pc, #112]	; (8004e44 <UART_Start_Receive_IT+0xc0>)
 8004dd4:	6903      	ldr	r3, [r0, #16]
 8004dd6:	6682      	str	r2, [r0, #104]	; 0x68
 8004dd8:	2b00      	cmp	r3, #0
 8004dda:	d112      	bne.n	8004e02 <UART_Start_Receive_IT+0x7e>
 8004ddc:	f3ef 8110 	mrs	r1, PRIMASK
 8004de0:	2301      	movs	r3, #1
 8004de2:	f383 8810 	msr	PRIMASK, r3
 8004de6:	6802      	ldr	r2, [r0, #0]
 8004de8:	2020      	movs	r0, #32
 8004dea:	6813      	ldr	r3, [r2, #0]
 8004dec:	4303      	orrs	r3, r0
 8004dee:	6013      	str	r3, [r2, #0]
 8004df0:	f381 8810 	msr	PRIMASK, r1
 8004df4:	2000      	movs	r0, #0
 8004df6:	4770      	bx	lr
 8004df8:	6903      	ldr	r3, [r0, #16]
 8004dfa:	2b00      	cmp	r3, #0
 8004dfc:	d01f      	beq.n	8004e3e <UART_Start_Receive_IT+0xba>
 8004dfe:	4b11      	ldr	r3, [pc, #68]	; (8004e44 <UART_Start_Receive_IT+0xc0>)
 8004e00:	6683      	str	r3, [r0, #104]	; 0x68
 8004e02:	f3ef 8110 	mrs	r1, PRIMASK
 8004e06:	2301      	movs	r3, #1
 8004e08:	f383 8810 	msr	PRIMASK, r3
 8004e0c:	6802      	ldr	r2, [r0, #0]
 8004e0e:	3320      	adds	r3, #32
 8004e10:	6810      	ldr	r0, [r2, #0]
 8004e12:	33ff      	adds	r3, #255	; 0xff
 8004e14:	4303      	orrs	r3, r0
 8004e16:	6013      	str	r3, [r2, #0]
 8004e18:	f381 8810 	msr	PRIMASK, r1
 8004e1c:	e7ea      	b.n	8004df4 <UART_Start_Receive_IT+0x70>
 8004e1e:	6903      	ldr	r3, [r0, #16]
 8004e20:	425a      	negs	r2, r3
 8004e22:	4153      	adcs	r3, r2
 8004e24:	01db      	lsls	r3, r3, #7
 8004e26:	337f      	adds	r3, #127	; 0x7f
 8004e28:	e7bb      	b.n	8004da2 <UART_Start_Receive_IT+0x1e>
 8004e2a:	6903      	ldr	r3, [r0, #16]
 8004e2c:	1e5a      	subs	r2, r3, #1
 8004e2e:	4193      	sbcs	r3, r2
 8004e30:	22ff      	movs	r2, #255	; 0xff
 8004e32:	425b      	negs	r3, r3
 8004e34:	4393      	bics	r3, r2
 8004e36:	4a04      	ldr	r2, [pc, #16]	; (8004e48 <UART_Start_Receive_IT+0xc4>)
 8004e38:	4694      	mov	ip, r2
 8004e3a:	4463      	add	r3, ip
 8004e3c:	e7b1      	b.n	8004da2 <UART_Start_Receive_IT+0x1e>
 8004e3e:	4b03      	ldr	r3, [pc, #12]	; (8004e4c <UART_Start_Receive_IT+0xc8>)
 8004e40:	6683      	str	r3, [r0, #104]	; 0x68
 8004e42:	e7cb      	b.n	8004ddc <UART_Start_Receive_IT+0x58>
 8004e44:	0800453d 	.word	0x0800453d
 8004e48:	000001ff 	.word	0x000001ff
 8004e4c:	0800460d 	.word	0x0800460d

08004e50 <HAL_UARTEx_WakeupCallback>:
 8004e50:	4770      	bx	lr
 8004e52:	46c0      	nop			; (mov r8, r8)

08004e54 <HAL_MultiProcessorEx_AddressLength_Set>:
 8004e54:	000a      	movs	r2, r1
 8004e56:	b570      	push	{r4, r5, r6, lr}
 8004e58:	2800      	cmp	r0, #0
 8004e5a:	d011      	beq.n	8004e80 <HAL_MultiProcessorEx_AddressLength_Set+0x2c>
 8004e5c:	2324      	movs	r3, #36	; 0x24
 8004e5e:	2401      	movs	r4, #1
 8004e60:	2510      	movs	r5, #16
 8004e62:	67c3      	str	r3, [r0, #124]	; 0x7c
 8004e64:	6803      	ldr	r3, [r0, #0]
 8004e66:	6819      	ldr	r1, [r3, #0]
 8004e68:	43a1      	bics	r1, r4
 8004e6a:	6019      	str	r1, [r3, #0]
 8004e6c:	6859      	ldr	r1, [r3, #4]
 8004e6e:	43a9      	bics	r1, r5
 8004e70:	4311      	orrs	r1, r2
 8004e72:	6059      	str	r1, [r3, #4]
 8004e74:	681a      	ldr	r2, [r3, #0]
 8004e76:	4322      	orrs	r2, r4
 8004e78:	601a      	str	r2, [r3, #0]
 8004e7a:	f7ff fe85 	bl	8004b88 <UART_CheckIdleState>
 8004e7e:	bd70      	pop	{r4, r5, r6, pc}
 8004e80:	2001      	movs	r0, #1
 8004e82:	e7fc      	b.n	8004e7e <HAL_MultiProcessorEx_AddressLength_Set+0x2a>

08004e84 <HAL_UARTEx_ReceiveToIdle_IT>:
 8004e84:	2380      	movs	r3, #128	; 0x80
 8004e86:	58c3      	ldr	r3, [r0, r3]
 8004e88:	b510      	push	{r4, lr}
 8004e8a:	0004      	movs	r4, r0
 8004e8c:	2b20      	cmp	r3, #32
 8004e8e:	d129      	bne.n	8004ee4 <HAL_UARTEx_ReceiveToIdle_IT+0x60>
 8004e90:	2900      	cmp	r1, #0
 8004e92:	d00b      	beq.n	8004eac <HAL_UARTEx_ReceiveToIdle_IT+0x28>
 8004e94:	2a00      	cmp	r2, #0
 8004e96:	d009      	beq.n	8004eac <HAL_UARTEx_ReceiveToIdle_IT+0x28>
 8004e98:	2380      	movs	r3, #128	; 0x80
 8004e9a:	6880      	ldr	r0, [r0, #8]
 8004e9c:	015b      	lsls	r3, r3, #5
 8004e9e:	4298      	cmp	r0, r3
 8004ea0:	d106      	bne.n	8004eb0 <HAL_UARTEx_ReceiveToIdle_IT+0x2c>
 8004ea2:	6923      	ldr	r3, [r4, #16]
 8004ea4:	2b00      	cmp	r3, #0
 8004ea6:	d103      	bne.n	8004eb0 <HAL_UARTEx_ReceiveToIdle_IT+0x2c>
 8004ea8:	07cb      	lsls	r3, r1, #31
 8004eaa:	d501      	bpl.n	8004eb0 <HAL_UARTEx_ReceiveToIdle_IT+0x2c>
 8004eac:	2001      	movs	r0, #1
 8004eae:	bd10      	pop	{r4, pc}
 8004eb0:	2301      	movs	r3, #1
 8004eb2:	6623      	str	r3, [r4, #96]	; 0x60
 8004eb4:	2300      	movs	r3, #0
 8004eb6:	0020      	movs	r0, r4
 8004eb8:	6663      	str	r3, [r4, #100]	; 0x64
 8004eba:	f7ff ff63 	bl	8004d84 <UART_Start_Receive_IT>
 8004ebe:	2800      	cmp	r0, #0
 8004ec0:	d1f5      	bne.n	8004eae <HAL_UARTEx_ReceiveToIdle_IT+0x2a>
 8004ec2:	6e23      	ldr	r3, [r4, #96]	; 0x60
 8004ec4:	2b01      	cmp	r3, #1
 8004ec6:	d1f1      	bne.n	8004eac <HAL_UARTEx_ReceiveToIdle_IT+0x28>
 8004ec8:	2110      	movs	r1, #16
 8004eca:	6822      	ldr	r2, [r4, #0]
 8004ecc:	6211      	str	r1, [r2, #32]
 8004ece:	f3ef 8c10 	mrs	ip, PRIMASK
 8004ed2:	f383 8810 	msr	PRIMASK, r3
 8004ed6:	6822      	ldr	r2, [r4, #0]
 8004ed8:	6813      	ldr	r3, [r2, #0]
 8004eda:	430b      	orrs	r3, r1
 8004edc:	6013      	str	r3, [r2, #0]
 8004ede:	f38c 8810 	msr	PRIMASK, ip
 8004ee2:	e7e4      	b.n	8004eae <HAL_UARTEx_ReceiveToIdle_IT+0x2a>
 8004ee4:	2002      	movs	r0, #2
 8004ee6:	e7e2      	b.n	8004eae <HAL_UARTEx_ReceiveToIdle_IT+0x2a>

08004ee8 <std>:
 8004ee8:	2300      	movs	r3, #0
 8004eea:	b510      	push	{r4, lr}
 8004eec:	0004      	movs	r4, r0
 8004eee:	6003      	str	r3, [r0, #0]
 8004ef0:	6043      	str	r3, [r0, #4]
 8004ef2:	6083      	str	r3, [r0, #8]
 8004ef4:	8181      	strh	r1, [r0, #12]
 8004ef6:	6643      	str	r3, [r0, #100]	; 0x64
 8004ef8:	0019      	movs	r1, r3
 8004efa:	81c2      	strh	r2, [r0, #14]
 8004efc:	6103      	str	r3, [r0, #16]
 8004efe:	6143      	str	r3, [r0, #20]
 8004f00:	6183      	str	r3, [r0, #24]
 8004f02:	2208      	movs	r2, #8
 8004f04:	305c      	adds	r0, #92	; 0x5c
 8004f06:	f000 f901 	bl	800510c <memset>
 8004f0a:	4b05      	ldr	r3, [pc, #20]	; (8004f20 <std+0x38>)
 8004f0c:	6224      	str	r4, [r4, #32]
 8004f0e:	6263      	str	r3, [r4, #36]	; 0x24
 8004f10:	4b04      	ldr	r3, [pc, #16]	; (8004f24 <std+0x3c>)
 8004f12:	62a3      	str	r3, [r4, #40]	; 0x28
 8004f14:	4b04      	ldr	r3, [pc, #16]	; (8004f28 <std+0x40>)
 8004f16:	62e3      	str	r3, [r4, #44]	; 0x2c
 8004f18:	4b04      	ldr	r3, [pc, #16]	; (8004f2c <std+0x44>)
 8004f1a:	6323      	str	r3, [r4, #48]	; 0x30
 8004f1c:	bd10      	pop	{r4, pc}
 8004f1e:	46c0      	nop			; (mov r8, r8)
 8004f20:	08005449 	.word	0x08005449
 8004f24:	08005471 	.word	0x08005471
 8004f28:	080054a9 	.word	0x080054a9
 8004f2c:	080054d5 	.word	0x080054d5

08004f30 <stdio_exit_handler>:
 8004f30:	b510      	push	{r4, lr}
 8004f32:	4a03      	ldr	r2, [pc, #12]	; (8004f40 <stdio_exit_handler+0x10>)
 8004f34:	4903      	ldr	r1, [pc, #12]	; (8004f44 <stdio_exit_handler+0x14>)
 8004f36:	4804      	ldr	r0, [pc, #16]	; (8004f48 <stdio_exit_handler+0x18>)
 8004f38:	f000 f86c 	bl	8005014 <_fwalk_sglue>
 8004f3c:	bd10      	pop	{r4, pc}
 8004f3e:	46c0      	nop			; (mov r8, r8)
 8004f40:	20000010 	.word	0x20000010
 8004f44:	080053d1 	.word	0x080053d1
 8004f48:	2000001c 	.word	0x2000001c

08004f4c <cleanup_stdio>:
 8004f4c:	6841      	ldr	r1, [r0, #4]
 8004f4e:	4b0b      	ldr	r3, [pc, #44]	; (8004f7c <cleanup_stdio+0x30>)
 8004f50:	b510      	push	{r4, lr}
 8004f52:	0004      	movs	r4, r0
 8004f54:	4299      	cmp	r1, r3
 8004f56:	d001      	beq.n	8004f5c <cleanup_stdio+0x10>
 8004f58:	f000 fa3a 	bl	80053d0 <_fflush_r>
 8004f5c:	68a1      	ldr	r1, [r4, #8]
 8004f5e:	4b08      	ldr	r3, [pc, #32]	; (8004f80 <cleanup_stdio+0x34>)
 8004f60:	4299      	cmp	r1, r3
 8004f62:	d002      	beq.n	8004f6a <cleanup_stdio+0x1e>
 8004f64:	0020      	movs	r0, r4
 8004f66:	f000 fa33 	bl	80053d0 <_fflush_r>
 8004f6a:	68e1      	ldr	r1, [r4, #12]
 8004f6c:	4b05      	ldr	r3, [pc, #20]	; (8004f84 <cleanup_stdio+0x38>)
 8004f6e:	4299      	cmp	r1, r3
 8004f70:	d002      	beq.n	8004f78 <cleanup_stdio+0x2c>
 8004f72:	0020      	movs	r0, r4
 8004f74:	f000 fa2c 	bl	80053d0 <_fflush_r>
 8004f78:	bd10      	pop	{r4, pc}
 8004f7a:	46c0      	nop			; (mov r8, r8)
 8004f7c:	200003c8 	.word	0x200003c8
 8004f80:	20000430 	.word	0x20000430
 8004f84:	20000498 	.word	0x20000498

08004f88 <global_stdio_init.part.0>:
 8004f88:	b510      	push	{r4, lr}
 8004f8a:	4b09      	ldr	r3, [pc, #36]	; (8004fb0 <global_stdio_init.part.0+0x28>)
 8004f8c:	4a09      	ldr	r2, [pc, #36]	; (8004fb4 <global_stdio_init.part.0+0x2c>)
 8004f8e:	2104      	movs	r1, #4
 8004f90:	601a      	str	r2, [r3, #0]
 8004f92:	4809      	ldr	r0, [pc, #36]	; (8004fb8 <global_stdio_init.part.0+0x30>)
 8004f94:	2200      	movs	r2, #0
 8004f96:	f7ff ffa7 	bl	8004ee8 <std>
 8004f9a:	2201      	movs	r2, #1
 8004f9c:	2109      	movs	r1, #9
 8004f9e:	4807      	ldr	r0, [pc, #28]	; (8004fbc <global_stdio_init.part.0+0x34>)
 8004fa0:	f7ff ffa2 	bl	8004ee8 <std>
 8004fa4:	2202      	movs	r2, #2
 8004fa6:	2112      	movs	r1, #18
 8004fa8:	4805      	ldr	r0, [pc, #20]	; (8004fc0 <global_stdio_init.part.0+0x38>)
 8004faa:	f7ff ff9d 	bl	8004ee8 <std>
 8004fae:	bd10      	pop	{r4, pc}
 8004fb0:	20000500 	.word	0x20000500
 8004fb4:	08004f31 	.word	0x08004f31
 8004fb8:	200003c8 	.word	0x200003c8
 8004fbc:	20000430 	.word	0x20000430
 8004fc0:	20000498 	.word	0x20000498

08004fc4 <__sfp_lock_acquire>:
 8004fc4:	b510      	push	{r4, lr}
 8004fc6:	4802      	ldr	r0, [pc, #8]	; (8004fd0 <__sfp_lock_acquire+0xc>)
 8004fc8:	f000 f8d2 	bl	8005170 <__retarget_lock_acquire_recursive>
 8004fcc:	bd10      	pop	{r4, pc}
 8004fce:	46c0      	nop			; (mov r8, r8)
 8004fd0:	20000505 	.word	0x20000505

08004fd4 <__sfp_lock_release>:
 8004fd4:	b510      	push	{r4, lr}
 8004fd6:	4802      	ldr	r0, [pc, #8]	; (8004fe0 <__sfp_lock_release+0xc>)
 8004fd8:	f000 f8cb 	bl	8005172 <__retarget_lock_release_recursive>
 8004fdc:	bd10      	pop	{r4, pc}
 8004fde:	46c0      	nop			; (mov r8, r8)
 8004fe0:	20000505 	.word	0x20000505

08004fe4 <__sinit>:
 8004fe4:	b510      	push	{r4, lr}
 8004fe6:	0004      	movs	r4, r0
 8004fe8:	f7ff ffec 	bl	8004fc4 <__sfp_lock_acquire>
 8004fec:	6a23      	ldr	r3, [r4, #32]
 8004fee:	2b00      	cmp	r3, #0
 8004ff0:	d002      	beq.n	8004ff8 <__sinit+0x14>
 8004ff2:	f7ff ffef 	bl	8004fd4 <__sfp_lock_release>
 8004ff6:	bd10      	pop	{r4, pc}
 8004ff8:	4b04      	ldr	r3, [pc, #16]	; (800500c <__sinit+0x28>)
 8004ffa:	6223      	str	r3, [r4, #32]
 8004ffc:	4b04      	ldr	r3, [pc, #16]	; (8005010 <__sinit+0x2c>)
 8004ffe:	681b      	ldr	r3, [r3, #0]
 8005000:	2b00      	cmp	r3, #0
 8005002:	d1f6      	bne.n	8004ff2 <__sinit+0xe>
 8005004:	f7ff ffc0 	bl	8004f88 <global_stdio_init.part.0>
 8005008:	e7f3      	b.n	8004ff2 <__sinit+0xe>
 800500a:	46c0      	nop			; (mov r8, r8)
 800500c:	08004f4d 	.word	0x08004f4d
 8005010:	20000500 	.word	0x20000500

08005014 <_fwalk_sglue>:
 8005014:	b5f7      	push	{r0, r1, r2, r4, r5, r6, r7, lr}
 8005016:	0014      	movs	r4, r2
 8005018:	2600      	movs	r6, #0
 800501a:	9000      	str	r0, [sp, #0]
 800501c:	9101      	str	r1, [sp, #4]
 800501e:	68a5      	ldr	r5, [r4, #8]
 8005020:	6867      	ldr	r7, [r4, #4]
 8005022:	3f01      	subs	r7, #1
 8005024:	d504      	bpl.n	8005030 <_fwalk_sglue+0x1c>
 8005026:	6824      	ldr	r4, [r4, #0]
 8005028:	2c00      	cmp	r4, #0
 800502a:	d1f8      	bne.n	800501e <_fwalk_sglue+0xa>
 800502c:	0030      	movs	r0, r6
 800502e:	bdfe      	pop	{r1, r2, r3, r4, r5, r6, r7, pc}
 8005030:	89ab      	ldrh	r3, [r5, #12]
 8005032:	2b01      	cmp	r3, #1
 8005034:	d908      	bls.n	8005048 <_fwalk_sglue+0x34>
 8005036:	220e      	movs	r2, #14
 8005038:	5eab      	ldrsh	r3, [r5, r2]
 800503a:	3301      	adds	r3, #1
 800503c:	d004      	beq.n	8005048 <_fwalk_sglue+0x34>
 800503e:	0029      	movs	r1, r5
 8005040:	9800      	ldr	r0, [sp, #0]
 8005042:	9b01      	ldr	r3, [sp, #4]
 8005044:	4798      	blx	r3
 8005046:	4306      	orrs	r6, r0
 8005048:	3568      	adds	r5, #104	; 0x68
 800504a:	e7ea      	b.n	8005022 <_fwalk_sglue+0xe>

0800504c <_puts_r>:
 800504c:	6a03      	ldr	r3, [r0, #32]
 800504e:	b570      	push	{r4, r5, r6, lr}
 8005050:	0005      	movs	r5, r0
 8005052:	000e      	movs	r6, r1
 8005054:	6884      	ldr	r4, [r0, #8]
 8005056:	2b00      	cmp	r3, #0
 8005058:	d101      	bne.n	800505e <_puts_r+0x12>
 800505a:	f7ff ffc3 	bl	8004fe4 <__sinit>
 800505e:	6e63      	ldr	r3, [r4, #100]	; 0x64
 8005060:	07db      	lsls	r3, r3, #31
 8005062:	d405      	bmi.n	8005070 <_puts_r+0x24>
 8005064:	89a3      	ldrh	r3, [r4, #12]
 8005066:	059b      	lsls	r3, r3, #22
 8005068:	d402      	bmi.n	8005070 <_puts_r+0x24>
 800506a:	6da0      	ldr	r0, [r4, #88]	; 0x58
 800506c:	f000 f880 	bl	8005170 <__retarget_lock_acquire_recursive>
 8005070:	89a3      	ldrh	r3, [r4, #12]
 8005072:	071b      	lsls	r3, r3, #28
 8005074:	d502      	bpl.n	800507c <_puts_r+0x30>
 8005076:	6923      	ldr	r3, [r4, #16]
 8005078:	2b00      	cmp	r3, #0
 800507a:	d11f      	bne.n	80050bc <_puts_r+0x70>
 800507c:	0021      	movs	r1, r4
 800507e:	0028      	movs	r0, r5
 8005080:	f000 fa70 	bl	8005564 <__swsetup_r>
 8005084:	2800      	cmp	r0, #0
 8005086:	d019      	beq.n	80050bc <_puts_r+0x70>
 8005088:	2501      	movs	r5, #1
 800508a:	426d      	negs	r5, r5
 800508c:	6e63      	ldr	r3, [r4, #100]	; 0x64
 800508e:	07db      	lsls	r3, r3, #31
 8005090:	d405      	bmi.n	800509e <_puts_r+0x52>
 8005092:	89a3      	ldrh	r3, [r4, #12]
 8005094:	059b      	lsls	r3, r3, #22
 8005096:	d402      	bmi.n	800509e <_puts_r+0x52>
 8005098:	6da0      	ldr	r0, [r4, #88]	; 0x58
 800509a:	f000 f86a 	bl	8005172 <__retarget_lock_release_recursive>
 800509e:	0028      	movs	r0, r5
 80050a0:	bd70      	pop	{r4, r5, r6, pc}
 80050a2:	3601      	adds	r6, #1
 80050a4:	60a3      	str	r3, [r4, #8]
 80050a6:	2b00      	cmp	r3, #0
 80050a8:	da04      	bge.n	80050b4 <_puts_r+0x68>
 80050aa:	69a2      	ldr	r2, [r4, #24]
 80050ac:	429a      	cmp	r2, r3
 80050ae:	dc16      	bgt.n	80050de <_puts_r+0x92>
 80050b0:	290a      	cmp	r1, #10
 80050b2:	d014      	beq.n	80050de <_puts_r+0x92>
 80050b4:	6823      	ldr	r3, [r4, #0]
 80050b6:	1c5a      	adds	r2, r3, #1
 80050b8:	6022      	str	r2, [r4, #0]
 80050ba:	7019      	strb	r1, [r3, #0]
 80050bc:	68a3      	ldr	r3, [r4, #8]
 80050be:	7831      	ldrb	r1, [r6, #0]
 80050c0:	3b01      	subs	r3, #1
 80050c2:	2900      	cmp	r1, #0
 80050c4:	d1ed      	bne.n	80050a2 <_puts_r+0x56>
 80050c6:	60a3      	str	r3, [r4, #8]
 80050c8:	2b00      	cmp	r3, #0
 80050ca:	da0f      	bge.n	80050ec <_puts_r+0xa0>
 80050cc:	0028      	movs	r0, r5
 80050ce:	0022      	movs	r2, r4
 80050d0:	310a      	adds	r1, #10
 80050d2:	f000 fa05 	bl	80054e0 <__swbuf_r>
 80050d6:	250a      	movs	r5, #10
 80050d8:	3001      	adds	r0, #1
 80050da:	d1d7      	bne.n	800508c <_puts_r+0x40>
 80050dc:	e7d4      	b.n	8005088 <_puts_r+0x3c>
 80050de:	0022      	movs	r2, r4
 80050e0:	0028      	movs	r0, r5
 80050e2:	f000 f9fd 	bl	80054e0 <__swbuf_r>
 80050e6:	3001      	adds	r0, #1
 80050e8:	d1e8      	bne.n	80050bc <_puts_r+0x70>
 80050ea:	e7cd      	b.n	8005088 <_puts_r+0x3c>
 80050ec:	250a      	movs	r5, #10
 80050ee:	6823      	ldr	r3, [r4, #0]
 80050f0:	1c5a      	adds	r2, r3, #1
 80050f2:	6022      	str	r2, [r4, #0]
 80050f4:	701d      	strb	r5, [r3, #0]
 80050f6:	e7c9      	b.n	800508c <_puts_r+0x40>

080050f8 <puts>:
 80050f8:	b510      	push	{r4, lr}
 80050fa:	4b03      	ldr	r3, [pc, #12]	; (8005108 <puts+0x10>)
 80050fc:	0001      	movs	r1, r0
 80050fe:	6818      	ldr	r0, [r3, #0]
 8005100:	f7ff ffa4 	bl	800504c <_puts_r>
 8005104:	bd10      	pop	{r4, pc}
 8005106:	46c0      	nop			; (mov r8, r8)
 8005108:	20000068 	.word	0x20000068

0800510c <memset>:
 800510c:	0003      	movs	r3, r0
 800510e:	1882      	adds	r2, r0, r2
 8005110:	4293      	cmp	r3, r2
 8005112:	d100      	bne.n	8005116 <memset+0xa>
 8005114:	4770      	bx	lr
 8005116:	7019      	strb	r1, [r3, #0]
 8005118:	3301      	adds	r3, #1
 800511a:	e7f9      	b.n	8005110 <memset+0x4>

0800511c <__errno>:
 800511c:	4b01      	ldr	r3, [pc, #4]	; (8005124 <__errno+0x8>)
 800511e:	6818      	ldr	r0, [r3, #0]
 8005120:	4770      	bx	lr
 8005122:	46c0      	nop			; (mov r8, r8)
 8005124:	20000068 	.word	0x20000068

08005128 <__libc_init_array>:
 8005128:	b570      	push	{r4, r5, r6, lr}
 800512a:	2600      	movs	r6, #0
 800512c:	4c0c      	ldr	r4, [pc, #48]	; (8005160 <__libc_init_array+0x38>)
 800512e:	4d0d      	ldr	r5, [pc, #52]	; (8005164 <__libc_init_array+0x3c>)
 8005130:	1b64      	subs	r4, r4, r5
 8005132:	10a4      	asrs	r4, r4, #2
 8005134:	42a6      	cmp	r6, r4
 8005136:	d109      	bne.n	800514c <__libc_init_array+0x24>
 8005138:	2600      	movs	r6, #0
 800513a:	f000 fbab 	bl	8005894 <_init>
 800513e:	4c0a      	ldr	r4, [pc, #40]	; (8005168 <__libc_init_array+0x40>)
 8005140:	4d0a      	ldr	r5, [pc, #40]	; (800516c <__libc_init_array+0x44>)
 8005142:	1b64      	subs	r4, r4, r5
 8005144:	10a4      	asrs	r4, r4, #2
 8005146:	42a6      	cmp	r6, r4
 8005148:	d105      	bne.n	8005156 <__libc_init_array+0x2e>
 800514a:	bd70      	pop	{r4, r5, r6, pc}
 800514c:	00b3      	lsls	r3, r6, #2
 800514e:	58eb      	ldr	r3, [r5, r3]
 8005150:	4798      	blx	r3
 8005152:	3601      	adds	r6, #1
 8005154:	e7ee      	b.n	8005134 <__libc_init_array+0xc>
 8005156:	00b3      	lsls	r3, r6, #2
 8005158:	58eb      	ldr	r3, [r5, r3]
 800515a:	4798      	blx	r3
 800515c:	3601      	adds	r6, #1
 800515e:	e7f2      	b.n	8005146 <__libc_init_array+0x1e>
 8005160:	08005af8 	.word	0x08005af8
 8005164:	08005af8 	.word	0x08005af8
 8005168:	08005afc 	.word	0x08005afc
 800516c:	08005af8 	.word	0x08005af8

08005170 <__retarget_lock_acquire_recursive>:
 8005170:	4770      	bx	lr

08005172 <__retarget_lock_release_recursive>:
 8005172:	4770      	bx	lr

08005174 <sbrk_aligned>:
 8005174:	b570      	push	{r4, r5, r6, lr}
 8005176:	4e0f      	ldr	r6, [pc, #60]	; (80051b4 <sbrk_aligned+0x40>)
 8005178:	000d      	movs	r5, r1
 800517a:	6831      	ldr	r1, [r6, #0]
 800517c:	0004      	movs	r4, r0
 800517e:	2900      	cmp	r1, #0
 8005180:	d102      	bne.n	8005188 <sbrk_aligned+0x14>
 8005182:	f000 fb17 	bl	80057b4 <_sbrk_r>
 8005186:	6030      	str	r0, [r6, #0]
 8005188:	0029      	movs	r1, r5
 800518a:	0020      	movs	r0, r4
 800518c:	f000 fb12 	bl	80057b4 <_sbrk_r>
 8005190:	1c43      	adds	r3, r0, #1
 8005192:	d00a      	beq.n	80051aa <sbrk_aligned+0x36>
 8005194:	2303      	movs	r3, #3
 8005196:	1cc5      	adds	r5, r0, #3
 8005198:	439d      	bics	r5, r3
 800519a:	42a8      	cmp	r0, r5
 800519c:	d007      	beq.n	80051ae <sbrk_aligned+0x3a>
 800519e:	1a29      	subs	r1, r5, r0
 80051a0:	0020      	movs	r0, r4
 80051a2:	f000 fb07 	bl	80057b4 <_sbrk_r>
 80051a6:	3001      	adds	r0, #1
 80051a8:	d101      	bne.n	80051ae <sbrk_aligned+0x3a>
 80051aa:	2501      	movs	r5, #1
 80051ac:	426d      	negs	r5, r5
 80051ae:	0028      	movs	r0, r5
 80051b0:	bd70      	pop	{r4, r5, r6, pc}
 80051b2:	46c0      	nop			; (mov r8, r8)
 80051b4:	2000050c 	.word	0x2000050c

080051b8 <_malloc_r>:
 80051b8:	b5f7      	push	{r0, r1, r2, r4, r5, r6, r7, lr}
 80051ba:	2203      	movs	r2, #3
 80051bc:	1ccb      	adds	r3, r1, #3
 80051be:	4393      	bics	r3, r2
 80051c0:	3308      	adds	r3, #8
 80051c2:	0006      	movs	r6, r0
 80051c4:	001f      	movs	r7, r3
 80051c6:	2b0c      	cmp	r3, #12
 80051c8:	d238      	bcs.n	800523c <_malloc_r+0x84>
 80051ca:	270c      	movs	r7, #12
 80051cc:	42b9      	cmp	r1, r7
 80051ce:	d837      	bhi.n	8005240 <_malloc_r+0x88>
 80051d0:	0030      	movs	r0, r6
 80051d2:	f000 f929 	bl	8005428 <__malloc_lock>
 80051d6:	4b38      	ldr	r3, [pc, #224]	; (80052b8 <_malloc_r+0x100>)
 80051d8:	9300      	str	r3, [sp, #0]
 80051da:	681b      	ldr	r3, [r3, #0]
 80051dc:	001c      	movs	r4, r3
 80051de:	2c00      	cmp	r4, #0
 80051e0:	d133      	bne.n	800524a <_malloc_r+0x92>
 80051e2:	0039      	movs	r1, r7
 80051e4:	0030      	movs	r0, r6
 80051e6:	f7ff ffc5 	bl	8005174 <sbrk_aligned>
 80051ea:	0004      	movs	r4, r0
 80051ec:	1c43      	adds	r3, r0, #1
 80051ee:	d15e      	bne.n	80052ae <_malloc_r+0xf6>
 80051f0:	9b00      	ldr	r3, [sp, #0]
 80051f2:	681c      	ldr	r4, [r3, #0]
 80051f4:	0025      	movs	r5, r4
 80051f6:	2d00      	cmp	r5, #0
 80051f8:	d14e      	bne.n	8005298 <_malloc_r+0xe0>
 80051fa:	2c00      	cmp	r4, #0
 80051fc:	d051      	beq.n	80052a2 <_malloc_r+0xea>
 80051fe:	6823      	ldr	r3, [r4, #0]
 8005200:	0029      	movs	r1, r5
 8005202:	18e3      	adds	r3, r4, r3
 8005204:	0030      	movs	r0, r6
 8005206:	9301      	str	r3, [sp, #4]
 8005208:	f000 fad4 	bl	80057b4 <_sbrk_r>
 800520c:	9b01      	ldr	r3, [sp, #4]
 800520e:	4283      	cmp	r3, r0
 8005210:	d147      	bne.n	80052a2 <_malloc_r+0xea>
 8005212:	6823      	ldr	r3, [r4, #0]
 8005214:	0030      	movs	r0, r6
 8005216:	1aff      	subs	r7, r7, r3
 8005218:	0039      	movs	r1, r7
 800521a:	f7ff ffab 	bl	8005174 <sbrk_aligned>
 800521e:	3001      	adds	r0, #1
 8005220:	d03f      	beq.n	80052a2 <_malloc_r+0xea>
 8005222:	6823      	ldr	r3, [r4, #0]
 8005224:	19db      	adds	r3, r3, r7
 8005226:	6023      	str	r3, [r4, #0]
 8005228:	9b00      	ldr	r3, [sp, #0]
 800522a:	681b      	ldr	r3, [r3, #0]
 800522c:	2b00      	cmp	r3, #0
 800522e:	d040      	beq.n	80052b2 <_malloc_r+0xfa>
 8005230:	685a      	ldr	r2, [r3, #4]
 8005232:	42a2      	cmp	r2, r4
 8005234:	d133      	bne.n	800529e <_malloc_r+0xe6>
 8005236:	2200      	movs	r2, #0
 8005238:	605a      	str	r2, [r3, #4]
 800523a:	e014      	b.n	8005266 <_malloc_r+0xae>
 800523c:	2b00      	cmp	r3, #0
 800523e:	dac5      	bge.n	80051cc <_malloc_r+0x14>
 8005240:	230c      	movs	r3, #12
 8005242:	2500      	movs	r5, #0
 8005244:	6033      	str	r3, [r6, #0]
 8005246:	0028      	movs	r0, r5
 8005248:	bdfe      	pop	{r1, r2, r3, r4, r5, r6, r7, pc}
 800524a:	6821      	ldr	r1, [r4, #0]
 800524c:	1bc9      	subs	r1, r1, r7
 800524e:	d420      	bmi.n	8005292 <_malloc_r+0xda>
 8005250:	290b      	cmp	r1, #11
 8005252:	d918      	bls.n	8005286 <_malloc_r+0xce>
 8005254:	19e2      	adds	r2, r4, r7
 8005256:	6027      	str	r7, [r4, #0]
 8005258:	42a3      	cmp	r3, r4
 800525a:	d112      	bne.n	8005282 <_malloc_r+0xca>
 800525c:	9b00      	ldr	r3, [sp, #0]
 800525e:	601a      	str	r2, [r3, #0]
 8005260:	6863      	ldr	r3, [r4, #4]
 8005262:	6011      	str	r1, [r2, #0]
 8005264:	6053      	str	r3, [r2, #4]
 8005266:	0030      	movs	r0, r6
 8005268:	0025      	movs	r5, r4
 800526a:	f000 f8e5 	bl	8005438 <__malloc_unlock>
 800526e:	2207      	movs	r2, #7
 8005270:	350b      	adds	r5, #11
 8005272:	1d23      	adds	r3, r4, #4
 8005274:	4395      	bics	r5, r2
 8005276:	1aea      	subs	r2, r5, r3
 8005278:	429d      	cmp	r5, r3
 800527a:	d0e4      	beq.n	8005246 <_malloc_r+0x8e>
 800527c:	1b5b      	subs	r3, r3, r5
 800527e:	50a3      	str	r3, [r4, r2]
 8005280:	e7e1      	b.n	8005246 <_malloc_r+0x8e>
 8005282:	605a      	str	r2, [r3, #4]
 8005284:	e7ec      	b.n	8005260 <_malloc_r+0xa8>
 8005286:	6862      	ldr	r2, [r4, #4]
 8005288:	42a3      	cmp	r3, r4
 800528a:	d1d5      	bne.n	8005238 <_malloc_r+0x80>
 800528c:	9b00      	ldr	r3, [sp, #0]
 800528e:	601a      	str	r2, [r3, #0]
 8005290:	e7e9      	b.n	8005266 <_malloc_r+0xae>
 8005292:	0023      	movs	r3, r4
 8005294:	6864      	ldr	r4, [r4, #4]
 8005296:	e7a2      	b.n	80051de <_malloc_r+0x26>
 8005298:	002c      	movs	r4, r5
 800529a:	686d      	ldr	r5, [r5, #4]
 800529c:	e7ab      	b.n	80051f6 <_malloc_r+0x3e>
 800529e:	0013      	movs	r3, r2
 80052a0:	e7c4      	b.n	800522c <_malloc_r+0x74>
 80052a2:	230c      	movs	r3, #12
 80052a4:	0030      	movs	r0, r6
 80052a6:	6033      	str	r3, [r6, #0]
 80052a8:	f000 f8c6 	bl	8005438 <__malloc_unlock>
 80052ac:	e7cb      	b.n	8005246 <_malloc_r+0x8e>
 80052ae:	6027      	str	r7, [r4, #0]
 80052b0:	e7d9      	b.n	8005266 <_malloc_r+0xae>
 80052b2:	605b      	str	r3, [r3, #4]
 80052b4:	deff      	udf	#255	; 0xff
 80052b6:	46c0      	nop			; (mov r8, r8)
 80052b8:	20000508 	.word	0x20000508

080052bc <__sflush_r>:
 80052bc:	b5f7      	push	{r0, r1, r2, r4, r5, r6, r7, lr}
 80052be:	898b      	ldrh	r3, [r1, #12]
 80052c0:	0005      	movs	r5, r0
 80052c2:	000c      	movs	r4, r1
 80052c4:	071a      	lsls	r2, r3, #28
 80052c6:	d45c      	bmi.n	8005382 <__sflush_r+0xc6>
 80052c8:	684a      	ldr	r2, [r1, #4]
 80052ca:	2a00      	cmp	r2, #0
 80052cc:	dc04      	bgt.n	80052d8 <__sflush_r+0x1c>
 80052ce:	6c0a      	ldr	r2, [r1, #64]	; 0x40
 80052d0:	2a00      	cmp	r2, #0
 80052d2:	dc01      	bgt.n	80052d8 <__sflush_r+0x1c>
 80052d4:	2000      	movs	r0, #0
 80052d6:	bdfe      	pop	{r1, r2, r3, r4, r5, r6, r7, pc}
 80052d8:	6ae7      	ldr	r7, [r4, #44]	; 0x2c
 80052da:	2f00      	cmp	r7, #0
 80052dc:	d0fa      	beq.n	80052d4 <__sflush_r+0x18>
 80052de:	2200      	movs	r2, #0
 80052e0:	2080      	movs	r0, #128	; 0x80
 80052e2:	682e      	ldr	r6, [r5, #0]
 80052e4:	602a      	str	r2, [r5, #0]
 80052e6:	001a      	movs	r2, r3
 80052e8:	0140      	lsls	r0, r0, #5
 80052ea:	6a21      	ldr	r1, [r4, #32]
 80052ec:	4002      	ands	r2, r0
 80052ee:	4203      	tst	r3, r0
 80052f0:	d034      	beq.n	800535c <__sflush_r+0xa0>
 80052f2:	6d60      	ldr	r0, [r4, #84]	; 0x54
 80052f4:	89a3      	ldrh	r3, [r4, #12]
 80052f6:	075b      	lsls	r3, r3, #29
 80052f8:	d506      	bpl.n	8005308 <__sflush_r+0x4c>
 80052fa:	6863      	ldr	r3, [r4, #4]
 80052fc:	1ac0      	subs	r0, r0, r3
 80052fe:	6b63      	ldr	r3, [r4, #52]	; 0x34
 8005300:	2b00      	cmp	r3, #0
 8005302:	d001      	beq.n	8005308 <__sflush_r+0x4c>
 8005304:	6c23      	ldr	r3, [r4, #64]	; 0x40
 8005306:	1ac0      	subs	r0, r0, r3
 8005308:	0002      	movs	r2, r0
 800530a:	2300      	movs	r3, #0
 800530c:	0028      	movs	r0, r5
 800530e:	6ae7      	ldr	r7, [r4, #44]	; 0x2c
 8005310:	6a21      	ldr	r1, [r4, #32]
 8005312:	47b8      	blx	r7
 8005314:	89a2      	ldrh	r2, [r4, #12]
 8005316:	1c43      	adds	r3, r0, #1
 8005318:	d106      	bne.n	8005328 <__sflush_r+0x6c>
 800531a:	6829      	ldr	r1, [r5, #0]
 800531c:	291d      	cmp	r1, #29
 800531e:	d82c      	bhi.n	800537a <__sflush_r+0xbe>
 8005320:	4b2a      	ldr	r3, [pc, #168]	; (80053cc <__sflush_r+0x110>)
 8005322:	410b      	asrs	r3, r1
 8005324:	07db      	lsls	r3, r3, #31
 8005326:	d428      	bmi.n	800537a <__sflush_r+0xbe>
 8005328:	2300      	movs	r3, #0
 800532a:	6063      	str	r3, [r4, #4]
 800532c:	6923      	ldr	r3, [r4, #16]
 800532e:	6023      	str	r3, [r4, #0]
 8005330:	04d2      	lsls	r2, r2, #19
 8005332:	d505      	bpl.n	8005340 <__sflush_r+0x84>
 8005334:	1c43      	adds	r3, r0, #1
 8005336:	d102      	bne.n	800533e <__sflush_r+0x82>
 8005338:	682b      	ldr	r3, [r5, #0]
 800533a:	2b00      	cmp	r3, #0
 800533c:	d100      	bne.n	8005340 <__sflush_r+0x84>
 800533e:	6560      	str	r0, [r4, #84]	; 0x54
 8005340:	6b61      	ldr	r1, [r4, #52]	; 0x34
 8005342:	602e      	str	r6, [r5, #0]
 8005344:	2900      	cmp	r1, #0
 8005346:	d0c5      	beq.n	80052d4 <__sflush_r+0x18>
 8005348:	0023      	movs	r3, r4
 800534a:	3344      	adds	r3, #68	; 0x44
 800534c:	4299      	cmp	r1, r3
 800534e:	d002      	beq.n	8005356 <__sflush_r+0x9a>
 8005350:	0028      	movs	r0, r5
 8005352:	f000 fa55 	bl	8005800 <_free_r>
 8005356:	2000      	movs	r0, #0
 8005358:	6360      	str	r0, [r4, #52]	; 0x34
 800535a:	e7bc      	b.n	80052d6 <__sflush_r+0x1a>
 800535c:	2301      	movs	r3, #1
 800535e:	0028      	movs	r0, r5
 8005360:	47b8      	blx	r7
 8005362:	1c43      	adds	r3, r0, #1
 8005364:	d1c6      	bne.n	80052f4 <__sflush_r+0x38>
 8005366:	682b      	ldr	r3, [r5, #0]
 8005368:	2b00      	cmp	r3, #0
 800536a:	d0c3      	beq.n	80052f4 <__sflush_r+0x38>
 800536c:	2b1d      	cmp	r3, #29
 800536e:	d001      	beq.n	8005374 <__sflush_r+0xb8>
 8005370:	2b16      	cmp	r3, #22
 8005372:	d101      	bne.n	8005378 <__sflush_r+0xbc>
 8005374:	602e      	str	r6, [r5, #0]
 8005376:	e7ad      	b.n	80052d4 <__sflush_r+0x18>
 8005378:	89a2      	ldrh	r2, [r4, #12]
 800537a:	2340      	movs	r3, #64	; 0x40
 800537c:	4313      	orrs	r3, r2
 800537e:	81a3      	strh	r3, [r4, #12]
 8005380:	e7a9      	b.n	80052d6 <__sflush_r+0x1a>
 8005382:	690e      	ldr	r6, [r1, #16]
 8005384:	2e00      	cmp	r6, #0
 8005386:	d0a5      	beq.n	80052d4 <__sflush_r+0x18>
 8005388:	680f      	ldr	r7, [r1, #0]
 800538a:	600e      	str	r6, [r1, #0]
 800538c:	1bba      	subs	r2, r7, r6
 800538e:	9201      	str	r2, [sp, #4]
 8005390:	2200      	movs	r2, #0
 8005392:	079b      	lsls	r3, r3, #30
 8005394:	d100      	bne.n	8005398 <__sflush_r+0xdc>
 8005396:	694a      	ldr	r2, [r1, #20]
 8005398:	60a2      	str	r2, [r4, #8]
 800539a:	9b01      	ldr	r3, [sp, #4]
 800539c:	2b00      	cmp	r3, #0
 800539e:	dd99      	ble.n	80052d4 <__sflush_r+0x18>
 80053a0:	6aa3      	ldr	r3, [r4, #40]	; 0x28
 80053a2:	0032      	movs	r2, r6
 80053a4:	001f      	movs	r7, r3
 80053a6:	0028      	movs	r0, r5
 80053a8:	9b01      	ldr	r3, [sp, #4]
 80053aa:	6a21      	ldr	r1, [r4, #32]
 80053ac:	47b8      	blx	r7
 80053ae:	2800      	cmp	r0, #0
 80053b0:	dc06      	bgt.n	80053c0 <__sflush_r+0x104>
 80053b2:	2340      	movs	r3, #64	; 0x40
 80053b4:	2001      	movs	r0, #1
 80053b6:	89a2      	ldrh	r2, [r4, #12]
 80053b8:	4240      	negs	r0, r0
 80053ba:	4313      	orrs	r3, r2
 80053bc:	81a3      	strh	r3, [r4, #12]
 80053be:	e78a      	b.n	80052d6 <__sflush_r+0x1a>
 80053c0:	9b01      	ldr	r3, [sp, #4]
 80053c2:	1836      	adds	r6, r6, r0
 80053c4:	1a1b      	subs	r3, r3, r0
 80053c6:	9301      	str	r3, [sp, #4]
 80053c8:	e7e7      	b.n	800539a <__sflush_r+0xde>
 80053ca:	46c0      	nop			; (mov r8, r8)
 80053cc:	dfbffffe 	.word	0xdfbffffe

080053d0 <_fflush_r>:
 80053d0:	690b      	ldr	r3, [r1, #16]
 80053d2:	b570      	push	{r4, r5, r6, lr}
 80053d4:	0005      	movs	r5, r0
 80053d6:	000c      	movs	r4, r1
 80053d8:	2b00      	cmp	r3, #0
 80053da:	d102      	bne.n	80053e2 <_fflush_r+0x12>
 80053dc:	2500      	movs	r5, #0
 80053de:	0028      	movs	r0, r5
 80053e0:	bd70      	pop	{r4, r5, r6, pc}
 80053e2:	2800      	cmp	r0, #0
 80053e4:	d004      	beq.n	80053f0 <_fflush_r+0x20>
 80053e6:	6a03      	ldr	r3, [r0, #32]
 80053e8:	2b00      	cmp	r3, #0
 80053ea:	d101      	bne.n	80053f0 <_fflush_r+0x20>
 80053ec:	f7ff fdfa 	bl	8004fe4 <__sinit>
 80053f0:	220c      	movs	r2, #12
 80053f2:	5ea3      	ldrsh	r3, [r4, r2]
 80053f4:	2b00      	cmp	r3, #0
 80053f6:	d0f1      	beq.n	80053dc <_fflush_r+0xc>
 80053f8:	6e62      	ldr	r2, [r4, #100]	; 0x64
 80053fa:	07d2      	lsls	r2, r2, #31
 80053fc:	d404      	bmi.n	8005408 <_fflush_r+0x38>
 80053fe:	059b      	lsls	r3, r3, #22
 8005400:	d402      	bmi.n	8005408 <_fflush_r+0x38>
 8005402:	6da0      	ldr	r0, [r4, #88]	; 0x58
 8005404:	f7ff feb4 	bl	8005170 <__retarget_lock_acquire_recursive>
 8005408:	0028      	movs	r0, r5
 800540a:	0021      	movs	r1, r4
 800540c:	f7ff ff56 	bl	80052bc <__sflush_r>
 8005410:	6e63      	ldr	r3, [r4, #100]	; 0x64
 8005412:	0005      	movs	r5, r0
 8005414:	07db      	lsls	r3, r3, #31
 8005416:	d4e2      	bmi.n	80053de <_fflush_r+0xe>
 8005418:	89a3      	ldrh	r3, [r4, #12]
 800541a:	059b      	lsls	r3, r3, #22
 800541c:	d4df      	bmi.n	80053de <_fflush_r+0xe>
 800541e:	6da0      	ldr	r0, [r4, #88]	; 0x58
 8005420:	f7ff fea7 	bl	8005172 <__retarget_lock_release_recursive>
 8005424:	e7db      	b.n	80053de <_fflush_r+0xe>
	...

08005428 <__malloc_lock>:
 8005428:	b510      	push	{r4, lr}
 800542a:	4802      	ldr	r0, [pc, #8]	; (8005434 <__malloc_lock+0xc>)
 800542c:	f7ff fea0 	bl	8005170 <__retarget_lock_acquire_recursive>
 8005430:	bd10      	pop	{r4, pc}
 8005432:	46c0      	nop			; (mov r8, r8)
 8005434:	20000504 	.word	0x20000504

08005438 <__malloc_unlock>:
 8005438:	b510      	push	{r4, lr}
 800543a:	4802      	ldr	r0, [pc, #8]	; (8005444 <__malloc_unlock+0xc>)
 800543c:	f7ff fe99 	bl	8005172 <__retarget_lock_release_recursive>
 8005440:	bd10      	pop	{r4, pc}
 8005442:	46c0      	nop			; (mov r8, r8)
 8005444:	20000504 	.word	0x20000504

08005448 <__sread>:
 8005448:	b570      	push	{r4, r5, r6, lr}
 800544a:	000c      	movs	r4, r1
 800544c:	250e      	movs	r5, #14
 800544e:	5f49      	ldrsh	r1, [r1, r5]
 8005450:	f000 f99c 	bl	800578c <_read_r>
 8005454:	2800      	cmp	r0, #0
 8005456:	db03      	blt.n	8005460 <__sread+0x18>
 8005458:	6d63      	ldr	r3, [r4, #84]	; 0x54
 800545a:	181b      	adds	r3, r3, r0
 800545c:	6563      	str	r3, [r4, #84]	; 0x54
 800545e:	bd70      	pop	{r4, r5, r6, pc}
 8005460:	89a3      	ldrh	r3, [r4, #12]
 8005462:	4a02      	ldr	r2, [pc, #8]	; (800546c <__sread+0x24>)
 8005464:	4013      	ands	r3, r2
 8005466:	81a3      	strh	r3, [r4, #12]
 8005468:	e7f9      	b.n	800545e <__sread+0x16>
 800546a:	46c0      	nop			; (mov r8, r8)
 800546c:	ffffefff 	.word	0xffffefff

08005470 <__swrite>:
 8005470:	b5f8      	push	{r3, r4, r5, r6, r7, lr}
 8005472:	001f      	movs	r7, r3
 8005474:	898b      	ldrh	r3, [r1, #12]
 8005476:	0005      	movs	r5, r0
 8005478:	000c      	movs	r4, r1
 800547a:	0016      	movs	r6, r2
 800547c:	05db      	lsls	r3, r3, #23
 800547e:	d505      	bpl.n	800548c <__swrite+0x1c>
 8005480:	230e      	movs	r3, #14
 8005482:	5ec9      	ldrsh	r1, [r1, r3]
 8005484:	2200      	movs	r2, #0
 8005486:	2302      	movs	r3, #2
 8005488:	f000 f96c 	bl	8005764 <_lseek_r>
 800548c:	89a3      	ldrh	r3, [r4, #12]
 800548e:	4a05      	ldr	r2, [pc, #20]	; (80054a4 <__swrite+0x34>)
 8005490:	0028      	movs	r0, r5
 8005492:	4013      	ands	r3, r2
 8005494:	81a3      	strh	r3, [r4, #12]
 8005496:	0032      	movs	r2, r6
 8005498:	230e      	movs	r3, #14
 800549a:	5ee1      	ldrsh	r1, [r4, r3]
 800549c:	003b      	movs	r3, r7
 800549e:	f000 f99b 	bl	80057d8 <_write_r>
 80054a2:	bdf8      	pop	{r3, r4, r5, r6, r7, pc}
 80054a4:	ffffefff 	.word	0xffffefff

080054a8 <__sseek>:
 80054a8:	b570      	push	{r4, r5, r6, lr}
 80054aa:	000c      	movs	r4, r1
 80054ac:	250e      	movs	r5, #14
 80054ae:	5f49      	ldrsh	r1, [r1, r5]
 80054b0:	f000 f958 	bl	8005764 <_lseek_r>
 80054b4:	89a3      	ldrh	r3, [r4, #12]
 80054b6:	1c42      	adds	r2, r0, #1
 80054b8:	d103      	bne.n	80054c2 <__sseek+0x1a>
 80054ba:	4a05      	ldr	r2, [pc, #20]	; (80054d0 <__sseek+0x28>)
 80054bc:	4013      	ands	r3, r2
 80054be:	81a3      	strh	r3, [r4, #12]
 80054c0:	bd70      	pop	{r4, r5, r6, pc}
 80054c2:	2280      	movs	r2, #128	; 0x80
 80054c4:	0152      	lsls	r2, r2, #5
 80054c6:	4313      	orrs	r3, r2
 80054c8:	81a3      	strh	r3, [r4, #12]
 80054ca:	6560      	str	r0, [r4, #84]	; 0x54
 80054cc:	e7f8      	b.n	80054c0 <__sseek+0x18>
 80054ce:	46c0      	nop			; (mov r8, r8)
 80054d0:	ffffefff 	.word	0xffffefff

080054d4 <__sclose>:
 80054d4:	b510      	push	{r4, lr}
 80054d6:	230e      	movs	r3, #14
 80054d8:	5ec9      	ldrsh	r1, [r1, r3]
 80054da:	f000 f90d 	bl	80056f8 <_close_r>
 80054de:	bd10      	pop	{r4, pc}

080054e0 <__swbuf_r>:
 80054e0:	b5f8      	push	{r3, r4, r5, r6, r7, lr}
 80054e2:	0006      	movs	r6, r0
 80054e4:	000d      	movs	r5, r1
 80054e6:	0014      	movs	r4, r2
 80054e8:	2800      	cmp	r0, #0
 80054ea:	d004      	beq.n	80054f6 <__swbuf_r+0x16>
 80054ec:	6a03      	ldr	r3, [r0, #32]
 80054ee:	2b00      	cmp	r3, #0
 80054f0:	d101      	bne.n	80054f6 <__swbuf_r+0x16>
 80054f2:	f7ff fd77 	bl	8004fe4 <__sinit>
 80054f6:	69a3      	ldr	r3, [r4, #24]
 80054f8:	60a3      	str	r3, [r4, #8]
 80054fa:	89a3      	ldrh	r3, [r4, #12]
 80054fc:	071b      	lsls	r3, r3, #28
 80054fe:	d528      	bpl.n	8005552 <__swbuf_r+0x72>
 8005500:	6923      	ldr	r3, [r4, #16]
 8005502:	2b00      	cmp	r3, #0
 8005504:	d025      	beq.n	8005552 <__swbuf_r+0x72>
 8005506:	6923      	ldr	r3, [r4, #16]
 8005508:	6820      	ldr	r0, [r4, #0]
 800550a:	b2ef      	uxtb	r7, r5
 800550c:	1ac0      	subs	r0, r0, r3
 800550e:	6963      	ldr	r3, [r4, #20]
 8005510:	b2ed      	uxtb	r5, r5
 8005512:	4283      	cmp	r3, r0
 8005514:	dc05      	bgt.n	8005522 <__swbuf_r+0x42>
 8005516:	0021      	movs	r1, r4
 8005518:	0030      	movs	r0, r6
 800551a:	f7ff ff59 	bl	80053d0 <_fflush_r>
 800551e:	2800      	cmp	r0, #0
 8005520:	d11d      	bne.n	800555e <__swbuf_r+0x7e>
 8005522:	68a3      	ldr	r3, [r4, #8]
 8005524:	3001      	adds	r0, #1
 8005526:	3b01      	subs	r3, #1
 8005528:	60a3      	str	r3, [r4, #8]
 800552a:	6823      	ldr	r3, [r4, #0]
 800552c:	1c5a      	adds	r2, r3, #1
 800552e:	6022      	str	r2, [r4, #0]
 8005530:	701f      	strb	r7, [r3, #0]
 8005532:	6963      	ldr	r3, [r4, #20]
 8005534:	4283      	cmp	r3, r0
 8005536:	d004      	beq.n	8005542 <__swbuf_r+0x62>
 8005538:	89a3      	ldrh	r3, [r4, #12]
 800553a:	07db      	lsls	r3, r3, #31
 800553c:	d507      	bpl.n	800554e <__swbuf_r+0x6e>
 800553e:	2d0a      	cmp	r5, #10
 8005540:	d105      	bne.n	800554e <__swbuf_r+0x6e>
 8005542:	0021      	movs	r1, r4
 8005544:	0030      	movs	r0, r6
 8005546:	f7ff ff43 	bl	80053d0 <_fflush_r>
 800554a:	2800      	cmp	r0, #0
 800554c:	d107      	bne.n	800555e <__swbuf_r+0x7e>
 800554e:	0028      	movs	r0, r5
 8005550:	bdf8      	pop	{r3, r4, r5, r6, r7, pc}
 8005552:	0021      	movs	r1, r4
 8005554:	0030      	movs	r0, r6
 8005556:	f000 f805 	bl	8005564 <__swsetup_r>
 800555a:	2800      	cmp	r0, #0
 800555c:	d0d3      	beq.n	8005506 <__swbuf_r+0x26>
 800555e:	2501      	movs	r5, #1
 8005560:	426d      	negs	r5, r5
 8005562:	e7f4      	b.n	800554e <__swbuf_r+0x6e>

08005564 <__swsetup_r>:
 8005564:	4b30      	ldr	r3, [pc, #192]	; (8005628 <__swsetup_r+0xc4>)
 8005566:	b570      	push	{r4, r5, r6, lr}
 8005568:	0005      	movs	r5, r0
 800556a:	6818      	ldr	r0, [r3, #0]
 800556c:	000c      	movs	r4, r1
 800556e:	2800      	cmp	r0, #0
 8005570:	d004      	beq.n	800557c <__swsetup_r+0x18>
 8005572:	6a03      	ldr	r3, [r0, #32]
 8005574:	2b00      	cmp	r3, #0
 8005576:	d101      	bne.n	800557c <__swsetup_r+0x18>
 8005578:	f7ff fd34 	bl	8004fe4 <__sinit>
 800557c:	230c      	movs	r3, #12
 800557e:	5ee2      	ldrsh	r2, [r4, r3]
 8005580:	b293      	uxth	r3, r2
 8005582:	0711      	lsls	r1, r2, #28
 8005584:	d423      	bmi.n	80055ce <__swsetup_r+0x6a>
 8005586:	06d9      	lsls	r1, r3, #27
 8005588:	d407      	bmi.n	800559a <__swsetup_r+0x36>
 800558a:	2309      	movs	r3, #9
 800558c:	2001      	movs	r0, #1
 800558e:	602b      	str	r3, [r5, #0]
 8005590:	3337      	adds	r3, #55	; 0x37
 8005592:	4313      	orrs	r3, r2
 8005594:	81a3      	strh	r3, [r4, #12]
 8005596:	4240      	negs	r0, r0
 8005598:	bd70      	pop	{r4, r5, r6, pc}
 800559a:	075b      	lsls	r3, r3, #29
 800559c:	d513      	bpl.n	80055c6 <__swsetup_r+0x62>
 800559e:	6b61      	ldr	r1, [r4, #52]	; 0x34
 80055a0:	2900      	cmp	r1, #0
 80055a2:	d008      	beq.n	80055b6 <__swsetup_r+0x52>
 80055a4:	0023      	movs	r3, r4
 80055a6:	3344      	adds	r3, #68	; 0x44
 80055a8:	4299      	cmp	r1, r3
 80055aa:	d002      	beq.n	80055b2 <__swsetup_r+0x4e>
 80055ac:	0028      	movs	r0, r5
 80055ae:	f000 f927 	bl	8005800 <_free_r>
 80055b2:	2300      	movs	r3, #0
 80055b4:	6363      	str	r3, [r4, #52]	; 0x34
 80055b6:	2224      	movs	r2, #36	; 0x24
 80055b8:	89a3      	ldrh	r3, [r4, #12]
 80055ba:	4393      	bics	r3, r2
 80055bc:	81a3      	strh	r3, [r4, #12]
 80055be:	2300      	movs	r3, #0
 80055c0:	6063      	str	r3, [r4, #4]
 80055c2:	6923      	ldr	r3, [r4, #16]
 80055c4:	6023      	str	r3, [r4, #0]
 80055c6:	2308      	movs	r3, #8
 80055c8:	89a2      	ldrh	r2, [r4, #12]
 80055ca:	4313      	orrs	r3, r2
 80055cc:	81a3      	strh	r3, [r4, #12]
 80055ce:	6923      	ldr	r3, [r4, #16]
 80055d0:	2b00      	cmp	r3, #0
 80055d2:	d10b      	bne.n	80055ec <__swsetup_r+0x88>
 80055d4:	21a0      	movs	r1, #160	; 0xa0
 80055d6:	2280      	movs	r2, #128	; 0x80
 80055d8:	89a3      	ldrh	r3, [r4, #12]
 80055da:	0089      	lsls	r1, r1, #2
 80055dc:	0092      	lsls	r2, r2, #2
 80055de:	400b      	ands	r3, r1
 80055e0:	4293      	cmp	r3, r2
 80055e2:	d003      	beq.n	80055ec <__swsetup_r+0x88>
 80055e4:	0021      	movs	r1, r4
 80055e6:	0028      	movs	r0, r5
 80055e8:	f000 f848 	bl	800567c <__smakebuf_r>
 80055ec:	220c      	movs	r2, #12
 80055ee:	5ea3      	ldrsh	r3, [r4, r2]
 80055f0:	2001      	movs	r0, #1
 80055f2:	001a      	movs	r2, r3
 80055f4:	b299      	uxth	r1, r3
 80055f6:	4002      	ands	r2, r0
 80055f8:	4203      	tst	r3, r0
 80055fa:	d00f      	beq.n	800561c <__swsetup_r+0xb8>
 80055fc:	2200      	movs	r2, #0
 80055fe:	60a2      	str	r2, [r4, #8]
 8005600:	6962      	ldr	r2, [r4, #20]
 8005602:	4252      	negs	r2, r2
 8005604:	61a2      	str	r2, [r4, #24]
 8005606:	2000      	movs	r0, #0
 8005608:	6922      	ldr	r2, [r4, #16]
 800560a:	4282      	cmp	r2, r0
 800560c:	d1c4      	bne.n	8005598 <__swsetup_r+0x34>
 800560e:	0609      	lsls	r1, r1, #24
 8005610:	d5c2      	bpl.n	8005598 <__swsetup_r+0x34>
 8005612:	2240      	movs	r2, #64	; 0x40
 8005614:	4313      	orrs	r3, r2
 8005616:	81a3      	strh	r3, [r4, #12]
 8005618:	3801      	subs	r0, #1
 800561a:	e7bd      	b.n	8005598 <__swsetup_r+0x34>
 800561c:	0788      	lsls	r0, r1, #30
 800561e:	d400      	bmi.n	8005622 <__swsetup_r+0xbe>
 8005620:	6962      	ldr	r2, [r4, #20]
 8005622:	60a2      	str	r2, [r4, #8]
 8005624:	e7ef      	b.n	8005606 <__swsetup_r+0xa2>
 8005626:	46c0      	nop			; (mov r8, r8)
 8005628:	20000068 	.word	0x20000068

0800562c <__swhatbuf_r>:
 800562c:	b570      	push	{r4, r5, r6, lr}
 800562e:	000e      	movs	r6, r1
 8005630:	001d      	movs	r5, r3
 8005632:	230e      	movs	r3, #14
 8005634:	5ec9      	ldrsh	r1, [r1, r3]
 8005636:	0014      	movs	r4, r2
 8005638:	b096      	sub	sp, #88	; 0x58
 800563a:	2900      	cmp	r1, #0
 800563c:	da0c      	bge.n	8005658 <__swhatbuf_r+0x2c>
 800563e:	89b2      	ldrh	r2, [r6, #12]
 8005640:	2380      	movs	r3, #128	; 0x80
 8005642:	0011      	movs	r1, r2
 8005644:	4019      	ands	r1, r3
 8005646:	421a      	tst	r2, r3
 8005648:	d013      	beq.n	8005672 <__swhatbuf_r+0x46>
 800564a:	2100      	movs	r1, #0
 800564c:	3b40      	subs	r3, #64	; 0x40
 800564e:	2000      	movs	r0, #0
 8005650:	6029      	str	r1, [r5, #0]
 8005652:	6023      	str	r3, [r4, #0]
 8005654:	b016      	add	sp, #88	; 0x58
 8005656:	bd70      	pop	{r4, r5, r6, pc}
 8005658:	466a      	mov	r2, sp
 800565a:	f000 f85f 	bl	800571c <_fstat_r>
 800565e:	2800      	cmp	r0, #0
 8005660:	dbed      	blt.n	800563e <__swhatbuf_r+0x12>
 8005662:	23f0      	movs	r3, #240	; 0xf0
 8005664:	9901      	ldr	r1, [sp, #4]
 8005666:	021b      	lsls	r3, r3, #8
 8005668:	4019      	ands	r1, r3
 800566a:	4b03      	ldr	r3, [pc, #12]	; (8005678 <__swhatbuf_r+0x4c>)
 800566c:	18c9      	adds	r1, r1, r3
 800566e:	424b      	negs	r3, r1
 8005670:	4159      	adcs	r1, r3
 8005672:	2380      	movs	r3, #128	; 0x80
 8005674:	00db      	lsls	r3, r3, #3
 8005676:	e7ea      	b.n	800564e <__swhatbuf_r+0x22>
 8005678:	ffffe000 	.word	0xffffe000

0800567c <__smakebuf_r>:
 800567c:	b5f7      	push	{r0, r1, r2, r4, r5, r6, r7, lr}
 800567e:	2602      	movs	r6, #2
 8005680:	898b      	ldrh	r3, [r1, #12]
 8005682:	0005      	movs	r5, r0
 8005684:	000c      	movs	r4, r1
 8005686:	4233      	tst	r3, r6
 8005688:	d006      	beq.n	8005698 <__smakebuf_r+0x1c>
 800568a:	0023      	movs	r3, r4
 800568c:	3347      	adds	r3, #71	; 0x47
 800568e:	6023      	str	r3, [r4, #0]
 8005690:	6123      	str	r3, [r4, #16]
 8005692:	2301      	movs	r3, #1
 8005694:	6163      	str	r3, [r4, #20]
 8005696:	bdf7      	pop	{r0, r1, r2, r4, r5, r6, r7, pc}
 8005698:	466a      	mov	r2, sp
 800569a:	ab01      	add	r3, sp, #4
 800569c:	f7ff ffc6 	bl	800562c <__swhatbuf_r>
 80056a0:	9900      	ldr	r1, [sp, #0]
 80056a2:	0007      	movs	r7, r0
 80056a4:	0028      	movs	r0, r5
 80056a6:	f7ff fd87 	bl	80051b8 <_malloc_r>
 80056aa:	2800      	cmp	r0, #0
 80056ac:	d108      	bne.n	80056c0 <__smakebuf_r+0x44>
 80056ae:	220c      	movs	r2, #12
 80056b0:	5ea3      	ldrsh	r3, [r4, r2]
 80056b2:	059a      	lsls	r2, r3, #22
 80056b4:	d4ef      	bmi.n	8005696 <__smakebuf_r+0x1a>
 80056b6:	2203      	movs	r2, #3
 80056b8:	4393      	bics	r3, r2
 80056ba:	431e      	orrs	r6, r3
 80056bc:	81a6      	strh	r6, [r4, #12]
 80056be:	e7e4      	b.n	800568a <__smakebuf_r+0xe>
 80056c0:	2380      	movs	r3, #128	; 0x80
 80056c2:	89a2      	ldrh	r2, [r4, #12]
 80056c4:	6020      	str	r0, [r4, #0]
 80056c6:	4313      	orrs	r3, r2
 80056c8:	81a3      	strh	r3, [r4, #12]
 80056ca:	9b00      	ldr	r3, [sp, #0]
 80056cc:	6120      	str	r0, [r4, #16]
 80056ce:	6163      	str	r3, [r4, #20]
 80056d0:	9b01      	ldr	r3, [sp, #4]
 80056d2:	2b00      	cmp	r3, #0
 80056d4:	d00c      	beq.n	80056f0 <__smakebuf_r+0x74>
 80056d6:	0028      	movs	r0, r5
 80056d8:	230e      	movs	r3, #14
 80056da:	5ee1      	ldrsh	r1, [r4, r3]
 80056dc:	f000 f830 	bl	8005740 <_isatty_r>
 80056e0:	2800      	cmp	r0, #0
 80056e2:	d005      	beq.n	80056f0 <__smakebuf_r+0x74>
 80056e4:	2303      	movs	r3, #3
 80056e6:	89a2      	ldrh	r2, [r4, #12]
 80056e8:	439a      	bics	r2, r3
 80056ea:	3b02      	subs	r3, #2
 80056ec:	4313      	orrs	r3, r2
 80056ee:	81a3      	strh	r3, [r4, #12]
 80056f0:	89a3      	ldrh	r3, [r4, #12]
 80056f2:	433b      	orrs	r3, r7
 80056f4:	81a3      	strh	r3, [r4, #12]
 80056f6:	e7ce      	b.n	8005696 <__smakebuf_r+0x1a>

080056f8 <_close_r>:
 80056f8:	2300      	movs	r3, #0
 80056fa:	b570      	push	{r4, r5, r6, lr}
 80056fc:	4d06      	ldr	r5, [pc, #24]	; (8005718 <_close_r+0x20>)
 80056fe:	0004      	movs	r4, r0
 8005700:	0008      	movs	r0, r1
 8005702:	602b      	str	r3, [r5, #0]
 8005704:	f7fb fde4 	bl	80012d0 <_close>
 8005708:	1c43      	adds	r3, r0, #1
 800570a:	d103      	bne.n	8005714 <_close_r+0x1c>
 800570c:	682b      	ldr	r3, [r5, #0]
 800570e:	2b00      	cmp	r3, #0
 8005710:	d000      	beq.n	8005714 <_close_r+0x1c>
 8005712:	6023      	str	r3, [r4, #0]
 8005714:	bd70      	pop	{r4, r5, r6, pc}
 8005716:	46c0      	nop			; (mov r8, r8)
 8005718:	20000510 	.word	0x20000510

0800571c <_fstat_r>:
 800571c:	2300      	movs	r3, #0
 800571e:	b570      	push	{r4, r5, r6, lr}
 8005720:	4d06      	ldr	r5, [pc, #24]	; (800573c <_fstat_r+0x20>)
 8005722:	0004      	movs	r4, r0
 8005724:	0008      	movs	r0, r1
 8005726:	0011      	movs	r1, r2
 8005728:	602b      	str	r3, [r5, #0]
 800572a:	f7fb fdd5 	bl	80012d8 <_fstat>
 800572e:	1c43      	adds	r3, r0, #1
 8005730:	d103      	bne.n	800573a <_fstat_r+0x1e>
 8005732:	682b      	ldr	r3, [r5, #0]
 8005734:	2b00      	cmp	r3, #0
 8005736:	d000      	beq.n	800573a <_fstat_r+0x1e>
 8005738:	6023      	str	r3, [r4, #0]
 800573a:	bd70      	pop	{r4, r5, r6, pc}
 800573c:	20000510 	.word	0x20000510

08005740 <_isatty_r>:
 8005740:	2300      	movs	r3, #0
 8005742:	b570      	push	{r4, r5, r6, lr}
 8005744:	4d06      	ldr	r5, [pc, #24]	; (8005760 <_isatty_r+0x20>)
 8005746:	0004      	movs	r4, r0
 8005748:	0008      	movs	r0, r1
 800574a:	602b      	str	r3, [r5, #0]
 800574c:	f7fb fdca 	bl	80012e4 <_isatty>
 8005750:	1c43      	adds	r3, r0, #1
 8005752:	d103      	bne.n	800575c <_isatty_r+0x1c>
 8005754:	682b      	ldr	r3, [r5, #0]
 8005756:	2b00      	cmp	r3, #0
 8005758:	d000      	beq.n	800575c <_isatty_r+0x1c>
 800575a:	6023      	str	r3, [r4, #0]
 800575c:	bd70      	pop	{r4, r5, r6, pc}
 800575e:	46c0      	nop			; (mov r8, r8)
 8005760:	20000510 	.word	0x20000510

08005764 <_lseek_r>:
 8005764:	b570      	push	{r4, r5, r6, lr}
 8005766:	0004      	movs	r4, r0
 8005768:	0008      	movs	r0, r1
 800576a:	0011      	movs	r1, r2
 800576c:	001a      	movs	r2, r3
 800576e:	2300      	movs	r3, #0
 8005770:	4d05      	ldr	r5, [pc, #20]	; (8005788 <_lseek_r+0x24>)
 8005772:	602b      	str	r3, [r5, #0]
 8005774:	f7fb fdb8 	bl	80012e8 <_lseek>
 8005778:	1c43      	adds	r3, r0, #1
 800577a:	d103      	bne.n	8005784 <_lseek_r+0x20>
 800577c:	682b      	ldr	r3, [r5, #0]
 800577e:	2b00      	cmp	r3, #0
 8005780:	d000      	beq.n	8005784 <_lseek_r+0x20>
 8005782:	6023      	str	r3, [r4, #0]
 8005784:	bd70      	pop	{r4, r5, r6, pc}
 8005786:	46c0      	nop			; (mov r8, r8)
 8005788:	20000510 	.word	0x20000510

0800578c <_read_r>:
 800578c:	b570      	push	{r4, r5, r6, lr}
 800578e:	0004      	movs	r4, r0
 8005790:	0008      	movs	r0, r1
 8005792:	0011      	movs	r1, r2
 8005794:	001a      	movs	r2, r3
 8005796:	2300      	movs	r3, #0
 8005798:	4d05      	ldr	r5, [pc, #20]	; (80057b0 <_read_r+0x24>)
 800579a:	602b      	str	r3, [r5, #0]
 800579c:	f7fb fd7c 	bl	8001298 <_read>
 80057a0:	1c43      	adds	r3, r0, #1
 80057a2:	d103      	bne.n	80057ac <_read_r+0x20>
 80057a4:	682b      	ldr	r3, [r5, #0]
 80057a6:	2b00      	cmp	r3, #0
 80057a8:	d000      	beq.n	80057ac <_read_r+0x20>
 80057aa:	6023      	str	r3, [r4, #0]
 80057ac:	bd70      	pop	{r4, r5, r6, pc}
 80057ae:	46c0      	nop			; (mov r8, r8)
 80057b0:	20000510 	.word	0x20000510

080057b4 <_sbrk_r>:
 80057b4:	2300      	movs	r3, #0
 80057b6:	b570      	push	{r4, r5, r6, lr}
 80057b8:	4d06      	ldr	r5, [pc, #24]	; (80057d4 <_sbrk_r+0x20>)
 80057ba:	0004      	movs	r4, r0
 80057bc:	0008      	movs	r0, r1
 80057be:	602b      	str	r3, [r5, #0]
 80057c0:	f7fb fd94 	bl	80012ec <_sbrk>
 80057c4:	1c43      	adds	r3, r0, #1
 80057c6:	d103      	bne.n	80057d0 <_sbrk_r+0x1c>
 80057c8:	682b      	ldr	r3, [r5, #0]
 80057ca:	2b00      	cmp	r3, #0
 80057cc:	d000      	beq.n	80057d0 <_sbrk_r+0x1c>
 80057ce:	6023      	str	r3, [r4, #0]
 80057d0:	bd70      	pop	{r4, r5, r6, pc}
 80057d2:	46c0      	nop			; (mov r8, r8)
 80057d4:	20000510 	.word	0x20000510

080057d8 <_write_r>:
 80057d8:	b570      	push	{r4, r5, r6, lr}
 80057da:	0004      	movs	r4, r0
 80057dc:	0008      	movs	r0, r1
 80057de:	0011      	movs	r1, r2
 80057e0:	001a      	movs	r2, r3
 80057e2:	2300      	movs	r3, #0
 80057e4:	4d05      	ldr	r5, [pc, #20]	; (80057fc <_write_r+0x24>)
 80057e6:	602b      	str	r3, [r5, #0]
 80057e8:	f7fb fd64 	bl	80012b4 <_write>
 80057ec:	1c43      	adds	r3, r0, #1
 80057ee:	d103      	bne.n	80057f8 <_write_r+0x20>
 80057f0:	682b      	ldr	r3, [r5, #0]
 80057f2:	2b00      	cmp	r3, #0
 80057f4:	d000      	beq.n	80057f8 <_write_r+0x20>
 80057f6:	6023      	str	r3, [r4, #0]
 80057f8:	bd70      	pop	{r4, r5, r6, pc}
 80057fa:	46c0      	nop			; (mov r8, r8)
 80057fc:	20000510 	.word	0x20000510

08005800 <_free_r>:
 8005800:	b570      	push	{r4, r5, r6, lr}
 8005802:	0005      	movs	r5, r0
 8005804:	2900      	cmp	r1, #0
 8005806:	d010      	beq.n	800582a <_free_r+0x2a>
 8005808:	1f0c      	subs	r4, r1, #4
 800580a:	6823      	ldr	r3, [r4, #0]
 800580c:	2b00      	cmp	r3, #0
 800580e:	da00      	bge.n	8005812 <_free_r+0x12>
 8005810:	18e4      	adds	r4, r4, r3
 8005812:	0028      	movs	r0, r5
 8005814:	f7ff fe08 	bl	8005428 <__malloc_lock>
 8005818:	4a1d      	ldr	r2, [pc, #116]	; (8005890 <_free_r+0x90>)
 800581a:	6813      	ldr	r3, [r2, #0]
 800581c:	2b00      	cmp	r3, #0
 800581e:	d105      	bne.n	800582c <_free_r+0x2c>
 8005820:	6063      	str	r3, [r4, #4]
 8005822:	6014      	str	r4, [r2, #0]
 8005824:	0028      	movs	r0, r5
 8005826:	f7ff fe07 	bl	8005438 <__malloc_unlock>
 800582a:	bd70      	pop	{r4, r5, r6, pc}
 800582c:	42a3      	cmp	r3, r4
 800582e:	d908      	bls.n	8005842 <_free_r+0x42>
 8005830:	6820      	ldr	r0, [r4, #0]
 8005832:	1821      	adds	r1, r4, r0
 8005834:	428b      	cmp	r3, r1
 8005836:	d1f3      	bne.n	8005820 <_free_r+0x20>
 8005838:	6819      	ldr	r1, [r3, #0]
 800583a:	685b      	ldr	r3, [r3, #4]
 800583c:	1809      	adds	r1, r1, r0
 800583e:	6021      	str	r1, [r4, #0]
 8005840:	e7ee      	b.n	8005820 <_free_r+0x20>
 8005842:	001a      	movs	r2, r3
 8005844:	685b      	ldr	r3, [r3, #4]
 8005846:	2b00      	cmp	r3, #0
 8005848:	d001      	beq.n	800584e <_free_r+0x4e>
 800584a:	42a3      	cmp	r3, r4
 800584c:	d9f9      	bls.n	8005842 <_free_r+0x42>
 800584e:	6811      	ldr	r1, [r2, #0]
 8005850:	1850      	adds	r0, r2, r1
 8005852:	42a0      	cmp	r0, r4
 8005854:	d10b      	bne.n	800586e <_free_r+0x6e>
 8005856:	6820      	ldr	r0, [r4, #0]
 8005858:	1809      	adds	r1, r1, r0
 800585a:	1850      	adds	r0, r2, r1
 800585c:	6011      	str	r1, [r2, #0]
 800585e:	4283      	cmp	r3, r0
 8005860:	d1e0      	bne.n	8005824 <_free_r+0x24>
 8005862:	6818      	ldr	r0, [r3, #0]
 8005864:	685b      	ldr	r3, [r3, #4]
 8005866:	1841      	adds	r1, r0, r1
 8005868:	6011      	str	r1, [r2, #0]
 800586a:	6053      	str	r3, [r2, #4]
 800586c:	e7da      	b.n	8005824 <_free_r+0x24>
 800586e:	42a0      	cmp	r0, r4
 8005870:	d902      	bls.n	8005878 <_free_r+0x78>
 8005872:	230c      	movs	r3, #12
 8005874:	602b      	str	r3, [r5, #0]
 8005876:	e7d5      	b.n	8005824 <_free_r+0x24>
 8005878:	6820      	ldr	r0, [r4, #0]
 800587a:	1821      	adds	r1, r4, r0
 800587c:	428b      	cmp	r3, r1
 800587e:	d103      	bne.n	8005888 <_free_r+0x88>
 8005880:	6819      	ldr	r1, [r3, #0]
 8005882:	685b      	ldr	r3, [r3, #4]
 8005884:	1809      	adds	r1, r1, r0
 8005886:	6021      	str	r1, [r4, #0]
 8005888:	6063      	str	r3, [r4, #4]
 800588a:	6054      	str	r4, [r2, #4]
 800588c:	e7ca      	b.n	8005824 <_free_r+0x24>
 800588e:	46c0      	nop			; (mov r8, r8)
 8005890:	20000508 	.word	0x20000508

08005894 <_init>:
 8005894:	b5f8      	push	{r3, r4, r5, r6, r7, lr}
 8005896:	46c0      	nop			; (mov r8, r8)
 8005898:	bcf8      	pop	{r3, r4, r5, r6, r7}
 800589a:	bc08      	pop	{r3}
 800589c:	469e      	mov	lr, r3
 800589e:	4770      	bx	lr

080058a0 <_fini>:
 80058a0:	b5f8      	push	{r3, r4, r5, r6, r7, lr}
 80058a2:	46c0      	nop			; (mov r8, r8)
 80058a4:	bcf8      	pop	{r3, r4, r5, r6, r7}
 80058a6:	bc08      	pop	{r3}
 80058a8:	469e      	mov	lr, r3
 80058aa:	4770      	bx	lr
