
stpin_mcu.elf:     file format elf32-littlearm

Sections:
Idx Name          Size      VMA       LMA       File off  Algn
  0 .isr_vector   000000c0  08000000  08000000  00010000  2**0
                  CONTENTS, ALLOC, LOAD, READONLY, DATA
  1 .text         00006b14  080000c0  080000c0  000100c0  2**2
                  CONTENTS, ALLOC, LOAD, READONLY, CODE
  2 .rodata       0000007c  08006bd4  08006bd4  00016bd4  2**2
                  CONTENTS, ALLOC, LOAD, READONLY, DATA
  3 .ARM.extab    00000000  08006c50  08006c50  00020070  2**0
                  CONTENTS
  4 .ARM          00000000  08006c50  08006c50  00020070  2**0
                  CONTENTS
  5 .preinit_array 00000000  08006c50  08006c50  00020070  2**0
                  CONTENTS, ALLOC, LOAD, DATA
  6 .init_array   00000004  08006c50  08006c50  00016c50  2**2
                  CONTENTS, ALLOC, LOAD, DATA
  7 .fini_array   00000004  08006c54  08006c54  00016c54  2**2
                  CONTENTS, ALLOC, LOAD, DATA
  8 .data         00000070  20000000  08006c58  00020000  2**2
                  CONTENTS, ALLOC, LOAD, DATA
  9 .bss          00000250  20000070  08006cc8  00020070  2**2
                  ALLOC
 10 ._user_heap_stack 00000600  200002c0  08006cc8  000202c0  2**0
                  ALLOC
 11 .ARM.attributes 00000028  00000000  00000000  00020070  2**0
                  CONTENTS, READONLY
 12 .debug_info   00014352  00000000  00000000  00020098  2**0
                  CONTENTS, READONLY, DEBUGGING, OCTETS
 13 .debug_abbrev 000027ca  00000000  00000000  000343ea  2**0
                  CONTENTS, READONLY, DEBUGGING, OCTETS
 14 .debug_aranges 00001268  00000000  00000000  00036bb8  2**3
                  CONTENTS, READONLY, DEBUGGING, OCTETS
 15 .debug_ranges 00001160  00000000  00000000  00037e20  2**3
                  CONTENTS, READONLY, DEBUGGING, OCTETS
 16 .debug_macro  00012371  00000000  00000000  00038f80  2**0
                  CONTENTS, READONLY, DEBUGGING, OCTETS
 17 .debug_line   00016764  00000000  00000000  0004b2f1  2**0
                  CONTENTS, READONLY, DEBUGGING, OCTETS
 18 .debug_str    0006d8f8  00000000  00000000  00061a55  2**0
                  CONTENTS, READONLY, DEBUGGING, OCTETS
 19 .comment      00000050  00000000  00000000  000cf34d  2**0
                  CONTENTS, READONLY
 20 .debug_frame  00004738  00000000  00000000  000cf3a0  2**2
                  CONTENTS, READONLY, DEBUGGING, OCTETS

Disassembly of section .text:

080000c0 <__do_global_dtors_aux>:
 80000c0:	b510      	push	{r4, lr}
 80000c2:	4c06      	ldr	r4, [pc, #24]	; (80000dc <__do_global_dtors_aux+0x1c>)
 80000c4:	7823      	ldrb	r3, [r4, #0]
 80000c6:	2b00      	cmp	r3, #0
 80000c8:	d107      	bne.n	80000da <__do_global_dtors_aux+0x1a>
 80000ca:	4b05      	ldr	r3, [pc, #20]	; (80000e0 <__do_global_dtors_aux+0x20>)
 80000cc:	2b00      	cmp	r3, #0
 80000ce:	d002      	beq.n	80000d6 <__do_global_dtors_aux+0x16>
 80000d0:	4804      	ldr	r0, [pc, #16]	; (80000e4 <__do_global_dtors_aux+0x24>)
 80000d2:	e000      	b.n	80000d6 <__do_global_dtors_aux+0x16>
 80000d4:	bf00      	nop
 80000d6:	2301      	movs	r3, #1
 80000d8:	7023      	strb	r3, [r4, #0]
 80000da:	bd10      	pop	{r4, pc}
 80000dc:	20000070 	.word	0x20000070
 80000e0:	00000000 	.word	0x00000000
 80000e4:	08006bbc 	.word	0x08006bbc

080000e8 <frame_dummy>:
 80000e8:	4b04      	ldr	r3, [pc, #16]	; (80000fc <frame_dummy+0x14>)
 80000ea:	b510      	push	{r4, lr}
 80000ec:	2b00      	cmp	r3, #0
 80000ee:	d003      	beq.n	80000f8 <frame_dummy+0x10>
 80000f0:	4903      	ldr	r1, [pc, #12]	; (8000100 <frame_dummy+0x18>)
 80000f2:	4804      	ldr	r0, [pc, #16]	; (8000104 <frame_dummy+0x1c>)
 80000f4:	e000      	b.n	80000f8 <frame_dummy+0x10>
 80000f6:	bf00      	nop
 80000f8:	bd10      	pop	{r4, pc}
 80000fa:	46c0      	nop			; (mov r8, r8)
 80000fc:	00000000 	.word	0x00000000
 8000100:	20000074 	.word	0x20000074
 8000104:	08006bbc 	.word	0x08006bbc

08000108 <strlen>:
 8000108:	2300      	movs	r3, #0
 800010a:	5cc2      	ldrb	r2, [r0, r3]
 800010c:	3301      	adds	r3, #1
 800010e:	2a00      	cmp	r2, #0
 8000110:	d1fb      	bne.n	800010a <strlen+0x2>
 8000112:	1e58      	subs	r0, r3, #1
 8000114:	4770      	bx	lr
	...

08000118 <__gnu_thumb1_case_shi>:
 8000118:	b403      	push	{r0, r1}
 800011a:	4671      	mov	r1, lr
 800011c:	0849      	lsrs	r1, r1, #1
 800011e:	0040      	lsls	r0, r0, #1
 8000120:	0049      	lsls	r1, r1, #1
 8000122:	5e09      	ldrsh	r1, [r1, r0]
 8000124:	0049      	lsls	r1, r1, #1
 8000126:	448e      	add	lr, r1
 8000128:	bc03      	pop	{r0, r1}
 800012a:	4770      	bx	lr

0800012c <__udivsi3>:
 800012c:	2200      	movs	r2, #0
 800012e:	0843      	lsrs	r3, r0, #1
 8000130:	428b      	cmp	r3, r1
 8000132:	d374      	bcc.n	800021e <__udivsi3+0xf2>
 8000134:	0903      	lsrs	r3, r0, #4
 8000136:	428b      	cmp	r3, r1
 8000138:	d35f      	bcc.n	80001fa <__udivsi3+0xce>
 800013a:	0a03      	lsrs	r3, r0, #8
 800013c:	428b      	cmp	r3, r1
 800013e:	d344      	bcc.n	80001ca <__udivsi3+0x9e>
 8000140:	0b03      	lsrs	r3, r0, #12
 8000142:	428b      	cmp	r3, r1
 8000144:	d328      	bcc.n	8000198 <__udivsi3+0x6c>
 8000146:	0c03      	lsrs	r3, r0, #16
 8000148:	428b      	cmp	r3, r1
 800014a:	d30d      	bcc.n	8000168 <__udivsi3+0x3c>
 800014c:	22ff      	movs	r2, #255	; 0xff
 800014e:	0209      	lsls	r1, r1, #8
 8000150:	ba12      	rev	r2, r2
 8000152:	0c03      	lsrs	r3, r0, #16
 8000154:	428b      	cmp	r3, r1
 8000156:	d302      	bcc.n	800015e <__udivsi3+0x32>
 8000158:	1212      	asrs	r2, r2, #8
 800015a:	0209      	lsls	r1, r1, #8
 800015c:	d065      	beq.n	800022a <__udivsi3+0xfe>
 800015e:	0b03      	lsrs	r3, r0, #12
 8000160:	428b      	cmp	r3, r1
 8000162:	d319      	bcc.n	8000198 <__udivsi3+0x6c>
 8000164:	e000      	b.n	8000168 <__udivsi3+0x3c>
 8000166:	0a09      	lsrs	r1, r1, #8
 8000168:	0bc3      	lsrs	r3, r0, #15
 800016a:	428b      	cmp	r3, r1
 800016c:	d301      	bcc.n	8000172 <__udivsi3+0x46>
 800016e:	03cb      	lsls	r3, r1, #15
 8000170:	1ac0      	subs	r0, r0, r3
 8000172:	4152      	adcs	r2, r2
 8000174:	0b83      	lsrs	r3, r0, #14
 8000176:	428b      	cmp	r3, r1
 8000178:	d301      	bcc.n	800017e <__udivsi3+0x52>
 800017a:	038b      	lsls	r3, r1, #14
 800017c:	1ac0      	subs	r0, r0, r3
 800017e:	4152      	adcs	r2, r2
 8000180:	0b43      	lsrs	r3, r0, #13
 8000182:	428b      	cmp	r3, r1
 8000184:	d301      	bcc.n	800018a <__udivsi3+0x5e>
 8000186:	034b      	lsls	r3, r1, #13
 8000188:	1ac0      	subs	r0, r0, r3
 800018a:	4152      	adcs	r2, r2
 800018c:	0b03      	lsrs	r3, r0, #12
 800018e:	428b      	cmp	r3, r1
 8000190:	d301      	bcc.n	8000196 <__udivsi3+0x6a>
 8000192:	030b      	lsls	r3, r1, #12
 8000194:	1ac0      	subs	r0, r0, r3
 8000196:	4152      	adcs	r2, r2
 8000198:	0ac3      	lsrs	r3, r0, #11
 800019a:	428b      	cmp	r3, r1
 800019c:	d301      	bcc.n	80001a2 <__udivsi3+0x76>
 800019e:	02cb      	lsls	r3, r1, #11
 80001a0:	1ac0      	subs	r0, r0, r3
 80001a2:	4152      	adcs	r2, r2
 80001a4:	0a83      	lsrs	r3, r0, #10
 80001a6:	428b      	cmp	r3, r1
 80001a8:	d301      	bcc.n	80001ae <__udivsi3+0x82>
 80001aa:	028b      	lsls	r3, r1, #10
 80001ac:	1ac0      	subs	r0, r0, r3
 80001ae:	4152      	adcs	r2, r2
 80001b0:	0a43      	lsrs	r3, r0, #9
 80001b2:	428b      	cmp	r3, r1
 80001b4:	d301      	bcc.n	80001ba <__udivsi3+0x8e>
 80001b6:	024b      	lsls	r3, r1, #9
 80001b8:	1ac0      	subs	r0, r0, r3
 80001ba:	4152      	adcs	r2, r2
 80001bc:	0a03      	lsrs	r3, r0, #8
 80001be:	428b      	cmp	r3, r1
 80001c0:	d301      	bcc.n	80001c6 <__udivsi3+0x9a>
 80001c2:	020b      	lsls	r3, r1, #8
 80001c4:	1ac0      	subs	r0, r0, r3
 80001c6:	4152      	adcs	r2, r2
 80001c8:	d2cd      	bcs.n	8000166 <__udivsi3+0x3a>
 80001ca:	09c3      	lsrs	r3, r0, #7
 80001cc:	428b      	cmp	r3, r1
 80001ce:	d301      	bcc.n	80001d4 <__udivsi3+0xa8>
 80001d0:	01cb      	lsls	r3, r1, #7
 80001d2:	1ac0      	subs	r0, r0, r3
 80001d4:	4152      	adcs	r2, r2
 80001d6:	0983      	lsrs	r3, r0, #6
 80001d8:	428b      	cmp	r3, r1
 80001da:	d301      	bcc.n	80001e0 <__udivsi3+0xb4>
 80001dc:	018b      	lsls	r3, r1, #6
 80001de:	1ac0      	subs	r0, r0, r3
 80001e0:	4152      	adcs	r2, r2
 80001e2:	0943      	lsrs	r3, r0, #5
 80001e4:	428b      	cmp	r3, r1
 80001e6:	d301      	bcc.n	80001ec <__udivsi3+0xc0>
 80001e8:	014b      	lsls	r3, r1, #5
 80001ea:	1ac0      	subs	r0, r0, r3
 80001ec:	4152      	adcs	r2, r2
 80001ee:	0903      	lsrs	r3, r0, #4
 80001f0:	428b      	cmp	r3, r1
 80001f2:	d301      	bcc.n	80001f8 <__udivsi3+0xcc>
 80001f4:	010b      	lsls	r3, r1, #4
 80001f6:	1ac0      	subs	r0, r0, r3
 80001f8:	4152      	adcs	r2, r2
 80001fa:	08c3      	lsrs	r3, r0, #3
 80001fc:	428b      	cmp	r3, r1
 80001fe:	d301      	bcc.n	8000204 <__udivsi3+0xd8>
 8000200:	00cb      	lsls	r3, r1, #3
 8000202:	1ac0      	subs	r0, r0, r3
 8000204:	4152      	adcs	r2, r2
 8000206:	0883      	lsrs	r3, r0, #2
 8000208:	428b      	cmp	r3, r1
 800020a:	d301      	bcc.n	8000210 <__udivsi3+0xe4>
 800020c:	008b      	lsls	r3, r1, #2
 800020e:	1ac0      	subs	r0, r0, r3
 8000210:	4152      	adcs	r2, r2
 8000212:	0843      	lsrs	r3, r0, #1
 8000214:	428b      	cmp	r3, r1
 8000216:	d301      	bcc.n	800021c <__udivsi3+0xf0>
 8000218:	004b      	lsls	r3, r1, #1
 800021a:	1ac0      	subs	r0, r0, r3
 800021c:	4152      	adcs	r2, r2
 800021e:	1a41      	subs	r1, r0, r1
 8000220:	d200      	bcs.n	8000224 <__udivsi3+0xf8>
 8000222:	4601      	mov	r1, r0
 8000224:	4152      	adcs	r2, r2
 8000226:	4610      	mov	r0, r2
 8000228:	4770      	bx	lr
 800022a:	e7ff      	b.n	800022c <__udivsi3+0x100>
 800022c:	b501      	push	{r0, lr}
 800022e:	2000      	movs	r0, #0
 8000230:	f000 f8f0 	bl	8000414 <__aeabi_idiv0>
 8000234:	bd02      	pop	{r1, pc}
 8000236:	46c0      	nop			; (mov r8, r8)

08000238 <__aeabi_uidivmod>:
 8000238:	2900      	cmp	r1, #0
 800023a:	d0f7      	beq.n	800022c <__udivsi3+0x100>
 800023c:	e776      	b.n	800012c <__udivsi3>
 800023e:	4770      	bx	lr

08000240 <__divsi3>:
 8000240:	4603      	mov	r3, r0
 8000242:	430b      	orrs	r3, r1
 8000244:	d47f      	bmi.n	8000346 <__divsi3+0x106>
 8000246:	2200      	movs	r2, #0
 8000248:	0843      	lsrs	r3, r0, #1
 800024a:	428b      	cmp	r3, r1
 800024c:	d374      	bcc.n	8000338 <__divsi3+0xf8>
 800024e:	0903      	lsrs	r3, r0, #4
 8000250:	428b      	cmp	r3, r1
 8000252:	d35f      	bcc.n	8000314 <__divsi3+0xd4>
 8000254:	0a03      	lsrs	r3, r0, #8
 8000256:	428b      	cmp	r3, r1
 8000258:	d344      	bcc.n	80002e4 <__divsi3+0xa4>
 800025a:	0b03      	lsrs	r3, r0, #12
 800025c:	428b      	cmp	r3, r1
 800025e:	d328      	bcc.n	80002b2 <__divsi3+0x72>
 8000260:	0c03      	lsrs	r3, r0, #16
 8000262:	428b      	cmp	r3, r1
 8000264:	d30d      	bcc.n	8000282 <__divsi3+0x42>
 8000266:	22ff      	movs	r2, #255	; 0xff
 8000268:	0209      	lsls	r1, r1, #8
 800026a:	ba12      	rev	r2, r2
 800026c:	0c03      	lsrs	r3, r0, #16
 800026e:	428b      	cmp	r3, r1
 8000270:	d302      	bcc.n	8000278 <__divsi3+0x38>
 8000272:	1212      	asrs	r2, r2, #8
 8000274:	0209      	lsls	r1, r1, #8
 8000276:	d065      	beq.n	8000344 <__divsi3+0x104>
 8000278:	0b03      	lsrs	r3, r0, #12
 800027a:	428b      	cmp	r3, r1
 800027c:	d319      	bcc.n	80002b2 <__divsi3+0x72>
 800027e:	e000      	b.n	8000282 <__divsi3+0x42>
 8000280:	0a09      	lsrs	r1, r1, #8
 8000282:	0bc3      	lsrs	r3, r0, #15
 8000284:	428b      	cmp	r3, r1
 8000286:	d301      	bcc.n	800028c <__divsi3+0x4c>
 8000288:	03cb      	lsls	r3, r1, #15
 800028a:	1ac0      	subs	r0, r0, r3
 800028c:	4152      	adcs	r2, r2
 800028e:	0b83      	lsrs	r3, r0, #14
 8000290:	428b      	cmp	r3, r1
 8000292:	d301      	bcc.n	8000298 <__divsi3+0x58>
 8000294:	038b      	lsls	r3, r1, #14
 8000296:	1ac0      	subs	r0, r0, r3
 8000298:	4152      	adcs	r2, r2
 800029a:	0b43      	lsrs	r3, r0, #13
 800029c:	428b      	cmp	r3, r1
 800029e:	d301      	bcc.n	80002a4 <__divsi3+0x64>
 80002a0:	034b      	lsls	r3, r1, #13
 80002a2:	1ac0      	subs	r0, r0, r3
 80002a4:	4152      	adcs	r2, r2
 80002a6:	0b03      	lsrs	r3, r0, #12
 80002a8:	428b      	cmp	r3, r1
 80002aa:	d301      	bcc.n	80002b0 <__divsi3+0x70>
 80002ac:	030b      	lsls	r3, r1, #12
 80002ae:	1ac0      	subs	r0, r0, r3
 80002b0:	4152      	adcs	r2, r2
 80002b2:	0ac3      	lsrs	r3, r0, #11
 80002b4:	428b      	cmp	r3, r1
 80002b6:	d301      	bcc.n	80002bc <__divsi3+0x7c>
 80002b8:	02cb      	lsls	r3, r1, #11
 80002ba:	1ac0      	subs	r0, r0, r3
 80002bc:	4152      	adcs	r2, r2
 80002be:	0a83      	lsrs	r3, r0, #10
 80002c0:	428b      	cmp	r3, r1
 80002c2:	d301      	bcc.n	80002c8 <__divsi3+0x88>
 80002c4:	028b      	lsls	r3, r1, #10
 80002c6:	1ac0      	subs	r0, r0, r3
 80002c8:	4152      	adcs	r2, r2
 80002ca:	0a43      	lsrs	r3, r0, #9
 80002cc:	428b      	cmp	r3, r1
 80002ce:	d301      	bcc.n	80002d4 <__divsi3+0x94>
 80002d0:	024b      	lsls	r3, r1, #9
 80002d2:	1ac0      	subs	r0, r0, r3
 80002d4:	4152      	adcs	r2, r2
 80002d6:	0a03      	lsrs	r3, r0, #8
 80002d8:	428b      	cmp	r3, r1
 80002da:	d301      	bcc.n	80002e0 <__divsi3+0xa0>
 80002dc:	020b      	lsls	r3, r1, #8
 80002de:	1ac0      	subs	r0, r0, r3
 80002e0:	4152      	adcs	r2, r2
 80002e2:	d2cd      	bcs.n	8000280 <__divsi3+0x40>
 80002e4:	09c3      	lsrs	r3, r0, #7
 80002e6:	428b      	cmp	r3, r1
 80002e8:	d301      	bcc.n	80002ee <__divsi3+0xae>
 80002ea:	01cb      	lsls	r3, r1, #7
 80002ec:	1ac0      	subs	r0, r0, r3
 80002ee:	4152      	adcs	r2, r2
 80002f0:	0983      	lsrs	r3, r0, #6
 80002f2:	428b      	cmp	r3, r1
 80002f4:	d301      	bcc.n	80002fa <__divsi3+0xba>
 80002f6:	018b      	lsls	r3, r1, #6
 80002f8:	1ac0      	subs	r0, r0, r3
 80002fa:	4152      	adcs	r2, r2
 80002fc:	0943      	lsrs	r3, r0, #5
 80002fe:	428b      	cmp	r3, r1
 8000300:	d301      	bcc.n	8000306 <__divsi3+0xc6>
 8000302:	014b      	lsls	r3, r1, #5
 8000304:	1ac0      	subs	r0, r0, r3
 8000306:	4152      	adcs	r2, r2
 8000308:	0903      	lsrs	r3, r0, #4
 800030a:	428b      	cmp	r3, r1
 800030c:	d301      	bcc.n	8000312 <__divsi3+0xd2>
 800030e:	010b      	lsls	r3, r1, #4
 8000310:	1ac0      	subs	r0, r0, r3
 8000312:	4152      	adcs	r2, r2
 8000314:	08c3      	lsrs	r3, r0, #3
 8000316:	428b      	cmp	r3, r1
 8000318:	d301      	bcc.n	800031e <__divsi3+0xde>
 800031a:	00cb      	lsls	r3, r1, #3
 800031c:	1ac0      	subs	r0, r0, r3
 800031e:	4152      	adcs	r2, r2
 8000320:	0883      	lsrs	r3, r0, #2
 8000322:	428b      	cmp	r3, r1
 8000324:	d301      	bcc.n	800032a <__divsi3+0xea>
 8000326:	008b      	lsls	r3, r1, #2
 8000328:	1ac0      	subs	r0, r0, r3
 800032a:	4152      	adcs	r2, r2
 800032c:	0843      	lsrs	r3, r0, #1
 800032e:	428b      	cmp	r3, r1
 8000330:	d301      	bcc.n	8000336 <__divsi3+0xf6>
 8000332:	004b      	lsls	r3, r1, #1
 8000334:	1ac0      	subs	r0, r0, r3
 8000336:	4152      	adcs	r2, r2
 8000338:	1a41      	subs	r1, r0, r1
 800033a:	d200      	bcs.n	800033e <__divsi3+0xfe>
 800033c:	4601      	mov	r1, r0
 800033e:	4152      	adcs	r2, r2
 8000340:	4610      	mov	r0, r2
 8000342:	4770      	bx	lr
 8000344:	e05d      	b.n	8000402 <__divsi3+0x1c2>
 8000346:	0fca      	lsrs	r2, r1, #31
 8000348:	d000      	beq.n	800034c <__divsi3+0x10c>
 800034a:	4249      	negs	r1, r1
 800034c:	1003      	asrs	r3, r0, #32
 800034e:	d300      	bcc.n	8000352 <__divsi3+0x112>
 8000350:	4240      	negs	r0, r0
 8000352:	4053      	eors	r3, r2
 8000354:	2200      	movs	r2, #0
 8000356:	469c      	mov	ip, r3
 8000358:	0903      	lsrs	r3, r0, #4
 800035a:	428b      	cmp	r3, r1
 800035c:	d32d      	bcc.n	80003ba <__divsi3+0x17a>
 800035e:	0a03      	lsrs	r3, r0, #8
 8000360:	428b      	cmp	r3, r1
 8000362:	d312      	bcc.n	800038a <__divsi3+0x14a>
 8000364:	22fc      	movs	r2, #252	; 0xfc
 8000366:	0189      	lsls	r1, r1, #6
 8000368:	ba12      	rev	r2, r2
 800036a:	0a03      	lsrs	r3, r0, #8
 800036c:	428b      	cmp	r3, r1
 800036e:	d30c      	bcc.n	800038a <__divsi3+0x14a>
 8000370:	0189      	lsls	r1, r1, #6
 8000372:	1192      	asrs	r2, r2, #6
 8000374:	428b      	cmp	r3, r1
 8000376:	d308      	bcc.n	800038a <__divsi3+0x14a>
 8000378:	0189      	lsls	r1, r1, #6
 800037a:	1192      	asrs	r2, r2, #6
 800037c:	428b      	cmp	r3, r1
 800037e:	d304      	bcc.n	800038a <__divsi3+0x14a>
 8000380:	0189      	lsls	r1, r1, #6
 8000382:	d03a      	beq.n	80003fa <__divsi3+0x1ba>
 8000384:	1192      	asrs	r2, r2, #6
 8000386:	e000      	b.n	800038a <__divsi3+0x14a>
 8000388:	0989      	lsrs	r1, r1, #6
 800038a:	09c3      	lsrs	r3, r0, #7
 800038c:	428b      	cmp	r3, r1
 800038e:	d301      	bcc.n	8000394 <__divsi3+0x154>
 8000390:	01cb      	lsls	r3, r1, #7
 8000392:	1ac0      	subs	r0, r0, r3
 8000394:	4152      	adcs	r2, r2
 8000396:	0983      	lsrs	r3, r0, #6
 8000398:	428b      	cmp	r3, r1
 800039a:	d301      	bcc.n	80003a0 <__divsi3+0x160>
 800039c:	018b      	lsls	r3, r1, #6
 800039e:	1ac0      	subs	r0, r0, r3
 80003a0:	4152      	adcs	r2, r2
 80003a2:	0943      	lsrs	r3, r0, #5
 80003a4:	428b      	cmp	r3, r1
 80003a6:	d301      	bcc.n	80003ac <__divsi3+0x16c>
 80003a8:	014b      	lsls	r3, r1, #5
 80003aa:	1ac0      	subs	r0, r0, r3
 80003ac:	4152      	adcs	r2, r2
 80003ae:	0903      	lsrs	r3, r0, #4
 80003b0:	428b      	cmp	r3, r1
 80003b2:	d301      	bcc.n	80003b8 <__divsi3+0x178>
 80003b4:	010b      	lsls	r3, r1, #4
 80003b6:	1ac0      	subs	r0, r0, r3
 80003b8:	4152      	adcs	r2, r2
 80003ba:	08c3      	lsrs	r3, r0, #3
 80003bc:	428b      	cmp	r3, r1
 80003be:	d301      	bcc.n	80003c4 <__divsi3+0x184>
 80003c0:	00cb      	lsls	r3, r1, #3
 80003c2:	1ac0      	subs	r0, r0, r3
 80003c4:	4152      	adcs	r2, r2
 80003c6:	0883      	lsrs	r3, r0, #2
 80003c8:	428b      	cmp	r3, r1
 80003ca:	d301      	bcc.n	80003d0 <__divsi3+0x190>
 80003cc:	008b      	lsls	r3, r1, #2
 80003ce:	1ac0      	subs	r0, r0, r3
 80003d0:	4152      	adcs	r2, r2
 80003d2:	d2d9      	bcs.n	8000388 <__divsi3+0x148>
 80003d4:	0843      	lsrs	r3, r0, #1
 80003d6:	428b      	cmp	r3, r1
 80003d8:	d301      	bcc.n	80003de <__divsi3+0x19e>
 80003da:	004b      	lsls	r3, r1, #1
 80003dc:	1ac0      	subs	r0, r0, r3
 80003de:	4152      	adcs	r2, r2
 80003e0:	1a41      	subs	r1, r0, r1
 80003e2:	d200      	bcs.n	80003e6 <__divsi3+0x1a6>
 80003e4:	4601      	mov	r1, r0
 80003e6:	4663      	mov	r3, ip
 80003e8:	4152      	adcs	r2, r2
 80003ea:	105b      	asrs	r3, r3, #1
 80003ec:	4610      	mov	r0, r2
 80003ee:	d301      	bcc.n	80003f4 <__divsi3+0x1b4>
 80003f0:	4240      	negs	r0, r0
 80003f2:	2b00      	cmp	r3, #0
 80003f4:	d500      	bpl.n	80003f8 <__divsi3+0x1b8>
 80003f6:	4249      	negs	r1, r1
 80003f8:	4770      	bx	lr
 80003fa:	4663      	mov	r3, ip
 80003fc:	105b      	asrs	r3, r3, #1
 80003fe:	d300      	bcc.n	8000402 <__divsi3+0x1c2>
 8000400:	4240      	negs	r0, r0
 8000402:	b501      	push	{r0, lr}
 8000404:	2000      	movs	r0, #0
 8000406:	f000 f805 	bl	8000414 <__aeabi_idiv0>
 800040a:	bd02      	pop	{r1, pc}

0800040c <__aeabi_idivmod>:
 800040c:	2900      	cmp	r1, #0
 800040e:	d0f8      	beq.n	8000402 <__divsi3+0x1c2>
 8000410:	e716      	b.n	8000240 <__divsi3>
 8000412:	4770      	bx	lr

08000414 <__aeabi_idiv0>:
 8000414:	4770      	bx	lr
 8000416:	46c0      	nop			; (mov r8, r8)

08000418 <__NVIC_SystemReset>:
/**
  \brief   System Reset
  \details Initiates a system reset request to reset the MCU.
 */
__NO_RETURN __STATIC_INLINE void __NVIC_SystemReset(void)
{
 8000418:	b580      	push	{r7, lr}
 800041a:	af00      	add	r7, sp, #0
  \details Acts as a special kind of Data Memory Barrier.
           It completes when all explicit memory accesses before this instruction complete.
 */
__STATIC_FORCEINLINE void __DSB(void)
{
  __ASM volatile ("dsb 0xF":::"memory");
 800041c:	f3bf 8f4f 	dsb	sy
}
 8000420:	46c0      	nop			; (mov r8, r8)
  __DSB();                                                          /* Ensure all outstanding memory accesses included
                                                                       buffered write are completed before reset */
  SCB->AIRCR  = ((0x5FAUL << SCB_AIRCR_VECTKEY_Pos) |
 8000422:	4b04      	ldr	r3, [pc, #16]	; (8000434 <__NVIC_SystemReset+0x1c>)
 8000424:	4a04      	ldr	r2, [pc, #16]	; (8000438 <__NVIC_SystemReset+0x20>)
 8000426:	60da      	str	r2, [r3, #12]
  __ASM volatile ("dsb 0xF":::"memory");
 8000428:	f3bf 8f4f 	dsb	sy
}
 800042c:	46c0      	nop			; (mov r8, r8)
                 SCB_AIRCR_SYSRESETREQ_Msk);
  __DSB();                                                          /* Ensure completion of memory access */

  for(;;)                                                           /* wait until reset */
  {
    __NOP();
 800042e:	46c0      	nop			; (mov r8, r8)
 8000430:	e7fd      	b.n	800042e <__NVIC_SystemReset+0x16>
 8000432:	46c0      	nop			; (mov r8, r8)
 8000434:	e000ed00 	.word	0xe000ed00
 8000438:	05fa0004 	.word	0x05fa0004

0800043c <main>:
/**
  * @brief  The application entry point.
  * @retval int
  */
int main(void)
{
 800043c:	b5b0      	push	{r4, r5, r7, lr}
 800043e:	b09c      	sub	sp, #112	; 0x70
 8000440:	af00      	add	r7, sp, #0
  /* USER CODE END 1 */

  /* MCU Configuration--------------------------------------------------------*/

  /* Reset of all peripherals, Initializes the Flash interface and the Systick. */
  HAL_Init();
 8000442:	f000 ffbd 	bl	80013c0 <HAL_Init>

  /* USER CODE BEGIN Init */

	aRxBuffer[0]=0x00;
 8000446:	4b61      	ldr	r3, [pc, #388]	; (80005cc <main+0x190>)
 8000448:	2200      	movs	r2, #0
 800044a:	701a      	strb	r2, [r3, #0]
	aRxBuffer[1]=0x00;
 800044c:	4b5f      	ldr	r3, [pc, #380]	; (80005cc <main+0x190>)
 800044e:	2200      	movs	r2, #0
 8000450:	705a      	strb	r2, [r3, #1]
	aRxBuffer[2]=0x00;
 8000452:	4b5e      	ldr	r3, [pc, #376]	; (80005cc <main+0x190>)
 8000454:	2200      	movs	r2, #0
 8000456:	709a      	strb	r2, [r3, #2]
	aRxBuffer[3]=0x00;
 8000458:	4b5c      	ldr	r3, [pc, #368]	; (80005cc <main+0x190>)
 800045a:	2200      	movs	r2, #0
 800045c:	70da      	strb	r2, [r3, #3]

	aTxBuffer[0]=0xAA;
 800045e:	4b5c      	ldr	r3, [pc, #368]	; (80005d0 <main+0x194>)
 8000460:	22aa      	movs	r2, #170	; 0xaa
 8000462:	701a      	strb	r2, [r3, #0]
	aTxBuffer[1]=0xBB;
 8000464:	4b5a      	ldr	r3, [pc, #360]	; (80005d0 <main+0x194>)
 8000466:	22bb      	movs	r2, #187	; 0xbb
 8000468:	705a      	strb	r2, [r3, #1]
	aTxBuffer[2]=0xCC;
 800046a:	4b59      	ldr	r3, [pc, #356]	; (80005d0 <main+0x194>)
 800046c:	22cc      	movs	r2, #204	; 0xcc
 800046e:	709a      	strb	r2, [r3, #2]
	aTxBuffer[3]=0xDD;
 8000470:	4b57      	ldr	r3, [pc, #348]	; (80005d0 <main+0x194>)
 8000472:	22dd      	movs	r2, #221	; 0xdd
 8000474:	70da      	strb	r2, [r3, #3]

  /* USER CODE END Init */

  /* Configure the system clock */
  SystemClock_Config();
 8000476:	f000 f8c3 	bl	8000600 <SystemClock_Config>
  /* USER CODE BEGIN SysInit */

  /* USER CODE END SysInit */

  /* Initialize all configured peripherals */
  MX_GPIO_Init();
 800047a:	f000 fb83 	bl	8000b84 <MX_GPIO_Init>
  MX_DMA_Init();
 800047e:	f000 fb63 	bl	8000b48 <MX_DMA_Init>
  MX_I2C1_Init();
 8000482:	f000 f9c3 	bl	800080c <MX_I2C1_Init>
  MX_ADC_Init();
 8000486:	f000 f925 	bl	80006d4 <MX_ADC_Init>
  MX_SPI1_Init();
 800048a:	f000 f9ff 	bl	800088c <MX_SPI1_Init>
  MX_TIM1_Init();
 800048e:	f000 fa3b 	bl	8000908 <MX_TIM1_Init>
  MX_USART1_UART_Init();
 8000492:	f000 fb27 	bl	8000ae4 <MX_USART1_UART_Init>
  /* USER CODE BEGIN 2 */



  HAL_StatusTypeDef status;
  status = HAL_I2C_EnableListen_IT(&hi2c1);
 8000496:	2567      	movs	r5, #103	; 0x67
 8000498:	197c      	adds	r4, r7, r5
 800049a:	4b4e      	ldr	r3, [pc, #312]	; (80005d4 <main+0x198>)
 800049c:	0018      	movs	r0, r3
 800049e:	f002 fa4d 	bl	800293c <HAL_I2C_EnableListen_IT>
 80004a2:	0003      	movs	r3, r0
 80004a4:	7023      	strb	r3, [r4, #0]
  if(status != HAL_OK){
 80004a6:	197b      	adds	r3, r7, r5
 80004a8:	781b      	ldrb	r3, [r3, #0]
 80004aa:	2b00      	cmp	r3, #0
 80004ac:	d001      	beq.n	80004b2 <main+0x76>
	  /* Transfer error in reception process */
	  Error_Handler();
 80004ae:	f000 fc60 	bl	8000d72 <Error_Handler>

  //don't run when not connected to actual power i think


  	//get out of standby mode to allow gate drive
	HAL_GPIO_WritePin(GPIOF, OC_TH_STBY1_Pin, GPIO_PIN_SET);
 80004b2:	4b49      	ldr	r3, [pc, #292]	; (80005d8 <main+0x19c>)
 80004b4:	2201      	movs	r2, #1
 80004b6:	2180      	movs	r1, #128	; 0x80
 80004b8:	0018      	movs	r0, r3
 80004ba:	f002 f829 	bl	8002510 <HAL_GPIO_WritePin>
	HAL_GPIO_WritePin(GPIOF, OC_TH_STBY2_Pin, GPIO_PIN_SET);
 80004be:	4b46      	ldr	r3, [pc, #280]	; (80005d8 <main+0x19c>)
 80004c0:	2201      	movs	r2, #1
 80004c2:	2140      	movs	r1, #64	; 0x40
 80004c4:	0018      	movs	r0, r3
 80004c6:	f002 f823 	bl	8002510 <HAL_GPIO_WritePin>


	HAL_TIM_PWM_Start(&htim1, TIM_CHANNEL_1);
 80004ca:	4b44      	ldr	r3, [pc, #272]	; (80005dc <main+0x1a0>)
 80004cc:	2100      	movs	r1, #0
 80004ce:	0018      	movs	r0, r3
 80004d0:	f004 fb36 	bl	8004b40 <HAL_TIM_PWM_Start>
	HAL_TIMEx_PWMN_Start(&htim1, TIM_CHANNEL_1); // turn on complementary channel
 80004d4:	4b41      	ldr	r3, [pc, #260]	; (80005dc <main+0x1a0>)
 80004d6:	2100      	movs	r1, #0
 80004d8:	0018      	movs	r0, r3
 80004da:	f005 f963 	bl	80057a4 <HAL_TIMEx_PWMN_Start>


	TIM1->CCR1 = 0;
 80004de:	4b40      	ldr	r3, [pc, #256]	; (80005e0 <main+0x1a4>)
 80004e0:	2200      	movs	r2, #0
 80004e2:	635a      	str	r2, [r3, #52]	; 0x34

  /* USER CODE END 2 */

  /* Infinite loop */
  /* USER CODE BEGIN WHILE */
  int duty = 0;
 80004e4:	2300      	movs	r3, #0
 80004e6:	66fb      	str	r3, [r7, #108]	; 0x6c
	while (1){

		//restart I2C listener after a transfer
		if (Xfer_Complete ==1){
 80004e8:	4b3e      	ldr	r3, [pc, #248]	; (80005e4 <main+0x1a8>)
 80004ea:	681b      	ldr	r3, [r3, #0]
 80004ec:	2b01      	cmp	r3, #1
 80004ee:	d10a      	bne.n	8000506 <main+0xca>
			/* Put I2C peripheral in listen mode process */
			status = HAL_I2C_EnableListen_IT(&hi2c1);
 80004f0:	2367      	movs	r3, #103	; 0x67
 80004f2:	18fc      	adds	r4, r7, r3
 80004f4:	4b37      	ldr	r3, [pc, #220]	; (80005d4 <main+0x198>)
 80004f6:	0018      	movs	r0, r3
 80004f8:	f002 fa20 	bl	800293c <HAL_I2C_EnableListen_IT>
 80004fc:	0003      	movs	r3, r0
 80004fe:	7023      	strb	r3, [r4, #0]
			Xfer_Complete =0;
 8000500:	4b38      	ldr	r3, [pc, #224]	; (80005e4 <main+0x1a8>)
 8000502:	2200      	movs	r2, #0
 8000504:	601a      	str	r2, [r3, #0]
		}

		//blink LED
		HAL_GPIO_WritePin(GPIOF, LED_STATUS_Pin, GPIO_PIN_SET);
 8000506:	4b34      	ldr	r3, [pc, #208]	; (80005d8 <main+0x19c>)
 8000508:	2201      	movs	r2, #1
 800050a:	2101      	movs	r1, #1
 800050c:	0018      	movs	r0, r3
 800050e:	f001 ffff 	bl	8002510 <HAL_GPIO_WritePin>
//		TIM1->CCR1 = 20;
		TIM1->CCR1 = duty;
 8000512:	4b33      	ldr	r3, [pc, #204]	; (80005e0 <main+0x1a4>)
 8000514:	6efa      	ldr	r2, [r7, #108]	; 0x6c
 8000516:	635a      	str	r2, [r3, #52]	; 0x34
		duty++;
 8000518:	6efb      	ldr	r3, [r7, #108]	; 0x6c
 800051a:	3301      	adds	r3, #1
 800051c:	66fb      	str	r3, [r7, #108]	; 0x6c
		if(duty > 512) duty=0;
 800051e:	6efa      	ldr	r2, [r7, #108]	; 0x6c
 8000520:	2380      	movs	r3, #128	; 0x80
 8000522:	009b      	lsls	r3, r3, #2
 8000524:	429a      	cmp	r2, r3
 8000526:	dd01      	ble.n	800052c <main+0xf0>
 8000528:	2300      	movs	r3, #0
 800052a:	66fb      	str	r3, [r7, #108]	; 0x6c


		HAL_Delay(10);
 800052c:	200a      	movs	r0, #10
 800052e:	f000 ffab 	bl	8001488 <HAL_Delay>
		HAL_GPIO_WritePin(GPIOF, LED_STATUS_Pin, GPIO_PIN_RESET);
 8000532:	4b29      	ldr	r3, [pc, #164]	; (80005d8 <main+0x19c>)
 8000534:	2200      	movs	r2, #0
 8000536:	2101      	movs	r1, #1
 8000538:	0018      	movs	r0, r3
 800053a:	f001 ffe9 	bl	8002510 <HAL_GPIO_WritePin>

//		TIM1->CCR1 = 0;
//		TIM1->CCR1 = 0;
		HAL_Delay(10);
 800053e:	200a      	movs	r0, #10
 8000540:	f000 ffa2 	bl	8001488 <HAL_Delay>

		//read all ADCs
//		HAL_ADC_Start(&hadc);
	   // Poll ADC1 Perihperal & TimeOut = 1mSec
//		HAL_ADC_PollForConversion(&hadc, 1);
		HAL_ADC_Start_DMA(&hadc, (uint32_t *)adc_vals, NBR_ADC);  // start the adc in dma mode
 8000544:	4928      	ldr	r1, [pc, #160]	; (80005e8 <main+0x1ac>)
 8000546:	4b29      	ldr	r3, [pc, #164]	; (80005ec <main+0x1b0>)
 8000548:	2206      	movs	r2, #6
 800054a:	0018      	movs	r0, r3
 800054c:	f001 f900 	bl	8001750 <HAL_ADC_Start_DMA>


		Serialprint("ADC: \n");
 8000550:	4b27      	ldr	r3, [pc, #156]	; (80005f0 <main+0x1b4>)
 8000552:	0018      	movs	r0, r3
 8000554:	f000 fb7e 	bl	8000c54 <Serialprint>
		for(int i = 0; i < NBR_ADC; i++){
 8000558:	2300      	movs	r3, #0
 800055a:	66bb      	str	r3, [r7, #104]	; 0x68
 800055c:	e02e      	b.n	80005bc <main+0x180>
			if(i == 2){ //Vbus sensor
 800055e:	6ebb      	ldr	r3, [r7, #104]	; 0x68
 8000560:	2b02      	cmp	r3, #2
 8000562:	d11a      	bne.n	800059a <main+0x15e>
				sprintf(message, " %d", 330*adc_vals[i] * 512 / 4095);
 8000564:	4b20      	ldr	r3, [pc, #128]	; (80005e8 <main+0x1ac>)
 8000566:	6eba      	ldr	r2, [r7, #104]	; 0x68
 8000568:	0052      	lsls	r2, r2, #1
 800056a:	5ad3      	ldrh	r3, [r2, r3]
 800056c:	001a      	movs	r2, r3
 800056e:	0013      	movs	r3, r2
 8000570:	009b      	lsls	r3, r3, #2
 8000572:	189b      	adds	r3, r3, r2
 8000574:	015a      	lsls	r2, r3, #5
 8000576:	189b      	adds	r3, r3, r2
 8000578:	029b      	lsls	r3, r3, #10
 800057a:	491e      	ldr	r1, [pc, #120]	; (80005f4 <main+0x1b8>)
 800057c:	0018      	movs	r0, r3
 800057e:	f7ff fe5f 	bl	8000240 <__divsi3>
 8000582:	0003      	movs	r3, r0
 8000584:	001a      	movs	r2, r3
 8000586:	491c      	ldr	r1, [pc, #112]	; (80005f8 <main+0x1bc>)
 8000588:	003b      	movs	r3, r7
 800058a:	0018      	movs	r0, r3
 800058c:	f005 feac 	bl	80062e8 <siprintf>
				Serialprint(message);
 8000590:	003b      	movs	r3, r7
 8000592:	0018      	movs	r0, r3
 8000594:	f000 fb5e 	bl	8000c54 <Serialprint>
 8000598:	e00d      	b.n	80005b6 <main+0x17a>
			}else{
				sprintf(message, " %d", adc_vals[i]);
 800059a:	4b13      	ldr	r3, [pc, #76]	; (80005e8 <main+0x1ac>)
 800059c:	6eba      	ldr	r2, [r7, #104]	; 0x68
 800059e:	0052      	lsls	r2, r2, #1
 80005a0:	5ad3      	ldrh	r3, [r2, r3]
 80005a2:	001a      	movs	r2, r3
 80005a4:	4914      	ldr	r1, [pc, #80]	; (80005f8 <main+0x1bc>)
 80005a6:	003b      	movs	r3, r7
 80005a8:	0018      	movs	r0, r3
 80005aa:	f005 fe9d 	bl	80062e8 <siprintf>
				Serialprint(message);
 80005ae:	003b      	movs	r3, r7
 80005b0:	0018      	movs	r0, r3
 80005b2:	f000 fb4f 	bl	8000c54 <Serialprint>
		for(int i = 0; i < NBR_ADC; i++){
 80005b6:	6ebb      	ldr	r3, [r7, #104]	; 0x68
 80005b8:	3301      	adds	r3, #1
 80005ba:	66bb      	str	r3, [r7, #104]	; 0x68
 80005bc:	6ebb      	ldr	r3, [r7, #104]	; 0x68
 80005be:	2b05      	cmp	r3, #5
 80005c0:	ddcd      	ble.n	800055e <main+0x122>
			}
		}
		Serialprint("\n");
 80005c2:	4b0e      	ldr	r3, [pc, #56]	; (80005fc <main+0x1c0>)
 80005c4:	0018      	movs	r0, r3
 80005c6:	f000 fb45 	bl	8000c54 <Serialprint>
		if (Xfer_Complete ==1){
 80005ca:	e78d      	b.n	80004e8 <main+0xac>
 80005cc:	20000098 	.word	0x20000098
 80005d0:	20000094 	.word	0x20000094
 80005d4:	2000012c 	.word	0x2000012c
 80005d8:	48001400 	.word	0x48001400
 80005dc:	200001dc 	.word	0x200001dc
 80005e0:	40012c00 	.word	0x40012c00
 80005e4:	20000090 	.word	0x20000090
 80005e8:	2000009c 	.word	0x2000009c
 80005ec:	200000a8 	.word	0x200000a8
 80005f0:	08006bd4 	.word	0x08006bd4
 80005f4:	00000fff 	.word	0x00000fff
 80005f8:	08006bdc 	.word	0x08006bdc
 80005fc:	08006be0 	.word	0x08006be0

08000600 <SystemClock_Config>:
/**
  * @brief System Clock Configuration
  * @retval None
  */
void SystemClock_Config(void)
{
 8000600:	b590      	push	{r4, r7, lr}
 8000602:	b095      	sub	sp, #84	; 0x54
 8000604:	af00      	add	r7, sp, #0
  RCC_OscInitTypeDef RCC_OscInitStruct = {0};
 8000606:	2420      	movs	r4, #32
 8000608:	193b      	adds	r3, r7, r4
 800060a:	0018      	movs	r0, r3
 800060c:	2330      	movs	r3, #48	; 0x30
 800060e:	001a      	movs	r2, r3
 8000610:	2100      	movs	r1, #0
 8000612:	f005 fe61 	bl	80062d8 <memset>
  RCC_ClkInitTypeDef RCC_ClkInitStruct = {0};
 8000616:	2310      	movs	r3, #16
 8000618:	18fb      	adds	r3, r7, r3
 800061a:	0018      	movs	r0, r3
 800061c:	2310      	movs	r3, #16
 800061e:	001a      	movs	r2, r3
 8000620:	2100      	movs	r1, #0
 8000622:	f005 fe59 	bl	80062d8 <memset>
  RCC_PeriphCLKInitTypeDef PeriphClkInit = {0};
 8000626:	003b      	movs	r3, r7
 8000628:	0018      	movs	r0, r3
 800062a:	2310      	movs	r3, #16
 800062c:	001a      	movs	r2, r3
 800062e:	2100      	movs	r1, #0
 8000630:	f005 fe52 	bl	80062d8 <memset>

  /** Initializes the RCC Oscillators according to the specified parameters
  * in the RCC_OscInitTypeDef structure.
  */
  RCC_OscInitStruct.OscillatorType = RCC_OSCILLATORTYPE_HSI|RCC_OSCILLATORTYPE_HSI14;
 8000634:	0021      	movs	r1, r4
 8000636:	187b      	adds	r3, r7, r1
 8000638:	2212      	movs	r2, #18
 800063a:	601a      	str	r2, [r3, #0]
  RCC_OscInitStruct.HSIState = RCC_HSI_ON;
 800063c:	187b      	adds	r3, r7, r1
 800063e:	2201      	movs	r2, #1
 8000640:	60da      	str	r2, [r3, #12]
  RCC_OscInitStruct.HSI14State = RCC_HSI14_ON;
 8000642:	187b      	adds	r3, r7, r1
 8000644:	2201      	movs	r2, #1
 8000646:	615a      	str	r2, [r3, #20]
  RCC_OscInitStruct.HSICalibrationValue = RCC_HSICALIBRATION_DEFAULT;
 8000648:	187b      	adds	r3, r7, r1
 800064a:	2210      	movs	r2, #16
 800064c:	611a      	str	r2, [r3, #16]
  RCC_OscInitStruct.HSI14CalibrationValue = 16;
 800064e:	187b      	adds	r3, r7, r1
 8000650:	2210      	movs	r2, #16
 8000652:	619a      	str	r2, [r3, #24]
  RCC_OscInitStruct.PLL.PLLState = RCC_PLL_ON;
 8000654:	187b      	adds	r3, r7, r1
 8000656:	2202      	movs	r2, #2
 8000658:	621a      	str	r2, [r3, #32]
  RCC_OscInitStruct.PLL.PLLSource = RCC_PLLSOURCE_HSI;
 800065a:	187b      	adds	r3, r7, r1
 800065c:	2200      	movs	r2, #0
 800065e:	625a      	str	r2, [r3, #36]	; 0x24
  RCC_OscInitStruct.PLL.PLLMUL = RCC_PLL_MUL12;
 8000660:	187b      	adds	r3, r7, r1
 8000662:	22a0      	movs	r2, #160	; 0xa0
 8000664:	0392      	lsls	r2, r2, #14
 8000666:	629a      	str	r2, [r3, #40]	; 0x28
  RCC_OscInitStruct.PLL.PREDIV = RCC_PREDIV_DIV1;
 8000668:	187b      	adds	r3, r7, r1
 800066a:	2200      	movs	r2, #0
 800066c:	62da      	str	r2, [r3, #44]	; 0x2c
  if (HAL_RCC_OscConfig(&RCC_OscInitStruct) != HAL_OK)
 800066e:	187b      	adds	r3, r7, r1
 8000670:	0018      	movs	r0, r3
 8000672:	f003 fbcb 	bl	8003e0c <HAL_RCC_OscConfig>
 8000676:	1e03      	subs	r3, r0, #0
 8000678:	d001      	beq.n	800067e <SystemClock_Config+0x7e>
  {
    Error_Handler();
 800067a:	f000 fb7a 	bl	8000d72 <Error_Handler>
  }

  /** Initializes the CPU, AHB and APB buses clocks
  */
  RCC_ClkInitStruct.ClockType = RCC_CLOCKTYPE_HCLK|RCC_CLOCKTYPE_SYSCLK
 800067e:	2110      	movs	r1, #16
 8000680:	187b      	adds	r3, r7, r1
 8000682:	2207      	movs	r2, #7
 8000684:	601a      	str	r2, [r3, #0]
                              |RCC_CLOCKTYPE_PCLK1;
  RCC_ClkInitStruct.SYSCLKSource = RCC_SYSCLKSOURCE_PLLCLK;
 8000686:	187b      	adds	r3, r7, r1
 8000688:	2202      	movs	r2, #2
 800068a:	605a      	str	r2, [r3, #4]
  RCC_ClkInitStruct.AHBCLKDivider = RCC_SYSCLK_DIV1;
 800068c:	187b      	adds	r3, r7, r1
 800068e:	2200      	movs	r2, #0
 8000690:	609a      	str	r2, [r3, #8]
  RCC_ClkInitStruct.APB1CLKDivider = RCC_HCLK_DIV1;
 8000692:	187b      	adds	r3, r7, r1
 8000694:	2200      	movs	r2, #0
 8000696:	60da      	str	r2, [r3, #12]

  if (HAL_RCC_ClockConfig(&RCC_ClkInitStruct, FLASH_LATENCY_1) != HAL_OK)
 8000698:	187b      	adds	r3, r7, r1
 800069a:	2101      	movs	r1, #1
 800069c:	0018      	movs	r0, r3
 800069e:	f003 fecf 	bl	8004440 <HAL_RCC_ClockConfig>
 80006a2:	1e03      	subs	r3, r0, #0
 80006a4:	d001      	beq.n	80006aa <SystemClock_Config+0xaa>
  {
    Error_Handler();
 80006a6:	f000 fb64 	bl	8000d72 <Error_Handler>
  }
  PeriphClkInit.PeriphClockSelection = RCC_PERIPHCLK_USART1|RCC_PERIPHCLK_I2C1;
 80006aa:	003b      	movs	r3, r7
 80006ac:	2221      	movs	r2, #33	; 0x21
 80006ae:	601a      	str	r2, [r3, #0]
  PeriphClkInit.Usart1ClockSelection = RCC_USART1CLKSOURCE_PCLK1;
 80006b0:	003b      	movs	r3, r7
 80006b2:	2200      	movs	r2, #0
 80006b4:	609a      	str	r2, [r3, #8]
  PeriphClkInit.I2c1ClockSelection = RCC_I2C1CLKSOURCE_HSI;
 80006b6:	003b      	movs	r3, r7
 80006b8:	2200      	movs	r2, #0
 80006ba:	60da      	str	r2, [r3, #12]
  if (HAL_RCCEx_PeriphCLKConfig(&PeriphClkInit) != HAL_OK)
 80006bc:	003b      	movs	r3, r7
 80006be:	0018      	movs	r0, r3
 80006c0:	f004 f810 	bl	80046e4 <HAL_RCCEx_PeriphCLKConfig>
 80006c4:	1e03      	subs	r3, r0, #0
 80006c6:	d001      	beq.n	80006cc <SystemClock_Config+0xcc>
  {
    Error_Handler();
 80006c8:	f000 fb53 	bl	8000d72 <Error_Handler>
  }
}
 80006cc:	46c0      	nop			; (mov r8, r8)
 80006ce:	46bd      	mov	sp, r7
 80006d0:	b015      	add	sp, #84	; 0x54
 80006d2:	bd90      	pop	{r4, r7, pc}

080006d4 <MX_ADC_Init>:
  * @brief ADC Initialization Function
  * @param None
  * @retval None
  */
static void MX_ADC_Init(void)
{
 80006d4:	b580      	push	{r7, lr}
 80006d6:	b084      	sub	sp, #16
 80006d8:	af00      	add	r7, sp, #0

  /* USER CODE BEGIN ADC_Init 0 */

  /* USER CODE END ADC_Init 0 */

  ADC_ChannelConfTypeDef sConfig = {0};
 80006da:	1d3b      	adds	r3, r7, #4
 80006dc:	0018      	movs	r0, r3
 80006de:	230c      	movs	r3, #12
 80006e0:	001a      	movs	r2, r3
 80006e2:	2100      	movs	r1, #0
 80006e4:	f005 fdf8 	bl	80062d8 <memset>

  /* USER CODE END ADC_Init 1 */

  /** Configure the global features of the ADC (Clock, Resolution, Data Alignment and number of conversion)
  */
  hadc.Instance = ADC1;
 80006e8:	4b46      	ldr	r3, [pc, #280]	; (8000804 <MX_ADC_Init+0x130>)
 80006ea:	4a47      	ldr	r2, [pc, #284]	; (8000808 <MX_ADC_Init+0x134>)
 80006ec:	601a      	str	r2, [r3, #0]
  hadc.Init.ClockPrescaler = ADC_CLOCK_ASYNC_DIV1;
 80006ee:	4b45      	ldr	r3, [pc, #276]	; (8000804 <MX_ADC_Init+0x130>)
 80006f0:	2200      	movs	r2, #0
 80006f2:	605a      	str	r2, [r3, #4]
  hadc.Init.Resolution = ADC_RESOLUTION_12B;
 80006f4:	4b43      	ldr	r3, [pc, #268]	; (8000804 <MX_ADC_Init+0x130>)
 80006f6:	2200      	movs	r2, #0
 80006f8:	609a      	str	r2, [r3, #8]
  hadc.Init.DataAlign = ADC_DATAALIGN_RIGHT;
 80006fa:	4b42      	ldr	r3, [pc, #264]	; (8000804 <MX_ADC_Init+0x130>)
 80006fc:	2200      	movs	r2, #0
 80006fe:	60da      	str	r2, [r3, #12]
  hadc.Init.ScanConvMode = ADC_SCAN_DIRECTION_FORWARD;
 8000700:	4b40      	ldr	r3, [pc, #256]	; (8000804 <MX_ADC_Init+0x130>)
 8000702:	2201      	movs	r2, #1
 8000704:	611a      	str	r2, [r3, #16]
  hadc.Init.EOCSelection = ADC_EOC_SINGLE_CONV;
 8000706:	4b3f      	ldr	r3, [pc, #252]	; (8000804 <MX_ADC_Init+0x130>)
 8000708:	2204      	movs	r2, #4
 800070a:	615a      	str	r2, [r3, #20]
  hadc.Init.LowPowerAutoWait = DISABLE;
 800070c:	4b3d      	ldr	r3, [pc, #244]	; (8000804 <MX_ADC_Init+0x130>)
 800070e:	2200      	movs	r2, #0
 8000710:	761a      	strb	r2, [r3, #24]
  hadc.Init.LowPowerAutoPowerOff = DISABLE;
 8000712:	4b3c      	ldr	r3, [pc, #240]	; (8000804 <MX_ADC_Init+0x130>)
 8000714:	2200      	movs	r2, #0
 8000716:	765a      	strb	r2, [r3, #25]
  hadc.Init.ContinuousConvMode = DISABLE;
 8000718:	4b3a      	ldr	r3, [pc, #232]	; (8000804 <MX_ADC_Init+0x130>)
 800071a:	2200      	movs	r2, #0
 800071c:	769a      	strb	r2, [r3, #26]
  hadc.Init.DiscontinuousConvMode = DISABLE;
 800071e:	4b39      	ldr	r3, [pc, #228]	; (8000804 <MX_ADC_Init+0x130>)
 8000720:	2200      	movs	r2, #0
 8000722:	76da      	strb	r2, [r3, #27]
  hadc.Init.ExternalTrigConv = ADC_SOFTWARE_START;
 8000724:	4b37      	ldr	r3, [pc, #220]	; (8000804 <MX_ADC_Init+0x130>)
 8000726:	22c2      	movs	r2, #194	; 0xc2
 8000728:	32ff      	adds	r2, #255	; 0xff
 800072a:	61da      	str	r2, [r3, #28]
  hadc.Init.ExternalTrigConvEdge = ADC_EXTERNALTRIGCONVEDGE_NONE;
 800072c:	4b35      	ldr	r3, [pc, #212]	; (8000804 <MX_ADC_Init+0x130>)
 800072e:	2200      	movs	r2, #0
 8000730:	621a      	str	r2, [r3, #32]
  hadc.Init.DMAContinuousRequests = DISABLE;
 8000732:	4b34      	ldr	r3, [pc, #208]	; (8000804 <MX_ADC_Init+0x130>)
 8000734:	2224      	movs	r2, #36	; 0x24
 8000736:	2100      	movs	r1, #0
 8000738:	5499      	strb	r1, [r3, r2]
  hadc.Init.Overrun = ADC_OVR_DATA_PRESERVED;
 800073a:	4b32      	ldr	r3, [pc, #200]	; (8000804 <MX_ADC_Init+0x130>)
 800073c:	2201      	movs	r2, #1
 800073e:	629a      	str	r2, [r3, #40]	; 0x28
  if (HAL_ADC_Init(&hadc) != HAL_OK)
 8000740:	4b30      	ldr	r3, [pc, #192]	; (8000804 <MX_ADC_Init+0x130>)
 8000742:	0018      	movs	r0, r3
 8000744:	f000 fec4 	bl	80014d0 <HAL_ADC_Init>
 8000748:	1e03      	subs	r3, r0, #0
 800074a:	d001      	beq.n	8000750 <MX_ADC_Init+0x7c>
  {
    Error_Handler();
 800074c:	f000 fb11 	bl	8000d72 <Error_Handler>
  }

  /** Configure for the selected ADC regular channel to be converted.
  */
  sConfig.Channel = ADC_CHANNEL_0;
 8000750:	1d3b      	adds	r3, r7, #4
 8000752:	2200      	movs	r2, #0
 8000754:	601a      	str	r2, [r3, #0]
  sConfig.Rank = ADC_RANK_CHANNEL_NUMBER;
 8000756:	1d3b      	adds	r3, r7, #4
 8000758:	2280      	movs	r2, #128	; 0x80
 800075a:	0152      	lsls	r2, r2, #5
 800075c:	605a      	str	r2, [r3, #4]
  sConfig.SamplingTime = ADC_SAMPLETIME_1CYCLE_5;
 800075e:	1d3b      	adds	r3, r7, #4
 8000760:	2280      	movs	r2, #128	; 0x80
 8000762:	0552      	lsls	r2, r2, #21
 8000764:	609a      	str	r2, [r3, #8]
  if (HAL_ADC_ConfigChannel(&hadc, &sConfig) != HAL_OK)
 8000766:	1d3a      	adds	r2, r7, #4
 8000768:	4b26      	ldr	r3, [pc, #152]	; (8000804 <MX_ADC_Init+0x130>)
 800076a:	0011      	movs	r1, r2
 800076c:	0018      	movs	r0, r3
 800076e:	f001 f889 	bl	8001884 <HAL_ADC_ConfigChannel>
 8000772:	1e03      	subs	r3, r0, #0
 8000774:	d001      	beq.n	800077a <MX_ADC_Init+0xa6>
  {
    Error_Handler();
 8000776:	f000 fafc 	bl	8000d72 <Error_Handler>
  }

  /** Configure for the selected ADC regular channel to be converted.
  */
  sConfig.Channel = ADC_CHANNEL_3;
 800077a:	1d3b      	adds	r3, r7, #4
 800077c:	2203      	movs	r2, #3
 800077e:	601a      	str	r2, [r3, #0]
  if (HAL_ADC_ConfigChannel(&hadc, &sConfig) != HAL_OK)
 8000780:	1d3a      	adds	r2, r7, #4
 8000782:	4b20      	ldr	r3, [pc, #128]	; (8000804 <MX_ADC_Init+0x130>)
 8000784:	0011      	movs	r1, r2
 8000786:	0018      	movs	r0, r3
 8000788:	f001 f87c 	bl	8001884 <HAL_ADC_ConfigChannel>
 800078c:	1e03      	subs	r3, r0, #0
 800078e:	d001      	beq.n	8000794 <MX_ADC_Init+0xc0>
  {
    Error_Handler();
 8000790:	f000 faef 	bl	8000d72 <Error_Handler>
  }

  /** Configure for the selected ADC regular channel to be converted.
  */
  sConfig.Channel = ADC_CHANNEL_4;
 8000794:	1d3b      	adds	r3, r7, #4
 8000796:	2204      	movs	r2, #4
 8000798:	601a      	str	r2, [r3, #0]
  if (HAL_ADC_ConfigChannel(&hadc, &sConfig) != HAL_OK)
 800079a:	1d3a      	adds	r2, r7, #4
 800079c:	4b19      	ldr	r3, [pc, #100]	; (8000804 <MX_ADC_Init+0x130>)
 800079e:	0011      	movs	r1, r2
 80007a0:	0018      	movs	r0, r3
 80007a2:	f001 f86f 	bl	8001884 <HAL_ADC_ConfigChannel>
 80007a6:	1e03      	subs	r3, r0, #0
 80007a8:	d001      	beq.n	80007ae <MX_ADC_Init+0xda>
  {
    Error_Handler();
 80007aa:	f000 fae2 	bl	8000d72 <Error_Handler>
  }

  /** Configure for the selected ADC regular channel to be converted.
  */
  sConfig.Channel = ADC_CHANNEL_9;
 80007ae:	1d3b      	adds	r3, r7, #4
 80007b0:	2209      	movs	r2, #9
 80007b2:	601a      	str	r2, [r3, #0]
  if (HAL_ADC_ConfigChannel(&hadc, &sConfig) != HAL_OK)
 80007b4:	1d3a      	adds	r2, r7, #4
 80007b6:	4b13      	ldr	r3, [pc, #76]	; (8000804 <MX_ADC_Init+0x130>)
 80007b8:	0011      	movs	r1, r2
 80007ba:	0018      	movs	r0, r3
 80007bc:	f001 f862 	bl	8001884 <HAL_ADC_ConfigChannel>
 80007c0:	1e03      	subs	r3, r0, #0
 80007c2:	d001      	beq.n	80007c8 <MX_ADC_Init+0xf4>
  {
    Error_Handler();
 80007c4:	f000 fad5 	bl	8000d72 <Error_Handler>
  }

  /** Configure for the selected ADC regular channel to be converted.
  */
  sConfig.Channel = ADC_CHANNEL_TEMPSENSOR;
 80007c8:	1d3b      	adds	r3, r7, #4
 80007ca:	2210      	movs	r2, #16
 80007cc:	601a      	str	r2, [r3, #0]
  if (HAL_ADC_ConfigChannel(&hadc, &sConfig) != HAL_OK)
 80007ce:	1d3a      	adds	r2, r7, #4
 80007d0:	4b0c      	ldr	r3, [pc, #48]	; (8000804 <MX_ADC_Init+0x130>)
 80007d2:	0011      	movs	r1, r2
 80007d4:	0018      	movs	r0, r3
 80007d6:	f001 f855 	bl	8001884 <HAL_ADC_ConfigChannel>
 80007da:	1e03      	subs	r3, r0, #0
 80007dc:	d001      	beq.n	80007e2 <MX_ADC_Init+0x10e>
  {
    Error_Handler();
 80007de:	f000 fac8 	bl	8000d72 <Error_Handler>
  }

  /** Configure for the selected ADC regular channel to be converted.
  */
  sConfig.Channel = ADC_CHANNEL_VREFINT;
 80007e2:	1d3b      	adds	r3, r7, #4
 80007e4:	2211      	movs	r2, #17
 80007e6:	601a      	str	r2, [r3, #0]
  if (HAL_ADC_ConfigChannel(&hadc, &sConfig) != HAL_OK)
 80007e8:	1d3a      	adds	r2, r7, #4
 80007ea:	4b06      	ldr	r3, [pc, #24]	; (8000804 <MX_ADC_Init+0x130>)
 80007ec:	0011      	movs	r1, r2
 80007ee:	0018      	movs	r0, r3
 80007f0:	f001 f848 	bl	8001884 <HAL_ADC_ConfigChannel>
 80007f4:	1e03      	subs	r3, r0, #0
 80007f6:	d001      	beq.n	80007fc <MX_ADC_Init+0x128>
  {
    Error_Handler();
 80007f8:	f000 fabb 	bl	8000d72 <Error_Handler>
  }
  /* USER CODE BEGIN ADC_Init 2 */

  /* USER CODE END ADC_Init 2 */

}
 80007fc:	46c0      	nop			; (mov r8, r8)
 80007fe:	46bd      	mov	sp, r7
 8000800:	b004      	add	sp, #16
 8000802:	bd80      	pop	{r7, pc}
 8000804:	200000a8 	.word	0x200000a8
 8000808:	40012400 	.word	0x40012400

0800080c <MX_I2C1_Init>:
  * @brief I2C1 Initialization Function
  * @param None
  * @retval None
  */
static void MX_I2C1_Init(void)
{
 800080c:	b580      	push	{r7, lr}
 800080e:	af00      	add	r7, sp, #0
  /* USER CODE END I2C1_Init 0 */

  /* USER CODE BEGIN I2C1_Init 1 */

  /* USER CODE END I2C1_Init 1 */
  hi2c1.Instance = I2C1;
 8000810:	4b1b      	ldr	r3, [pc, #108]	; (8000880 <MX_I2C1_Init+0x74>)
 8000812:	4a1c      	ldr	r2, [pc, #112]	; (8000884 <MX_I2C1_Init+0x78>)
 8000814:	601a      	str	r2, [r3, #0]
  hi2c1.Init.Timing = 0x2000090E;
 8000816:	4b1a      	ldr	r3, [pc, #104]	; (8000880 <MX_I2C1_Init+0x74>)
 8000818:	4a1b      	ldr	r2, [pc, #108]	; (8000888 <MX_I2C1_Init+0x7c>)
 800081a:	605a      	str	r2, [r3, #4]
  hi2c1.Init.OwnAddress1 = 18;
 800081c:	4b18      	ldr	r3, [pc, #96]	; (8000880 <MX_I2C1_Init+0x74>)
 800081e:	2212      	movs	r2, #18
 8000820:	609a      	str	r2, [r3, #8]
  hi2c1.Init.AddressingMode = I2C_ADDRESSINGMODE_7BIT;
 8000822:	4b17      	ldr	r3, [pc, #92]	; (8000880 <MX_I2C1_Init+0x74>)
 8000824:	2201      	movs	r2, #1
 8000826:	60da      	str	r2, [r3, #12]
  hi2c1.Init.DualAddressMode = I2C_DUALADDRESS_DISABLE;
 8000828:	4b15      	ldr	r3, [pc, #84]	; (8000880 <MX_I2C1_Init+0x74>)
 800082a:	2200      	movs	r2, #0
 800082c:	611a      	str	r2, [r3, #16]
  hi2c1.Init.OwnAddress2 = 0;
 800082e:	4b14      	ldr	r3, [pc, #80]	; (8000880 <MX_I2C1_Init+0x74>)
 8000830:	2200      	movs	r2, #0
 8000832:	615a      	str	r2, [r3, #20]
  hi2c1.Init.OwnAddress2Masks = I2C_OA2_NOMASK;
 8000834:	4b12      	ldr	r3, [pc, #72]	; (8000880 <MX_I2C1_Init+0x74>)
 8000836:	2200      	movs	r2, #0
 8000838:	619a      	str	r2, [r3, #24]
  hi2c1.Init.GeneralCallMode = I2C_GENERALCALL_DISABLE;
 800083a:	4b11      	ldr	r3, [pc, #68]	; (8000880 <MX_I2C1_Init+0x74>)
 800083c:	2200      	movs	r2, #0
 800083e:	61da      	str	r2, [r3, #28]
  hi2c1.Init.NoStretchMode = I2C_NOSTRETCH_DISABLE;
 8000840:	4b0f      	ldr	r3, [pc, #60]	; (8000880 <MX_I2C1_Init+0x74>)
 8000842:	2200      	movs	r2, #0
 8000844:	621a      	str	r2, [r3, #32]
  if (HAL_I2C_Init(&hi2c1) != HAL_OK)
 8000846:	4b0e      	ldr	r3, [pc, #56]	; (8000880 <MX_I2C1_Init+0x74>)
 8000848:	0018      	movs	r0, r3
 800084a:	f001 fe7f 	bl	800254c <HAL_I2C_Init>
 800084e:	1e03      	subs	r3, r0, #0
 8000850:	d001      	beq.n	8000856 <MX_I2C1_Init+0x4a>
  {
    Error_Handler();
 8000852:	f000 fa8e 	bl	8000d72 <Error_Handler>
  }

  /** Configure Analogue filter
  */
  if (HAL_I2CEx_ConfigAnalogFilter(&hi2c1, I2C_ANALOGFILTER_ENABLE) != HAL_OK)
 8000856:	4b0a      	ldr	r3, [pc, #40]	; (8000880 <MX_I2C1_Init+0x74>)
 8000858:	2100      	movs	r1, #0
 800085a:	0018      	movs	r0, r3
 800085c:	f003 fa3e 	bl	8003cdc <HAL_I2CEx_ConfigAnalogFilter>
 8000860:	1e03      	subs	r3, r0, #0
 8000862:	d001      	beq.n	8000868 <MX_I2C1_Init+0x5c>
  {
    Error_Handler();
 8000864:	f000 fa85 	bl	8000d72 <Error_Handler>
  }

  /** Configure Digital filter
  */
  if (HAL_I2CEx_ConfigDigitalFilter(&hi2c1, 0) != HAL_OK)
 8000868:	4b05      	ldr	r3, [pc, #20]	; (8000880 <MX_I2C1_Init+0x74>)
 800086a:	2100      	movs	r1, #0
 800086c:	0018      	movs	r0, r3
 800086e:	f003 fa81 	bl	8003d74 <HAL_I2CEx_ConfigDigitalFilter>
 8000872:	1e03      	subs	r3, r0, #0
 8000874:	d001      	beq.n	800087a <MX_I2C1_Init+0x6e>
  {
    Error_Handler();
 8000876:	f000 fa7c 	bl	8000d72 <Error_Handler>
  }
  /* USER CODE BEGIN I2C1_Init 2 */

  /* USER CODE END I2C1_Init 2 */

}
 800087a:	46c0      	nop			; (mov r8, r8)
 800087c:	46bd      	mov	sp, r7
 800087e:	bd80      	pop	{r7, pc}
 8000880:	2000012c 	.word	0x2000012c
 8000884:	40005400 	.word	0x40005400
 8000888:	2000090e 	.word	0x2000090e

0800088c <MX_SPI1_Init>:
  * @brief SPI1 Initialization Function
  * @param None
  * @retval None
  */
static void MX_SPI1_Init(void)
{
 800088c:	b580      	push	{r7, lr}
 800088e:	af00      	add	r7, sp, #0

  /* USER CODE BEGIN SPI1_Init 1 */

  /* USER CODE END SPI1_Init 1 */
  /* SPI1 parameter configuration*/
  hspi1.Instance = SPI1;
 8000890:	4b1b      	ldr	r3, [pc, #108]	; (8000900 <MX_SPI1_Init+0x74>)
 8000892:	4a1c      	ldr	r2, [pc, #112]	; (8000904 <MX_SPI1_Init+0x78>)
 8000894:	601a      	str	r2, [r3, #0]
  hspi1.Init.Mode = SPI_MODE_MASTER;
 8000896:	4b1a      	ldr	r3, [pc, #104]	; (8000900 <MX_SPI1_Init+0x74>)
 8000898:	2282      	movs	r2, #130	; 0x82
 800089a:	0052      	lsls	r2, r2, #1
 800089c:	605a      	str	r2, [r3, #4]
  hspi1.Init.Direction = SPI_DIRECTION_2LINES;
 800089e:	4b18      	ldr	r3, [pc, #96]	; (8000900 <MX_SPI1_Init+0x74>)
 80008a0:	2200      	movs	r2, #0
 80008a2:	609a      	str	r2, [r3, #8]
  hspi1.Init.DataSize = SPI_DATASIZE_4BIT;
 80008a4:	4b16      	ldr	r3, [pc, #88]	; (8000900 <MX_SPI1_Init+0x74>)
 80008a6:	22c0      	movs	r2, #192	; 0xc0
 80008a8:	0092      	lsls	r2, r2, #2
 80008aa:	60da      	str	r2, [r3, #12]
  hspi1.Init.CLKPolarity = SPI_POLARITY_LOW;
 80008ac:	4b14      	ldr	r3, [pc, #80]	; (8000900 <MX_SPI1_Init+0x74>)
 80008ae:	2200      	movs	r2, #0
 80008b0:	611a      	str	r2, [r3, #16]
  hspi1.Init.CLKPhase = SPI_PHASE_1EDGE;
 80008b2:	4b13      	ldr	r3, [pc, #76]	; (8000900 <MX_SPI1_Init+0x74>)
 80008b4:	2200      	movs	r2, #0
 80008b6:	615a      	str	r2, [r3, #20]
  hspi1.Init.NSS = SPI_NSS_SOFT;
 80008b8:	4b11      	ldr	r3, [pc, #68]	; (8000900 <MX_SPI1_Init+0x74>)
 80008ba:	2280      	movs	r2, #128	; 0x80
 80008bc:	0092      	lsls	r2, r2, #2
 80008be:	619a      	str	r2, [r3, #24]
  hspi1.Init.BaudRatePrescaler = SPI_BAUDRATEPRESCALER_16;
 80008c0:	4b0f      	ldr	r3, [pc, #60]	; (8000900 <MX_SPI1_Init+0x74>)
 80008c2:	2218      	movs	r2, #24
 80008c4:	61da      	str	r2, [r3, #28]
  hspi1.Init.FirstBit = SPI_FIRSTBIT_MSB;
 80008c6:	4b0e      	ldr	r3, [pc, #56]	; (8000900 <MX_SPI1_Init+0x74>)
 80008c8:	2200      	movs	r2, #0
 80008ca:	621a      	str	r2, [r3, #32]
  hspi1.Init.TIMode = SPI_TIMODE_DISABLE;
 80008cc:	4b0c      	ldr	r3, [pc, #48]	; (8000900 <MX_SPI1_Init+0x74>)
 80008ce:	2200      	movs	r2, #0
 80008d0:	625a      	str	r2, [r3, #36]	; 0x24
  hspi1.Init.CRCCalculation = SPI_CRCCALCULATION_DISABLE;
 80008d2:	4b0b      	ldr	r3, [pc, #44]	; (8000900 <MX_SPI1_Init+0x74>)
 80008d4:	2200      	movs	r2, #0
 80008d6:	629a      	str	r2, [r3, #40]	; 0x28
  hspi1.Init.CRCPolynomial = 7;
 80008d8:	4b09      	ldr	r3, [pc, #36]	; (8000900 <MX_SPI1_Init+0x74>)
 80008da:	2207      	movs	r2, #7
 80008dc:	62da      	str	r2, [r3, #44]	; 0x2c
  hspi1.Init.CRCLength = SPI_CRC_LENGTH_DATASIZE;
 80008de:	4b08      	ldr	r3, [pc, #32]	; (8000900 <MX_SPI1_Init+0x74>)
 80008e0:	2200      	movs	r2, #0
 80008e2:	631a      	str	r2, [r3, #48]	; 0x30
  hspi1.Init.NSSPMode = SPI_NSS_PULSE_ENABLE;
 80008e4:	4b06      	ldr	r3, [pc, #24]	; (8000900 <MX_SPI1_Init+0x74>)
 80008e6:	2208      	movs	r2, #8
 80008e8:	635a      	str	r2, [r3, #52]	; 0x34
  if (HAL_SPI_Init(&hspi1) != HAL_OK)
 80008ea:	4b05      	ldr	r3, [pc, #20]	; (8000900 <MX_SPI1_Init+0x74>)
 80008ec:	0018      	movs	r0, r3
 80008ee:	f003 ffc7 	bl	8004880 <HAL_SPI_Init>
 80008f2:	1e03      	subs	r3, r0, #0
 80008f4:	d001      	beq.n	80008fa <MX_SPI1_Init+0x6e>
  {
    Error_Handler();
 80008f6:	f000 fa3c 	bl	8000d72 <Error_Handler>
  }
  /* USER CODE BEGIN SPI1_Init 2 */

  /* USER CODE END SPI1_Init 2 */

}
 80008fa:	46c0      	nop			; (mov r8, r8)
 80008fc:	46bd      	mov	sp, r7
 80008fe:	bd80      	pop	{r7, pc}
 8000900:	20000178 	.word	0x20000178
 8000904:	40013000 	.word	0x40013000

08000908 <MX_TIM1_Init>:
  * @brief TIM1 Initialization Function
  * @param None
  * @retval None
  */
static void MX_TIM1_Init(void)
{
 8000908:	b580      	push	{r7, lr}
 800090a:	b09a      	sub	sp, #104	; 0x68
 800090c:	af00      	add	r7, sp, #0

  /* USER CODE BEGIN TIM1_Init 0 */

  /* USER CODE END TIM1_Init 0 */

  TIM_ClockConfigTypeDef sClockSourceConfig = {0};
 800090e:	2358      	movs	r3, #88	; 0x58
 8000910:	18fb      	adds	r3, r7, r3
 8000912:	0018      	movs	r0, r3
 8000914:	2310      	movs	r3, #16
 8000916:	001a      	movs	r2, r3
 8000918:	2100      	movs	r1, #0
 800091a:	f005 fcdd 	bl	80062d8 <memset>
  TIM_SlaveConfigTypeDef sSlaveConfig = {0};
 800091e:	2344      	movs	r3, #68	; 0x44
 8000920:	18fb      	adds	r3, r7, r3
 8000922:	0018      	movs	r0, r3
 8000924:	2314      	movs	r3, #20
 8000926:	001a      	movs	r2, r3
 8000928:	2100      	movs	r1, #0
 800092a:	f005 fcd5 	bl	80062d8 <memset>
  TIM_MasterConfigTypeDef sMasterConfig = {0};
 800092e:	233c      	movs	r3, #60	; 0x3c
 8000930:	18fb      	adds	r3, r7, r3
 8000932:	0018      	movs	r0, r3
 8000934:	2308      	movs	r3, #8
 8000936:	001a      	movs	r2, r3
 8000938:	2100      	movs	r1, #0
 800093a:	f005 fccd 	bl	80062d8 <memset>
  TIM_OC_InitTypeDef sConfigOC = {0};
 800093e:	2320      	movs	r3, #32
 8000940:	18fb      	adds	r3, r7, r3
 8000942:	0018      	movs	r0, r3
 8000944:	231c      	movs	r3, #28
 8000946:	001a      	movs	r2, r3
 8000948:	2100      	movs	r1, #0
 800094a:	f005 fcc5 	bl	80062d8 <memset>
  TIM_BreakDeadTimeConfigTypeDef sBreakDeadTimeConfig = {0};
 800094e:	003b      	movs	r3, r7
 8000950:	0018      	movs	r0, r3
 8000952:	2320      	movs	r3, #32
 8000954:	001a      	movs	r2, r3
 8000956:	2100      	movs	r1, #0
 8000958:	f005 fcbe 	bl	80062d8 <memset>

  /* USER CODE BEGIN TIM1_Init 1 */

  /* USER CODE END TIM1_Init 1 */
  htim1.Instance = TIM1;
 800095c:	4b5f      	ldr	r3, [pc, #380]	; (8000adc <MX_TIM1_Init+0x1d4>)
 800095e:	4a60      	ldr	r2, [pc, #384]	; (8000ae0 <MX_TIM1_Init+0x1d8>)
 8000960:	601a      	str	r2, [r3, #0]
  htim1.Init.Prescaler = 2;
 8000962:	4b5e      	ldr	r3, [pc, #376]	; (8000adc <MX_TIM1_Init+0x1d4>)
 8000964:	2202      	movs	r2, #2
 8000966:	605a      	str	r2, [r3, #4]
  htim1.Init.CounterMode = TIM_COUNTERMODE_UP;
 8000968:	4b5c      	ldr	r3, [pc, #368]	; (8000adc <MX_TIM1_Init+0x1d4>)
 800096a:	2200      	movs	r2, #0
 800096c:	609a      	str	r2, [r3, #8]
  htim1.Init.Period = 512;
 800096e:	4b5b      	ldr	r3, [pc, #364]	; (8000adc <MX_TIM1_Init+0x1d4>)
 8000970:	2280      	movs	r2, #128	; 0x80
 8000972:	0092      	lsls	r2, r2, #2
 8000974:	60da      	str	r2, [r3, #12]
  htim1.Init.ClockDivision = TIM_CLOCKDIVISION_DIV1;
 8000976:	4b59      	ldr	r3, [pc, #356]	; (8000adc <MX_TIM1_Init+0x1d4>)
 8000978:	2200      	movs	r2, #0
 800097a:	611a      	str	r2, [r3, #16]
  htim1.Init.RepetitionCounter = 0;
 800097c:	4b57      	ldr	r3, [pc, #348]	; (8000adc <MX_TIM1_Init+0x1d4>)
 800097e:	2200      	movs	r2, #0
 8000980:	615a      	str	r2, [r3, #20]
  htim1.Init.AutoReloadPreload = TIM_AUTORELOAD_PRELOAD_DISABLE;
 8000982:	4b56      	ldr	r3, [pc, #344]	; (8000adc <MX_TIM1_Init+0x1d4>)
 8000984:	2200      	movs	r2, #0
 8000986:	619a      	str	r2, [r3, #24]
  if (HAL_TIM_Base_Init(&htim1) != HAL_OK)
 8000988:	4b54      	ldr	r3, [pc, #336]	; (8000adc <MX_TIM1_Init+0x1d4>)
 800098a:	0018      	movs	r0, r3
 800098c:	f004 f830 	bl	80049f0 <HAL_TIM_Base_Init>
 8000990:	1e03      	subs	r3, r0, #0
 8000992:	d001      	beq.n	8000998 <MX_TIM1_Init+0x90>
  {
    Error_Handler();
 8000994:	f000 f9ed 	bl	8000d72 <Error_Handler>
  }
  sClockSourceConfig.ClockSource = TIM_CLOCKSOURCE_INTERNAL;
 8000998:	2158      	movs	r1, #88	; 0x58
 800099a:	187b      	adds	r3, r7, r1
 800099c:	2280      	movs	r2, #128	; 0x80
 800099e:	0152      	lsls	r2, r2, #5
 80009a0:	601a      	str	r2, [r3, #0]
  if (HAL_TIM_ConfigClockSource(&htim1, &sClockSourceConfig) != HAL_OK)
 80009a2:	187a      	adds	r2, r7, r1
 80009a4:	4b4d      	ldr	r3, [pc, #308]	; (8000adc <MX_TIM1_Init+0x1d4>)
 80009a6:	0011      	movs	r1, r2
 80009a8:	0018      	movs	r0, r3
 80009aa:	f004 fa3b 	bl	8004e24 <HAL_TIM_ConfigClockSource>
 80009ae:	1e03      	subs	r3, r0, #0
 80009b0:	d001      	beq.n	80009b6 <MX_TIM1_Init+0xae>
  {
    Error_Handler();
 80009b2:	f000 f9de 	bl	8000d72 <Error_Handler>
  }
  if (HAL_TIM_PWM_Init(&htim1) != HAL_OK)
 80009b6:	4b49      	ldr	r3, [pc, #292]	; (8000adc <MX_TIM1_Init+0x1d4>)
 80009b8:	0018      	movs	r0, r3
 80009ba:	f004 f869 	bl	8004a90 <HAL_TIM_PWM_Init>
 80009be:	1e03      	subs	r3, r0, #0
 80009c0:	d001      	beq.n	80009c6 <MX_TIM1_Init+0xbe>
  {
    Error_Handler();
 80009c2:	f000 f9d6 	bl	8000d72 <Error_Handler>
  }
  sSlaveConfig.SlaveMode = TIM_SLAVEMODE_GATED;
 80009c6:	2144      	movs	r1, #68	; 0x44
 80009c8:	187b      	adds	r3, r7, r1
 80009ca:	2205      	movs	r2, #5
 80009cc:	601a      	str	r2, [r3, #0]
  sSlaveConfig.InputTrigger = TIM_TS_ETRF;
 80009ce:	187b      	adds	r3, r7, r1
 80009d0:	2270      	movs	r2, #112	; 0x70
 80009d2:	605a      	str	r2, [r3, #4]
  sSlaveConfig.TriggerPolarity = TIM_TRIGGERPOLARITY_INVERTED;
 80009d4:	187b      	adds	r3, r7, r1
 80009d6:	2280      	movs	r2, #128	; 0x80
 80009d8:	0212      	lsls	r2, r2, #8
 80009da:	609a      	str	r2, [r3, #8]
  sSlaveConfig.TriggerPrescaler = TIM_TRIGGERPRESCALER_DIV1;
 80009dc:	187b      	adds	r3, r7, r1
 80009de:	2200      	movs	r2, #0
 80009e0:	60da      	str	r2, [r3, #12]
  sSlaveConfig.TriggerFilter = 0;
 80009e2:	187b      	adds	r3, r7, r1
 80009e4:	2200      	movs	r2, #0
 80009e6:	611a      	str	r2, [r3, #16]
  if (HAL_TIM_SlaveConfigSynchro(&htim1, &sSlaveConfig) != HAL_OK)
 80009e8:	187a      	adds	r2, r7, r1
 80009ea:	4b3c      	ldr	r3, [pc, #240]	; (8000adc <MX_TIM1_Init+0x1d4>)
 80009ec:	0011      	movs	r1, r2
 80009ee:	0018      	movs	r0, r3
 80009f0:	f004 faec 	bl	8004fcc <HAL_TIM_SlaveConfigSynchro>
 80009f4:	1e03      	subs	r3, r0, #0
 80009f6:	d001      	beq.n	80009fc <MX_TIM1_Init+0xf4>
  {
    Error_Handler();
 80009f8:	f000 f9bb 	bl	8000d72 <Error_Handler>
  }
  sMasterConfig.MasterOutputTrigger = TIM_TRGO_RESET;
 80009fc:	213c      	movs	r1, #60	; 0x3c
 80009fe:	187b      	adds	r3, r7, r1
 8000a00:	2200      	movs	r2, #0
 8000a02:	601a      	str	r2, [r3, #0]
  sMasterConfig.MasterSlaveMode = TIM_MASTERSLAVEMODE_DISABLE;
 8000a04:	187b      	adds	r3, r7, r1
 8000a06:	2200      	movs	r2, #0
 8000a08:	605a      	str	r2, [r3, #4]
  if (HAL_TIMEx_MasterConfigSynchronization(&htim1, &sMasterConfig) != HAL_OK)
 8000a0a:	187a      	adds	r2, r7, r1
 8000a0c:	4b33      	ldr	r3, [pc, #204]	; (8000adc <MX_TIM1_Init+0x1d4>)
 8000a0e:	0011      	movs	r1, r2
 8000a10:	0018      	movs	r0, r3
 8000a12:	f004 ff5b 	bl	80058cc <HAL_TIMEx_MasterConfigSynchronization>
 8000a16:	1e03      	subs	r3, r0, #0
 8000a18:	d001      	beq.n	8000a1e <MX_TIM1_Init+0x116>
  {
    Error_Handler();
 8000a1a:	f000 f9aa 	bl	8000d72 <Error_Handler>
  }
  sConfigOC.OCMode = TIM_OCMODE_PWM1;
 8000a1e:	2120      	movs	r1, #32
 8000a20:	187b      	adds	r3, r7, r1
 8000a22:	2260      	movs	r2, #96	; 0x60
 8000a24:	601a      	str	r2, [r3, #0]
  sConfigOC.Pulse = 0;
 8000a26:	187b      	adds	r3, r7, r1
 8000a28:	2200      	movs	r2, #0
 8000a2a:	605a      	str	r2, [r3, #4]
  sConfigOC.OCPolarity = TIM_OCPOLARITY_HIGH;
 8000a2c:	187b      	adds	r3, r7, r1
 8000a2e:	2200      	movs	r2, #0
 8000a30:	609a      	str	r2, [r3, #8]
  sConfigOC.OCNPolarity = TIM_OCNPOLARITY_HIGH;
 8000a32:	187b      	adds	r3, r7, r1
 8000a34:	2200      	movs	r2, #0
 8000a36:	60da      	str	r2, [r3, #12]
  sConfigOC.OCFastMode = TIM_OCFAST_DISABLE;
 8000a38:	187b      	adds	r3, r7, r1
 8000a3a:	2200      	movs	r2, #0
 8000a3c:	611a      	str	r2, [r3, #16]
  sConfigOC.OCIdleState = TIM_OCIDLESTATE_RESET;
 8000a3e:	187b      	adds	r3, r7, r1
 8000a40:	2200      	movs	r2, #0
 8000a42:	615a      	str	r2, [r3, #20]
  sConfigOC.OCNIdleState = TIM_OCNIDLESTATE_RESET;
 8000a44:	187b      	adds	r3, r7, r1
 8000a46:	2200      	movs	r2, #0
 8000a48:	619a      	str	r2, [r3, #24]
  if (HAL_TIM_PWM_ConfigChannel(&htim1, &sConfigOC, TIM_CHANNEL_1) != HAL_OK)
 8000a4a:	1879      	adds	r1, r7, r1
 8000a4c:	4b23      	ldr	r3, [pc, #140]	; (8000adc <MX_TIM1_Init+0x1d4>)
 8000a4e:	2200      	movs	r2, #0
 8000a50:	0018      	movs	r0, r3
 8000a52:	f004 f921 	bl	8004c98 <HAL_TIM_PWM_ConfigChannel>
 8000a56:	1e03      	subs	r3, r0, #0
 8000a58:	d001      	beq.n	8000a5e <MX_TIM1_Init+0x156>
  {
    Error_Handler();
 8000a5a:	f000 f98a 	bl	8000d72 <Error_Handler>
  }
  if (HAL_TIM_PWM_ConfigChannel(&htim1, &sConfigOC, TIM_CHANNEL_2) != HAL_OK)
 8000a5e:	2320      	movs	r3, #32
 8000a60:	18f9      	adds	r1, r7, r3
 8000a62:	4b1e      	ldr	r3, [pc, #120]	; (8000adc <MX_TIM1_Init+0x1d4>)
 8000a64:	2204      	movs	r2, #4
 8000a66:	0018      	movs	r0, r3
 8000a68:	f004 f916 	bl	8004c98 <HAL_TIM_PWM_ConfigChannel>
 8000a6c:	1e03      	subs	r3, r0, #0
 8000a6e:	d001      	beq.n	8000a74 <MX_TIM1_Init+0x16c>
  {
    Error_Handler();
 8000a70:	f000 f97f 	bl	8000d72 <Error_Handler>
  }
  if (HAL_TIM_PWM_ConfigChannel(&htim1, &sConfigOC, TIM_CHANNEL_3) != HAL_OK)
 8000a74:	2320      	movs	r3, #32
 8000a76:	18f9      	adds	r1, r7, r3
 8000a78:	4b18      	ldr	r3, [pc, #96]	; (8000adc <MX_TIM1_Init+0x1d4>)
 8000a7a:	2208      	movs	r2, #8
 8000a7c:	0018      	movs	r0, r3
 8000a7e:	f004 f90b 	bl	8004c98 <HAL_TIM_PWM_ConfigChannel>
 8000a82:	1e03      	subs	r3, r0, #0
 8000a84:	d001      	beq.n	8000a8a <MX_TIM1_Init+0x182>
  {
    Error_Handler();
 8000a86:	f000 f974 	bl	8000d72 <Error_Handler>
  }
  sBreakDeadTimeConfig.OffStateRunMode = TIM_OSSR_DISABLE;
 8000a8a:	003b      	movs	r3, r7
 8000a8c:	2200      	movs	r2, #0
 8000a8e:	601a      	str	r2, [r3, #0]
  sBreakDeadTimeConfig.OffStateIDLEMode = TIM_OSSI_DISABLE;
 8000a90:	003b      	movs	r3, r7
 8000a92:	2200      	movs	r2, #0
 8000a94:	605a      	str	r2, [r3, #4]
  sBreakDeadTimeConfig.LockLevel = TIM_LOCKLEVEL_OFF;
 8000a96:	003b      	movs	r3, r7
 8000a98:	2200      	movs	r2, #0
 8000a9a:	609a      	str	r2, [r3, #8]
  sBreakDeadTimeConfig.DeadTime = 10;
 8000a9c:	003b      	movs	r3, r7
 8000a9e:	220a      	movs	r2, #10
 8000aa0:	60da      	str	r2, [r3, #12]
  sBreakDeadTimeConfig.BreakState = TIM_BREAK_DISABLE;
 8000aa2:	003b      	movs	r3, r7
 8000aa4:	2200      	movs	r2, #0
 8000aa6:	611a      	str	r2, [r3, #16]
  sBreakDeadTimeConfig.BreakPolarity = TIM_BREAKPOLARITY_HIGH;
 8000aa8:	003b      	movs	r3, r7
 8000aaa:	2280      	movs	r2, #128	; 0x80
 8000aac:	0192      	lsls	r2, r2, #6
 8000aae:	615a      	str	r2, [r3, #20]
  sBreakDeadTimeConfig.AutomaticOutput = TIM_AUTOMATICOUTPUT_DISABLE;
 8000ab0:	003b      	movs	r3, r7
 8000ab2:	2200      	movs	r2, #0
 8000ab4:	61da      	str	r2, [r3, #28]
  if (HAL_TIMEx_ConfigBreakDeadTime(&htim1, &sBreakDeadTimeConfig) != HAL_OK)
 8000ab6:	003a      	movs	r2, r7
 8000ab8:	4b08      	ldr	r3, [pc, #32]	; (8000adc <MX_TIM1_Init+0x1d4>)
 8000aba:	0011      	movs	r1, r2
 8000abc:	0018      	movs	r0, r3
 8000abe:	f004 ff5d 	bl	800597c <HAL_TIMEx_ConfigBreakDeadTime>
 8000ac2:	1e03      	subs	r3, r0, #0
 8000ac4:	d001      	beq.n	8000aca <MX_TIM1_Init+0x1c2>
  {
    Error_Handler();
 8000ac6:	f000 f954 	bl	8000d72 <Error_Handler>
  }
  /* USER CODE BEGIN TIM1_Init 2 */

  /* USER CODE END TIM1_Init 2 */
  HAL_TIM_MspPostInit(&htim1);
 8000aca:	4b04      	ldr	r3, [pc, #16]	; (8000adc <MX_TIM1_Init+0x1d4>)
 8000acc:	0018      	movs	r0, r3
 8000ace:	f000 fb21 	bl	8001114 <HAL_TIM_MspPostInit>

}
 8000ad2:	46c0      	nop			; (mov r8, r8)
 8000ad4:	46bd      	mov	sp, r7
 8000ad6:	b01a      	add	sp, #104	; 0x68
 8000ad8:	bd80      	pop	{r7, pc}
 8000ada:	46c0      	nop			; (mov r8, r8)
 8000adc:	200001dc 	.word	0x200001dc
 8000ae0:	40012c00 	.word	0x40012c00

08000ae4 <MX_USART1_UART_Init>:
  * @brief USART1 Initialization Function
  * @param None
  * @retval None
  */
static void MX_USART1_UART_Init(void)
{
 8000ae4:	b580      	push	{r7, lr}
 8000ae6:	af00      	add	r7, sp, #0
  /* USER CODE END USART1_Init 0 */

  /* USER CODE BEGIN USART1_Init 1 */

  /* USER CODE END USART1_Init 1 */
  huart1.Instance = USART1;
 8000ae8:	4b15      	ldr	r3, [pc, #84]	; (8000b40 <MX_USART1_UART_Init+0x5c>)
 8000aea:	4a16      	ldr	r2, [pc, #88]	; (8000b44 <MX_USART1_UART_Init+0x60>)
 8000aec:	601a      	str	r2, [r3, #0]
  huart1.Init.BaudRate = 115200;
 8000aee:	4b14      	ldr	r3, [pc, #80]	; (8000b40 <MX_USART1_UART_Init+0x5c>)
 8000af0:	22e1      	movs	r2, #225	; 0xe1
 8000af2:	0252      	lsls	r2, r2, #9
 8000af4:	605a      	str	r2, [r3, #4]
  huart1.Init.WordLength = UART_WORDLENGTH_8B;
 8000af6:	4b12      	ldr	r3, [pc, #72]	; (8000b40 <MX_USART1_UART_Init+0x5c>)
 8000af8:	2200      	movs	r2, #0
 8000afa:	609a      	str	r2, [r3, #8]
  huart1.Init.StopBits = UART_STOPBITS_1;
 8000afc:	4b10      	ldr	r3, [pc, #64]	; (8000b40 <MX_USART1_UART_Init+0x5c>)
 8000afe:	2200      	movs	r2, #0
 8000b00:	60da      	str	r2, [r3, #12]
  huart1.Init.Parity = UART_PARITY_NONE;
 8000b02:	4b0f      	ldr	r3, [pc, #60]	; (8000b40 <MX_USART1_UART_Init+0x5c>)
 8000b04:	2200      	movs	r2, #0
 8000b06:	611a      	str	r2, [r3, #16]
  huart1.Init.Mode = UART_MODE_TX_RX;
 8000b08:	4b0d      	ldr	r3, [pc, #52]	; (8000b40 <MX_USART1_UART_Init+0x5c>)
 8000b0a:	220c      	movs	r2, #12
 8000b0c:	615a      	str	r2, [r3, #20]
  huart1.Init.HwFlowCtl = UART_HWCONTROL_NONE;
 8000b0e:	4b0c      	ldr	r3, [pc, #48]	; (8000b40 <MX_USART1_UART_Init+0x5c>)
 8000b10:	2200      	movs	r2, #0
 8000b12:	619a      	str	r2, [r3, #24]
  huart1.Init.OverSampling = UART_OVERSAMPLING_16;
 8000b14:	4b0a      	ldr	r3, [pc, #40]	; (8000b40 <MX_USART1_UART_Init+0x5c>)
 8000b16:	2200      	movs	r2, #0
 8000b18:	61da      	str	r2, [r3, #28]
  huart1.Init.OneBitSampling = UART_ONE_BIT_SAMPLE_DISABLE;
 8000b1a:	4b09      	ldr	r3, [pc, #36]	; (8000b40 <MX_USART1_UART_Init+0x5c>)
 8000b1c:	2200      	movs	r2, #0
 8000b1e:	621a      	str	r2, [r3, #32]
  huart1.AdvancedInit.AdvFeatureInit = UART_ADVFEATURE_NO_INIT;
 8000b20:	4b07      	ldr	r3, [pc, #28]	; (8000b40 <MX_USART1_UART_Init+0x5c>)
 8000b22:	2200      	movs	r2, #0
 8000b24:	625a      	str	r2, [r3, #36]	; 0x24
  if (HAL_RS485Ex_Init(&huart1, UART_DE_POLARITY_HIGH, 0, 0) != HAL_OK)
 8000b26:	4806      	ldr	r0, [pc, #24]	; (8000b40 <MX_USART1_UART_Init+0x5c>)
 8000b28:	2300      	movs	r3, #0
 8000b2a:	2200      	movs	r2, #0
 8000b2c:	2100      	movs	r1, #0
 8000b2e:	f005 fb39 	bl	80061a4 <HAL_RS485Ex_Init>
 8000b32:	1e03      	subs	r3, r0, #0
 8000b34:	d001      	beq.n	8000b3a <MX_USART1_UART_Init+0x56>
  {
    Error_Handler();
 8000b36:	f000 f91c 	bl	8000d72 <Error_Handler>
  }
  /* USER CODE BEGIN USART1_Init 2 */

  /* USER CODE END USART1_Init 2 */

}
 8000b3a:	46c0      	nop			; (mov r8, r8)
 8000b3c:	46bd      	mov	sp, r7
 8000b3e:	bd80      	pop	{r7, pc}
 8000b40:	20000224 	.word	0x20000224
 8000b44:	40013800 	.word	0x40013800

08000b48 <MX_DMA_Init>:

/**
  * Enable DMA controller clock
  */
static void MX_DMA_Init(void)
{
 8000b48:	b580      	push	{r7, lr}
 8000b4a:	b082      	sub	sp, #8
 8000b4c:	af00      	add	r7, sp, #0

  /* DMA controller clock enable */
  __HAL_RCC_DMA1_CLK_ENABLE();
 8000b4e:	4b0c      	ldr	r3, [pc, #48]	; (8000b80 <MX_DMA_Init+0x38>)
 8000b50:	695a      	ldr	r2, [r3, #20]
 8000b52:	4b0b      	ldr	r3, [pc, #44]	; (8000b80 <MX_DMA_Init+0x38>)
 8000b54:	2101      	movs	r1, #1
 8000b56:	430a      	orrs	r2, r1
 8000b58:	615a      	str	r2, [r3, #20]
 8000b5a:	4b09      	ldr	r3, [pc, #36]	; (8000b80 <MX_DMA_Init+0x38>)
 8000b5c:	695b      	ldr	r3, [r3, #20]
 8000b5e:	2201      	movs	r2, #1
 8000b60:	4013      	ands	r3, r2
 8000b62:	607b      	str	r3, [r7, #4]
 8000b64:	687b      	ldr	r3, [r7, #4]

  /* DMA interrupt init */
  /* DMA1_Channel1_IRQn interrupt configuration */
  HAL_NVIC_SetPriority(DMA1_Channel1_IRQn, 0, 0);
 8000b66:	2200      	movs	r2, #0
 8000b68:	2100      	movs	r1, #0
 8000b6a:	2009      	movs	r0, #9
 8000b6c:	f001 f94c 	bl	8001e08 <HAL_NVIC_SetPriority>
  HAL_NVIC_EnableIRQ(DMA1_Channel1_IRQn);
 8000b70:	2009      	movs	r0, #9
 8000b72:	f001 f95e 	bl	8001e32 <HAL_NVIC_EnableIRQ>

}
 8000b76:	46c0      	nop			; (mov r8, r8)
 8000b78:	46bd      	mov	sp, r7
 8000b7a:	b002      	add	sp, #8
 8000b7c:	bd80      	pop	{r7, pc}
 8000b7e:	46c0      	nop			; (mov r8, r8)
 8000b80:	40021000 	.word	0x40021000

08000b84 <MX_GPIO_Init>:
  * @brief GPIO Initialization Function
  * @param None
  * @retval None
  */
static void MX_GPIO_Init(void)
{
 8000b84:	b590      	push	{r4, r7, lr}
 8000b86:	b089      	sub	sp, #36	; 0x24
 8000b88:	af00      	add	r7, sp, #0
  GPIO_InitTypeDef GPIO_InitStruct = {0};
 8000b8a:	240c      	movs	r4, #12
 8000b8c:	193b      	adds	r3, r7, r4
 8000b8e:	0018      	movs	r0, r3
 8000b90:	2314      	movs	r3, #20
 8000b92:	001a      	movs	r2, r3
 8000b94:	2100      	movs	r1, #0
 8000b96:	f005 fb9f 	bl	80062d8 <memset>

  /* GPIO Ports Clock Enable */
  __HAL_RCC_GPIOF_CLK_ENABLE();
 8000b9a:	4b2c      	ldr	r3, [pc, #176]	; (8000c4c <MX_GPIO_Init+0xc8>)
 8000b9c:	695a      	ldr	r2, [r3, #20]
 8000b9e:	4b2b      	ldr	r3, [pc, #172]	; (8000c4c <MX_GPIO_Init+0xc8>)
 8000ba0:	2180      	movs	r1, #128	; 0x80
 8000ba2:	03c9      	lsls	r1, r1, #15
 8000ba4:	430a      	orrs	r2, r1
 8000ba6:	615a      	str	r2, [r3, #20]
 8000ba8:	4b28      	ldr	r3, [pc, #160]	; (8000c4c <MX_GPIO_Init+0xc8>)
 8000baa:	695a      	ldr	r2, [r3, #20]
 8000bac:	2380      	movs	r3, #128	; 0x80
 8000bae:	03db      	lsls	r3, r3, #15
 8000bb0:	4013      	ands	r3, r2
 8000bb2:	60bb      	str	r3, [r7, #8]
 8000bb4:	68bb      	ldr	r3, [r7, #8]
  __HAL_RCC_GPIOA_CLK_ENABLE();
 8000bb6:	4b25      	ldr	r3, [pc, #148]	; (8000c4c <MX_GPIO_Init+0xc8>)
 8000bb8:	695a      	ldr	r2, [r3, #20]
 8000bba:	4b24      	ldr	r3, [pc, #144]	; (8000c4c <MX_GPIO_Init+0xc8>)
 8000bbc:	2180      	movs	r1, #128	; 0x80
 8000bbe:	0289      	lsls	r1, r1, #10
 8000bc0:	430a      	orrs	r2, r1
 8000bc2:	615a      	str	r2, [r3, #20]
 8000bc4:	4b21      	ldr	r3, [pc, #132]	; (8000c4c <MX_GPIO_Init+0xc8>)
 8000bc6:	695a      	ldr	r2, [r3, #20]
 8000bc8:	2380      	movs	r3, #128	; 0x80
 8000bca:	029b      	lsls	r3, r3, #10
 8000bcc:	4013      	ands	r3, r2
 8000bce:	607b      	str	r3, [r7, #4]
 8000bd0:	687b      	ldr	r3, [r7, #4]
  __HAL_RCC_GPIOB_CLK_ENABLE();
 8000bd2:	4b1e      	ldr	r3, [pc, #120]	; (8000c4c <MX_GPIO_Init+0xc8>)
 8000bd4:	695a      	ldr	r2, [r3, #20]
 8000bd6:	4b1d      	ldr	r3, [pc, #116]	; (8000c4c <MX_GPIO_Init+0xc8>)
 8000bd8:	2180      	movs	r1, #128	; 0x80
 8000bda:	02c9      	lsls	r1, r1, #11
 8000bdc:	430a      	orrs	r2, r1
 8000bde:	615a      	str	r2, [r3, #20]
 8000be0:	4b1a      	ldr	r3, [pc, #104]	; (8000c4c <MX_GPIO_Init+0xc8>)
 8000be2:	695a      	ldr	r2, [r3, #20]
 8000be4:	2380      	movs	r3, #128	; 0x80
 8000be6:	02db      	lsls	r3, r3, #11
 8000be8:	4013      	ands	r3, r2
 8000bea:	603b      	str	r3, [r7, #0]
 8000bec:	683b      	ldr	r3, [r7, #0]

  /*Configure GPIO pin Output Level */
  HAL_GPIO_WritePin(GPIOF, LED_STATUS_Pin|MAG_NCS_Pin|OC_TH_STBY2_Pin|OC_TH_STBY1_Pin, GPIO_PIN_RESET);
 8000bee:	4b18      	ldr	r3, [pc, #96]	; (8000c50 <MX_GPIO_Init+0xcc>)
 8000bf0:	2200      	movs	r2, #0
 8000bf2:	21c3      	movs	r1, #195	; 0xc3
 8000bf4:	0018      	movs	r0, r3
 8000bf6:	f001 fc8b 	bl	8002510 <HAL_GPIO_WritePin>

  /*Configure GPIO pins : LED_STATUS_Pin MAG_NCS_Pin OC_TH_STBY2_Pin OC_TH_STBY1_Pin */
  GPIO_InitStruct.Pin = LED_STATUS_Pin|MAG_NCS_Pin|OC_TH_STBY2_Pin|OC_TH_STBY1_Pin;
 8000bfa:	193b      	adds	r3, r7, r4
 8000bfc:	22c3      	movs	r2, #195	; 0xc3
 8000bfe:	601a      	str	r2, [r3, #0]
  GPIO_InitStruct.Mode = GPIO_MODE_OUTPUT_PP;
 8000c00:	193b      	adds	r3, r7, r4
 8000c02:	2201      	movs	r2, #1
 8000c04:	605a      	str	r2, [r3, #4]
  GPIO_InitStruct.Pull = GPIO_NOPULL;
 8000c06:	193b      	adds	r3, r7, r4
 8000c08:	2200      	movs	r2, #0
 8000c0a:	609a      	str	r2, [r3, #8]
  GPIO_InitStruct.Speed = GPIO_SPEED_FREQ_LOW;
 8000c0c:	193b      	adds	r3, r7, r4
 8000c0e:	2200      	movs	r2, #0
 8000c10:	60da      	str	r2, [r3, #12]
  HAL_GPIO_Init(GPIOF, &GPIO_InitStruct);
 8000c12:	193b      	adds	r3, r7, r4
 8000c14:	4a0e      	ldr	r2, [pc, #56]	; (8000c50 <MX_GPIO_Init+0xcc>)
 8000c16:	0019      	movs	r1, r3
 8000c18:	0010      	movs	r0, r2
 8000c1a:	f001 fb11 	bl	8002240 <HAL_GPIO_Init>

  /*Configure GPIO pin : OC_SEL_Pin */
  GPIO_InitStruct.Pin = OC_SEL_Pin;
 8000c1e:	0021      	movs	r1, r4
 8000c20:	187b      	adds	r3, r7, r1
 8000c22:	2280      	movs	r2, #128	; 0x80
 8000c24:	0112      	lsls	r2, r2, #4
 8000c26:	601a      	str	r2, [r3, #0]
  GPIO_InitStruct.Mode = GPIO_MODE_INPUT;
 8000c28:	187b      	adds	r3, r7, r1
 8000c2a:	2200      	movs	r2, #0
 8000c2c:	605a      	str	r2, [r3, #4]
  GPIO_InitStruct.Pull = GPIO_NOPULL;
 8000c2e:	187b      	adds	r3, r7, r1
 8000c30:	2200      	movs	r2, #0
 8000c32:	609a      	str	r2, [r3, #8]
  HAL_GPIO_Init(OC_SEL_GPIO_Port, &GPIO_InitStruct);
 8000c34:	187a      	adds	r2, r7, r1
 8000c36:	2390      	movs	r3, #144	; 0x90
 8000c38:	05db      	lsls	r3, r3, #23
 8000c3a:	0011      	movs	r1, r2
 8000c3c:	0018      	movs	r0, r3
 8000c3e:	f001 faff 	bl	8002240 <HAL_GPIO_Init>

}
 8000c42:	46c0      	nop			; (mov r8, r8)
 8000c44:	46bd      	mov	sp, r7
 8000c46:	b009      	add	sp, #36	; 0x24
 8000c48:	bd90      	pop	{r4, r7, pc}
 8000c4a:	46c0      	nop			; (mov r8, r8)
 8000c4c:	40021000 	.word	0x40021000
 8000c50:	48001400 	.word	0x48001400

08000c54 <Serialprint>:

/**
  * @brief  Sends a message over Serial (UART TX) for debugging.
  * @param  message: The string to send
 */
void Serialprint(char *message){
 8000c54:	b580      	push	{r7, lr}
 8000c56:	b082      	sub	sp, #8
 8000c58:	af00      	add	r7, sp, #0
 8000c5a:	6078      	str	r0, [r7, #4]
	HAL_UART_Transmit(&huart1, (uint8_t*)message, strlen(message), 1000);
 8000c5c:	687b      	ldr	r3, [r7, #4]
 8000c5e:	0018      	movs	r0, r3
 8000c60:	f7ff fa52 	bl	8000108 <strlen>
 8000c64:	0003      	movs	r3, r0
 8000c66:	b29a      	uxth	r2, r3
 8000c68:	23fa      	movs	r3, #250	; 0xfa
 8000c6a:	009b      	lsls	r3, r3, #2
 8000c6c:	6879      	ldr	r1, [r7, #4]
 8000c6e:	4803      	ldr	r0, [pc, #12]	; (8000c7c <Serialprint+0x28>)
 8000c70:	f004 ff05 	bl	8005a7e <HAL_UART_Transmit>
}
 8000c74:	46c0      	nop			; (mov r8, r8)
 8000c76:	46bd      	mov	sp, r7
 8000c78:	b002      	add	sp, #8
 8000c7a:	bd80      	pop	{r7, pc}
 8000c7c:	20000224 	.word	0x20000224

08000c80 <HAL_I2C_SlaveTxCpltCallback>:
  * @note   This example shows a simple way to report end of IT Tx transfer, and
  *         you can add your own implementation.
  * @retval None
  */

void HAL_I2C_SlaveTxCpltCallback(I2C_HandleTypeDef *I2cHandle){
 8000c80:	b580      	push	{r7, lr}
 8000c82:	b082      	sub	sp, #8
 8000c84:	af00      	add	r7, sp, #0
 8000c86:	6078      	str	r0, [r7, #4]
  Xfer_Complete = 1;
 8000c88:	4b03      	ldr	r3, [pc, #12]	; (8000c98 <HAL_I2C_SlaveTxCpltCallback+0x18>)
 8000c8a:	2201      	movs	r2, #1
 8000c8c:	601a      	str	r2, [r3, #0]
}
 8000c8e:	46c0      	nop			; (mov r8, r8)
 8000c90:	46bd      	mov	sp, r7
 8000c92:	b002      	add	sp, #8
 8000c94:	bd80      	pop	{r7, pc}
 8000c96:	46c0      	nop			; (mov r8, r8)
 8000c98:	20000090 	.word	0x20000090

08000c9c <HAL_I2C_SlaveRxCpltCallback>:
  * @param  I2cHandle: I2C handle
  * @note   This example shows a simple way to report end of IT Rx transfer, and
  *         you can add your own implementation.
  * @retval None
  */
void HAL_I2C_SlaveRxCpltCallback(I2C_HandleTypeDef *I2cHandle){
 8000c9c:	b580      	push	{r7, lr}
 8000c9e:	b082      	sub	sp, #8
 8000ca0:	af00      	add	r7, sp, #0
 8000ca2:	6078      	str	r0, [r7, #4]
}
 8000ca4:	46c0      	nop			; (mov r8, r8)
 8000ca6:	46bd      	mov	sp, r7
 8000ca8:	b002      	add	sp, #8
 8000caa:	bd80      	pop	{r7, pc}

08000cac <HAL_I2C_AddrCallback>:
  *                the configuration information for the specified I2C.
  * @param  TransferDirection: Master request Transfer Direction (Write/Read), value of @ref I2C_XferOptions_definition
  * @param  AddrMatchCode: Address Match Code
  * @retval None
  */
void HAL_I2C_AddrCallback(I2C_HandleTypeDef *hi2c, uint8_t TransferDirection, uint16_t AddrMatchCode){
 8000cac:	b590      	push	{r4, r7, lr}
 8000cae:	b085      	sub	sp, #20
 8000cb0:	af00      	add	r7, sp, #0
 8000cb2:	6078      	str	r0, [r7, #4]
 8000cb4:	0008      	movs	r0, r1
 8000cb6:	0011      	movs	r1, r2
 8000cb8:	1cfb      	adds	r3, r7, #3
 8000cba:	1c02      	adds	r2, r0, #0
 8000cbc:	701a      	strb	r2, [r3, #0]
 8000cbe:	003b      	movs	r3, r7
 8000cc0:	1c0a      	adds	r2, r1, #0
 8000cc2:	801a      	strh	r2, [r3, #0]


  Transfer_Direction = TransferDirection;
 8000cc4:	1cfb      	adds	r3, r7, #3
 8000cc6:	781a      	ldrb	r2, [r3, #0]
 8000cc8:	4b19      	ldr	r3, [pc, #100]	; (8000d30 <HAL_I2C_AddrCallback+0x84>)
 8000cca:	601a      	str	r2, [r3, #0]
  HAL_StatusTypeDef status;
  if (Transfer_Direction != 0){
 8000ccc:	4b18      	ldr	r3, [pc, #96]	; (8000d30 <HAL_I2C_AddrCallback+0x84>)
 8000cce:	681b      	ldr	r3, [r3, #0]
 8000cd0:	2b00      	cmp	r3, #0
 8000cd2:	d00b      	beq.n	8000cec <HAL_I2C_AddrCallback+0x40>
     /*##- Start the transmission process #####################################*/
	  /* While the I2C in reception process, user can transmit data through "aTxBuffer" buffer */
	  status = HAL_I2C_Slave_Seq_Transmit_IT(&hi2c1, (uint8_t *)aTxBuffer, BUFFERSIZE, I2C_FIRST_AND_LAST_FRAME);
 8000cd4:	230f      	movs	r3, #15
 8000cd6:	18fc      	adds	r4, r7, r3
 8000cd8:	2380      	movs	r3, #128	; 0x80
 8000cda:	049b      	lsls	r3, r3, #18
 8000cdc:	4915      	ldr	r1, [pc, #84]	; (8000d34 <HAL_I2C_AddrCallback+0x88>)
 8000cde:	4816      	ldr	r0, [pc, #88]	; (8000d38 <HAL_I2C_AddrCallback+0x8c>)
 8000ce0:	2202      	movs	r2, #2
 8000ce2:	f001 fcc9 	bl	8002678 <HAL_I2C_Slave_Seq_Transmit_IT>
 8000ce6:	0003      	movs	r3, r0
 8000ce8:	7023      	strb	r3, [r4, #0]
 8000cea:	e016      	b.n	8000d1a <HAL_I2C_AddrCallback+0x6e>


  }else{
      /*##- Put I2C peripheral in reception process ###########################*/
	  status = HAL_I2C_Slave_Seq_Receive_IT(&hi2c1, (uint8_t *)aRxBuffer, BUFFERSIZE, I2C_FIRST_AND_LAST_FRAME);
 8000cec:	230f      	movs	r3, #15
 8000cee:	18fc      	adds	r4, r7, r3
 8000cf0:	2380      	movs	r3, #128	; 0x80
 8000cf2:	049b      	lsls	r3, r3, #18
 8000cf4:	4911      	ldr	r1, [pc, #68]	; (8000d3c <HAL_I2C_AddrCallback+0x90>)
 8000cf6:	4810      	ldr	r0, [pc, #64]	; (8000d38 <HAL_I2C_AddrCallback+0x8c>)
 8000cf8:	2202      	movs	r2, #2
 8000cfa:	f001 fd6d 	bl	80027d8 <HAL_I2C_Slave_Seq_Receive_IT>
 8000cfe:	0003      	movs	r3, r0
 8000d00:	7023      	strb	r3, [r4, #0]

	  aTxBuffer[0] = aRxBuffer[0] + 1;
 8000d02:	4b0e      	ldr	r3, [pc, #56]	; (8000d3c <HAL_I2C_AddrCallback+0x90>)
 8000d04:	781b      	ldrb	r3, [r3, #0]
 8000d06:	3301      	adds	r3, #1
 8000d08:	b2da      	uxtb	r2, r3
 8000d0a:	4b0a      	ldr	r3, [pc, #40]	; (8000d34 <HAL_I2C_AddrCallback+0x88>)
 8000d0c:	701a      	strb	r2, [r3, #0]
	  aTxBuffer[1] = aRxBuffer[1] + 1;
 8000d0e:	4b0b      	ldr	r3, [pc, #44]	; (8000d3c <HAL_I2C_AddrCallback+0x90>)
 8000d10:	785b      	ldrb	r3, [r3, #1]
 8000d12:	3301      	adds	r3, #1
 8000d14:	b2da      	uxtb	r2, r3
 8000d16:	4b07      	ldr	r3, [pc, #28]	; (8000d34 <HAL_I2C_AddrCallback+0x88>)
 8000d18:	705a      	strb	r2, [r3, #1]
//	  Xfer_Complete = 1;


  }
  if(status != HAL_OK){
 8000d1a:	230f      	movs	r3, #15
 8000d1c:	18fb      	adds	r3, r7, r3
 8000d1e:	781b      	ldrb	r3, [r3, #0]
 8000d20:	2b00      	cmp	r3, #0
 8000d22:	d001      	beq.n	8000d28 <HAL_I2C_AddrCallback+0x7c>
	  Error_Handler();
 8000d24:	f000 f825 	bl	8000d72 <Error_Handler>
  }

}
 8000d28:	46c0      	nop			; (mov r8, r8)
 8000d2a:	46bd      	mov	sp, r7
 8000d2c:	b005      	add	sp, #20
 8000d2e:	bd90      	pop	{r4, r7, pc}
 8000d30:	2000008c 	.word	0x2000008c
 8000d34:	20000094 	.word	0x20000094
 8000d38:	2000012c 	.word	0x2000012c
 8000d3c:	20000098 	.word	0x20000098

08000d40 <HAL_I2C_ListenCpltCallback>:
  * @param  hi2c Pointer to a I2C_HandleTypeDef structure that contains
  *                the configuration information for the specified I2C.
  * @retval None
  */
void HAL_I2C_ListenCpltCallback(I2C_HandleTypeDef *hi2c)
{
 8000d40:	b580      	push	{r7, lr}
 8000d42:	b082      	sub	sp, #8
 8000d44:	af00      	add	r7, sp, #0
 8000d46:	6078      	str	r0, [r7, #4]
}
 8000d48:	46c0      	nop			; (mov r8, r8)
 8000d4a:	46bd      	mov	sp, r7
 8000d4c:	b002      	add	sp, #8
 8000d4e:	bd80      	pop	{r7, pc}

08000d50 <HAL_I2C_ErrorCallback>:
  * @param  I2cHandle: I2C handle
  * @note   This example shows a simple way to report transfer error, and you can
  *         add your own implementation.
  * @retval None
  */
void HAL_I2C_ErrorCallback(I2C_HandleTypeDef *I2cHandle){
 8000d50:	b580      	push	{r7, lr}
 8000d52:	b082      	sub	sp, #8
 8000d54:	af00      	add	r7, sp, #0
 8000d56:	6078      	str	r0, [r7, #4]
  /** Error_Handler() function is called when error occurs.
    * 1- When Slave doesn't acknowledge its address, Master restarts communication.
    * 2- When Master doesn't acknowledge the last data transferred, Slave doesn't care in this example.
    */
  if (HAL_I2C_GetError(I2cHandle) != HAL_I2C_ERROR_AF){
 8000d58:	687b      	ldr	r3, [r7, #4]
 8000d5a:	0018      	movs	r0, r3
 8000d5c:	f001 feb4 	bl	8002ac8 <HAL_I2C_GetError>
 8000d60:	0003      	movs	r3, r0
 8000d62:	2b04      	cmp	r3, #4
 8000d64:	d001      	beq.n	8000d6a <HAL_I2C_ErrorCallback+0x1a>
    Error_Handler();
 8000d66:	f000 f804 	bl	8000d72 <Error_Handler>
  }
}
 8000d6a:	46c0      	nop			; (mov r8, r8)
 8000d6c:	46bd      	mov	sp, r7
 8000d6e:	b002      	add	sp, #8
 8000d70:	bd80      	pop	{r7, pc}

08000d72 <Error_Handler>:
/**
  * @brief  This function is executed in case of error occurrence.
  * @retval None
  */
void Error_Handler(void)
{
 8000d72:	b580      	push	{r7, lr}
 8000d74:	af00      	add	r7, sp, #0
  __ASM volatile ("cpsid i" : : : "memory");
 8000d76:	b672      	cpsid	i
}
 8000d78:	46c0      	nop			; (mov r8, r8)
  /* USER CODE BEGIN Error_Handler_Debug */
  /* User can add his own implementation to report the HAL error return state */
  __disable_irq();		//disable interrupts
	NVIC_SystemReset(); //reset microcontroller, clearing any I2C faults. Maybe change to only
 8000d7a:	f7ff fb4d 	bl	8000418 <__NVIC_SystemReset>
	...

08000d80 <HAL_MspInit>:
void HAL_TIM_MspPostInit(TIM_HandleTypeDef *htim);
                    /**
  * Initializes the Global MSP.
  */
void HAL_MspInit(void)
{
 8000d80:	b580      	push	{r7, lr}
 8000d82:	b082      	sub	sp, #8
 8000d84:	af00      	add	r7, sp, #0
  /* USER CODE BEGIN MspInit 0 */

  /* USER CODE END MspInit 0 */

  __HAL_RCC_SYSCFG_CLK_ENABLE();
 8000d86:	4b0f      	ldr	r3, [pc, #60]	; (8000dc4 <HAL_MspInit+0x44>)
 8000d88:	699a      	ldr	r2, [r3, #24]
 8000d8a:	4b0e      	ldr	r3, [pc, #56]	; (8000dc4 <HAL_MspInit+0x44>)
 8000d8c:	2101      	movs	r1, #1
 8000d8e:	430a      	orrs	r2, r1
 8000d90:	619a      	str	r2, [r3, #24]
 8000d92:	4b0c      	ldr	r3, [pc, #48]	; (8000dc4 <HAL_MspInit+0x44>)
 8000d94:	699b      	ldr	r3, [r3, #24]
 8000d96:	2201      	movs	r2, #1
 8000d98:	4013      	ands	r3, r2
 8000d9a:	607b      	str	r3, [r7, #4]
 8000d9c:	687b      	ldr	r3, [r7, #4]
  __HAL_RCC_PWR_CLK_ENABLE();
 8000d9e:	4b09      	ldr	r3, [pc, #36]	; (8000dc4 <HAL_MspInit+0x44>)
 8000da0:	69da      	ldr	r2, [r3, #28]
 8000da2:	4b08      	ldr	r3, [pc, #32]	; (8000dc4 <HAL_MspInit+0x44>)
 8000da4:	2180      	movs	r1, #128	; 0x80
 8000da6:	0549      	lsls	r1, r1, #21
 8000da8:	430a      	orrs	r2, r1
 8000daa:	61da      	str	r2, [r3, #28]
 8000dac:	4b05      	ldr	r3, [pc, #20]	; (8000dc4 <HAL_MspInit+0x44>)
 8000dae:	69da      	ldr	r2, [r3, #28]
 8000db0:	2380      	movs	r3, #128	; 0x80
 8000db2:	055b      	lsls	r3, r3, #21
 8000db4:	4013      	ands	r3, r2
 8000db6:	603b      	str	r3, [r7, #0]
 8000db8:	683b      	ldr	r3, [r7, #0]
  /* System interrupt init*/

  /* USER CODE BEGIN MspInit 1 */

  /* USER CODE END MspInit 1 */
}
 8000dba:	46c0      	nop			; (mov r8, r8)
 8000dbc:	46bd      	mov	sp, r7
 8000dbe:	b002      	add	sp, #8
 8000dc0:	bd80      	pop	{r7, pc}
 8000dc2:	46c0      	nop			; (mov r8, r8)
 8000dc4:	40021000 	.word	0x40021000

08000dc8 <HAL_ADC_MspInit>:
* This function configures the hardware resources used in this example
* @param hadc: ADC handle pointer
* @retval None
*/
void HAL_ADC_MspInit(ADC_HandleTypeDef* hadc)
{
 8000dc8:	b590      	push	{r4, r7, lr}
 8000dca:	b08b      	sub	sp, #44	; 0x2c
 8000dcc:	af00      	add	r7, sp, #0
 8000dce:	6078      	str	r0, [r7, #4]
  GPIO_InitTypeDef GPIO_InitStruct = {0};
 8000dd0:	2414      	movs	r4, #20
 8000dd2:	193b      	adds	r3, r7, r4
 8000dd4:	0018      	movs	r0, r3
 8000dd6:	2314      	movs	r3, #20
 8000dd8:	001a      	movs	r2, r3
 8000dda:	2100      	movs	r1, #0
 8000ddc:	f005 fa7c 	bl	80062d8 <memset>
  if(hadc->Instance==ADC1)
 8000de0:	687b      	ldr	r3, [r7, #4]
 8000de2:	681b      	ldr	r3, [r3, #0]
 8000de4:	4a3b      	ldr	r2, [pc, #236]	; (8000ed4 <HAL_ADC_MspInit+0x10c>)
 8000de6:	4293      	cmp	r3, r2
 8000de8:	d170      	bne.n	8000ecc <HAL_ADC_MspInit+0x104>
  {
  /* USER CODE BEGIN ADC1_MspInit 0 */

  /* USER CODE END ADC1_MspInit 0 */
    /* Peripheral clock enable */
    __HAL_RCC_ADC1_CLK_ENABLE();
 8000dea:	4b3b      	ldr	r3, [pc, #236]	; (8000ed8 <HAL_ADC_MspInit+0x110>)
 8000dec:	699a      	ldr	r2, [r3, #24]
 8000dee:	4b3a      	ldr	r3, [pc, #232]	; (8000ed8 <HAL_ADC_MspInit+0x110>)
 8000df0:	2180      	movs	r1, #128	; 0x80
 8000df2:	0089      	lsls	r1, r1, #2
 8000df4:	430a      	orrs	r2, r1
 8000df6:	619a      	str	r2, [r3, #24]
 8000df8:	4b37      	ldr	r3, [pc, #220]	; (8000ed8 <HAL_ADC_MspInit+0x110>)
 8000dfa:	699a      	ldr	r2, [r3, #24]
 8000dfc:	2380      	movs	r3, #128	; 0x80
 8000dfe:	009b      	lsls	r3, r3, #2
 8000e00:	4013      	ands	r3, r2
 8000e02:	613b      	str	r3, [r7, #16]
 8000e04:	693b      	ldr	r3, [r7, #16]

    __HAL_RCC_GPIOA_CLK_ENABLE();
 8000e06:	4b34      	ldr	r3, [pc, #208]	; (8000ed8 <HAL_ADC_MspInit+0x110>)
 8000e08:	695a      	ldr	r2, [r3, #20]
 8000e0a:	4b33      	ldr	r3, [pc, #204]	; (8000ed8 <HAL_ADC_MspInit+0x110>)
 8000e0c:	2180      	movs	r1, #128	; 0x80
 8000e0e:	0289      	lsls	r1, r1, #10
 8000e10:	430a      	orrs	r2, r1
 8000e12:	615a      	str	r2, [r3, #20]
 8000e14:	4b30      	ldr	r3, [pc, #192]	; (8000ed8 <HAL_ADC_MspInit+0x110>)
 8000e16:	695a      	ldr	r2, [r3, #20]
 8000e18:	2380      	movs	r3, #128	; 0x80
 8000e1a:	029b      	lsls	r3, r3, #10
 8000e1c:	4013      	ands	r3, r2
 8000e1e:	60fb      	str	r3, [r7, #12]
 8000e20:	68fb      	ldr	r3, [r7, #12]
    __HAL_RCC_GPIOB_CLK_ENABLE();
 8000e22:	4b2d      	ldr	r3, [pc, #180]	; (8000ed8 <HAL_ADC_MspInit+0x110>)
 8000e24:	695a      	ldr	r2, [r3, #20]
 8000e26:	4b2c      	ldr	r3, [pc, #176]	; (8000ed8 <HAL_ADC_MspInit+0x110>)
 8000e28:	2180      	movs	r1, #128	; 0x80
 8000e2a:	02c9      	lsls	r1, r1, #11
 8000e2c:	430a      	orrs	r2, r1
 8000e2e:	615a      	str	r2, [r3, #20]
 8000e30:	4b29      	ldr	r3, [pc, #164]	; (8000ed8 <HAL_ADC_MspInit+0x110>)
 8000e32:	695a      	ldr	r2, [r3, #20]
 8000e34:	2380      	movs	r3, #128	; 0x80
 8000e36:	02db      	lsls	r3, r3, #11
 8000e38:	4013      	ands	r3, r2
 8000e3a:	60bb      	str	r3, [r7, #8]
 8000e3c:	68bb      	ldr	r3, [r7, #8]
    PA0     ------> ADC_IN0
    PA3     ------> ADC_IN3
    PA4     ------> ADC_IN4
    PB1     ------> ADC_IN9
    */
    GPIO_InitStruct.Pin = OP_V_O_Pin|OP_W_O_Pin|GPIO_PIN_4;
 8000e3e:	193b      	adds	r3, r7, r4
 8000e40:	2219      	movs	r2, #25
 8000e42:	601a      	str	r2, [r3, #0]
    GPIO_InitStruct.Mode = GPIO_MODE_ANALOG;
 8000e44:	193b      	adds	r3, r7, r4
 8000e46:	2203      	movs	r2, #3
 8000e48:	605a      	str	r2, [r3, #4]
    GPIO_InitStruct.Pull = GPIO_NOPULL;
 8000e4a:	193b      	adds	r3, r7, r4
 8000e4c:	2200      	movs	r2, #0
 8000e4e:	609a      	str	r2, [r3, #8]
    HAL_GPIO_Init(GPIOA, &GPIO_InitStruct);
 8000e50:	193a      	adds	r2, r7, r4
 8000e52:	2390      	movs	r3, #144	; 0x90
 8000e54:	05db      	lsls	r3, r3, #23
 8000e56:	0011      	movs	r1, r2
 8000e58:	0018      	movs	r0, r3
 8000e5a:	f001 f9f1 	bl	8002240 <HAL_GPIO_Init>

    GPIO_InitStruct.Pin = OP_U_O_Pin;
 8000e5e:	193b      	adds	r3, r7, r4
 8000e60:	2202      	movs	r2, #2
 8000e62:	601a      	str	r2, [r3, #0]
    GPIO_InitStruct.Mode = GPIO_MODE_ANALOG;
 8000e64:	193b      	adds	r3, r7, r4
 8000e66:	2203      	movs	r2, #3
 8000e68:	605a      	str	r2, [r3, #4]
    GPIO_InitStruct.Pull = GPIO_NOPULL;
 8000e6a:	193b      	adds	r3, r7, r4
 8000e6c:	2200      	movs	r2, #0
 8000e6e:	609a      	str	r2, [r3, #8]
    HAL_GPIO_Init(OP_U_O_GPIO_Port, &GPIO_InitStruct);
 8000e70:	193b      	adds	r3, r7, r4
 8000e72:	4a1a      	ldr	r2, [pc, #104]	; (8000edc <HAL_ADC_MspInit+0x114>)
 8000e74:	0019      	movs	r1, r3
 8000e76:	0010      	movs	r0, r2
 8000e78:	f001 f9e2 	bl	8002240 <HAL_GPIO_Init>

    /* ADC1 DMA Init */
    /* ADC Init */
    hdma_adc.Instance = DMA1_Channel1;
 8000e7c:	4b18      	ldr	r3, [pc, #96]	; (8000ee0 <HAL_ADC_MspInit+0x118>)
 8000e7e:	4a19      	ldr	r2, [pc, #100]	; (8000ee4 <HAL_ADC_MspInit+0x11c>)
 8000e80:	601a      	str	r2, [r3, #0]
    hdma_adc.Init.Direction = DMA_PERIPH_TO_MEMORY;
 8000e82:	4b17      	ldr	r3, [pc, #92]	; (8000ee0 <HAL_ADC_MspInit+0x118>)
 8000e84:	2200      	movs	r2, #0
 8000e86:	605a      	str	r2, [r3, #4]
    hdma_adc.Init.PeriphInc = DMA_PINC_DISABLE;
 8000e88:	4b15      	ldr	r3, [pc, #84]	; (8000ee0 <HAL_ADC_MspInit+0x118>)
 8000e8a:	2200      	movs	r2, #0
 8000e8c:	609a      	str	r2, [r3, #8]
    hdma_adc.Init.MemInc = DMA_MINC_ENABLE;
 8000e8e:	4b14      	ldr	r3, [pc, #80]	; (8000ee0 <HAL_ADC_MspInit+0x118>)
 8000e90:	2280      	movs	r2, #128	; 0x80
 8000e92:	60da      	str	r2, [r3, #12]
    hdma_adc.Init.PeriphDataAlignment = DMA_PDATAALIGN_HALFWORD;
 8000e94:	4b12      	ldr	r3, [pc, #72]	; (8000ee0 <HAL_ADC_MspInit+0x118>)
 8000e96:	2280      	movs	r2, #128	; 0x80
 8000e98:	0052      	lsls	r2, r2, #1
 8000e9a:	611a      	str	r2, [r3, #16]
    hdma_adc.Init.MemDataAlignment = DMA_MDATAALIGN_HALFWORD;
 8000e9c:	4b10      	ldr	r3, [pc, #64]	; (8000ee0 <HAL_ADC_MspInit+0x118>)
 8000e9e:	2280      	movs	r2, #128	; 0x80
 8000ea0:	00d2      	lsls	r2, r2, #3
 8000ea2:	615a      	str	r2, [r3, #20]
    hdma_adc.Init.Mode = DMA_CIRCULAR;
 8000ea4:	4b0e      	ldr	r3, [pc, #56]	; (8000ee0 <HAL_ADC_MspInit+0x118>)
 8000ea6:	2220      	movs	r2, #32
 8000ea8:	619a      	str	r2, [r3, #24]
    hdma_adc.Init.Priority = DMA_PRIORITY_LOW;
 8000eaa:	4b0d      	ldr	r3, [pc, #52]	; (8000ee0 <HAL_ADC_MspInit+0x118>)
 8000eac:	2200      	movs	r2, #0
 8000eae:	61da      	str	r2, [r3, #28]
    if (HAL_DMA_Init(&hdma_adc) != HAL_OK)
 8000eb0:	4b0b      	ldr	r3, [pc, #44]	; (8000ee0 <HAL_ADC_MspInit+0x118>)
 8000eb2:	0018      	movs	r0, r3
 8000eb4:	f000 ffda 	bl	8001e6c <HAL_DMA_Init>
 8000eb8:	1e03      	subs	r3, r0, #0
 8000eba:	d001      	beq.n	8000ec0 <HAL_ADC_MspInit+0xf8>
    {
      Error_Handler();
 8000ebc:	f7ff ff59 	bl	8000d72 <Error_Handler>
    }

    __HAL_LINKDMA(hadc,DMA_Handle,hdma_adc);
 8000ec0:	687b      	ldr	r3, [r7, #4]
 8000ec2:	4a07      	ldr	r2, [pc, #28]	; (8000ee0 <HAL_ADC_MspInit+0x118>)
 8000ec4:	631a      	str	r2, [r3, #48]	; 0x30
 8000ec6:	4b06      	ldr	r3, [pc, #24]	; (8000ee0 <HAL_ADC_MspInit+0x118>)
 8000ec8:	687a      	ldr	r2, [r7, #4]
 8000eca:	625a      	str	r2, [r3, #36]	; 0x24
  /* USER CODE BEGIN ADC1_MspInit 1 */

  /* USER CODE END ADC1_MspInit 1 */
  }

}
 8000ecc:	46c0      	nop			; (mov r8, r8)
 8000ece:	46bd      	mov	sp, r7
 8000ed0:	b00b      	add	sp, #44	; 0x2c
 8000ed2:	bd90      	pop	{r4, r7, pc}
 8000ed4:	40012400 	.word	0x40012400
 8000ed8:	40021000 	.word	0x40021000
 8000edc:	48000400 	.word	0x48000400
 8000ee0:	200000e8 	.word	0x200000e8
 8000ee4:	40020008 	.word	0x40020008

08000ee8 <HAL_I2C_MspInit>:
* This function configures the hardware resources used in this example
* @param hi2c: I2C handle pointer
* @retval None
*/
void HAL_I2C_MspInit(I2C_HandleTypeDef* hi2c)
{
 8000ee8:	b590      	push	{r4, r7, lr}
 8000eea:	b08b      	sub	sp, #44	; 0x2c
 8000eec:	af00      	add	r7, sp, #0
 8000eee:	6078      	str	r0, [r7, #4]
  GPIO_InitTypeDef GPIO_InitStruct = {0};
 8000ef0:	2414      	movs	r4, #20
 8000ef2:	193b      	adds	r3, r7, r4
 8000ef4:	0018      	movs	r0, r3
 8000ef6:	2314      	movs	r3, #20
 8000ef8:	001a      	movs	r2, r3
 8000efa:	2100      	movs	r1, #0
 8000efc:	f005 f9ec 	bl	80062d8 <memset>
  if(hi2c->Instance==I2C1)
 8000f00:	687b      	ldr	r3, [r7, #4]
 8000f02:	681b      	ldr	r3, [r3, #0]
 8000f04:	4a20      	ldr	r2, [pc, #128]	; (8000f88 <HAL_I2C_MspInit+0xa0>)
 8000f06:	4293      	cmp	r3, r2
 8000f08:	d139      	bne.n	8000f7e <HAL_I2C_MspInit+0x96>
  {
  /* USER CODE BEGIN I2C1_MspInit 0 */

  /* USER CODE END I2C1_MspInit 0 */

    __HAL_RCC_GPIOB_CLK_ENABLE();
 8000f0a:	4b20      	ldr	r3, [pc, #128]	; (8000f8c <HAL_I2C_MspInit+0xa4>)
 8000f0c:	695a      	ldr	r2, [r3, #20]
 8000f0e:	4b1f      	ldr	r3, [pc, #124]	; (8000f8c <HAL_I2C_MspInit+0xa4>)
 8000f10:	2180      	movs	r1, #128	; 0x80
 8000f12:	02c9      	lsls	r1, r1, #11
 8000f14:	430a      	orrs	r2, r1
 8000f16:	615a      	str	r2, [r3, #20]
 8000f18:	4b1c      	ldr	r3, [pc, #112]	; (8000f8c <HAL_I2C_MspInit+0xa4>)
 8000f1a:	695a      	ldr	r2, [r3, #20]
 8000f1c:	2380      	movs	r3, #128	; 0x80
 8000f1e:	02db      	lsls	r3, r3, #11
 8000f20:	4013      	ands	r3, r2
 8000f22:	613b      	str	r3, [r7, #16]
 8000f24:	693b      	ldr	r3, [r7, #16]
    /**I2C1 GPIO Configuration
    PB6     ------> I2C1_SCL
    PB7     ------> I2C1_SDA
    */
    GPIO_InitStruct.Pin = GPIO_PIN_6|GPIO_PIN_7;
 8000f26:	0021      	movs	r1, r4
 8000f28:	187b      	adds	r3, r7, r1
 8000f2a:	22c0      	movs	r2, #192	; 0xc0
 8000f2c:	601a      	str	r2, [r3, #0]
    GPIO_InitStruct.Mode = GPIO_MODE_AF_OD;
 8000f2e:	187b      	adds	r3, r7, r1
 8000f30:	2212      	movs	r2, #18
 8000f32:	605a      	str	r2, [r3, #4]
    GPIO_InitStruct.Pull = GPIO_NOPULL;
 8000f34:	187b      	adds	r3, r7, r1
 8000f36:	2200      	movs	r2, #0
 8000f38:	609a      	str	r2, [r3, #8]
    GPIO_InitStruct.Speed = GPIO_SPEED_FREQ_HIGH;
 8000f3a:	187b      	adds	r3, r7, r1
 8000f3c:	2203      	movs	r2, #3
 8000f3e:	60da      	str	r2, [r3, #12]
    GPIO_InitStruct.Alternate = GPIO_AF1_I2C1;
 8000f40:	187b      	adds	r3, r7, r1
 8000f42:	2201      	movs	r2, #1
 8000f44:	611a      	str	r2, [r3, #16]
    HAL_GPIO_Init(GPIOB, &GPIO_InitStruct);
 8000f46:	187b      	adds	r3, r7, r1
 8000f48:	4a11      	ldr	r2, [pc, #68]	; (8000f90 <HAL_I2C_MspInit+0xa8>)
 8000f4a:	0019      	movs	r1, r3
 8000f4c:	0010      	movs	r0, r2
 8000f4e:	f001 f977 	bl	8002240 <HAL_GPIO_Init>

    /* Peripheral clock enable */
    __HAL_RCC_I2C1_CLK_ENABLE();
 8000f52:	4b0e      	ldr	r3, [pc, #56]	; (8000f8c <HAL_I2C_MspInit+0xa4>)
 8000f54:	69da      	ldr	r2, [r3, #28]
 8000f56:	4b0d      	ldr	r3, [pc, #52]	; (8000f8c <HAL_I2C_MspInit+0xa4>)
 8000f58:	2180      	movs	r1, #128	; 0x80
 8000f5a:	0389      	lsls	r1, r1, #14
 8000f5c:	430a      	orrs	r2, r1
 8000f5e:	61da      	str	r2, [r3, #28]
 8000f60:	4b0a      	ldr	r3, [pc, #40]	; (8000f8c <HAL_I2C_MspInit+0xa4>)
 8000f62:	69da      	ldr	r2, [r3, #28]
 8000f64:	2380      	movs	r3, #128	; 0x80
 8000f66:	039b      	lsls	r3, r3, #14
 8000f68:	4013      	ands	r3, r2
 8000f6a:	60fb      	str	r3, [r7, #12]
 8000f6c:	68fb      	ldr	r3, [r7, #12]
    /* I2C1 interrupt Init */
    HAL_NVIC_SetPriority(I2C1_IRQn, 0, 0);
 8000f6e:	2200      	movs	r2, #0
 8000f70:	2100      	movs	r1, #0
 8000f72:	2017      	movs	r0, #23
 8000f74:	f000 ff48 	bl	8001e08 <HAL_NVIC_SetPriority>
    HAL_NVIC_EnableIRQ(I2C1_IRQn);
 8000f78:	2017      	movs	r0, #23
 8000f7a:	f000 ff5a 	bl	8001e32 <HAL_NVIC_EnableIRQ>
  /* USER CODE BEGIN I2C1_MspInit 1 */

  /* USER CODE END I2C1_MspInit 1 */
  }

}
 8000f7e:	46c0      	nop			; (mov r8, r8)
 8000f80:	46bd      	mov	sp, r7
 8000f82:	b00b      	add	sp, #44	; 0x2c
 8000f84:	bd90      	pop	{r4, r7, pc}
 8000f86:	46c0      	nop			; (mov r8, r8)
 8000f88:	40005400 	.word	0x40005400
 8000f8c:	40021000 	.word	0x40021000
 8000f90:	48000400 	.word	0x48000400

08000f94 <HAL_SPI_MspInit>:
* This function configures the hardware resources used in this example
* @param hspi: SPI handle pointer
* @retval None
*/
void HAL_SPI_MspInit(SPI_HandleTypeDef* hspi)
{
 8000f94:	b590      	push	{r4, r7, lr}
 8000f96:	b08b      	sub	sp, #44	; 0x2c
 8000f98:	af00      	add	r7, sp, #0
 8000f9a:	6078      	str	r0, [r7, #4]
  GPIO_InitTypeDef GPIO_InitStruct = {0};
 8000f9c:	2414      	movs	r4, #20
 8000f9e:	193b      	adds	r3, r7, r4
 8000fa0:	0018      	movs	r0, r3
 8000fa2:	2314      	movs	r3, #20
 8000fa4:	001a      	movs	r2, r3
 8000fa6:	2100      	movs	r1, #0
 8000fa8:	f005 f996 	bl	80062d8 <memset>
  if(hspi->Instance==SPI1)
 8000fac:	687b      	ldr	r3, [r7, #4]
 8000fae:	681b      	ldr	r3, [r3, #0]
 8000fb0:	4a1c      	ldr	r2, [pc, #112]	; (8001024 <HAL_SPI_MspInit+0x90>)
 8000fb2:	4293      	cmp	r3, r2
 8000fb4:	d132      	bne.n	800101c <HAL_SPI_MspInit+0x88>
  {
  /* USER CODE BEGIN SPI1_MspInit 0 */

  /* USER CODE END SPI1_MspInit 0 */
    /* Peripheral clock enable */
    __HAL_RCC_SPI1_CLK_ENABLE();
 8000fb6:	4b1c      	ldr	r3, [pc, #112]	; (8001028 <HAL_SPI_MspInit+0x94>)
 8000fb8:	699a      	ldr	r2, [r3, #24]
 8000fba:	4b1b      	ldr	r3, [pc, #108]	; (8001028 <HAL_SPI_MspInit+0x94>)
 8000fbc:	2180      	movs	r1, #128	; 0x80
 8000fbe:	0149      	lsls	r1, r1, #5
 8000fc0:	430a      	orrs	r2, r1
 8000fc2:	619a      	str	r2, [r3, #24]
 8000fc4:	4b18      	ldr	r3, [pc, #96]	; (8001028 <HAL_SPI_MspInit+0x94>)
 8000fc6:	699a      	ldr	r2, [r3, #24]
 8000fc8:	2380      	movs	r3, #128	; 0x80
 8000fca:	015b      	lsls	r3, r3, #5
 8000fcc:	4013      	ands	r3, r2
 8000fce:	613b      	str	r3, [r7, #16]
 8000fd0:	693b      	ldr	r3, [r7, #16]

    __HAL_RCC_GPIOA_CLK_ENABLE();
 8000fd2:	4b15      	ldr	r3, [pc, #84]	; (8001028 <HAL_SPI_MspInit+0x94>)
 8000fd4:	695a      	ldr	r2, [r3, #20]
 8000fd6:	4b14      	ldr	r3, [pc, #80]	; (8001028 <HAL_SPI_MspInit+0x94>)
 8000fd8:	2180      	movs	r1, #128	; 0x80
 8000fda:	0289      	lsls	r1, r1, #10
 8000fdc:	430a      	orrs	r2, r1
 8000fde:	615a      	str	r2, [r3, #20]
 8000fe0:	4b11      	ldr	r3, [pc, #68]	; (8001028 <HAL_SPI_MspInit+0x94>)
 8000fe2:	695a      	ldr	r2, [r3, #20]
 8000fe4:	2380      	movs	r3, #128	; 0x80
 8000fe6:	029b      	lsls	r3, r3, #10
 8000fe8:	4013      	ands	r3, r2
 8000fea:	60fb      	str	r3, [r7, #12]
 8000fec:	68fb      	ldr	r3, [r7, #12]
    /**SPI1 GPIO Configuration
    PA5     ------> SPI1_SCK
    PA6     ------> SPI1_MISO
    PA7     ------> SPI1_MOSI
    */
    GPIO_InitStruct.Pin = GPIO_PIN_5|GPIO_PIN_6|GPIO_PIN_7;
 8000fee:	0021      	movs	r1, r4
 8000ff0:	187b      	adds	r3, r7, r1
 8000ff2:	22e0      	movs	r2, #224	; 0xe0
 8000ff4:	601a      	str	r2, [r3, #0]
    GPIO_InitStruct.Mode = GPIO_MODE_AF_PP;
 8000ff6:	187b      	adds	r3, r7, r1
 8000ff8:	2202      	movs	r2, #2
 8000ffa:	605a      	str	r2, [r3, #4]
    GPIO_InitStruct.Pull = GPIO_NOPULL;
 8000ffc:	187b      	adds	r3, r7, r1
 8000ffe:	2200      	movs	r2, #0
 8001000:	609a      	str	r2, [r3, #8]
    GPIO_InitStruct.Speed = GPIO_SPEED_FREQ_HIGH;
 8001002:	187b      	adds	r3, r7, r1
 8001004:	2203      	movs	r2, #3
 8001006:	60da      	str	r2, [r3, #12]
    GPIO_InitStruct.Alternate = GPIO_AF0_SPI1;
 8001008:	187b      	adds	r3, r7, r1
 800100a:	2200      	movs	r2, #0
 800100c:	611a      	str	r2, [r3, #16]
    HAL_GPIO_Init(GPIOA, &GPIO_InitStruct);
 800100e:	187a      	adds	r2, r7, r1
 8001010:	2390      	movs	r3, #144	; 0x90
 8001012:	05db      	lsls	r3, r3, #23
 8001014:	0011      	movs	r1, r2
 8001016:	0018      	movs	r0, r3
 8001018:	f001 f912 	bl	8002240 <HAL_GPIO_Init>
  /* USER CODE BEGIN SPI1_MspInit 1 */

  /* USER CODE END SPI1_MspInit 1 */
  }

}
 800101c:	46c0      	nop			; (mov r8, r8)
 800101e:	46bd      	mov	sp, r7
 8001020:	b00b      	add	sp, #44	; 0x2c
 8001022:	bd90      	pop	{r4, r7, pc}
 8001024:	40013000 	.word	0x40013000
 8001028:	40021000 	.word	0x40021000

0800102c <HAL_TIM_Base_MspInit>:
* This function configures the hardware resources used in this example
* @param htim_base: TIM_Base handle pointer
* @retval None
*/
void HAL_TIM_Base_MspInit(TIM_HandleTypeDef* htim_base)
{
 800102c:	b590      	push	{r4, r7, lr}
 800102e:	b08b      	sub	sp, #44	; 0x2c
 8001030:	af00      	add	r7, sp, #0
 8001032:	6078      	str	r0, [r7, #4]
  GPIO_InitTypeDef GPIO_InitStruct = {0};
 8001034:	2414      	movs	r4, #20
 8001036:	193b      	adds	r3, r7, r4
 8001038:	0018      	movs	r0, r3
 800103a:	2314      	movs	r3, #20
 800103c:	001a      	movs	r2, r3
 800103e:	2100      	movs	r1, #0
 8001040:	f005 f94a 	bl	80062d8 <memset>
  if(htim_base->Instance==TIM1)
 8001044:	687b      	ldr	r3, [r7, #4]
 8001046:	681b      	ldr	r3, [r3, #0]
 8001048:	4a2f      	ldr	r2, [pc, #188]	; (8001108 <HAL_TIM_Base_MspInit+0xdc>)
 800104a:	4293      	cmp	r3, r2
 800104c:	d157      	bne.n	80010fe <HAL_TIM_Base_MspInit+0xd2>
  {
  /* USER CODE BEGIN TIM1_MspInit 0 */

  /* USER CODE END TIM1_MspInit 0 */
    /* Peripheral clock enable */
    __HAL_RCC_TIM1_CLK_ENABLE();
 800104e:	4b2f      	ldr	r3, [pc, #188]	; (800110c <HAL_TIM_Base_MspInit+0xe0>)
 8001050:	699a      	ldr	r2, [r3, #24]
 8001052:	4b2e      	ldr	r3, [pc, #184]	; (800110c <HAL_TIM_Base_MspInit+0xe0>)
 8001054:	2180      	movs	r1, #128	; 0x80
 8001056:	0109      	lsls	r1, r1, #4
 8001058:	430a      	orrs	r2, r1
 800105a:	619a      	str	r2, [r3, #24]
 800105c:	4b2b      	ldr	r3, [pc, #172]	; (800110c <HAL_TIM_Base_MspInit+0xe0>)
 800105e:	699a      	ldr	r2, [r3, #24]
 8001060:	2380      	movs	r3, #128	; 0x80
 8001062:	011b      	lsls	r3, r3, #4
 8001064:	4013      	ands	r3, r2
 8001066:	613b      	str	r3, [r7, #16]
 8001068:	693b      	ldr	r3, [r7, #16]

    __HAL_RCC_GPIOB_CLK_ENABLE();
 800106a:	4b28      	ldr	r3, [pc, #160]	; (800110c <HAL_TIM_Base_MspInit+0xe0>)
 800106c:	695a      	ldr	r2, [r3, #20]
 800106e:	4b27      	ldr	r3, [pc, #156]	; (800110c <HAL_TIM_Base_MspInit+0xe0>)
 8001070:	2180      	movs	r1, #128	; 0x80
 8001072:	02c9      	lsls	r1, r1, #11
 8001074:	430a      	orrs	r2, r1
 8001076:	615a      	str	r2, [r3, #20]
 8001078:	4b24      	ldr	r3, [pc, #144]	; (800110c <HAL_TIM_Base_MspInit+0xe0>)
 800107a:	695a      	ldr	r2, [r3, #20]
 800107c:	2380      	movs	r3, #128	; 0x80
 800107e:	02db      	lsls	r3, r3, #11
 8001080:	4013      	ands	r3, r2
 8001082:	60fb      	str	r3, [r7, #12]
 8001084:	68fb      	ldr	r3, [r7, #12]
    __HAL_RCC_GPIOA_CLK_ENABLE();
 8001086:	4b21      	ldr	r3, [pc, #132]	; (800110c <HAL_TIM_Base_MspInit+0xe0>)
 8001088:	695a      	ldr	r2, [r3, #20]
 800108a:	4b20      	ldr	r3, [pc, #128]	; (800110c <HAL_TIM_Base_MspInit+0xe0>)
 800108c:	2180      	movs	r1, #128	; 0x80
 800108e:	0289      	lsls	r1, r1, #10
 8001090:	430a      	orrs	r2, r1
 8001092:	615a      	str	r2, [r3, #20]
 8001094:	4b1d      	ldr	r3, [pc, #116]	; (800110c <HAL_TIM_Base_MspInit+0xe0>)
 8001096:	695a      	ldr	r2, [r3, #20]
 8001098:	2380      	movs	r3, #128	; 0x80
 800109a:	029b      	lsls	r3, r3, #10
 800109c:	4013      	ands	r3, r2
 800109e:	60bb      	str	r3, [r7, #8]
 80010a0:	68bb      	ldr	r3, [r7, #8]
    /**TIM1 GPIO Configuration
    PB12     ------> TIM1_BKIN
    PA12     ------> TIM1_ETR
    */
    GPIO_InitStruct.Pin = OC_COMP_INT_Pin;
 80010a2:	193b      	adds	r3, r7, r4
 80010a4:	2280      	movs	r2, #128	; 0x80
 80010a6:	0152      	lsls	r2, r2, #5
 80010a8:	601a      	str	r2, [r3, #0]
    GPIO_InitStruct.Mode = GPIO_MODE_AF_PP;
 80010aa:	193b      	adds	r3, r7, r4
 80010ac:	2202      	movs	r2, #2
 80010ae:	605a      	str	r2, [r3, #4]
    GPIO_InitStruct.Pull = GPIO_NOPULL;
 80010b0:	193b      	adds	r3, r7, r4
 80010b2:	2200      	movs	r2, #0
 80010b4:	609a      	str	r2, [r3, #8]
    GPIO_InitStruct.Speed = GPIO_SPEED_FREQ_LOW;
 80010b6:	193b      	adds	r3, r7, r4
 80010b8:	2200      	movs	r2, #0
 80010ba:	60da      	str	r2, [r3, #12]
    GPIO_InitStruct.Alternate = GPIO_AF2_TIM1;
 80010bc:	193b      	adds	r3, r7, r4
 80010be:	2202      	movs	r2, #2
 80010c0:	611a      	str	r2, [r3, #16]
    HAL_GPIO_Init(OC_COMP_INT_GPIO_Port, &GPIO_InitStruct);
 80010c2:	193b      	adds	r3, r7, r4
 80010c4:	4a12      	ldr	r2, [pc, #72]	; (8001110 <HAL_TIM_Base_MspInit+0xe4>)
 80010c6:	0019      	movs	r1, r3
 80010c8:	0010      	movs	r0, r2
 80010ca:	f001 f8b9 	bl	8002240 <HAL_GPIO_Init>

    GPIO_InitStruct.Pin = OC_COMP_INT2_Pin;
 80010ce:	0021      	movs	r1, r4
 80010d0:	187b      	adds	r3, r7, r1
 80010d2:	2280      	movs	r2, #128	; 0x80
 80010d4:	0152      	lsls	r2, r2, #5
 80010d6:	601a      	str	r2, [r3, #0]
    GPIO_InitStruct.Mode = GPIO_MODE_AF_PP;
 80010d8:	187b      	adds	r3, r7, r1
 80010da:	2202      	movs	r2, #2
 80010dc:	605a      	str	r2, [r3, #4]
    GPIO_InitStruct.Pull = GPIO_NOPULL;
 80010de:	187b      	adds	r3, r7, r1
 80010e0:	2200      	movs	r2, #0
 80010e2:	609a      	str	r2, [r3, #8]
    GPIO_InitStruct.Speed = GPIO_SPEED_FREQ_LOW;
 80010e4:	187b      	adds	r3, r7, r1
 80010e6:	2200      	movs	r2, #0
 80010e8:	60da      	str	r2, [r3, #12]
    GPIO_InitStruct.Alternate = GPIO_AF2_TIM1;
 80010ea:	187b      	adds	r3, r7, r1
 80010ec:	2202      	movs	r2, #2
 80010ee:	611a      	str	r2, [r3, #16]
    HAL_GPIO_Init(OC_COMP_INT2_GPIO_Port, &GPIO_InitStruct);
 80010f0:	187a      	adds	r2, r7, r1
 80010f2:	2390      	movs	r3, #144	; 0x90
 80010f4:	05db      	lsls	r3, r3, #23
 80010f6:	0011      	movs	r1, r2
 80010f8:	0018      	movs	r0, r3
 80010fa:	f001 f8a1 	bl	8002240 <HAL_GPIO_Init>
  /* USER CODE BEGIN TIM1_MspInit 1 */

  /* USER CODE END TIM1_MspInit 1 */
  }

}
 80010fe:	46c0      	nop			; (mov r8, r8)
 8001100:	46bd      	mov	sp, r7
 8001102:	b00b      	add	sp, #44	; 0x2c
 8001104:	bd90      	pop	{r4, r7, pc}
 8001106:	46c0      	nop			; (mov r8, r8)
 8001108:	40012c00 	.word	0x40012c00
 800110c:	40021000 	.word	0x40021000
 8001110:	48000400 	.word	0x48000400

08001114 <HAL_TIM_MspPostInit>:

void HAL_TIM_MspPostInit(TIM_HandleTypeDef* htim)
{
 8001114:	b590      	push	{r4, r7, lr}
 8001116:	b08b      	sub	sp, #44	; 0x2c
 8001118:	af00      	add	r7, sp, #0
 800111a:	6078      	str	r0, [r7, #4]
  GPIO_InitTypeDef GPIO_InitStruct = {0};
 800111c:	2414      	movs	r4, #20
 800111e:	193b      	adds	r3, r7, r4
 8001120:	0018      	movs	r0, r3
 8001122:	2314      	movs	r3, #20
 8001124:	001a      	movs	r2, r3
 8001126:	2100      	movs	r1, #0
 8001128:	f005 f8d6 	bl	80062d8 <memset>
  if(htim->Instance==TIM1)
 800112c:	687b      	ldr	r3, [r7, #4]
 800112e:	681b      	ldr	r3, [r3, #0]
 8001130:	4a28      	ldr	r2, [pc, #160]	; (80011d4 <HAL_TIM_MspPostInit+0xc0>)
 8001132:	4293      	cmp	r3, r2
 8001134:	d149      	bne.n	80011ca <HAL_TIM_MspPostInit+0xb6>
  {
  /* USER CODE BEGIN TIM1_MspPostInit 0 */

  /* USER CODE END TIM1_MspPostInit 0 */

    __HAL_RCC_GPIOB_CLK_ENABLE();
 8001136:	4b28      	ldr	r3, [pc, #160]	; (80011d8 <HAL_TIM_MspPostInit+0xc4>)
 8001138:	695a      	ldr	r2, [r3, #20]
 800113a:	4b27      	ldr	r3, [pc, #156]	; (80011d8 <HAL_TIM_MspPostInit+0xc4>)
 800113c:	2180      	movs	r1, #128	; 0x80
 800113e:	02c9      	lsls	r1, r1, #11
 8001140:	430a      	orrs	r2, r1
 8001142:	615a      	str	r2, [r3, #20]
 8001144:	4b24      	ldr	r3, [pc, #144]	; (80011d8 <HAL_TIM_MspPostInit+0xc4>)
 8001146:	695a      	ldr	r2, [r3, #20]
 8001148:	2380      	movs	r3, #128	; 0x80
 800114a:	02db      	lsls	r3, r3, #11
 800114c:	4013      	ands	r3, r2
 800114e:	613b      	str	r3, [r7, #16]
 8001150:	693b      	ldr	r3, [r7, #16]
    __HAL_RCC_GPIOA_CLK_ENABLE();
 8001152:	4b21      	ldr	r3, [pc, #132]	; (80011d8 <HAL_TIM_MspPostInit+0xc4>)
 8001154:	695a      	ldr	r2, [r3, #20]
 8001156:	4b20      	ldr	r3, [pc, #128]	; (80011d8 <HAL_TIM_MspPostInit+0xc4>)
 8001158:	2180      	movs	r1, #128	; 0x80
 800115a:	0289      	lsls	r1, r1, #10
 800115c:	430a      	orrs	r2, r1
 800115e:	615a      	str	r2, [r3, #20]
 8001160:	4b1d      	ldr	r3, [pc, #116]	; (80011d8 <HAL_TIM_MspPostInit+0xc4>)
 8001162:	695a      	ldr	r2, [r3, #20]
 8001164:	2380      	movs	r3, #128	; 0x80
 8001166:	029b      	lsls	r3, r3, #10
 8001168:	4013      	ands	r3, r2
 800116a:	60fb      	str	r3, [r7, #12]
 800116c:	68fb      	ldr	r3, [r7, #12]
    PB15     ------> TIM1_CH3N
    PA8     ------> TIM1_CH1
    PA9     ------> TIM1_CH2
    PA10     ------> TIM1_CH3
    */
    GPIO_InitStruct.Pin = LSU_Pin|LSV_Pin|GPIO_PIN_15;
 800116e:	193b      	adds	r3, r7, r4
 8001170:	22e0      	movs	r2, #224	; 0xe0
 8001172:	0212      	lsls	r2, r2, #8
 8001174:	601a      	str	r2, [r3, #0]
    GPIO_InitStruct.Mode = GPIO_MODE_AF_PP;
 8001176:	193b      	adds	r3, r7, r4
 8001178:	2202      	movs	r2, #2
 800117a:	605a      	str	r2, [r3, #4]
    GPIO_InitStruct.Pull = GPIO_NOPULL;
 800117c:	193b      	adds	r3, r7, r4
 800117e:	2200      	movs	r2, #0
 8001180:	609a      	str	r2, [r3, #8]
    GPIO_InitStruct.Speed = GPIO_SPEED_FREQ_LOW;
 8001182:	193b      	adds	r3, r7, r4
 8001184:	2200      	movs	r2, #0
 8001186:	60da      	str	r2, [r3, #12]
    GPIO_InitStruct.Alternate = GPIO_AF2_TIM1;
 8001188:	193b      	adds	r3, r7, r4
 800118a:	2202      	movs	r2, #2
 800118c:	611a      	str	r2, [r3, #16]
    HAL_GPIO_Init(GPIOB, &GPIO_InitStruct);
 800118e:	193b      	adds	r3, r7, r4
 8001190:	4a12      	ldr	r2, [pc, #72]	; (80011dc <HAL_TIM_MspPostInit+0xc8>)
 8001192:	0019      	movs	r1, r3
 8001194:	0010      	movs	r0, r2
 8001196:	f001 f853 	bl	8002240 <HAL_GPIO_Init>

    GPIO_InitStruct.Pin = HSU_Pin|HSV_Pin|GPIO_PIN_10;
 800119a:	0021      	movs	r1, r4
 800119c:	187b      	adds	r3, r7, r1
 800119e:	22e0      	movs	r2, #224	; 0xe0
 80011a0:	00d2      	lsls	r2, r2, #3
 80011a2:	601a      	str	r2, [r3, #0]
    GPIO_InitStruct.Mode = GPIO_MODE_AF_PP;
 80011a4:	187b      	adds	r3, r7, r1
 80011a6:	2202      	movs	r2, #2
 80011a8:	605a      	str	r2, [r3, #4]
    GPIO_InitStruct.Pull = GPIO_NOPULL;
 80011aa:	187b      	adds	r3, r7, r1
 80011ac:	2200      	movs	r2, #0
 80011ae:	609a      	str	r2, [r3, #8]
    GPIO_InitStruct.Speed = GPIO_SPEED_FREQ_LOW;
 80011b0:	187b      	adds	r3, r7, r1
 80011b2:	2200      	movs	r2, #0
 80011b4:	60da      	str	r2, [r3, #12]
    GPIO_InitStruct.Alternate = GPIO_AF2_TIM1;
 80011b6:	187b      	adds	r3, r7, r1
 80011b8:	2202      	movs	r2, #2
 80011ba:	611a      	str	r2, [r3, #16]
    HAL_GPIO_Init(GPIOA, &GPIO_InitStruct);
 80011bc:	187a      	adds	r2, r7, r1
 80011be:	2390      	movs	r3, #144	; 0x90
 80011c0:	05db      	lsls	r3, r3, #23
 80011c2:	0011      	movs	r1, r2
 80011c4:	0018      	movs	r0, r3
 80011c6:	f001 f83b 	bl	8002240 <HAL_GPIO_Init>
  /* USER CODE BEGIN TIM1_MspPostInit 1 */

  /* USER CODE END TIM1_MspPostInit 1 */
  }

}
 80011ca:	46c0      	nop			; (mov r8, r8)
 80011cc:	46bd      	mov	sp, r7
 80011ce:	b00b      	add	sp, #44	; 0x2c
 80011d0:	bd90      	pop	{r4, r7, pc}
 80011d2:	46c0      	nop			; (mov r8, r8)
 80011d4:	40012c00 	.word	0x40012c00
 80011d8:	40021000 	.word	0x40021000
 80011dc:	48000400 	.word	0x48000400

080011e0 <HAL_UART_MspInit>:
* This function configures the hardware resources used in this example
* @param huart: UART handle pointer
* @retval None
*/
void HAL_UART_MspInit(UART_HandleTypeDef* huart)
{
 80011e0:	b590      	push	{r4, r7, lr}
 80011e2:	b08b      	sub	sp, #44	; 0x2c
 80011e4:	af00      	add	r7, sp, #0
 80011e6:	6078      	str	r0, [r7, #4]
  GPIO_InitTypeDef GPIO_InitStruct = {0};
 80011e8:	2414      	movs	r4, #20
 80011ea:	193b      	adds	r3, r7, r4
 80011ec:	0018      	movs	r0, r3
 80011ee:	2314      	movs	r3, #20
 80011f0:	001a      	movs	r2, r3
 80011f2:	2100      	movs	r1, #0
 80011f4:	f005 f870 	bl	80062d8 <memset>
  if(huart->Instance==USART1)
 80011f8:	687b      	ldr	r3, [r7, #4]
 80011fa:	681b      	ldr	r3, [r3, #0]
 80011fc:	4a1c      	ldr	r2, [pc, #112]	; (8001270 <HAL_UART_MspInit+0x90>)
 80011fe:	4293      	cmp	r3, r2
 8001200:	d132      	bne.n	8001268 <HAL_UART_MspInit+0x88>
  {
  /* USER CODE BEGIN USART1_MspInit 0 */

  /* USER CODE END USART1_MspInit 0 */
    /* Peripheral clock enable */
    __HAL_RCC_USART1_CLK_ENABLE();
 8001202:	4b1c      	ldr	r3, [pc, #112]	; (8001274 <HAL_UART_MspInit+0x94>)
 8001204:	699a      	ldr	r2, [r3, #24]
 8001206:	4b1b      	ldr	r3, [pc, #108]	; (8001274 <HAL_UART_MspInit+0x94>)
 8001208:	2180      	movs	r1, #128	; 0x80
 800120a:	01c9      	lsls	r1, r1, #7
 800120c:	430a      	orrs	r2, r1
 800120e:	619a      	str	r2, [r3, #24]
 8001210:	4b18      	ldr	r3, [pc, #96]	; (8001274 <HAL_UART_MspInit+0x94>)
 8001212:	699a      	ldr	r2, [r3, #24]
 8001214:	2380      	movs	r3, #128	; 0x80
 8001216:	01db      	lsls	r3, r3, #7
 8001218:	4013      	ands	r3, r2
 800121a:	613b      	str	r3, [r7, #16]
 800121c:	693b      	ldr	r3, [r7, #16]

    __HAL_RCC_GPIOA_CLK_ENABLE();
 800121e:	4b15      	ldr	r3, [pc, #84]	; (8001274 <HAL_UART_MspInit+0x94>)
 8001220:	695a      	ldr	r2, [r3, #20]
 8001222:	4b14      	ldr	r3, [pc, #80]	; (8001274 <HAL_UART_MspInit+0x94>)
 8001224:	2180      	movs	r1, #128	; 0x80
 8001226:	0289      	lsls	r1, r1, #10
 8001228:	430a      	orrs	r2, r1
 800122a:	615a      	str	r2, [r3, #20]
 800122c:	4b11      	ldr	r3, [pc, #68]	; (8001274 <HAL_UART_MspInit+0x94>)
 800122e:	695a      	ldr	r2, [r3, #20]
 8001230:	2380      	movs	r3, #128	; 0x80
 8001232:	029b      	lsls	r3, r3, #10
 8001234:	4013      	ands	r3, r2
 8001236:	60fb      	str	r3, [r7, #12]
 8001238:	68fb      	ldr	r3, [r7, #12]
    /**USART1 GPIO Configuration
    PA1     ------> USART1_DE
    PA2     ------> USART1_TX
    PA15     ------> USART1_RX
    */
    GPIO_InitStruct.Pin = GPIO_PIN_1|GPIO_PIN_2|GPIO_PIN_15;
 800123a:	0021      	movs	r1, r4
 800123c:	187b      	adds	r3, r7, r1
 800123e:	4a0e      	ldr	r2, [pc, #56]	; (8001278 <HAL_UART_MspInit+0x98>)
 8001240:	601a      	str	r2, [r3, #0]
    GPIO_InitStruct.Mode = GPIO_MODE_AF_PP;
 8001242:	187b      	adds	r3, r7, r1
 8001244:	2202      	movs	r2, #2
 8001246:	605a      	str	r2, [r3, #4]
    GPIO_InitStruct.Pull = GPIO_NOPULL;
 8001248:	187b      	adds	r3, r7, r1
 800124a:	2200      	movs	r2, #0
 800124c:	609a      	str	r2, [r3, #8]
    GPIO_InitStruct.Speed = GPIO_SPEED_FREQ_HIGH;
 800124e:	187b      	adds	r3, r7, r1
 8001250:	2203      	movs	r2, #3
 8001252:	60da      	str	r2, [r3, #12]
    GPIO_InitStruct.Alternate = GPIO_AF1_USART1;
 8001254:	187b      	adds	r3, r7, r1
 8001256:	2201      	movs	r2, #1
 8001258:	611a      	str	r2, [r3, #16]
    HAL_GPIO_Init(GPIOA, &GPIO_InitStruct);
 800125a:	187a      	adds	r2, r7, r1
 800125c:	2390      	movs	r3, #144	; 0x90
 800125e:	05db      	lsls	r3, r3, #23
 8001260:	0011      	movs	r1, r2
 8001262:	0018      	movs	r0, r3
 8001264:	f000 ffec 	bl	8002240 <HAL_GPIO_Init>
  /* USER CODE BEGIN USART1_MspInit 1 */

  /* USER CODE END USART1_MspInit 1 */
  }

}
 8001268:	46c0      	nop			; (mov r8, r8)
 800126a:	46bd      	mov	sp, r7
 800126c:	b00b      	add	sp, #44	; 0x2c
 800126e:	bd90      	pop	{r4, r7, pc}
 8001270:	40013800 	.word	0x40013800
 8001274:	40021000 	.word	0x40021000
 8001278:	00008006 	.word	0x00008006

0800127c <NMI_Handler>:
/******************************************************************************/
/**
  * @brief This function handles Non maskable interrupt.
  */
void NMI_Handler(void)
{
 800127c:	b580      	push	{r7, lr}
 800127e:	af00      	add	r7, sp, #0
  /* USER CODE BEGIN NonMaskableInt_IRQn 0 */

  /* USER CODE END NonMaskableInt_IRQn 0 */
  /* USER CODE BEGIN NonMaskableInt_IRQn 1 */
  while (1)
 8001280:	e7fe      	b.n	8001280 <NMI_Handler+0x4>

08001282 <HardFault_Handler>:

/**
  * @brief This function handles Hard fault interrupt.
  */
void HardFault_Handler(void)
{
 8001282:	b580      	push	{r7, lr}
 8001284:	af00      	add	r7, sp, #0
  /* USER CODE BEGIN HardFault_IRQn 0 */

  /* USER CODE END HardFault_IRQn 0 */
  while (1)
 8001286:	e7fe      	b.n	8001286 <HardFault_Handler+0x4>

08001288 <SVC_Handler>:

/**
  * @brief This function handles System service call via SWI instruction.
  */
void SVC_Handler(void)
{
 8001288:	b580      	push	{r7, lr}
 800128a:	af00      	add	r7, sp, #0

  /* USER CODE END SVC_IRQn 0 */
  /* USER CODE BEGIN SVC_IRQn 1 */

  /* USER CODE END SVC_IRQn 1 */
}
 800128c:	46c0      	nop			; (mov r8, r8)
 800128e:	46bd      	mov	sp, r7
 8001290:	bd80      	pop	{r7, pc}

08001292 <PendSV_Handler>:

/**
  * @brief This function handles Pendable request for system service.
  */
void PendSV_Handler(void)
{
 8001292:	b580      	push	{r7, lr}
 8001294:	af00      	add	r7, sp, #0

  /* USER CODE END PendSV_IRQn 0 */
  /* USER CODE BEGIN PendSV_IRQn 1 */

  /* USER CODE END PendSV_IRQn 1 */
}
 8001296:	46c0      	nop			; (mov r8, r8)
 8001298:	46bd      	mov	sp, r7
 800129a:	bd80      	pop	{r7, pc}

0800129c <SysTick_Handler>:

/**
  * @brief This function handles System tick timer.
  */
void SysTick_Handler(void)
{
 800129c:	b580      	push	{r7, lr}
 800129e:	af00      	add	r7, sp, #0
  /* USER CODE BEGIN SysTick_IRQn 0 */

  /* USER CODE END SysTick_IRQn 0 */
  HAL_IncTick();
 80012a0:	f000 f8d6 	bl	8001450 <HAL_IncTick>
  /* USER CODE BEGIN SysTick_IRQn 1 */

  /* USER CODE END SysTick_IRQn 1 */
}
 80012a4:	46c0      	nop			; (mov r8, r8)
 80012a6:	46bd      	mov	sp, r7
 80012a8:	bd80      	pop	{r7, pc}
	...

080012ac <DMA1_Channel1_IRQHandler>:

/**
  * @brief This function handles DMA1 channel 1 interrupt.
  */
void DMA1_Channel1_IRQHandler(void)
{
 80012ac:	b580      	push	{r7, lr}
 80012ae:	af00      	add	r7, sp, #0
  /* USER CODE BEGIN DMA1_Channel1_IRQn 0 */

  /* USER CODE END DMA1_Channel1_IRQn 0 */
  HAL_DMA_IRQHandler(&hdma_adc);
 80012b0:	4b03      	ldr	r3, [pc, #12]	; (80012c0 <DMA1_Channel1_IRQHandler+0x14>)
 80012b2:	0018      	movs	r0, r3
 80012b4:	f000 fecd 	bl	8002052 <HAL_DMA_IRQHandler>
  /* USER CODE BEGIN DMA1_Channel1_IRQn 1 */

  /* USER CODE END DMA1_Channel1_IRQn 1 */
}
 80012b8:	46c0      	nop			; (mov r8, r8)
 80012ba:	46bd      	mov	sp, r7
 80012bc:	bd80      	pop	{r7, pc}
 80012be:	46c0      	nop			; (mov r8, r8)
 80012c0:	200000e8 	.word	0x200000e8

080012c4 <I2C1_IRQHandler>:

/**
  * @brief This function handles I2C1 event global interrupt / I2C1 wake-up interrupt through EXTI line 23.
  */
void I2C1_IRQHandler(void)
{
 80012c4:	b580      	push	{r7, lr}
 80012c6:	af00      	add	r7, sp, #0
  /* USER CODE BEGIN I2C1_IRQn 0 */

  /* USER CODE END I2C1_IRQn 0 */
  if (hi2c1.Instance->ISR & (I2C_FLAG_BERR | I2C_FLAG_ARLO | I2C_FLAG_OVR)) {
 80012c8:	4b09      	ldr	r3, [pc, #36]	; (80012f0 <I2C1_IRQHandler+0x2c>)
 80012ca:	681b      	ldr	r3, [r3, #0]
 80012cc:	699a      	ldr	r2, [r3, #24]
 80012ce:	23e0      	movs	r3, #224	; 0xe0
 80012d0:	00db      	lsls	r3, r3, #3
 80012d2:	4013      	ands	r3, r2
 80012d4:	d004      	beq.n	80012e0 <I2C1_IRQHandler+0x1c>
    HAL_I2C_ER_IRQHandler(&hi2c1);
 80012d6:	4b06      	ldr	r3, [pc, #24]	; (80012f0 <I2C1_IRQHandler+0x2c>)
 80012d8:	0018      	movs	r0, r3
 80012da:	f001 fb6b 	bl	80029b4 <HAL_I2C_ER_IRQHandler>
    HAL_I2C_EV_IRQHandler(&hi2c1);
  }
  /* USER CODE BEGIN I2C1_IRQn 1 */

  /* USER CODE END I2C1_IRQn 1 */
}
 80012de:	e003      	b.n	80012e8 <I2C1_IRQHandler+0x24>
    HAL_I2C_EV_IRQHandler(&hi2c1);
 80012e0:	4b03      	ldr	r3, [pc, #12]	; (80012f0 <I2C1_IRQHandler+0x2c>)
 80012e2:	0018      	movs	r0, r3
 80012e4:	f001 fb4c 	bl	8002980 <HAL_I2C_EV_IRQHandler>
}
 80012e8:	46c0      	nop			; (mov r8, r8)
 80012ea:	46bd      	mov	sp, r7
 80012ec:	bd80      	pop	{r7, pc}
 80012ee:	46c0      	nop			; (mov r8, r8)
 80012f0:	2000012c 	.word	0x2000012c

080012f4 <_sbrk>:
 *
 * @param incr Memory size
 * @return Pointer to allocated memory
 */
void *_sbrk(ptrdiff_t incr)
{
 80012f4:	b580      	push	{r7, lr}
 80012f6:	b086      	sub	sp, #24
 80012f8:	af00      	add	r7, sp, #0
 80012fa:	6078      	str	r0, [r7, #4]
  extern uint8_t _end; /* Symbol defined in the linker script */
  extern uint8_t _estack; /* Symbol defined in the linker script */
  extern uint32_t _Min_Stack_Size; /* Symbol defined in the linker script */
  const uint32_t stack_limit = (uint32_t)&_estack - (uint32_t)&_Min_Stack_Size;
 80012fc:	4a14      	ldr	r2, [pc, #80]	; (8001350 <_sbrk+0x5c>)
 80012fe:	4b15      	ldr	r3, [pc, #84]	; (8001354 <_sbrk+0x60>)
 8001300:	1ad3      	subs	r3, r2, r3
 8001302:	617b      	str	r3, [r7, #20]
  const uint8_t *max_heap = (uint8_t *)stack_limit;
 8001304:	697b      	ldr	r3, [r7, #20]
 8001306:	613b      	str	r3, [r7, #16]
  uint8_t *prev_heap_end;

  /* Initialize heap end at first call */
  if (NULL == __sbrk_heap_end)
 8001308:	4b13      	ldr	r3, [pc, #76]	; (8001358 <_sbrk+0x64>)
 800130a:	681b      	ldr	r3, [r3, #0]
 800130c:	2b00      	cmp	r3, #0
 800130e:	d102      	bne.n	8001316 <_sbrk+0x22>
  {
    __sbrk_heap_end = &_end;
 8001310:	4b11      	ldr	r3, [pc, #68]	; (8001358 <_sbrk+0x64>)
 8001312:	4a12      	ldr	r2, [pc, #72]	; (800135c <_sbrk+0x68>)
 8001314:	601a      	str	r2, [r3, #0]
  }

  /* Protect heap from growing into the reserved MSP stack */
  if (__sbrk_heap_end + incr > max_heap)
 8001316:	4b10      	ldr	r3, [pc, #64]	; (8001358 <_sbrk+0x64>)
 8001318:	681a      	ldr	r2, [r3, #0]
 800131a:	687b      	ldr	r3, [r7, #4]
 800131c:	18d3      	adds	r3, r2, r3
 800131e:	693a      	ldr	r2, [r7, #16]
 8001320:	429a      	cmp	r2, r3
 8001322:	d207      	bcs.n	8001334 <_sbrk+0x40>
  {
    errno = ENOMEM;
 8001324:	f004 ffae 	bl	8006284 <__errno>
 8001328:	0003      	movs	r3, r0
 800132a:	220c      	movs	r2, #12
 800132c:	601a      	str	r2, [r3, #0]
    return (void *)-1;
 800132e:	2301      	movs	r3, #1
 8001330:	425b      	negs	r3, r3
 8001332:	e009      	b.n	8001348 <_sbrk+0x54>
  }

  prev_heap_end = __sbrk_heap_end;
 8001334:	4b08      	ldr	r3, [pc, #32]	; (8001358 <_sbrk+0x64>)
 8001336:	681b      	ldr	r3, [r3, #0]
 8001338:	60fb      	str	r3, [r7, #12]
  __sbrk_heap_end += incr;
 800133a:	4b07      	ldr	r3, [pc, #28]	; (8001358 <_sbrk+0x64>)
 800133c:	681a      	ldr	r2, [r3, #0]
 800133e:	687b      	ldr	r3, [r7, #4]
 8001340:	18d2      	adds	r2, r2, r3
 8001342:	4b05      	ldr	r3, [pc, #20]	; (8001358 <_sbrk+0x64>)
 8001344:	601a      	str	r2, [r3, #0]

  return (void *)prev_heap_end;
 8001346:	68fb      	ldr	r3, [r7, #12]
}
 8001348:	0018      	movs	r0, r3
 800134a:	46bd      	mov	sp, r7
 800134c:	b006      	add	sp, #24
 800134e:	bd80      	pop	{r7, pc}
 8001350:	20001000 	.word	0x20001000
 8001354:	00000400 	.word	0x00000400
 8001358:	200002a8 	.word	0x200002a8
 800135c:	200002c0 	.word	0x200002c0

08001360 <SystemInit>:
  * @brief  Setup the microcontroller system
  * @param  None
  * @retval None
  */
void SystemInit(void)
{
 8001360:	b580      	push	{r7, lr}
 8001362:	af00      	add	r7, sp, #0
                         before branch to main program. This call is made inside
                         the "startup_stm32f0xx.s" file.
                         User can setups the default system clock (System clock source, PLL Multiplier
                         and Divider factors, AHB/APBx prescalers and Flash settings).
   */
}
 8001364:	46c0      	nop			; (mov r8, r8)
 8001366:	46bd      	mov	sp, r7
 8001368:	bd80      	pop	{r7, pc}
	...

0800136c <Reset_Handler>:

  .section .text.Reset_Handler
  .weak Reset_Handler
  .type Reset_Handler, %function
Reset_Handler:
  ldr   r0, =_estack
 800136c:	480d      	ldr	r0, [pc, #52]	; (80013a4 <LoopForever+0x2>)
  mov   sp, r0          /* set stack pointer */
 800136e:	4685      	mov	sp, r0

/* Copy the data segment initializers from flash to SRAM */
  ldr r0, =_sdata
 8001370:	480d      	ldr	r0, [pc, #52]	; (80013a8 <LoopForever+0x6>)
  ldr r1, =_edata
 8001372:	490e      	ldr	r1, [pc, #56]	; (80013ac <LoopForever+0xa>)
  ldr r2, =_sidata
 8001374:	4a0e      	ldr	r2, [pc, #56]	; (80013b0 <LoopForever+0xe>)
  movs r3, #0
 8001376:	2300      	movs	r3, #0
  b LoopCopyDataInit
 8001378:	e002      	b.n	8001380 <LoopCopyDataInit>

0800137a <CopyDataInit>:

CopyDataInit:
  ldr r4, [r2, r3]
 800137a:	58d4      	ldr	r4, [r2, r3]
  str r4, [r0, r3]
 800137c:	50c4      	str	r4, [r0, r3]
  adds r3, r3, #4
 800137e:	3304      	adds	r3, #4

08001380 <LoopCopyDataInit>:

LoopCopyDataInit:
  adds r4, r0, r3
 8001380:	18c4      	adds	r4, r0, r3
  cmp r4, r1
 8001382:	428c      	cmp	r4, r1
  bcc CopyDataInit
 8001384:	d3f9      	bcc.n	800137a <CopyDataInit>
  
/* Zero fill the bss segment. */
  ldr r2, =_sbss
 8001386:	4a0b      	ldr	r2, [pc, #44]	; (80013b4 <LoopForever+0x12>)
  ldr r4, =_ebss
 8001388:	4c0b      	ldr	r4, [pc, #44]	; (80013b8 <LoopForever+0x16>)
  movs r3, #0
 800138a:	2300      	movs	r3, #0
  b LoopFillZerobss
 800138c:	e001      	b.n	8001392 <LoopFillZerobss>

0800138e <FillZerobss>:

FillZerobss:
  str  r3, [r2]
 800138e:	6013      	str	r3, [r2, #0]
  adds r2, r2, #4
 8001390:	3204      	adds	r2, #4

08001392 <LoopFillZerobss>:

LoopFillZerobss:
  cmp r2, r4
 8001392:	42a2      	cmp	r2, r4
  bcc FillZerobss
 8001394:	d3fb      	bcc.n	800138e <FillZerobss>

/* Call the clock system intitialization function.*/
  bl  SystemInit
 8001396:	f7ff ffe3 	bl	8001360 <SystemInit>
/* Call static constructors */
  bl __libc_init_array
 800139a:	f004 ff79 	bl	8006290 <__libc_init_array>
/* Call the application's entry point.*/
  bl main
 800139e:	f7ff f84d 	bl	800043c <main>

080013a2 <LoopForever>:

LoopForever:
    b LoopForever
 80013a2:	e7fe      	b.n	80013a2 <LoopForever>
  ldr   r0, =_estack
 80013a4:	20001000 	.word	0x20001000
  ldr r0, =_sdata
 80013a8:	20000000 	.word	0x20000000
  ldr r1, =_edata
 80013ac:	20000070 	.word	0x20000070
  ldr r2, =_sidata
 80013b0:	08006c58 	.word	0x08006c58
  ldr r2, =_sbss
 80013b4:	20000070 	.word	0x20000070
  ldr r4, =_ebss
 80013b8:	200002c0 	.word	0x200002c0

080013bc <ADC1_IRQHandler>:
 * @retval : None
*/
    .section .text.Default_Handler,"ax",%progbits
Default_Handler:
Infinite_Loop:
  b Infinite_Loop
 80013bc:	e7fe      	b.n	80013bc <ADC1_IRQHandler>
	...

080013c0 <HAL_Init>:
  *       In the default implementation,Systick is used as source of time base.
  *       The tick variable is incremented each 1ms in its ISR.
  * @retval HAL status
  */
HAL_StatusTypeDef HAL_Init(void)
{
 80013c0:	b580      	push	{r7, lr}
 80013c2:	af00      	add	r7, sp, #0
  /* Configure Flash prefetch */ 
#if (PREFETCH_ENABLE != 0)
  __HAL_FLASH_PREFETCH_BUFFER_ENABLE();
 80013c4:	4b07      	ldr	r3, [pc, #28]	; (80013e4 <HAL_Init+0x24>)
 80013c6:	681a      	ldr	r2, [r3, #0]
 80013c8:	4b06      	ldr	r3, [pc, #24]	; (80013e4 <HAL_Init+0x24>)
 80013ca:	2110      	movs	r1, #16
 80013cc:	430a      	orrs	r2, r1
 80013ce:	601a      	str	r2, [r3, #0]
#endif /* PREFETCH_ENABLE */

  /* Use systick as time base source and configure 1ms tick (default clock after Reset is HSI) */

  HAL_InitTick(TICK_INT_PRIORITY);
 80013d0:	2003      	movs	r0, #3
 80013d2:	f000 f809 	bl	80013e8 <HAL_InitTick>

  /* Init the low level hardware */
  HAL_MspInit();
 80013d6:	f7ff fcd3 	bl	8000d80 <HAL_MspInit>

  /* Return function status */
  return HAL_OK;
 80013da:	2300      	movs	r3, #0
}
 80013dc:	0018      	movs	r0, r3
 80013de:	46bd      	mov	sp, r7
 80013e0:	bd80      	pop	{r7, pc}
 80013e2:	46c0      	nop			; (mov r8, r8)
 80013e4:	40022000 	.word	0x40022000

080013e8 <HAL_InitTick>:
  *       implementation  in user file.
  * @param TickPriority Tick interrupt priority.
  * @retval HAL status
  */
__weak HAL_StatusTypeDef HAL_InitTick(uint32_t TickPriority)
{
 80013e8:	b590      	push	{r4, r7, lr}
 80013ea:	b083      	sub	sp, #12
 80013ec:	af00      	add	r7, sp, #0
 80013ee:	6078      	str	r0, [r7, #4]
  /*Configure the SysTick to have interrupt in 1ms time basis*/
  if (HAL_SYSTICK_Config(SystemCoreClock / (1000U / uwTickFreq)) > 0U)
 80013f0:	4b14      	ldr	r3, [pc, #80]	; (8001444 <HAL_InitTick+0x5c>)
 80013f2:	681c      	ldr	r4, [r3, #0]
 80013f4:	4b14      	ldr	r3, [pc, #80]	; (8001448 <HAL_InitTick+0x60>)
 80013f6:	781b      	ldrb	r3, [r3, #0]
 80013f8:	0019      	movs	r1, r3
 80013fa:	23fa      	movs	r3, #250	; 0xfa
 80013fc:	0098      	lsls	r0, r3, #2
 80013fe:	f7fe fe95 	bl	800012c <__udivsi3>
 8001402:	0003      	movs	r3, r0
 8001404:	0019      	movs	r1, r3
 8001406:	0020      	movs	r0, r4
 8001408:	f7fe fe90 	bl	800012c <__udivsi3>
 800140c:	0003      	movs	r3, r0
 800140e:	0018      	movs	r0, r3
 8001410:	f000 fd1f 	bl	8001e52 <HAL_SYSTICK_Config>
 8001414:	1e03      	subs	r3, r0, #0
 8001416:	d001      	beq.n	800141c <HAL_InitTick+0x34>
  {
    return HAL_ERROR;
 8001418:	2301      	movs	r3, #1
 800141a:	e00f      	b.n	800143c <HAL_InitTick+0x54>
  }

  /* Configure the SysTick IRQ priority */
  if (TickPriority < (1UL << __NVIC_PRIO_BITS))
 800141c:	687b      	ldr	r3, [r7, #4]
 800141e:	2b03      	cmp	r3, #3
 8001420:	d80b      	bhi.n	800143a <HAL_InitTick+0x52>
  {
    HAL_NVIC_SetPriority(SysTick_IRQn, TickPriority, 0U);
 8001422:	6879      	ldr	r1, [r7, #4]
 8001424:	2301      	movs	r3, #1
 8001426:	425b      	negs	r3, r3
 8001428:	2200      	movs	r2, #0
 800142a:	0018      	movs	r0, r3
 800142c:	f000 fcec 	bl	8001e08 <HAL_NVIC_SetPriority>
    uwTickPrio = TickPriority;
 8001430:	4b06      	ldr	r3, [pc, #24]	; (800144c <HAL_InitTick+0x64>)
 8001432:	687a      	ldr	r2, [r7, #4]
 8001434:	601a      	str	r2, [r3, #0]
  {
    return HAL_ERROR;
  }

   /* Return function status */
  return HAL_OK;
 8001436:	2300      	movs	r3, #0
 8001438:	e000      	b.n	800143c <HAL_InitTick+0x54>
    return HAL_ERROR;
 800143a:	2301      	movs	r3, #1
}
 800143c:	0018      	movs	r0, r3
 800143e:	46bd      	mov	sp, r7
 8001440:	b003      	add	sp, #12
 8001442:	bd90      	pop	{r4, r7, pc}
 8001444:	20000000 	.word	0x20000000
 8001448:	20000008 	.word	0x20000008
 800144c:	20000004 	.word	0x20000004

08001450 <HAL_IncTick>:
  * @note This function is declared as __weak to be overwritten in case of other 
  *       implementations in user file.
  * @retval None
  */
__weak void HAL_IncTick(void)
{
 8001450:	b580      	push	{r7, lr}
 8001452:	af00      	add	r7, sp, #0
  uwTick += uwTickFreq;
 8001454:	4b05      	ldr	r3, [pc, #20]	; (800146c <HAL_IncTick+0x1c>)
 8001456:	781b      	ldrb	r3, [r3, #0]
 8001458:	001a      	movs	r2, r3
 800145a:	4b05      	ldr	r3, [pc, #20]	; (8001470 <HAL_IncTick+0x20>)
 800145c:	681b      	ldr	r3, [r3, #0]
 800145e:	18d2      	adds	r2, r2, r3
 8001460:	4b03      	ldr	r3, [pc, #12]	; (8001470 <HAL_IncTick+0x20>)
 8001462:	601a      	str	r2, [r3, #0]
}
 8001464:	46c0      	nop			; (mov r8, r8)
 8001466:	46bd      	mov	sp, r7
 8001468:	bd80      	pop	{r7, pc}
 800146a:	46c0      	nop			; (mov r8, r8)
 800146c:	20000008 	.word	0x20000008
 8001470:	200002ac 	.word	0x200002ac

08001474 <HAL_GetTick>:
  * @note   This function is declared as __weak  to be overwritten  in case of other 
  *       implementations in user file.
  * @retval tick value
  */
__weak uint32_t HAL_GetTick(void)
{
 8001474:	b580      	push	{r7, lr}
 8001476:	af00      	add	r7, sp, #0
  return uwTick;
 8001478:	4b02      	ldr	r3, [pc, #8]	; (8001484 <HAL_GetTick+0x10>)
 800147a:	681b      	ldr	r3, [r3, #0]
}
 800147c:	0018      	movs	r0, r3
 800147e:	46bd      	mov	sp, r7
 8001480:	bd80      	pop	{r7, pc}
 8001482:	46c0      	nop			; (mov r8, r8)
 8001484:	200002ac 	.word	0x200002ac

08001488 <HAL_Delay>:
  *       implementations in user file.
  * @param Delay specifies the delay time length, in milliseconds.
  * @retval None
  */
__weak void HAL_Delay(uint32_t Delay)
{
 8001488:	b580      	push	{r7, lr}
 800148a:	b084      	sub	sp, #16
 800148c:	af00      	add	r7, sp, #0
 800148e:	6078      	str	r0, [r7, #4]
  uint32_t tickstart = HAL_GetTick();
 8001490:	f7ff fff0 	bl	8001474 <HAL_GetTick>
 8001494:	0003      	movs	r3, r0
 8001496:	60bb      	str	r3, [r7, #8]
  uint32_t wait = Delay;
 8001498:	687b      	ldr	r3, [r7, #4]
 800149a:	60fb      	str	r3, [r7, #12]
  
  /* Add a freq to guarantee minimum wait */
  if (wait < HAL_MAX_DELAY)
 800149c:	68fb      	ldr	r3, [r7, #12]
 800149e:	3301      	adds	r3, #1
 80014a0:	d005      	beq.n	80014ae <HAL_Delay+0x26>
  {
    wait += (uint32_t)(uwTickFreq);
 80014a2:	4b0a      	ldr	r3, [pc, #40]	; (80014cc <HAL_Delay+0x44>)
 80014a4:	781b      	ldrb	r3, [r3, #0]
 80014a6:	001a      	movs	r2, r3
 80014a8:	68fb      	ldr	r3, [r7, #12]
 80014aa:	189b      	adds	r3, r3, r2
 80014ac:	60fb      	str	r3, [r7, #12]
  }
  
  while((HAL_GetTick() - tickstart) < wait)
 80014ae:	46c0      	nop			; (mov r8, r8)
 80014b0:	f7ff ffe0 	bl	8001474 <HAL_GetTick>
 80014b4:	0002      	movs	r2, r0
 80014b6:	68bb      	ldr	r3, [r7, #8]
 80014b8:	1ad3      	subs	r3, r2, r3
 80014ba:	68fa      	ldr	r2, [r7, #12]
 80014bc:	429a      	cmp	r2, r3
 80014be:	d8f7      	bhi.n	80014b0 <HAL_Delay+0x28>
  {
  }
}
 80014c0:	46c0      	nop			; (mov r8, r8)
 80014c2:	46c0      	nop			; (mov r8, r8)
 80014c4:	46bd      	mov	sp, r7
 80014c6:	b004      	add	sp, #16
 80014c8:	bd80      	pop	{r7, pc}
 80014ca:	46c0      	nop			; (mov r8, r8)
 80014cc:	20000008 	.word	0x20000008

080014d0 <HAL_ADC_Init>:
  *         of structure "ADC_InitTypeDef".
  * @param  hadc ADC handle
  * @retval HAL status
  */
HAL_StatusTypeDef HAL_ADC_Init(ADC_HandleTypeDef* hadc)
{
 80014d0:	b580      	push	{r7, lr}
 80014d2:	b084      	sub	sp, #16
 80014d4:	af00      	add	r7, sp, #0
 80014d6:	6078      	str	r0, [r7, #4]
  HAL_StatusTypeDef tmp_hal_status = HAL_OK;
 80014d8:	230f      	movs	r3, #15
 80014da:	18fb      	adds	r3, r7, r3
 80014dc:	2200      	movs	r2, #0
 80014de:	701a      	strb	r2, [r3, #0]
  uint32_t tmpCFGR1 = 0U;
 80014e0:	2300      	movs	r3, #0
 80014e2:	60bb      	str	r3, [r7, #8]

  /* Check ADC handle */
  if(hadc == NULL)
 80014e4:	687b      	ldr	r3, [r7, #4]
 80014e6:	2b00      	cmp	r3, #0
 80014e8:	d101      	bne.n	80014ee <HAL_ADC_Init+0x1e>
  {
    return HAL_ERROR;
 80014ea:	2301      	movs	r3, #1
 80014ec:	e125      	b.n	800173a <HAL_ADC_Init+0x26a>
  /* Refer to header of this file for more details on clock enabling procedure*/
  
  /* Actions performed only if ADC is coming from state reset:                */
  /* - Initialization of ADC MSP                                              */
  /* - ADC voltage regulator enable                                           */
  if (hadc->State == HAL_ADC_STATE_RESET)
 80014ee:	687b      	ldr	r3, [r7, #4]
 80014f0:	6b9b      	ldr	r3, [r3, #56]	; 0x38
 80014f2:	2b00      	cmp	r3, #0
 80014f4:	d10a      	bne.n	800150c <HAL_ADC_Init+0x3c>
  {
    /* Initialize ADC error code */
    ADC_CLEAR_ERRORCODE(hadc);
 80014f6:	687b      	ldr	r3, [r7, #4]
 80014f8:	2200      	movs	r2, #0
 80014fa:	63da      	str	r2, [r3, #60]	; 0x3c
    
    /* Allocate lock resource and initialize it */
    hadc->Lock = HAL_UNLOCKED;
 80014fc:	687b      	ldr	r3, [r7, #4]
 80014fe:	2234      	movs	r2, #52	; 0x34
 8001500:	2100      	movs	r1, #0
 8001502:	5499      	strb	r1, [r3, r2]
    
    /* Init the low level hardware */
    hadc->MspInitCallback(hadc);
#else
    /* Init the low level hardware */
    HAL_ADC_MspInit(hadc);
 8001504:	687b      	ldr	r3, [r7, #4]
 8001506:	0018      	movs	r0, r3
 8001508:	f7ff fc5e 	bl	8000dc8 <HAL_ADC_MspInit>
  /* Configuration of ADC parameters if previous preliminary actions are      */ 
  /* correctly completed.                                                     */
  /* and if there is no conversion on going on regular group (ADC can be      */ 
  /* enabled anyway, in case of call of this function to update a parameter   */
  /* on the fly).                                                             */
  if (HAL_IS_BIT_CLR(hadc->State, HAL_ADC_STATE_ERROR_INTERNAL) &&
 800150c:	687b      	ldr	r3, [r7, #4]
 800150e:	6b9b      	ldr	r3, [r3, #56]	; 0x38
 8001510:	2210      	movs	r2, #16
 8001512:	4013      	ands	r3, r2
 8001514:	d000      	beq.n	8001518 <HAL_ADC_Init+0x48>
 8001516:	e103      	b.n	8001720 <HAL_ADC_Init+0x250>
 8001518:	230f      	movs	r3, #15
 800151a:	18fb      	adds	r3, r7, r3
 800151c:	781b      	ldrb	r3, [r3, #0]
 800151e:	2b00      	cmp	r3, #0
 8001520:	d000      	beq.n	8001524 <HAL_ADC_Init+0x54>
 8001522:	e0fd      	b.n	8001720 <HAL_ADC_Init+0x250>
      (tmp_hal_status == HAL_OK)                                &&
      (ADC_IS_CONVERSION_ONGOING_REGULAR(hadc) == RESET)          )
 8001524:	687b      	ldr	r3, [r7, #4]
 8001526:	681b      	ldr	r3, [r3, #0]
 8001528:	689b      	ldr	r3, [r3, #8]
 800152a:	2204      	movs	r2, #4
 800152c:	4013      	ands	r3, r2
      (tmp_hal_status == HAL_OK)                                &&
 800152e:	d000      	beq.n	8001532 <HAL_ADC_Init+0x62>
 8001530:	e0f6      	b.n	8001720 <HAL_ADC_Init+0x250>
  {
    /* Set ADC state */
    ADC_STATE_CLR_SET(hadc->State,
 8001532:	687b      	ldr	r3, [r7, #4]
 8001534:	6b9b      	ldr	r3, [r3, #56]	; 0x38
 8001536:	4a83      	ldr	r2, [pc, #524]	; (8001744 <HAL_ADC_Init+0x274>)
 8001538:	4013      	ands	r3, r2
 800153a:	2202      	movs	r2, #2
 800153c:	431a      	orrs	r2, r3
 800153e:	687b      	ldr	r3, [r7, #4]
 8001540:	639a      	str	r2, [r3, #56]	; 0x38
    /* Parameters update conditioned to ADC state:                            */
    /* Parameters that can be updated only when ADC is disabled:              */
    /*  - ADC clock mode                                                      */
    /*  - ADC clock prescaler                                                 */
    /*  - ADC resolution                                                      */
    if (ADC_IS_ENABLE(hadc) == RESET)
 8001542:	687b      	ldr	r3, [r7, #4]
 8001544:	681b      	ldr	r3, [r3, #0]
 8001546:	689b      	ldr	r3, [r3, #8]
 8001548:	2203      	movs	r2, #3
 800154a:	4013      	ands	r3, r2
 800154c:	2b01      	cmp	r3, #1
 800154e:	d112      	bne.n	8001576 <HAL_ADC_Init+0xa6>
 8001550:	687b      	ldr	r3, [r7, #4]
 8001552:	681b      	ldr	r3, [r3, #0]
 8001554:	681b      	ldr	r3, [r3, #0]
 8001556:	2201      	movs	r2, #1
 8001558:	4013      	ands	r3, r2
 800155a:	2b01      	cmp	r3, #1
 800155c:	d009      	beq.n	8001572 <HAL_ADC_Init+0xa2>
 800155e:	687b      	ldr	r3, [r7, #4]
 8001560:	681b      	ldr	r3, [r3, #0]
 8001562:	68da      	ldr	r2, [r3, #12]
 8001564:	2380      	movs	r3, #128	; 0x80
 8001566:	021b      	lsls	r3, r3, #8
 8001568:	401a      	ands	r2, r3
 800156a:	2380      	movs	r3, #128	; 0x80
 800156c:	021b      	lsls	r3, r3, #8
 800156e:	429a      	cmp	r2, r3
 8001570:	d101      	bne.n	8001576 <HAL_ADC_Init+0xa6>
 8001572:	2301      	movs	r3, #1
 8001574:	e000      	b.n	8001578 <HAL_ADC_Init+0xa8>
 8001576:	2300      	movs	r3, #0
 8001578:	2b00      	cmp	r3, #0
 800157a:	d116      	bne.n	80015aa <HAL_ADC_Init+0xda>
      /* parameters):                                                         */
      /*   - internal measurement paths: Vbat, temperature sensor, Vref       */
      /*     (set into HAL_ADC_ConfigChannel() )                              */
     
      /* Configuration of ADC resolution                                      */
      MODIFY_REG(hadc->Instance->CFGR1,
 800157c:	687b      	ldr	r3, [r7, #4]
 800157e:	681b      	ldr	r3, [r3, #0]
 8001580:	68db      	ldr	r3, [r3, #12]
 8001582:	2218      	movs	r2, #24
 8001584:	4393      	bics	r3, r2
 8001586:	0019      	movs	r1, r3
 8001588:	687b      	ldr	r3, [r7, #4]
 800158a:	689a      	ldr	r2, [r3, #8]
 800158c:	687b      	ldr	r3, [r7, #4]
 800158e:	681b      	ldr	r3, [r3, #0]
 8001590:	430a      	orrs	r2, r1
 8001592:	60da      	str	r2, [r3, #12]
                 ADC_CFGR1_RES        ,
                 hadc->Init.Resolution );
      
      /* Configuration of ADC clock mode: clock source AHB or HSI with        */
      /* selectable prescaler                                                 */
      MODIFY_REG(hadc->Instance->CFGR2    ,
 8001594:	687b      	ldr	r3, [r7, #4]
 8001596:	681b      	ldr	r3, [r3, #0]
 8001598:	691b      	ldr	r3, [r3, #16]
 800159a:	009b      	lsls	r3, r3, #2
 800159c:	0899      	lsrs	r1, r3, #2
 800159e:	687b      	ldr	r3, [r7, #4]
 80015a0:	685a      	ldr	r2, [r3, #4]
 80015a2:	687b      	ldr	r3, [r7, #4]
 80015a4:	681b      	ldr	r3, [r3, #0]
 80015a6:	430a      	orrs	r2, r1
 80015a8:	611a      	str	r2, [r3, #16]
    /*  - external trigger polarity                                           */
    /*  - data alignment                                                      */
    /*  - resolution                                                          */
    /*  - scan direction                                                      */
    /*  - DMA continuous request                                              */
    hadc->Instance->CFGR1 &= ~( ADC_CFGR1_DISCEN  |
 80015aa:	687b      	ldr	r3, [r7, #4]
 80015ac:	681b      	ldr	r3, [r3, #0]
 80015ae:	68da      	ldr	r2, [r3, #12]
 80015b0:	687b      	ldr	r3, [r7, #4]
 80015b2:	681b      	ldr	r3, [r3, #0]
 80015b4:	4964      	ldr	r1, [pc, #400]	; (8001748 <HAL_ADC_Init+0x278>)
 80015b6:	400a      	ands	r2, r1
 80015b8:	60da      	str	r2, [r3, #12]
                                ADC_CFGR1_EXTEN   |
                                ADC_CFGR1_ALIGN   |
                                ADC_CFGR1_SCANDIR |
                                ADC_CFGR1_DMACFG   );

    tmpCFGR1 |= (ADC_CFGR1_AUTOWAIT((uint32_t)hadc->Init.LowPowerAutoWait)        |
 80015ba:	687b      	ldr	r3, [r7, #4]
 80015bc:	7e1b      	ldrb	r3, [r3, #24]
 80015be:	039a      	lsls	r2, r3, #14
                 ADC_CFGR1_AUTOOFF((uint32_t)hadc->Init.LowPowerAutoPowerOff)     |
 80015c0:	687b      	ldr	r3, [r7, #4]
 80015c2:	7e5b      	ldrb	r3, [r3, #25]
 80015c4:	03db      	lsls	r3, r3, #15
    tmpCFGR1 |= (ADC_CFGR1_AUTOWAIT((uint32_t)hadc->Init.LowPowerAutoWait)        |
 80015c6:	431a      	orrs	r2, r3
                 ADC_CFGR1_CONTINUOUS((uint32_t)hadc->Init.ContinuousConvMode)    |
 80015c8:	687b      	ldr	r3, [r7, #4]
 80015ca:	7e9b      	ldrb	r3, [r3, #26]
 80015cc:	035b      	lsls	r3, r3, #13
                 ADC_CFGR1_AUTOOFF((uint32_t)hadc->Init.LowPowerAutoPowerOff)     |
 80015ce:	431a      	orrs	r2, r3
                 ADC_CFGR1_OVERRUN(hadc->Init.Overrun)                            |
 80015d0:	687b      	ldr	r3, [r7, #4]
 80015d2:	6a9b      	ldr	r3, [r3, #40]	; 0x28
 80015d4:	2b01      	cmp	r3, #1
 80015d6:	d002      	beq.n	80015de <HAL_ADC_Init+0x10e>
 80015d8:	2380      	movs	r3, #128	; 0x80
 80015da:	015b      	lsls	r3, r3, #5
 80015dc:	e000      	b.n	80015e0 <HAL_ADC_Init+0x110>
 80015de:	2300      	movs	r3, #0
                 ADC_CFGR1_CONTINUOUS((uint32_t)hadc->Init.ContinuousConvMode)    |
 80015e0:	431a      	orrs	r2, r3
                 hadc->Init.DataAlign                                             |
 80015e2:	687b      	ldr	r3, [r7, #4]
 80015e4:	68db      	ldr	r3, [r3, #12]
                 ADC_CFGR1_OVERRUN(hadc->Init.Overrun)                            |
 80015e6:	431a      	orrs	r2, r3
                 ADC_SCANDIR(hadc->Init.ScanConvMode)                             |
 80015e8:	687b      	ldr	r3, [r7, #4]
 80015ea:	691b      	ldr	r3, [r3, #16]
 80015ec:	2b02      	cmp	r3, #2
 80015ee:	d101      	bne.n	80015f4 <HAL_ADC_Init+0x124>
 80015f0:	2304      	movs	r3, #4
 80015f2:	e000      	b.n	80015f6 <HAL_ADC_Init+0x126>
 80015f4:	2300      	movs	r3, #0
                 hadc->Init.DataAlign                                             |
 80015f6:	431a      	orrs	r2, r3
                 ADC_CFGR1_DMACONTREQ((uint32_t)hadc->Init.DMAContinuousRequests)  );
 80015f8:	687b      	ldr	r3, [r7, #4]
 80015fa:	2124      	movs	r1, #36	; 0x24
 80015fc:	5c5b      	ldrb	r3, [r3, r1]
 80015fe:	005b      	lsls	r3, r3, #1
                 ADC_SCANDIR(hadc->Init.ScanConvMode)                             |
 8001600:	4313      	orrs	r3, r2
    tmpCFGR1 |= (ADC_CFGR1_AUTOWAIT((uint32_t)hadc->Init.LowPowerAutoWait)        |
 8001602:	68ba      	ldr	r2, [r7, #8]
 8001604:	4313      	orrs	r3, r2
 8001606:	60bb      	str	r3, [r7, #8]
    
    /* Enable discontinuous mode only if continuous mode is disabled */
    if (hadc->Init.DiscontinuousConvMode == ENABLE)
 8001608:	687b      	ldr	r3, [r7, #4]
 800160a:	7edb      	ldrb	r3, [r3, #27]
 800160c:	2b01      	cmp	r3, #1
 800160e:	d115      	bne.n	800163c <HAL_ADC_Init+0x16c>
    {
      if (hadc->Init.ContinuousConvMode == DISABLE)
 8001610:	687b      	ldr	r3, [r7, #4]
 8001612:	7e9b      	ldrb	r3, [r3, #26]
 8001614:	2b00      	cmp	r3, #0
 8001616:	d105      	bne.n	8001624 <HAL_ADC_Init+0x154>
      {
        /* Enable the selected ADC group regular discontinuous mode */
        tmpCFGR1 |= ADC_CFGR1_DISCEN;
 8001618:	68bb      	ldr	r3, [r7, #8]
 800161a:	2280      	movs	r2, #128	; 0x80
 800161c:	0252      	lsls	r2, r2, #9
 800161e:	4313      	orrs	r3, r2
 8001620:	60bb      	str	r3, [r7, #8]
 8001622:	e00b      	b.n	800163c <HAL_ADC_Init+0x16c>
        /* ADC regular group discontinuous was intended to be enabled,        */
        /* but ADC regular group modes continuous and sequencer discontinuous */
        /* cannot be enabled simultaneously.                                  */
        
        /* Update ADC state machine to error */
        SET_BIT(hadc->State, HAL_ADC_STATE_ERROR_CONFIG);
 8001624:	687b      	ldr	r3, [r7, #4]
 8001626:	6b9b      	ldr	r3, [r3, #56]	; 0x38
 8001628:	2220      	movs	r2, #32
 800162a:	431a      	orrs	r2, r3
 800162c:	687b      	ldr	r3, [r7, #4]
 800162e:	639a      	str	r2, [r3, #56]	; 0x38
        
        /* Set ADC error code to ADC IP internal error */
        SET_BIT(hadc->ErrorCode, HAL_ADC_ERROR_INTERNAL);
 8001630:	687b      	ldr	r3, [r7, #4]
 8001632:	6bdb      	ldr	r3, [r3, #60]	; 0x3c
 8001634:	2201      	movs	r2, #1
 8001636:	431a      	orrs	r2, r3
 8001638:	687b      	ldr	r3, [r7, #4]
 800163a:	63da      	str	r2, [r3, #60]	; 0x3c
    /* Enable external trigger if trigger selection is different of software  */
    /* start.                                                                 */
    /* Note: This configuration keeps the hardware feature of parameter       */
    /*       ExternalTrigConvEdge "trigger edge none" equivalent to           */
    /*       software start.                                                  */
    if (hadc->Init.ExternalTrigConv != ADC_SOFTWARE_START)
 800163c:	687b      	ldr	r3, [r7, #4]
 800163e:	69da      	ldr	r2, [r3, #28]
 8001640:	23c2      	movs	r3, #194	; 0xc2
 8001642:	33ff      	adds	r3, #255	; 0xff
 8001644:	429a      	cmp	r2, r3
 8001646:	d007      	beq.n	8001658 <HAL_ADC_Init+0x188>
    {
      tmpCFGR1 |= ( hadc->Init.ExternalTrigConv    |
 8001648:	687b      	ldr	r3, [r7, #4]
 800164a:	69da      	ldr	r2, [r3, #28]
                    hadc->Init.ExternalTrigConvEdge );
 800164c:	687b      	ldr	r3, [r7, #4]
 800164e:	6a1b      	ldr	r3, [r3, #32]
      tmpCFGR1 |= ( hadc->Init.ExternalTrigConv    |
 8001650:	4313      	orrs	r3, r2
 8001652:	68ba      	ldr	r2, [r7, #8]
 8001654:	4313      	orrs	r3, r2
 8001656:	60bb      	str	r3, [r7, #8]
    }
    
    /* Update ADC configuration register with previous settings */
    hadc->Instance->CFGR1 |= tmpCFGR1;
 8001658:	687b      	ldr	r3, [r7, #4]
 800165a:	681b      	ldr	r3, [r3, #0]
 800165c:	68d9      	ldr	r1, [r3, #12]
 800165e:	687b      	ldr	r3, [r7, #4]
 8001660:	681b      	ldr	r3, [r3, #0]
 8001662:	68ba      	ldr	r2, [r7, #8]
 8001664:	430a      	orrs	r2, r1
 8001666:	60da      	str	r2, [r3, #12]
    /* Management of parameters "SamplingTimeCommon" and "SamplingTime"       */
    /* (obsolete): sampling time set in this function if parameter            */
    /*  "SamplingTimeCommon" has been set to a valid sampling time.           */
    /* Otherwise, sampling time is set into ADC channel initialization        */
    /* structure with parameter "SamplingTime" (obsolete).                    */
    if (IS_ADC_SAMPLE_TIME(hadc->Init.SamplingTimeCommon))
 8001668:	687b      	ldr	r3, [r7, #4]
 800166a:	6ada      	ldr	r2, [r3, #44]	; 0x2c
 800166c:	2380      	movs	r3, #128	; 0x80
 800166e:	055b      	lsls	r3, r3, #21
 8001670:	429a      	cmp	r2, r3
 8001672:	d01b      	beq.n	80016ac <HAL_ADC_Init+0x1dc>
 8001674:	687b      	ldr	r3, [r7, #4]
 8001676:	6adb      	ldr	r3, [r3, #44]	; 0x2c
 8001678:	2b01      	cmp	r3, #1
 800167a:	d017      	beq.n	80016ac <HAL_ADC_Init+0x1dc>
 800167c:	687b      	ldr	r3, [r7, #4]
 800167e:	6adb      	ldr	r3, [r3, #44]	; 0x2c
 8001680:	2b02      	cmp	r3, #2
 8001682:	d013      	beq.n	80016ac <HAL_ADC_Init+0x1dc>
 8001684:	687b      	ldr	r3, [r7, #4]
 8001686:	6adb      	ldr	r3, [r3, #44]	; 0x2c
 8001688:	2b03      	cmp	r3, #3
 800168a:	d00f      	beq.n	80016ac <HAL_ADC_Init+0x1dc>
 800168c:	687b      	ldr	r3, [r7, #4]
 800168e:	6adb      	ldr	r3, [r3, #44]	; 0x2c
 8001690:	2b04      	cmp	r3, #4
 8001692:	d00b      	beq.n	80016ac <HAL_ADC_Init+0x1dc>
 8001694:	687b      	ldr	r3, [r7, #4]
 8001696:	6adb      	ldr	r3, [r3, #44]	; 0x2c
 8001698:	2b05      	cmp	r3, #5
 800169a:	d007      	beq.n	80016ac <HAL_ADC_Init+0x1dc>
 800169c:	687b      	ldr	r3, [r7, #4]
 800169e:	6adb      	ldr	r3, [r3, #44]	; 0x2c
 80016a0:	2b06      	cmp	r3, #6
 80016a2:	d003      	beq.n	80016ac <HAL_ADC_Init+0x1dc>
 80016a4:	687b      	ldr	r3, [r7, #4]
 80016a6:	6adb      	ldr	r3, [r3, #44]	; 0x2c
 80016a8:	2b07      	cmp	r3, #7
 80016aa:	d112      	bne.n	80016d2 <HAL_ADC_Init+0x202>
    {
      /* Channel sampling time configuration */
      /* Clear the old sample time */
      hadc->Instance->SMPR &= ~(ADC_SMPR_SMP);
 80016ac:	687b      	ldr	r3, [r7, #4]
 80016ae:	681b      	ldr	r3, [r3, #0]
 80016b0:	695a      	ldr	r2, [r3, #20]
 80016b2:	687b      	ldr	r3, [r7, #4]
 80016b4:	681b      	ldr	r3, [r3, #0]
 80016b6:	2107      	movs	r1, #7
 80016b8:	438a      	bics	r2, r1
 80016ba:	615a      	str	r2, [r3, #20]
      
      /* Set the new sample time */
      hadc->Instance->SMPR |= ADC_SMPR_SET(hadc->Init.SamplingTimeCommon);
 80016bc:	687b      	ldr	r3, [r7, #4]
 80016be:	681b      	ldr	r3, [r3, #0]
 80016c0:	6959      	ldr	r1, [r3, #20]
 80016c2:	687b      	ldr	r3, [r7, #4]
 80016c4:	6adb      	ldr	r3, [r3, #44]	; 0x2c
 80016c6:	2207      	movs	r2, #7
 80016c8:	401a      	ands	r2, r3
 80016ca:	687b      	ldr	r3, [r7, #4]
 80016cc:	681b      	ldr	r3, [r3, #0]
 80016ce:	430a      	orrs	r2, r1
 80016d0:	615a      	str	r2, [r3, #20]
    /* Check back that ADC registers have effectively been configured to      */
    /* ensure of no potential problem of ADC core IP clocking.                */
    /* Check through register CFGR1 (excluding analog watchdog configuration: */
    /* set into separate dedicated function, and bits of ADC resolution set   */
    /* out of temporary variable 'tmpCFGR1').                                 */
    if ((hadc->Instance->CFGR1 & ~(ADC_CFGR1_AWDCH | ADC_CFGR1_AWDEN | ADC_CFGR1_AWDSGL | ADC_CFGR1_RES))
 80016d2:	687b      	ldr	r3, [r7, #4]
 80016d4:	681b      	ldr	r3, [r3, #0]
 80016d6:	68db      	ldr	r3, [r3, #12]
 80016d8:	4a1c      	ldr	r2, [pc, #112]	; (800174c <HAL_ADC_Init+0x27c>)
 80016da:	4013      	ands	r3, r2
 80016dc:	68ba      	ldr	r2, [r7, #8]
 80016de:	429a      	cmp	r2, r3
 80016e0:	d10b      	bne.n	80016fa <HAL_ADC_Init+0x22a>
         == tmpCFGR1)
    {
      /* Set ADC error code to none */
      ADC_CLEAR_ERRORCODE(hadc);
 80016e2:	687b      	ldr	r3, [r7, #4]
 80016e4:	2200      	movs	r2, #0
 80016e6:	63da      	str	r2, [r3, #60]	; 0x3c
      
      /* Set the ADC state */
      ADC_STATE_CLR_SET(hadc->State,
 80016e8:	687b      	ldr	r3, [r7, #4]
 80016ea:	6b9b      	ldr	r3, [r3, #56]	; 0x38
 80016ec:	2203      	movs	r2, #3
 80016ee:	4393      	bics	r3, r2
 80016f0:	2201      	movs	r2, #1
 80016f2:	431a      	orrs	r2, r3
 80016f4:	687b      	ldr	r3, [r7, #4]
 80016f6:	639a      	str	r2, [r3, #56]	; 0x38
    if ((hadc->Instance->CFGR1 & ~(ADC_CFGR1_AWDCH | ADC_CFGR1_AWDEN | ADC_CFGR1_AWDSGL | ADC_CFGR1_RES))
 80016f8:	e01c      	b.n	8001734 <HAL_ADC_Init+0x264>
                        HAL_ADC_STATE_READY);
    }
    else
    {
      /* Update ADC state machine to error */
      ADC_STATE_CLR_SET(hadc->State,
 80016fa:	687b      	ldr	r3, [r7, #4]
 80016fc:	6b9b      	ldr	r3, [r3, #56]	; 0x38
 80016fe:	2212      	movs	r2, #18
 8001700:	4393      	bics	r3, r2
 8001702:	2210      	movs	r2, #16
 8001704:	431a      	orrs	r2, r3
 8001706:	687b      	ldr	r3, [r7, #4]
 8001708:	639a      	str	r2, [r3, #56]	; 0x38
                        HAL_ADC_STATE_BUSY_INTERNAL,
                        HAL_ADC_STATE_ERROR_INTERNAL);
      
      /* Set ADC error code to ADC IP internal error */
      SET_BIT(hadc->ErrorCode, HAL_ADC_ERROR_INTERNAL);
 800170a:	687b      	ldr	r3, [r7, #4]
 800170c:	6bdb      	ldr	r3, [r3, #60]	; 0x3c
 800170e:	2201      	movs	r2, #1
 8001710:	431a      	orrs	r2, r3
 8001712:	687b      	ldr	r3, [r7, #4]
 8001714:	63da      	str	r2, [r3, #60]	; 0x3c
      
      tmp_hal_status = HAL_ERROR;
 8001716:	230f      	movs	r3, #15
 8001718:	18fb      	adds	r3, r7, r3
 800171a:	2201      	movs	r2, #1
 800171c:	701a      	strb	r2, [r3, #0]
    if ((hadc->Instance->CFGR1 & ~(ADC_CFGR1_AWDCH | ADC_CFGR1_AWDEN | ADC_CFGR1_AWDSGL | ADC_CFGR1_RES))
 800171e:	e009      	b.n	8001734 <HAL_ADC_Init+0x264>
  
  }
  else
  {
    /* Update ADC state machine to error */
    SET_BIT(hadc->State, HAL_ADC_STATE_ERROR_INTERNAL);
 8001720:	687b      	ldr	r3, [r7, #4]
 8001722:	6b9b      	ldr	r3, [r3, #56]	; 0x38
 8001724:	2210      	movs	r2, #16
 8001726:	431a      	orrs	r2, r3
 8001728:	687b      	ldr	r3, [r7, #4]
 800172a:	639a      	str	r2, [r3, #56]	; 0x38
        
    tmp_hal_status = HAL_ERROR;
 800172c:	230f      	movs	r3, #15
 800172e:	18fb      	adds	r3, r7, r3
 8001730:	2201      	movs	r2, #1
 8001732:	701a      	strb	r2, [r3, #0]
  }
  
  /* Return function status */
  return tmp_hal_status;
 8001734:	230f      	movs	r3, #15
 8001736:	18fb      	adds	r3, r7, r3
 8001738:	781b      	ldrb	r3, [r3, #0]
}
 800173a:	0018      	movs	r0, r3
 800173c:	46bd      	mov	sp, r7
 800173e:	b004      	add	sp, #16
 8001740:	bd80      	pop	{r7, pc}
 8001742:	46c0      	nop			; (mov r8, r8)
 8001744:	fffffefd 	.word	0xfffffefd
 8001748:	fffe0219 	.word	0xfffe0219
 800174c:	833fffe7 	.word	0x833fffe7

08001750 <HAL_ADC_Start_DMA>:
  * @param  pData The destination Buffer address.
  * @param  Length The length of data to be transferred from ADC peripheral to memory.
  * @retval None
  */
HAL_StatusTypeDef HAL_ADC_Start_DMA(ADC_HandleTypeDef* hadc, uint32_t* pData, uint32_t Length)
{
 8001750:	b590      	push	{r4, r7, lr}
 8001752:	b087      	sub	sp, #28
 8001754:	af00      	add	r7, sp, #0
 8001756:	60f8      	str	r0, [r7, #12]
 8001758:	60b9      	str	r1, [r7, #8]
 800175a:	607a      	str	r2, [r7, #4]
  HAL_StatusTypeDef tmp_hal_status = HAL_OK;
 800175c:	2317      	movs	r3, #23
 800175e:	18fb      	adds	r3, r7, r3
 8001760:	2200      	movs	r2, #0
 8001762:	701a      	strb	r2, [r3, #0]
  
  /* Check the parameters */
  assert_param(IS_ADC_ALL_INSTANCE(hadc->Instance));

  /* Perform ADC enable and conversion start if no conversion is on going */
  if (ADC_IS_CONVERSION_ONGOING_REGULAR(hadc) == RESET)
 8001764:	68fb      	ldr	r3, [r7, #12]
 8001766:	681b      	ldr	r3, [r3, #0]
 8001768:	689b      	ldr	r3, [r3, #8]
 800176a:	2204      	movs	r2, #4
 800176c:	4013      	ands	r3, r2
 800176e:	d15e      	bne.n	800182e <HAL_ADC_Start_DMA+0xde>
  {
    /* Process locked */
    __HAL_LOCK(hadc);
 8001770:	68fb      	ldr	r3, [r7, #12]
 8001772:	2234      	movs	r2, #52	; 0x34
 8001774:	5c9b      	ldrb	r3, [r3, r2]
 8001776:	2b01      	cmp	r3, #1
 8001778:	d101      	bne.n	800177e <HAL_ADC_Start_DMA+0x2e>
 800177a:	2302      	movs	r3, #2
 800177c:	e05e      	b.n	800183c <HAL_ADC_Start_DMA+0xec>
 800177e:	68fb      	ldr	r3, [r7, #12]
 8001780:	2234      	movs	r2, #52	; 0x34
 8001782:	2101      	movs	r1, #1
 8001784:	5499      	strb	r1, [r3, r2]

    /* Enable the ADC peripheral */
    /* If low power mode AutoPowerOff is enabled, power-on/off phases are       */
    /* performed automatically by hardware.                                     */
    if (hadc->Init.LowPowerAutoPowerOff != ENABLE)
 8001786:	68fb      	ldr	r3, [r7, #12]
 8001788:	7e5b      	ldrb	r3, [r3, #25]
 800178a:	2b01      	cmp	r3, #1
 800178c:	d007      	beq.n	800179e <HAL_ADC_Start_DMA+0x4e>
    {
      tmp_hal_status = ADC_Enable(hadc);
 800178e:	2317      	movs	r3, #23
 8001790:	18fc      	adds	r4, r7, r3
 8001792:	68fb      	ldr	r3, [r7, #12]
 8001794:	0018      	movs	r0, r3
 8001796:	f000 f983 	bl	8001aa0 <ADC_Enable>
 800179a:	0003      	movs	r3, r0
 800179c:	7023      	strb	r3, [r4, #0]
    }
    
    /* Start conversion if ADC is effectively enabled */
    if (tmp_hal_status == HAL_OK)
 800179e:	2317      	movs	r3, #23
 80017a0:	18fb      	adds	r3, r7, r3
 80017a2:	781b      	ldrb	r3, [r3, #0]
 80017a4:	2b00      	cmp	r3, #0
 80017a6:	d146      	bne.n	8001836 <HAL_ADC_Start_DMA+0xe6>
    {
      /* Set ADC state                                                        */
      /* - Clear state bitfield related to regular group conversion results   */
      /* - Set state bitfield related to regular operation                    */
      ADC_STATE_CLR_SET(hadc->State,
 80017a8:	68fb      	ldr	r3, [r7, #12]
 80017aa:	6b9b      	ldr	r3, [r3, #56]	; 0x38
 80017ac:	4a25      	ldr	r2, [pc, #148]	; (8001844 <HAL_ADC_Start_DMA+0xf4>)
 80017ae:	4013      	ands	r3, r2
 80017b0:	2280      	movs	r2, #128	; 0x80
 80017b2:	0052      	lsls	r2, r2, #1
 80017b4:	431a      	orrs	r2, r3
 80017b6:	68fb      	ldr	r3, [r7, #12]
 80017b8:	639a      	str	r2, [r3, #56]	; 0x38
                        HAL_ADC_STATE_READY | HAL_ADC_STATE_REG_EOC | HAL_ADC_STATE_REG_OVR | HAL_ADC_STATE_REG_EOSMP,
                        HAL_ADC_STATE_REG_BUSY);
      
      /* Reset ADC all error code fields */
      ADC_CLEAR_ERRORCODE(hadc);
 80017ba:	68fb      	ldr	r3, [r7, #12]
 80017bc:	2200      	movs	r2, #0
 80017be:	63da      	str	r2, [r3, #60]	; 0x3c
      
      /* Process unlocked */
      /* Unlock before starting ADC conversions: in case of potential         */
      /* interruption, to let the process to ADC IRQ Handler.                 */
      __HAL_UNLOCK(hadc);
 80017c0:	68fb      	ldr	r3, [r7, #12]
 80017c2:	2234      	movs	r2, #52	; 0x34
 80017c4:	2100      	movs	r1, #0
 80017c6:	5499      	strb	r1, [r3, r2]

      /* Set the DMA transfer complete callback */
      hadc->DMA_Handle->XferCpltCallback = ADC_DMAConvCplt;
 80017c8:	68fb      	ldr	r3, [r7, #12]
 80017ca:	6b1b      	ldr	r3, [r3, #48]	; 0x30
 80017cc:	4a1e      	ldr	r2, [pc, #120]	; (8001848 <HAL_ADC_Start_DMA+0xf8>)
 80017ce:	629a      	str	r2, [r3, #40]	; 0x28

      /* Set the DMA half transfer complete callback */
      hadc->DMA_Handle->XferHalfCpltCallback = ADC_DMAHalfConvCplt;
 80017d0:	68fb      	ldr	r3, [r7, #12]
 80017d2:	6b1b      	ldr	r3, [r3, #48]	; 0x30
 80017d4:	4a1d      	ldr	r2, [pc, #116]	; (800184c <HAL_ADC_Start_DMA+0xfc>)
 80017d6:	62da      	str	r2, [r3, #44]	; 0x2c
      
      /* Set the DMA error callback */
      hadc->DMA_Handle->XferErrorCallback = ADC_DMAError;
 80017d8:	68fb      	ldr	r3, [r7, #12]
 80017da:	6b1b      	ldr	r3, [r3, #48]	; 0x30
 80017dc:	4a1c      	ldr	r2, [pc, #112]	; (8001850 <HAL_ADC_Start_DMA+0x100>)
 80017de:	631a      	str	r2, [r3, #48]	; 0x30
      /* start (in case of SW start):                                         */
      
      /* Clear regular group conversion flag and overrun flag */
      /* (To ensure of no unknown state from potential previous ADC           */
      /* operations)                                                          */
      __HAL_ADC_CLEAR_FLAG(hadc, (ADC_FLAG_EOC | ADC_FLAG_EOS | ADC_FLAG_OVR));
 80017e0:	68fb      	ldr	r3, [r7, #12]
 80017e2:	681b      	ldr	r3, [r3, #0]
 80017e4:	221c      	movs	r2, #28
 80017e6:	601a      	str	r2, [r3, #0]
      
      /* Enable ADC overrun interrupt */
      __HAL_ADC_ENABLE_IT(hadc, ADC_IT_OVR);
 80017e8:	68fb      	ldr	r3, [r7, #12]
 80017ea:	681b      	ldr	r3, [r3, #0]
 80017ec:	685a      	ldr	r2, [r3, #4]
 80017ee:	68fb      	ldr	r3, [r7, #12]
 80017f0:	681b      	ldr	r3, [r3, #0]
 80017f2:	2110      	movs	r1, #16
 80017f4:	430a      	orrs	r2, r1
 80017f6:	605a      	str	r2, [r3, #4]
      
      /* Enable ADC DMA mode */
      hadc->Instance->CFGR1 |= ADC_CFGR1_DMAEN;
 80017f8:	68fb      	ldr	r3, [r7, #12]
 80017fa:	681b      	ldr	r3, [r3, #0]
 80017fc:	68da      	ldr	r2, [r3, #12]
 80017fe:	68fb      	ldr	r3, [r7, #12]
 8001800:	681b      	ldr	r3, [r3, #0]
 8001802:	2101      	movs	r1, #1
 8001804:	430a      	orrs	r2, r1
 8001806:	60da      	str	r2, [r3, #12]
      
      /* Start the DMA channel */
      HAL_DMA_Start_IT(hadc->DMA_Handle, (uint32_t)&hadc->Instance->DR, (uint32_t)pData, Length);
 8001808:	68fb      	ldr	r3, [r7, #12]
 800180a:	6b18      	ldr	r0, [r3, #48]	; 0x30
 800180c:	68fb      	ldr	r3, [r7, #12]
 800180e:	681b      	ldr	r3, [r3, #0]
 8001810:	3340      	adds	r3, #64	; 0x40
 8001812:	0019      	movs	r1, r3
 8001814:	68ba      	ldr	r2, [r7, #8]
 8001816:	687b      	ldr	r3, [r7, #4]
 8001818:	f000 fb70 	bl	8001efc <HAL_DMA_Start_IT>
           
      /* Enable conversion of regular group.                                  */
      /* If software start has been selected, conversion starts immediately.  */
      /* If external trigger has been selected, conversion will start at next */
      /* trigger event.                                                       */
      hadc->Instance->CR |= ADC_CR_ADSTART;
 800181c:	68fb      	ldr	r3, [r7, #12]
 800181e:	681b      	ldr	r3, [r3, #0]
 8001820:	689a      	ldr	r2, [r3, #8]
 8001822:	68fb      	ldr	r3, [r7, #12]
 8001824:	681b      	ldr	r3, [r3, #0]
 8001826:	2104      	movs	r1, #4
 8001828:	430a      	orrs	r2, r1
 800182a:	609a      	str	r2, [r3, #8]
 800182c:	e003      	b.n	8001836 <HAL_ADC_Start_DMA+0xe6>
    }
  }
  else
  {
    tmp_hal_status = HAL_BUSY;
 800182e:	2317      	movs	r3, #23
 8001830:	18fb      	adds	r3, r7, r3
 8001832:	2202      	movs	r2, #2
 8001834:	701a      	strb	r2, [r3, #0]
  }
    
  /* Return function status */
  return tmp_hal_status;
 8001836:	2317      	movs	r3, #23
 8001838:	18fb      	adds	r3, r7, r3
 800183a:	781b      	ldrb	r3, [r3, #0]
}
 800183c:	0018      	movs	r0, r3
 800183e:	46bd      	mov	sp, r7
 8001840:	b007      	add	sp, #28
 8001842:	bd90      	pop	{r4, r7, pc}
 8001844:	fffff0fe 	.word	0xfffff0fe
 8001848:	08001ba9 	.word	0x08001ba9
 800184c:	08001c5d 	.word	0x08001c5d
 8001850:	08001c7b 	.word	0x08001c7b

08001854 <HAL_ADC_ConvCpltCallback>:
  * @brief  Conversion complete callback in non blocking mode 
  * @param  hadc ADC handle
  * @retval None
  */
__weak void HAL_ADC_ConvCpltCallback(ADC_HandleTypeDef* hadc)
{
 8001854:	b580      	push	{r7, lr}
 8001856:	b082      	sub	sp, #8
 8001858:	af00      	add	r7, sp, #0
 800185a:	6078      	str	r0, [r7, #4]
  UNUSED(hadc);

  /* NOTE : This function should not be modified. When the callback is needed,
            function HAL_ADC_ConvCpltCallback must be implemented in the user file.
   */
}
 800185c:	46c0      	nop			; (mov r8, r8)
 800185e:	46bd      	mov	sp, r7
 8001860:	b002      	add	sp, #8
 8001862:	bd80      	pop	{r7, pc}

08001864 <HAL_ADC_ConvHalfCpltCallback>:
  * @brief  Conversion DMA half-transfer callback in non blocking mode 
  * @param  hadc ADC handle
  * @retval None
  */
__weak void HAL_ADC_ConvHalfCpltCallback(ADC_HandleTypeDef* hadc)
{
 8001864:	b580      	push	{r7, lr}
 8001866:	b082      	sub	sp, #8
 8001868:	af00      	add	r7, sp, #0
 800186a:	6078      	str	r0, [r7, #4]
  UNUSED(hadc);

  /* NOTE : This function should not be modified. When the callback is needed,
            function HAL_ADC_ConvHalfCpltCallback must be implemented in the user file.
  */
}
 800186c:	46c0      	nop			; (mov r8, r8)
 800186e:	46bd      	mov	sp, r7
 8001870:	b002      	add	sp, #8
 8001872:	bd80      	pop	{r7, pc}

08001874 <HAL_ADC_ErrorCallback>:
  *        (ADC conversion with interruption or transfer by DMA)
  * @param  hadc ADC handle
  * @retval None
  */
__weak void HAL_ADC_ErrorCallback(ADC_HandleTypeDef *hadc)
{
 8001874:	b580      	push	{r7, lr}
 8001876:	b082      	sub	sp, #8
 8001878:	af00      	add	r7, sp, #0
 800187a:	6078      	str	r0, [r7, #4]
  UNUSED(hadc);

  /* NOTE : This function should not be modified. When the callback is needed,
            function HAL_ADC_ErrorCallback must be implemented in the user file.
  */
}
 800187c:	46c0      	nop			; (mov r8, r8)
 800187e:	46bd      	mov	sp, r7
 8001880:	b002      	add	sp, #8
 8001882:	bd80      	pop	{r7, pc}

08001884 <HAL_ADC_ConfigChannel>:
  * @param  hadc ADC handle
  * @param  sConfig Structure of ADC channel for regular group.
  * @retval HAL status
  */
HAL_StatusTypeDef HAL_ADC_ConfigChannel(ADC_HandleTypeDef* hadc, ADC_ChannelConfTypeDef* sConfig)
{
 8001884:	b580      	push	{r7, lr}
 8001886:	b084      	sub	sp, #16
 8001888:	af00      	add	r7, sp, #0
 800188a:	6078      	str	r0, [r7, #4]
 800188c:	6039      	str	r1, [r7, #0]
  HAL_StatusTypeDef tmp_hal_status = HAL_OK;
 800188e:	230f      	movs	r3, #15
 8001890:	18fb      	adds	r3, r7, r3
 8001892:	2200      	movs	r2, #0
 8001894:	701a      	strb	r2, [r3, #0]
  __IO uint32_t wait_loop_index = 0U;
 8001896:	2300      	movs	r3, #0
 8001898:	60bb      	str	r3, [r7, #8]
  /* Check the parameters */
  assert_param(IS_ADC_ALL_INSTANCE(hadc->Instance));
  assert_param(IS_ADC_CHANNEL(sConfig->Channel));
  assert_param(IS_ADC_RANK(sConfig->Rank));
  
  if (! IS_ADC_SAMPLE_TIME(hadc->Init.SamplingTimeCommon))
 800189a:	687b      	ldr	r3, [r7, #4]
 800189c:	6ada      	ldr	r2, [r3, #44]	; 0x2c
 800189e:	2380      	movs	r3, #128	; 0x80
 80018a0:	055b      	lsls	r3, r3, #21
 80018a2:	429a      	cmp	r2, r3
 80018a4:	d011      	beq.n	80018ca <HAL_ADC_ConfigChannel+0x46>
 80018a6:	687b      	ldr	r3, [r7, #4]
 80018a8:	6adb      	ldr	r3, [r3, #44]	; 0x2c
 80018aa:	2b01      	cmp	r3, #1
 80018ac:	d00d      	beq.n	80018ca <HAL_ADC_ConfigChannel+0x46>
 80018ae:	687b      	ldr	r3, [r7, #4]
 80018b0:	6adb      	ldr	r3, [r3, #44]	; 0x2c
 80018b2:	2b02      	cmp	r3, #2
 80018b4:	d009      	beq.n	80018ca <HAL_ADC_ConfigChannel+0x46>
 80018b6:	687b      	ldr	r3, [r7, #4]
 80018b8:	6adb      	ldr	r3, [r3, #44]	; 0x2c
 80018ba:	2b03      	cmp	r3, #3
 80018bc:	d005      	beq.n	80018ca <HAL_ADC_ConfigChannel+0x46>
 80018be:	687b      	ldr	r3, [r7, #4]
 80018c0:	6adb      	ldr	r3, [r3, #44]	; 0x2c
 80018c2:	2b04      	cmp	r3, #4
 80018c4:	d001      	beq.n	80018ca <HAL_ADC_ConfigChannel+0x46>
 80018c6:	687b      	ldr	r3, [r7, #4]
 80018c8:	6adb      	ldr	r3, [r3, #44]	; 0x2c
  {
    assert_param(IS_ADC_SAMPLE_TIME(sConfig->SamplingTime));
  }
  
  /* Process locked */
  __HAL_LOCK(hadc);
 80018ca:	687b      	ldr	r3, [r7, #4]
 80018cc:	2234      	movs	r2, #52	; 0x34
 80018ce:	5c9b      	ldrb	r3, [r3, r2]
 80018d0:	2b01      	cmp	r3, #1
 80018d2:	d101      	bne.n	80018d8 <HAL_ADC_ConfigChannel+0x54>
 80018d4:	2302      	movs	r3, #2
 80018d6:	e0d0      	b.n	8001a7a <HAL_ADC_ConfigChannel+0x1f6>
 80018d8:	687b      	ldr	r3, [r7, #4]
 80018da:	2234      	movs	r2, #52	; 0x34
 80018dc:	2101      	movs	r1, #1
 80018de:	5499      	strb	r1, [r3, r2]
  /* Parameters that can be updated when ADC is disabled or enabled without   */
  /* conversion on going on regular group:                                    */
  /*  - Channel number                                                        */
  /*  - Channel sampling time                                                 */
  /*  - Management of internal measurement channels: VrefInt/TempSensor/Vbat  */
  if (ADC_IS_CONVERSION_ONGOING_REGULAR(hadc) == RESET)
 80018e0:	687b      	ldr	r3, [r7, #4]
 80018e2:	681b      	ldr	r3, [r3, #0]
 80018e4:	689b      	ldr	r3, [r3, #8]
 80018e6:	2204      	movs	r2, #4
 80018e8:	4013      	ands	r3, r2
 80018ea:	d000      	beq.n	80018ee <HAL_ADC_ConfigChannel+0x6a>
 80018ec:	e0b4      	b.n	8001a58 <HAL_ADC_ConfigChannel+0x1d4>
  {
    /* Configure channel: depending on rank setting, add it or remove it from */
    /* ADC conversion sequencer.                                              */
    if (sConfig->Rank != ADC_RANK_NONE)
 80018ee:	683b      	ldr	r3, [r7, #0]
 80018f0:	685b      	ldr	r3, [r3, #4]
 80018f2:	4a64      	ldr	r2, [pc, #400]	; (8001a84 <HAL_ADC_ConfigChannel+0x200>)
 80018f4:	4293      	cmp	r3, r2
 80018f6:	d100      	bne.n	80018fa <HAL_ADC_ConfigChannel+0x76>
 80018f8:	e082      	b.n	8001a00 <HAL_ADC_ConfigChannel+0x17c>
    {
      /* Regular sequence configuration */
      /* Set the channel selection register from the selected channel */
      hadc->Instance->CHSELR |= ADC_CHSELR_CHANNEL(sConfig->Channel);
 80018fa:	687b      	ldr	r3, [r7, #4]
 80018fc:	681b      	ldr	r3, [r3, #0]
 80018fe:	6a99      	ldr	r1, [r3, #40]	; 0x28
 8001900:	683b      	ldr	r3, [r7, #0]
 8001902:	681b      	ldr	r3, [r3, #0]
 8001904:	2201      	movs	r2, #1
 8001906:	409a      	lsls	r2, r3
 8001908:	687b      	ldr	r3, [r7, #4]
 800190a:	681b      	ldr	r3, [r3, #0]
 800190c:	430a      	orrs	r2, r1
 800190e:	629a      	str	r2, [r3, #40]	; 0x28
      /* Channel sampling time configuration */
      /* Management of parameters "SamplingTimeCommon" and "SamplingTime"     */
      /* (obsolete): sampling time set in this function with                  */
      /* parameter "SamplingTime" (obsolete) only if not already set into     */
      /* ADC initialization structure with parameter "SamplingTimeCommon".    */
      if (! IS_ADC_SAMPLE_TIME(hadc->Init.SamplingTimeCommon))
 8001910:	687b      	ldr	r3, [r7, #4]
 8001912:	6ada      	ldr	r2, [r3, #44]	; 0x2c
 8001914:	2380      	movs	r3, #128	; 0x80
 8001916:	055b      	lsls	r3, r3, #21
 8001918:	429a      	cmp	r2, r3
 800191a:	d037      	beq.n	800198c <HAL_ADC_ConfigChannel+0x108>
 800191c:	687b      	ldr	r3, [r7, #4]
 800191e:	6adb      	ldr	r3, [r3, #44]	; 0x2c
 8001920:	2b01      	cmp	r3, #1
 8001922:	d033      	beq.n	800198c <HAL_ADC_ConfigChannel+0x108>
 8001924:	687b      	ldr	r3, [r7, #4]
 8001926:	6adb      	ldr	r3, [r3, #44]	; 0x2c
 8001928:	2b02      	cmp	r3, #2
 800192a:	d02f      	beq.n	800198c <HAL_ADC_ConfigChannel+0x108>
 800192c:	687b      	ldr	r3, [r7, #4]
 800192e:	6adb      	ldr	r3, [r3, #44]	; 0x2c
 8001930:	2b03      	cmp	r3, #3
 8001932:	d02b      	beq.n	800198c <HAL_ADC_ConfigChannel+0x108>
 8001934:	687b      	ldr	r3, [r7, #4]
 8001936:	6adb      	ldr	r3, [r3, #44]	; 0x2c
 8001938:	2b04      	cmp	r3, #4
 800193a:	d027      	beq.n	800198c <HAL_ADC_ConfigChannel+0x108>
 800193c:	687b      	ldr	r3, [r7, #4]
 800193e:	6adb      	ldr	r3, [r3, #44]	; 0x2c
 8001940:	2b05      	cmp	r3, #5
 8001942:	d023      	beq.n	800198c <HAL_ADC_ConfigChannel+0x108>
 8001944:	687b      	ldr	r3, [r7, #4]
 8001946:	6adb      	ldr	r3, [r3, #44]	; 0x2c
 8001948:	2b06      	cmp	r3, #6
 800194a:	d01f      	beq.n	800198c <HAL_ADC_ConfigChannel+0x108>
 800194c:	687b      	ldr	r3, [r7, #4]
 800194e:	6adb      	ldr	r3, [r3, #44]	; 0x2c
 8001950:	2b07      	cmp	r3, #7
 8001952:	d01b      	beq.n	800198c <HAL_ADC_ConfigChannel+0x108>
      {
        /* Modify sampling time if needed (not needed in case of reoccurrence */
        /* for several channels programmed consecutively into the sequencer)  */
        if (sConfig->SamplingTime != ADC_GET_SAMPLINGTIME(hadc))
 8001954:	683b      	ldr	r3, [r7, #0]
 8001956:	689a      	ldr	r2, [r3, #8]
 8001958:	687b      	ldr	r3, [r7, #4]
 800195a:	681b      	ldr	r3, [r3, #0]
 800195c:	695b      	ldr	r3, [r3, #20]
 800195e:	2107      	movs	r1, #7
 8001960:	400b      	ands	r3, r1
 8001962:	429a      	cmp	r2, r3
 8001964:	d012      	beq.n	800198c <HAL_ADC_ConfigChannel+0x108>
        {
          /* Channel sampling time configuration */
          /* Clear the old sample time */
          hadc->Instance->SMPR &= ~(ADC_SMPR_SMP);
 8001966:	687b      	ldr	r3, [r7, #4]
 8001968:	681b      	ldr	r3, [r3, #0]
 800196a:	695a      	ldr	r2, [r3, #20]
 800196c:	687b      	ldr	r3, [r7, #4]
 800196e:	681b      	ldr	r3, [r3, #0]
 8001970:	2107      	movs	r1, #7
 8001972:	438a      	bics	r2, r1
 8001974:	615a      	str	r2, [r3, #20]
          
          /* Set the new sample time */
          hadc->Instance->SMPR |= ADC_SMPR_SET(sConfig->SamplingTime);
 8001976:	687b      	ldr	r3, [r7, #4]
 8001978:	681b      	ldr	r3, [r3, #0]
 800197a:	6959      	ldr	r1, [r3, #20]
 800197c:	683b      	ldr	r3, [r7, #0]
 800197e:	689b      	ldr	r3, [r3, #8]
 8001980:	2207      	movs	r2, #7
 8001982:	401a      	ands	r2, r3
 8001984:	687b      	ldr	r3, [r7, #4]
 8001986:	681b      	ldr	r3, [r3, #0]
 8001988:	430a      	orrs	r2, r1
 800198a:	615a      	str	r2, [r3, #20]
      /* internal measurement paths enable: If internal channel selected,     */
      /* enable dedicated internal buffers and path.                          */
      /* Note: these internal measurement paths can be disabled using         */
      /*       HAL_ADC_DeInit() or removing the channel from sequencer with   */
      /*       channel configuration parameter "Rank".                        */
      if(ADC_IS_CHANNEL_INTERNAL(sConfig->Channel))
 800198c:	683b      	ldr	r3, [r7, #0]
 800198e:	681b      	ldr	r3, [r3, #0]
 8001990:	2b10      	cmp	r3, #16
 8001992:	d007      	beq.n	80019a4 <HAL_ADC_ConfigChannel+0x120>
 8001994:	683b      	ldr	r3, [r7, #0]
 8001996:	681b      	ldr	r3, [r3, #0]
 8001998:	2b11      	cmp	r3, #17
 800199a:	d003      	beq.n	80019a4 <HAL_ADC_ConfigChannel+0x120>
 800199c:	683b      	ldr	r3, [r7, #0]
 800199e:	681b      	ldr	r3, [r3, #0]
 80019a0:	2b12      	cmp	r3, #18
 80019a2:	d163      	bne.n	8001a6c <HAL_ADC_ConfigChannel+0x1e8>
      {
        /* If Channel_16 is selected, enable Temp. sensor measurement path. */
        /* If Channel_17 is selected, enable VREFINT measurement path. */
        /* If Channel_18 is selected, enable VBAT measurement path. */
        ADC->CCR |= ADC_CHANNEL_INTERNAL_PATH(sConfig->Channel);
 80019a4:	4b38      	ldr	r3, [pc, #224]	; (8001a88 <HAL_ADC_ConfigChannel+0x204>)
 80019a6:	6819      	ldr	r1, [r3, #0]
 80019a8:	683b      	ldr	r3, [r7, #0]
 80019aa:	681b      	ldr	r3, [r3, #0]
 80019ac:	2b10      	cmp	r3, #16
 80019ae:	d009      	beq.n	80019c4 <HAL_ADC_ConfigChannel+0x140>
 80019b0:	683b      	ldr	r3, [r7, #0]
 80019b2:	681b      	ldr	r3, [r3, #0]
 80019b4:	2b11      	cmp	r3, #17
 80019b6:	d102      	bne.n	80019be <HAL_ADC_ConfigChannel+0x13a>
 80019b8:	2380      	movs	r3, #128	; 0x80
 80019ba:	03db      	lsls	r3, r3, #15
 80019bc:	e004      	b.n	80019c8 <HAL_ADC_ConfigChannel+0x144>
 80019be:	2380      	movs	r3, #128	; 0x80
 80019c0:	045b      	lsls	r3, r3, #17
 80019c2:	e001      	b.n	80019c8 <HAL_ADC_ConfigChannel+0x144>
 80019c4:	2380      	movs	r3, #128	; 0x80
 80019c6:	041b      	lsls	r3, r3, #16
 80019c8:	4a2f      	ldr	r2, [pc, #188]	; (8001a88 <HAL_ADC_ConfigChannel+0x204>)
 80019ca:	430b      	orrs	r3, r1
 80019cc:	6013      	str	r3, [r2, #0]
        
        /* If Temp. sensor is selected, wait for stabilization delay */
        if (sConfig->Channel == ADC_CHANNEL_TEMPSENSOR)
 80019ce:	683b      	ldr	r3, [r7, #0]
 80019d0:	681b      	ldr	r3, [r3, #0]
 80019d2:	2b10      	cmp	r3, #16
 80019d4:	d14a      	bne.n	8001a6c <HAL_ADC_ConfigChannel+0x1e8>
        {
          /* Delay for temperature sensor stabilization time */
          /* Compute number of CPU cycles to wait for */
          wait_loop_index = (ADC_TEMPSENSOR_DELAY_US * (SystemCoreClock / 1000000U));
 80019d6:	4b2d      	ldr	r3, [pc, #180]	; (8001a8c <HAL_ADC_ConfigChannel+0x208>)
 80019d8:	681b      	ldr	r3, [r3, #0]
 80019da:	492d      	ldr	r1, [pc, #180]	; (8001a90 <HAL_ADC_ConfigChannel+0x20c>)
 80019dc:	0018      	movs	r0, r3
 80019de:	f7fe fba5 	bl	800012c <__udivsi3>
 80019e2:	0003      	movs	r3, r0
 80019e4:	001a      	movs	r2, r3
 80019e6:	0013      	movs	r3, r2
 80019e8:	009b      	lsls	r3, r3, #2
 80019ea:	189b      	adds	r3, r3, r2
 80019ec:	005b      	lsls	r3, r3, #1
 80019ee:	60bb      	str	r3, [r7, #8]
          while(wait_loop_index != 0U)
 80019f0:	e002      	b.n	80019f8 <HAL_ADC_ConfigChannel+0x174>
          {
            wait_loop_index--;
 80019f2:	68bb      	ldr	r3, [r7, #8]
 80019f4:	3b01      	subs	r3, #1
 80019f6:	60bb      	str	r3, [r7, #8]
          while(wait_loop_index != 0U)
 80019f8:	68bb      	ldr	r3, [r7, #8]
 80019fa:	2b00      	cmp	r3, #0
 80019fc:	d1f9      	bne.n	80019f2 <HAL_ADC_ConfigChannel+0x16e>
 80019fe:	e035      	b.n	8001a6c <HAL_ADC_ConfigChannel+0x1e8>
    }
    else
    {
      /* Regular sequence configuration */
      /* Reset the channel selection register from the selected channel */
      hadc->Instance->CHSELR &= ~ADC_CHSELR_CHANNEL(sConfig->Channel);
 8001a00:	687b      	ldr	r3, [r7, #4]
 8001a02:	681b      	ldr	r3, [r3, #0]
 8001a04:	6a9a      	ldr	r2, [r3, #40]	; 0x28
 8001a06:	683b      	ldr	r3, [r7, #0]
 8001a08:	681b      	ldr	r3, [r3, #0]
 8001a0a:	2101      	movs	r1, #1
 8001a0c:	4099      	lsls	r1, r3
 8001a0e:	000b      	movs	r3, r1
 8001a10:	43d9      	mvns	r1, r3
 8001a12:	687b      	ldr	r3, [r7, #4]
 8001a14:	681b      	ldr	r3, [r3, #0]
 8001a16:	400a      	ands	r2, r1
 8001a18:	629a      	str	r2, [r3, #40]	; 0x28
      
      /* Management of internal measurement channels: VrefInt/TempSensor/Vbat */
      /* internal measurement paths disable: If internal channel selected,    */
      /* disable dedicated internal buffers and path.                         */
      if(ADC_IS_CHANNEL_INTERNAL(sConfig->Channel))
 8001a1a:	683b      	ldr	r3, [r7, #0]
 8001a1c:	681b      	ldr	r3, [r3, #0]
 8001a1e:	2b10      	cmp	r3, #16
 8001a20:	d007      	beq.n	8001a32 <HAL_ADC_ConfigChannel+0x1ae>
 8001a22:	683b      	ldr	r3, [r7, #0]
 8001a24:	681b      	ldr	r3, [r3, #0]
 8001a26:	2b11      	cmp	r3, #17
 8001a28:	d003      	beq.n	8001a32 <HAL_ADC_ConfigChannel+0x1ae>
 8001a2a:	683b      	ldr	r3, [r7, #0]
 8001a2c:	681b      	ldr	r3, [r3, #0]
 8001a2e:	2b12      	cmp	r3, #18
 8001a30:	d11c      	bne.n	8001a6c <HAL_ADC_ConfigChannel+0x1e8>
      {
        /* If Channel_16 is selected, disable Temp. sensor measurement path. */
        /* If Channel_17 is selected, disable VREFINT measurement path. */
        /* If Channel_18 is selected, disable VBAT measurement path. */
        ADC->CCR &= ~ADC_CHANNEL_INTERNAL_PATH(sConfig->Channel);
 8001a32:	4b15      	ldr	r3, [pc, #84]	; (8001a88 <HAL_ADC_ConfigChannel+0x204>)
 8001a34:	6819      	ldr	r1, [r3, #0]
 8001a36:	683b      	ldr	r3, [r7, #0]
 8001a38:	681b      	ldr	r3, [r3, #0]
 8001a3a:	2b10      	cmp	r3, #16
 8001a3c:	d007      	beq.n	8001a4e <HAL_ADC_ConfigChannel+0x1ca>
 8001a3e:	683b      	ldr	r3, [r7, #0]
 8001a40:	681b      	ldr	r3, [r3, #0]
 8001a42:	2b11      	cmp	r3, #17
 8001a44:	d101      	bne.n	8001a4a <HAL_ADC_ConfigChannel+0x1c6>
 8001a46:	4b13      	ldr	r3, [pc, #76]	; (8001a94 <HAL_ADC_ConfigChannel+0x210>)
 8001a48:	e002      	b.n	8001a50 <HAL_ADC_ConfigChannel+0x1cc>
 8001a4a:	4b13      	ldr	r3, [pc, #76]	; (8001a98 <HAL_ADC_ConfigChannel+0x214>)
 8001a4c:	e000      	b.n	8001a50 <HAL_ADC_ConfigChannel+0x1cc>
 8001a4e:	4b13      	ldr	r3, [pc, #76]	; (8001a9c <HAL_ADC_ConfigChannel+0x218>)
 8001a50:	4a0d      	ldr	r2, [pc, #52]	; (8001a88 <HAL_ADC_ConfigChannel+0x204>)
 8001a52:	400b      	ands	r3, r1
 8001a54:	6013      	str	r3, [r2, #0]
 8001a56:	e009      	b.n	8001a6c <HAL_ADC_ConfigChannel+0x1e8>
  /* channel could be done on neither of the channel configuration structure  */
  /* parameters.                                                              */
  else
  {
    /* Update ADC state machine to error */
    SET_BIT(hadc->State, HAL_ADC_STATE_ERROR_CONFIG);
 8001a58:	687b      	ldr	r3, [r7, #4]
 8001a5a:	6b9b      	ldr	r3, [r3, #56]	; 0x38
 8001a5c:	2220      	movs	r2, #32
 8001a5e:	431a      	orrs	r2, r3
 8001a60:	687b      	ldr	r3, [r7, #4]
 8001a62:	639a      	str	r2, [r3, #56]	; 0x38
    
    tmp_hal_status = HAL_ERROR;
 8001a64:	230f      	movs	r3, #15
 8001a66:	18fb      	adds	r3, r7, r3
 8001a68:	2201      	movs	r2, #1
 8001a6a:	701a      	strb	r2, [r3, #0]
  }
  
  /* Process unlocked */
  __HAL_UNLOCK(hadc);
 8001a6c:	687b      	ldr	r3, [r7, #4]
 8001a6e:	2234      	movs	r2, #52	; 0x34
 8001a70:	2100      	movs	r1, #0
 8001a72:	5499      	strb	r1, [r3, r2]
  
  /* Return function status */
  return tmp_hal_status;
 8001a74:	230f      	movs	r3, #15
 8001a76:	18fb      	adds	r3, r7, r3
 8001a78:	781b      	ldrb	r3, [r3, #0]
}
 8001a7a:	0018      	movs	r0, r3
 8001a7c:	46bd      	mov	sp, r7
 8001a7e:	b004      	add	sp, #16
 8001a80:	bd80      	pop	{r7, pc}
 8001a82:	46c0      	nop			; (mov r8, r8)
 8001a84:	00001001 	.word	0x00001001
 8001a88:	40012708 	.word	0x40012708
 8001a8c:	20000000 	.word	0x20000000
 8001a90:	000f4240 	.word	0x000f4240
 8001a94:	ffbfffff 	.word	0xffbfffff
 8001a98:	feffffff 	.word	0xfeffffff
 8001a9c:	ff7fffff 	.word	0xff7fffff

08001aa0 <ADC_Enable>:
  *         "if (hadc->Init.LowPowerAutoPowerOff != ENABLE)".
  * @param  hadc ADC handle
  * @retval HAL status.
  */
static HAL_StatusTypeDef ADC_Enable(ADC_HandleTypeDef* hadc)
{
 8001aa0:	b580      	push	{r7, lr}
 8001aa2:	b084      	sub	sp, #16
 8001aa4:	af00      	add	r7, sp, #0
 8001aa6:	6078      	str	r0, [r7, #4]
  uint32_t tickstart = 0U;
 8001aa8:	2300      	movs	r3, #0
 8001aaa:	60fb      	str	r3, [r7, #12]
  __IO uint32_t wait_loop_index = 0U;
 8001aac:	2300      	movs	r3, #0
 8001aae:	60bb      	str	r3, [r7, #8]
  
  /* ADC enable and wait for ADC ready (in case of ADC is disabled or         */
  /* enabling phase not yet completed: flag ADC ready not yet set).           */
  /* Timeout implemented to not be stuck if ADC cannot be enabled (possible   */
  /* causes: ADC clock not running, ...).                                     */
  if (ADC_IS_ENABLE(hadc) == RESET)
 8001ab0:	687b      	ldr	r3, [r7, #4]
 8001ab2:	681b      	ldr	r3, [r3, #0]
 8001ab4:	689b      	ldr	r3, [r3, #8]
 8001ab6:	2203      	movs	r2, #3
 8001ab8:	4013      	ands	r3, r2
 8001aba:	2b01      	cmp	r3, #1
 8001abc:	d112      	bne.n	8001ae4 <ADC_Enable+0x44>
 8001abe:	687b      	ldr	r3, [r7, #4]
 8001ac0:	681b      	ldr	r3, [r3, #0]
 8001ac2:	681b      	ldr	r3, [r3, #0]
 8001ac4:	2201      	movs	r2, #1
 8001ac6:	4013      	ands	r3, r2
 8001ac8:	2b01      	cmp	r3, #1
 8001aca:	d009      	beq.n	8001ae0 <ADC_Enable+0x40>
 8001acc:	687b      	ldr	r3, [r7, #4]
 8001ace:	681b      	ldr	r3, [r3, #0]
 8001ad0:	68da      	ldr	r2, [r3, #12]
 8001ad2:	2380      	movs	r3, #128	; 0x80
 8001ad4:	021b      	lsls	r3, r3, #8
 8001ad6:	401a      	ands	r2, r3
 8001ad8:	2380      	movs	r3, #128	; 0x80
 8001ada:	021b      	lsls	r3, r3, #8
 8001adc:	429a      	cmp	r2, r3
 8001ade:	d101      	bne.n	8001ae4 <ADC_Enable+0x44>
 8001ae0:	2301      	movs	r3, #1
 8001ae2:	e000      	b.n	8001ae6 <ADC_Enable+0x46>
 8001ae4:	2300      	movs	r3, #0
 8001ae6:	2b00      	cmp	r3, #0
 8001ae8:	d152      	bne.n	8001b90 <ADC_Enable+0xf0>
  {
    /* Check if conditions to enable the ADC are fulfilled */
    if (ADC_ENABLING_CONDITIONS(hadc) == RESET)
 8001aea:	687b      	ldr	r3, [r7, #4]
 8001aec:	681b      	ldr	r3, [r3, #0]
 8001aee:	689b      	ldr	r3, [r3, #8]
 8001af0:	4a2a      	ldr	r2, [pc, #168]	; (8001b9c <ADC_Enable+0xfc>)
 8001af2:	4013      	ands	r3, r2
 8001af4:	d00d      	beq.n	8001b12 <ADC_Enable+0x72>
    {
      /* Update ADC state machine to error */
      SET_BIT(hadc->State, HAL_ADC_STATE_ERROR_INTERNAL);
 8001af6:	687b      	ldr	r3, [r7, #4]
 8001af8:	6b9b      	ldr	r3, [r3, #56]	; 0x38
 8001afa:	2210      	movs	r2, #16
 8001afc:	431a      	orrs	r2, r3
 8001afe:	687b      	ldr	r3, [r7, #4]
 8001b00:	639a      	str	r2, [r3, #56]	; 0x38
    
      /* Set ADC error code to ADC IP internal error */
      SET_BIT(hadc->ErrorCode, HAL_ADC_ERROR_INTERNAL);
 8001b02:	687b      	ldr	r3, [r7, #4]
 8001b04:	6bdb      	ldr	r3, [r3, #60]	; 0x3c
 8001b06:	2201      	movs	r2, #1
 8001b08:	431a      	orrs	r2, r3
 8001b0a:	687b      	ldr	r3, [r7, #4]
 8001b0c:	63da      	str	r2, [r3, #60]	; 0x3c
      
      return HAL_ERROR;
 8001b0e:	2301      	movs	r3, #1
 8001b10:	e03f      	b.n	8001b92 <ADC_Enable+0xf2>
    }
    
    /* Enable the ADC peripheral */
    __HAL_ADC_ENABLE(hadc);
 8001b12:	687b      	ldr	r3, [r7, #4]
 8001b14:	681b      	ldr	r3, [r3, #0]
 8001b16:	689a      	ldr	r2, [r3, #8]
 8001b18:	687b      	ldr	r3, [r7, #4]
 8001b1a:	681b      	ldr	r3, [r3, #0]
 8001b1c:	2101      	movs	r1, #1
 8001b1e:	430a      	orrs	r2, r1
 8001b20:	609a      	str	r2, [r3, #8]
    
    /* Delay for ADC stabilization time */
    /* Compute number of CPU cycles to wait for */
    wait_loop_index = (ADC_STAB_DELAY_US * (SystemCoreClock / 1000000U));
 8001b22:	4b1f      	ldr	r3, [pc, #124]	; (8001ba0 <ADC_Enable+0x100>)
 8001b24:	681b      	ldr	r3, [r3, #0]
 8001b26:	491f      	ldr	r1, [pc, #124]	; (8001ba4 <ADC_Enable+0x104>)
 8001b28:	0018      	movs	r0, r3
 8001b2a:	f7fe faff 	bl	800012c <__udivsi3>
 8001b2e:	0003      	movs	r3, r0
 8001b30:	60bb      	str	r3, [r7, #8]
    while(wait_loop_index != 0U)
 8001b32:	e002      	b.n	8001b3a <ADC_Enable+0x9a>
    {
      wait_loop_index--;
 8001b34:	68bb      	ldr	r3, [r7, #8]
 8001b36:	3b01      	subs	r3, #1
 8001b38:	60bb      	str	r3, [r7, #8]
    while(wait_loop_index != 0U)
 8001b3a:	68bb      	ldr	r3, [r7, #8]
 8001b3c:	2b00      	cmp	r3, #0
 8001b3e:	d1f9      	bne.n	8001b34 <ADC_Enable+0x94>
    }

    /* Get tick count */
    tickstart = HAL_GetTick();
 8001b40:	f7ff fc98 	bl	8001474 <HAL_GetTick>
 8001b44:	0003      	movs	r3, r0
 8001b46:	60fb      	str	r3, [r7, #12]
    
    /* Wait for ADC effectively enabled */
    while(__HAL_ADC_GET_FLAG(hadc, ADC_FLAG_RDY) == RESET)
 8001b48:	e01b      	b.n	8001b82 <ADC_Enable+0xe2>
    {
      if((HAL_GetTick() - tickstart) > ADC_ENABLE_TIMEOUT)
 8001b4a:	f7ff fc93 	bl	8001474 <HAL_GetTick>
 8001b4e:	0002      	movs	r2, r0
 8001b50:	68fb      	ldr	r3, [r7, #12]
 8001b52:	1ad3      	subs	r3, r2, r3
 8001b54:	2b02      	cmp	r3, #2
 8001b56:	d914      	bls.n	8001b82 <ADC_Enable+0xe2>
      {
        /* New check to avoid false timeout detection in case of preemption */
        if(__HAL_ADC_GET_FLAG(hadc, ADC_FLAG_RDY) == RESET)
 8001b58:	687b      	ldr	r3, [r7, #4]
 8001b5a:	681b      	ldr	r3, [r3, #0]
 8001b5c:	681b      	ldr	r3, [r3, #0]
 8001b5e:	2201      	movs	r2, #1
 8001b60:	4013      	ands	r3, r2
 8001b62:	2b01      	cmp	r3, #1
 8001b64:	d00d      	beq.n	8001b82 <ADC_Enable+0xe2>
        {
          /* Update ADC state machine to error */
          SET_BIT(hadc->State, HAL_ADC_STATE_ERROR_INTERNAL);
 8001b66:	687b      	ldr	r3, [r7, #4]
 8001b68:	6b9b      	ldr	r3, [r3, #56]	; 0x38
 8001b6a:	2210      	movs	r2, #16
 8001b6c:	431a      	orrs	r2, r3
 8001b6e:	687b      	ldr	r3, [r7, #4]
 8001b70:	639a      	str	r2, [r3, #56]	; 0x38

          /* Set ADC error code to ADC IP internal error */
          SET_BIT(hadc->ErrorCode, HAL_ADC_ERROR_INTERNAL);
 8001b72:	687b      	ldr	r3, [r7, #4]
 8001b74:	6bdb      	ldr	r3, [r3, #60]	; 0x3c
 8001b76:	2201      	movs	r2, #1
 8001b78:	431a      	orrs	r2, r3
 8001b7a:	687b      	ldr	r3, [r7, #4]
 8001b7c:	63da      	str	r2, [r3, #60]	; 0x3c

          return HAL_ERROR;
 8001b7e:	2301      	movs	r3, #1
 8001b80:	e007      	b.n	8001b92 <ADC_Enable+0xf2>
    while(__HAL_ADC_GET_FLAG(hadc, ADC_FLAG_RDY) == RESET)
 8001b82:	687b      	ldr	r3, [r7, #4]
 8001b84:	681b      	ldr	r3, [r3, #0]
 8001b86:	681b      	ldr	r3, [r3, #0]
 8001b88:	2201      	movs	r2, #1
 8001b8a:	4013      	ands	r3, r2
 8001b8c:	2b01      	cmp	r3, #1
 8001b8e:	d1dc      	bne.n	8001b4a <ADC_Enable+0xaa>
      }
    }
  }
   
  /* Return HAL status */
  return HAL_OK;
 8001b90:	2300      	movs	r3, #0
}
 8001b92:	0018      	movs	r0, r3
 8001b94:	46bd      	mov	sp, r7
 8001b96:	b004      	add	sp, #16
 8001b98:	bd80      	pop	{r7, pc}
 8001b9a:	46c0      	nop			; (mov r8, r8)
 8001b9c:	80000017 	.word	0x80000017
 8001ba0:	20000000 	.word	0x20000000
 8001ba4:	000f4240 	.word	0x000f4240

08001ba8 <ADC_DMAConvCplt>:
  * @brief  DMA transfer complete callback. 
  * @param  hdma pointer to DMA handle.
  * @retval None
  */
static void ADC_DMAConvCplt(DMA_HandleTypeDef *hdma)
{
 8001ba8:	b580      	push	{r7, lr}
 8001baa:	b084      	sub	sp, #16
 8001bac:	af00      	add	r7, sp, #0
 8001bae:	6078      	str	r0, [r7, #4]
  /* Retrieve ADC handle corresponding to current DMA handle */
  ADC_HandleTypeDef* hadc = ( ADC_HandleTypeDef* )((DMA_HandleTypeDef* )hdma)->Parent;
 8001bb0:	687b      	ldr	r3, [r7, #4]
 8001bb2:	6a5b      	ldr	r3, [r3, #36]	; 0x24
 8001bb4:	60fb      	str	r3, [r7, #12]
  
  /* Update state machine on conversion status if not in error state */
  if (HAL_IS_BIT_CLR(hadc->State, HAL_ADC_STATE_ERROR_INTERNAL | HAL_ADC_STATE_ERROR_DMA))
 8001bb6:	68fb      	ldr	r3, [r7, #12]
 8001bb8:	6b9b      	ldr	r3, [r3, #56]	; 0x38
 8001bba:	2250      	movs	r2, #80	; 0x50
 8001bbc:	4013      	ands	r3, r2
 8001bbe:	d140      	bne.n	8001c42 <ADC_DMAConvCplt+0x9a>
  {
    /* Set ADC state */
    SET_BIT(hadc->State, HAL_ADC_STATE_REG_EOC); 
 8001bc0:	68fb      	ldr	r3, [r7, #12]
 8001bc2:	6b9b      	ldr	r3, [r3, #56]	; 0x38
 8001bc4:	2280      	movs	r2, #128	; 0x80
 8001bc6:	0092      	lsls	r2, r2, #2
 8001bc8:	431a      	orrs	r2, r3
 8001bca:	68fb      	ldr	r3, [r7, #12]
 8001bcc:	639a      	str	r2, [r3, #56]	; 0x38
    
    /* Determine whether any further conversion upcoming on group regular     */
    /* by external trigger, continuous mode or scan sequence on going.        */
    if(ADC_IS_SOFTWARE_START_REGULAR(hadc)        && 
 8001bce:	68fb      	ldr	r3, [r7, #12]
 8001bd0:	681b      	ldr	r3, [r3, #0]
 8001bd2:	68da      	ldr	r2, [r3, #12]
 8001bd4:	23c0      	movs	r3, #192	; 0xc0
 8001bd6:	011b      	lsls	r3, r3, #4
 8001bd8:	4013      	ands	r3, r2
 8001bda:	d12d      	bne.n	8001c38 <ADC_DMAConvCplt+0x90>
       (hadc->Init.ContinuousConvMode == DISABLE)   )
 8001bdc:	68fb      	ldr	r3, [r7, #12]
 8001bde:	7e9b      	ldrb	r3, [r3, #26]
    if(ADC_IS_SOFTWARE_START_REGULAR(hadc)        && 
 8001be0:	2b00      	cmp	r3, #0
 8001be2:	d129      	bne.n	8001c38 <ADC_DMAConvCplt+0x90>
    {
      /* If End of Sequence is reached, disable interrupts */
      if( __HAL_ADC_GET_FLAG(hadc, ADC_FLAG_EOS) )
 8001be4:	68fb      	ldr	r3, [r7, #12]
 8001be6:	681b      	ldr	r3, [r3, #0]
 8001be8:	681b      	ldr	r3, [r3, #0]
 8001bea:	2208      	movs	r2, #8
 8001bec:	4013      	ands	r3, r2
 8001bee:	2b08      	cmp	r3, #8
 8001bf0:	d122      	bne.n	8001c38 <ADC_DMAConvCplt+0x90>
      {
        /* Allowed to modify bits ADC_IT_EOC/ADC_IT_EOS only if bit           */
        /* ADSTART==0 (no conversion on going)                                */
        if (ADC_IS_CONVERSION_ONGOING_REGULAR(hadc) == RESET)
 8001bf2:	68fb      	ldr	r3, [r7, #12]
 8001bf4:	681b      	ldr	r3, [r3, #0]
 8001bf6:	689b      	ldr	r3, [r3, #8]
 8001bf8:	2204      	movs	r2, #4
 8001bfa:	4013      	ands	r3, r2
 8001bfc:	d110      	bne.n	8001c20 <ADC_DMAConvCplt+0x78>
        {
          /* Disable ADC end of single conversion interrupt on group regular */
          /* Note: Overrun interrupt was enabled with EOC interrupt in        */
          /* HAL_Start_IT(), but is not disabled here because can be used     */
          /* by overrun IRQ process below.                                    */
          __HAL_ADC_DISABLE_IT(hadc, ADC_IT_EOC | ADC_IT_EOS);
 8001bfe:	68fb      	ldr	r3, [r7, #12]
 8001c00:	681b      	ldr	r3, [r3, #0]
 8001c02:	685a      	ldr	r2, [r3, #4]
 8001c04:	68fb      	ldr	r3, [r7, #12]
 8001c06:	681b      	ldr	r3, [r3, #0]
 8001c08:	210c      	movs	r1, #12
 8001c0a:	438a      	bics	r2, r1
 8001c0c:	605a      	str	r2, [r3, #4]
          
          /* Set ADC state */
          ADC_STATE_CLR_SET(hadc->State,
 8001c0e:	68fb      	ldr	r3, [r7, #12]
 8001c10:	6b9b      	ldr	r3, [r3, #56]	; 0x38
 8001c12:	4a11      	ldr	r2, [pc, #68]	; (8001c58 <ADC_DMAConvCplt+0xb0>)
 8001c14:	4013      	ands	r3, r2
 8001c16:	2201      	movs	r2, #1
 8001c18:	431a      	orrs	r2, r3
 8001c1a:	68fb      	ldr	r3, [r7, #12]
 8001c1c:	639a      	str	r2, [r3, #56]	; 0x38
 8001c1e:	e00b      	b.n	8001c38 <ADC_DMAConvCplt+0x90>
                            HAL_ADC_STATE_READY);
        }
        else
        {
          /* Change ADC state to error state */
          SET_BIT(hadc->State, HAL_ADC_STATE_ERROR_CONFIG);
 8001c20:	68fb      	ldr	r3, [r7, #12]
 8001c22:	6b9b      	ldr	r3, [r3, #56]	; 0x38
 8001c24:	2220      	movs	r2, #32
 8001c26:	431a      	orrs	r2, r3
 8001c28:	68fb      	ldr	r3, [r7, #12]
 8001c2a:	639a      	str	r2, [r3, #56]	; 0x38
          
          /* Set ADC error code to ADC IP internal error */
          SET_BIT(hadc->ErrorCode, HAL_ADC_ERROR_INTERNAL);
 8001c2c:	68fb      	ldr	r3, [r7, #12]
 8001c2e:	6bdb      	ldr	r3, [r3, #60]	; 0x3c
 8001c30:	2201      	movs	r2, #1
 8001c32:	431a      	orrs	r2, r3
 8001c34:	68fb      	ldr	r3, [r7, #12]
 8001c36:	63da      	str	r2, [r3, #60]	; 0x3c

    /* Conversion complete callback */
#if (USE_HAL_ADC_REGISTER_CALLBACKS == 1)
    hadc->ConvCpltCallback(hadc);
#else
    HAL_ADC_ConvCpltCallback(hadc);
 8001c38:	68fb      	ldr	r3, [r7, #12]
 8001c3a:	0018      	movs	r0, r3
 8001c3c:	f7ff fe0a 	bl	8001854 <HAL_ADC_ConvCpltCallback>
  {
    /* Call DMA error callback */
    hadc->DMA_Handle->XferErrorCallback(hdma);
  }

}
 8001c40:	e005      	b.n	8001c4e <ADC_DMAConvCplt+0xa6>
    hadc->DMA_Handle->XferErrorCallback(hdma);
 8001c42:	68fb      	ldr	r3, [r7, #12]
 8001c44:	6b1b      	ldr	r3, [r3, #48]	; 0x30
 8001c46:	6b1b      	ldr	r3, [r3, #48]	; 0x30
 8001c48:	687a      	ldr	r2, [r7, #4]
 8001c4a:	0010      	movs	r0, r2
 8001c4c:	4798      	blx	r3
}
 8001c4e:	46c0      	nop			; (mov r8, r8)
 8001c50:	46bd      	mov	sp, r7
 8001c52:	b004      	add	sp, #16
 8001c54:	bd80      	pop	{r7, pc}
 8001c56:	46c0      	nop			; (mov r8, r8)
 8001c58:	fffffefe 	.word	0xfffffefe

08001c5c <ADC_DMAHalfConvCplt>:
  * @brief  DMA half transfer complete callback. 
  * @param  hdma pointer to DMA handle.
  * @retval None
  */
static void ADC_DMAHalfConvCplt(DMA_HandleTypeDef *hdma)   
{
 8001c5c:	b580      	push	{r7, lr}
 8001c5e:	b084      	sub	sp, #16
 8001c60:	af00      	add	r7, sp, #0
 8001c62:	6078      	str	r0, [r7, #4]
  /* Retrieve ADC handle corresponding to current DMA handle */
  ADC_HandleTypeDef* hadc = ( ADC_HandleTypeDef* )((DMA_HandleTypeDef* )hdma)->Parent;
 8001c64:	687b      	ldr	r3, [r7, #4]
 8001c66:	6a5b      	ldr	r3, [r3, #36]	; 0x24
 8001c68:	60fb      	str	r3, [r7, #12]
  
  /* Half conversion callback */
#if (USE_HAL_ADC_REGISTER_CALLBACKS == 1)
    hadc->ConvHalfCpltCallback(hadc);
#else
  HAL_ADC_ConvHalfCpltCallback(hadc); 
 8001c6a:	68fb      	ldr	r3, [r7, #12]
 8001c6c:	0018      	movs	r0, r3
 8001c6e:	f7ff fdf9 	bl	8001864 <HAL_ADC_ConvHalfCpltCallback>
#endif /* USE_HAL_ADC_REGISTER_CALLBACKS */
}
 8001c72:	46c0      	nop			; (mov r8, r8)
 8001c74:	46bd      	mov	sp, r7
 8001c76:	b004      	add	sp, #16
 8001c78:	bd80      	pop	{r7, pc}

08001c7a <ADC_DMAError>:
  * @brief  DMA error callback 
  * @param  hdma pointer to DMA handle.
  * @retval None
  */
static void ADC_DMAError(DMA_HandleTypeDef *hdma)   
{
 8001c7a:	b580      	push	{r7, lr}
 8001c7c:	b084      	sub	sp, #16
 8001c7e:	af00      	add	r7, sp, #0
 8001c80:	6078      	str	r0, [r7, #4]
  /* Retrieve ADC handle corresponding to current DMA handle */
  ADC_HandleTypeDef* hadc = ( ADC_HandleTypeDef* )((DMA_HandleTypeDef* )hdma)->Parent;
 8001c82:	687b      	ldr	r3, [r7, #4]
 8001c84:	6a5b      	ldr	r3, [r3, #36]	; 0x24
 8001c86:	60fb      	str	r3, [r7, #12]
  
  /* Set ADC state */
  SET_BIT(hadc->State, HAL_ADC_STATE_ERROR_DMA);
 8001c88:	68fb      	ldr	r3, [r7, #12]
 8001c8a:	6b9b      	ldr	r3, [r3, #56]	; 0x38
 8001c8c:	2240      	movs	r2, #64	; 0x40
 8001c8e:	431a      	orrs	r2, r3
 8001c90:	68fb      	ldr	r3, [r7, #12]
 8001c92:	639a      	str	r2, [r3, #56]	; 0x38
  
  /* Set ADC error code to DMA error */
  SET_BIT(hadc->ErrorCode, HAL_ADC_ERROR_DMA);
 8001c94:	68fb      	ldr	r3, [r7, #12]
 8001c96:	6bdb      	ldr	r3, [r3, #60]	; 0x3c
 8001c98:	2204      	movs	r2, #4
 8001c9a:	431a      	orrs	r2, r3
 8001c9c:	68fb      	ldr	r3, [r7, #12]
 8001c9e:	63da      	str	r2, [r3, #60]	; 0x3c
  
  /* Error callback */
#if (USE_HAL_ADC_REGISTER_CALLBACKS == 1)
  hadc->ErrorCallback(hadc);
#else
  HAL_ADC_ErrorCallback(hadc); 
 8001ca0:	68fb      	ldr	r3, [r7, #12]
 8001ca2:	0018      	movs	r0, r3
 8001ca4:	f7ff fde6 	bl	8001874 <HAL_ADC_ErrorCallback>
#endif /* USE_HAL_ADC_REGISTER_CALLBACKS */
}
 8001ca8:	46c0      	nop			; (mov r8, r8)
 8001caa:	46bd      	mov	sp, r7
 8001cac:	b004      	add	sp, #16
 8001cae:	bd80      	pop	{r7, pc}

08001cb0 <__NVIC_EnableIRQ>:
{
 8001cb0:	b580      	push	{r7, lr}
 8001cb2:	b082      	sub	sp, #8
 8001cb4:	af00      	add	r7, sp, #0
 8001cb6:	0002      	movs	r2, r0
 8001cb8:	1dfb      	adds	r3, r7, #7
 8001cba:	701a      	strb	r2, [r3, #0]
  if ((int32_t)(IRQn) >= 0)
 8001cbc:	1dfb      	adds	r3, r7, #7
 8001cbe:	781b      	ldrb	r3, [r3, #0]
 8001cc0:	2b7f      	cmp	r3, #127	; 0x7f
 8001cc2:	d809      	bhi.n	8001cd8 <__NVIC_EnableIRQ+0x28>
    NVIC->ISER[0U] = (uint32_t)(1UL << (((uint32_t)IRQn) & 0x1FUL));
 8001cc4:	1dfb      	adds	r3, r7, #7
 8001cc6:	781b      	ldrb	r3, [r3, #0]
 8001cc8:	001a      	movs	r2, r3
 8001cca:	231f      	movs	r3, #31
 8001ccc:	401a      	ands	r2, r3
 8001cce:	4b04      	ldr	r3, [pc, #16]	; (8001ce0 <__NVIC_EnableIRQ+0x30>)
 8001cd0:	2101      	movs	r1, #1
 8001cd2:	4091      	lsls	r1, r2
 8001cd4:	000a      	movs	r2, r1
 8001cd6:	601a      	str	r2, [r3, #0]
}
 8001cd8:	46c0      	nop			; (mov r8, r8)
 8001cda:	46bd      	mov	sp, r7
 8001cdc:	b002      	add	sp, #8
 8001cde:	bd80      	pop	{r7, pc}
 8001ce0:	e000e100 	.word	0xe000e100

08001ce4 <__NVIC_SetPriority>:
{
 8001ce4:	b590      	push	{r4, r7, lr}
 8001ce6:	b083      	sub	sp, #12
 8001ce8:	af00      	add	r7, sp, #0
 8001cea:	0002      	movs	r2, r0
 8001cec:	6039      	str	r1, [r7, #0]
 8001cee:	1dfb      	adds	r3, r7, #7
 8001cf0:	701a      	strb	r2, [r3, #0]
  if ((int32_t)(IRQn) >= 0)
 8001cf2:	1dfb      	adds	r3, r7, #7
 8001cf4:	781b      	ldrb	r3, [r3, #0]
 8001cf6:	2b7f      	cmp	r3, #127	; 0x7f
 8001cf8:	d828      	bhi.n	8001d4c <__NVIC_SetPriority+0x68>
    NVIC->IP[_IP_IDX(IRQn)]  = ((uint32_t)(NVIC->IP[_IP_IDX(IRQn)]  & ~(0xFFUL << _BIT_SHIFT(IRQn))) |
 8001cfa:	4a2f      	ldr	r2, [pc, #188]	; (8001db8 <__NVIC_SetPriority+0xd4>)
 8001cfc:	1dfb      	adds	r3, r7, #7
 8001cfe:	781b      	ldrb	r3, [r3, #0]
 8001d00:	b25b      	sxtb	r3, r3
 8001d02:	089b      	lsrs	r3, r3, #2
 8001d04:	33c0      	adds	r3, #192	; 0xc0
 8001d06:	009b      	lsls	r3, r3, #2
 8001d08:	589b      	ldr	r3, [r3, r2]
 8001d0a:	1dfa      	adds	r2, r7, #7
 8001d0c:	7812      	ldrb	r2, [r2, #0]
 8001d0e:	0011      	movs	r1, r2
 8001d10:	2203      	movs	r2, #3
 8001d12:	400a      	ands	r2, r1
 8001d14:	00d2      	lsls	r2, r2, #3
 8001d16:	21ff      	movs	r1, #255	; 0xff
 8001d18:	4091      	lsls	r1, r2
 8001d1a:	000a      	movs	r2, r1
 8001d1c:	43d2      	mvns	r2, r2
 8001d1e:	401a      	ands	r2, r3
 8001d20:	0011      	movs	r1, r2
       (((priority << (8U - __NVIC_PRIO_BITS)) & (uint32_t)0xFFUL) << _BIT_SHIFT(IRQn)));
 8001d22:	683b      	ldr	r3, [r7, #0]
 8001d24:	019b      	lsls	r3, r3, #6
 8001d26:	22ff      	movs	r2, #255	; 0xff
 8001d28:	401a      	ands	r2, r3
 8001d2a:	1dfb      	adds	r3, r7, #7
 8001d2c:	781b      	ldrb	r3, [r3, #0]
 8001d2e:	0018      	movs	r0, r3
 8001d30:	2303      	movs	r3, #3
 8001d32:	4003      	ands	r3, r0
 8001d34:	00db      	lsls	r3, r3, #3
 8001d36:	409a      	lsls	r2, r3
    NVIC->IP[_IP_IDX(IRQn)]  = ((uint32_t)(NVIC->IP[_IP_IDX(IRQn)]  & ~(0xFFUL << _BIT_SHIFT(IRQn))) |
 8001d38:	481f      	ldr	r0, [pc, #124]	; (8001db8 <__NVIC_SetPriority+0xd4>)
 8001d3a:	1dfb      	adds	r3, r7, #7
 8001d3c:	781b      	ldrb	r3, [r3, #0]
 8001d3e:	b25b      	sxtb	r3, r3
 8001d40:	089b      	lsrs	r3, r3, #2
 8001d42:	430a      	orrs	r2, r1
 8001d44:	33c0      	adds	r3, #192	; 0xc0
 8001d46:	009b      	lsls	r3, r3, #2
 8001d48:	501a      	str	r2, [r3, r0]
}
 8001d4a:	e031      	b.n	8001db0 <__NVIC_SetPriority+0xcc>
    SCB->SHP[_SHP_IDX(IRQn)] = ((uint32_t)(SCB->SHP[_SHP_IDX(IRQn)] & ~(0xFFUL << _BIT_SHIFT(IRQn))) |
 8001d4c:	4a1b      	ldr	r2, [pc, #108]	; (8001dbc <__NVIC_SetPriority+0xd8>)
 8001d4e:	1dfb      	adds	r3, r7, #7
 8001d50:	781b      	ldrb	r3, [r3, #0]
 8001d52:	0019      	movs	r1, r3
 8001d54:	230f      	movs	r3, #15
 8001d56:	400b      	ands	r3, r1
 8001d58:	3b08      	subs	r3, #8
 8001d5a:	089b      	lsrs	r3, r3, #2
 8001d5c:	3306      	adds	r3, #6
 8001d5e:	009b      	lsls	r3, r3, #2
 8001d60:	18d3      	adds	r3, r2, r3
 8001d62:	3304      	adds	r3, #4
 8001d64:	681b      	ldr	r3, [r3, #0]
 8001d66:	1dfa      	adds	r2, r7, #7
 8001d68:	7812      	ldrb	r2, [r2, #0]
 8001d6a:	0011      	movs	r1, r2
 8001d6c:	2203      	movs	r2, #3
 8001d6e:	400a      	ands	r2, r1
 8001d70:	00d2      	lsls	r2, r2, #3
 8001d72:	21ff      	movs	r1, #255	; 0xff
 8001d74:	4091      	lsls	r1, r2
 8001d76:	000a      	movs	r2, r1
 8001d78:	43d2      	mvns	r2, r2
 8001d7a:	401a      	ands	r2, r3
 8001d7c:	0011      	movs	r1, r2
       (((priority << (8U - __NVIC_PRIO_BITS)) & (uint32_t)0xFFUL) << _BIT_SHIFT(IRQn)));
 8001d7e:	683b      	ldr	r3, [r7, #0]
 8001d80:	019b      	lsls	r3, r3, #6
 8001d82:	22ff      	movs	r2, #255	; 0xff
 8001d84:	401a      	ands	r2, r3
 8001d86:	1dfb      	adds	r3, r7, #7
 8001d88:	781b      	ldrb	r3, [r3, #0]
 8001d8a:	0018      	movs	r0, r3
 8001d8c:	2303      	movs	r3, #3
 8001d8e:	4003      	ands	r3, r0
 8001d90:	00db      	lsls	r3, r3, #3
 8001d92:	409a      	lsls	r2, r3
    SCB->SHP[_SHP_IDX(IRQn)] = ((uint32_t)(SCB->SHP[_SHP_IDX(IRQn)] & ~(0xFFUL << _BIT_SHIFT(IRQn))) |
 8001d94:	4809      	ldr	r0, [pc, #36]	; (8001dbc <__NVIC_SetPriority+0xd8>)
 8001d96:	1dfb      	adds	r3, r7, #7
 8001d98:	781b      	ldrb	r3, [r3, #0]
 8001d9a:	001c      	movs	r4, r3
 8001d9c:	230f      	movs	r3, #15
 8001d9e:	4023      	ands	r3, r4
 8001da0:	3b08      	subs	r3, #8
 8001da2:	089b      	lsrs	r3, r3, #2
 8001da4:	430a      	orrs	r2, r1
 8001da6:	3306      	adds	r3, #6
 8001da8:	009b      	lsls	r3, r3, #2
 8001daa:	18c3      	adds	r3, r0, r3
 8001dac:	3304      	adds	r3, #4
 8001dae:	601a      	str	r2, [r3, #0]
}
 8001db0:	46c0      	nop			; (mov r8, r8)
 8001db2:	46bd      	mov	sp, r7
 8001db4:	b003      	add	sp, #12
 8001db6:	bd90      	pop	{r4, r7, pc}
 8001db8:	e000e100 	.word	0xe000e100
 8001dbc:	e000ed00 	.word	0xe000ed00

08001dc0 <SysTick_Config>:
  \note    When the variable <b>__Vendor_SysTickConfig</b> is set to 1, then the
           function <b>SysTick_Config</b> is not included. In this case, the file <b><i>device</i>.h</b>
           must contain a vendor-specific implementation of this function.
 */
__STATIC_INLINE uint32_t SysTick_Config(uint32_t ticks)
{
 8001dc0:	b580      	push	{r7, lr}
 8001dc2:	b082      	sub	sp, #8
 8001dc4:	af00      	add	r7, sp, #0
 8001dc6:	6078      	str	r0, [r7, #4]
  if ((ticks - 1UL) > SysTick_LOAD_RELOAD_Msk)
 8001dc8:	687b      	ldr	r3, [r7, #4]
 8001dca:	1e5a      	subs	r2, r3, #1
 8001dcc:	2380      	movs	r3, #128	; 0x80
 8001dce:	045b      	lsls	r3, r3, #17
 8001dd0:	429a      	cmp	r2, r3
 8001dd2:	d301      	bcc.n	8001dd8 <SysTick_Config+0x18>
  {
    return (1UL);                                                   /* Reload value impossible */
 8001dd4:	2301      	movs	r3, #1
 8001dd6:	e010      	b.n	8001dfa <SysTick_Config+0x3a>
  }

  SysTick->LOAD  = (uint32_t)(ticks - 1UL);                         /* set reload register */
 8001dd8:	4b0a      	ldr	r3, [pc, #40]	; (8001e04 <SysTick_Config+0x44>)
 8001dda:	687a      	ldr	r2, [r7, #4]
 8001ddc:	3a01      	subs	r2, #1
 8001dde:	605a      	str	r2, [r3, #4]
  NVIC_SetPriority (SysTick_IRQn, (1UL << __NVIC_PRIO_BITS) - 1UL); /* set Priority for Systick Interrupt */
 8001de0:	2301      	movs	r3, #1
 8001de2:	425b      	negs	r3, r3
 8001de4:	2103      	movs	r1, #3
 8001de6:	0018      	movs	r0, r3
 8001de8:	f7ff ff7c 	bl	8001ce4 <__NVIC_SetPriority>
  SysTick->VAL   = 0UL;                                             /* Load the SysTick Counter Value */
 8001dec:	4b05      	ldr	r3, [pc, #20]	; (8001e04 <SysTick_Config+0x44>)
 8001dee:	2200      	movs	r2, #0
 8001df0:	609a      	str	r2, [r3, #8]
  SysTick->CTRL  = SysTick_CTRL_CLKSOURCE_Msk |
 8001df2:	4b04      	ldr	r3, [pc, #16]	; (8001e04 <SysTick_Config+0x44>)
 8001df4:	2207      	movs	r2, #7
 8001df6:	601a      	str	r2, [r3, #0]
                   SysTick_CTRL_TICKINT_Msk   |
                   SysTick_CTRL_ENABLE_Msk;                         /* Enable SysTick IRQ and SysTick Timer */
  return (0UL);                                                     /* Function successful */
 8001df8:	2300      	movs	r3, #0
}
 8001dfa:	0018      	movs	r0, r3
 8001dfc:	46bd      	mov	sp, r7
 8001dfe:	b002      	add	sp, #8
 8001e00:	bd80      	pop	{r7, pc}
 8001e02:	46c0      	nop			; (mov r8, r8)
 8001e04:	e000e010 	.word	0xe000e010

08001e08 <HAL_NVIC_SetPriority>:
  *         with stm32f0xx devices, this parameter is a dummy value and it is ignored, because 
  *         no subpriority supported in Cortex M0 based products.   
  * @retval None
  */
void HAL_NVIC_SetPriority(IRQn_Type IRQn, uint32_t PreemptPriority, uint32_t SubPriority)
{ 
 8001e08:	b580      	push	{r7, lr}
 8001e0a:	b084      	sub	sp, #16
 8001e0c:	af00      	add	r7, sp, #0
 8001e0e:	60b9      	str	r1, [r7, #8]
 8001e10:	607a      	str	r2, [r7, #4]
 8001e12:	210f      	movs	r1, #15
 8001e14:	187b      	adds	r3, r7, r1
 8001e16:	1c02      	adds	r2, r0, #0
 8001e18:	701a      	strb	r2, [r3, #0]
  /* Check the parameters */
  assert_param(IS_NVIC_PREEMPTION_PRIORITY(PreemptPriority));
  NVIC_SetPriority(IRQn,PreemptPriority);
 8001e1a:	68ba      	ldr	r2, [r7, #8]
 8001e1c:	187b      	adds	r3, r7, r1
 8001e1e:	781b      	ldrb	r3, [r3, #0]
 8001e20:	b25b      	sxtb	r3, r3
 8001e22:	0011      	movs	r1, r2
 8001e24:	0018      	movs	r0, r3
 8001e26:	f7ff ff5d 	bl	8001ce4 <__NVIC_SetPriority>
}
 8001e2a:	46c0      	nop			; (mov r8, r8)
 8001e2c:	46bd      	mov	sp, r7
 8001e2e:	b004      	add	sp, #16
 8001e30:	bd80      	pop	{r7, pc}

08001e32 <HAL_NVIC_EnableIRQ>:
  *         This parameter can be an enumerator of IRQn_Type enumeration
  *         (For the complete STM32 Devices IRQ Channels list, please refer to the appropriate CMSIS device file (stm32f0xxxx.h))
  * @retval None
  */
void HAL_NVIC_EnableIRQ(IRQn_Type IRQn)
{
 8001e32:	b580      	push	{r7, lr}
 8001e34:	b082      	sub	sp, #8
 8001e36:	af00      	add	r7, sp, #0
 8001e38:	0002      	movs	r2, r0
 8001e3a:	1dfb      	adds	r3, r7, #7
 8001e3c:	701a      	strb	r2, [r3, #0]
  /* Check the parameters */
  assert_param(IS_NVIC_DEVICE_IRQ(IRQn));
  
  /* Enable interrupt */
  NVIC_EnableIRQ(IRQn);
 8001e3e:	1dfb      	adds	r3, r7, #7
 8001e40:	781b      	ldrb	r3, [r3, #0]
 8001e42:	b25b      	sxtb	r3, r3
 8001e44:	0018      	movs	r0, r3
 8001e46:	f7ff ff33 	bl	8001cb0 <__NVIC_EnableIRQ>
}
 8001e4a:	46c0      	nop			; (mov r8, r8)
 8001e4c:	46bd      	mov	sp, r7
 8001e4e:	b002      	add	sp, #8
 8001e50:	bd80      	pop	{r7, pc}

08001e52 <HAL_SYSTICK_Config>:
  * @param  TicksNumb Specifies the ticks Number of ticks between two interrupts.
  * @retval status:  - 0  Function succeeded.
  *                  - 1  Function failed.
  */
uint32_t HAL_SYSTICK_Config(uint32_t TicksNumb)
{
 8001e52:	b580      	push	{r7, lr}
 8001e54:	b082      	sub	sp, #8
 8001e56:	af00      	add	r7, sp, #0
 8001e58:	6078      	str	r0, [r7, #4]
   return SysTick_Config(TicksNumb);
 8001e5a:	687b      	ldr	r3, [r7, #4]
 8001e5c:	0018      	movs	r0, r3
 8001e5e:	f7ff ffaf 	bl	8001dc0 <SysTick_Config>
 8001e62:	0003      	movs	r3, r0
}
 8001e64:	0018      	movs	r0, r3
 8001e66:	46bd      	mov	sp, r7
 8001e68:	b002      	add	sp, #8
 8001e6a:	bd80      	pop	{r7, pc}

08001e6c <HAL_DMA_Init>:
  * @param  hdma Pointer to a DMA_HandleTypeDef structure that contains
  *               the configuration information for the specified DMA Channel.  
  * @retval HAL status
  */
HAL_StatusTypeDef HAL_DMA_Init(DMA_HandleTypeDef *hdma)
{ 
 8001e6c:	b580      	push	{r7, lr}
 8001e6e:	b084      	sub	sp, #16
 8001e70:	af00      	add	r7, sp, #0
 8001e72:	6078      	str	r0, [r7, #4]
  uint32_t tmp = 0U;
 8001e74:	2300      	movs	r3, #0
 8001e76:	60fb      	str	r3, [r7, #12]
  
  /* Check the DMA handle allocation */
  if(NULL == hdma)
 8001e78:	687b      	ldr	r3, [r7, #4]
 8001e7a:	2b00      	cmp	r3, #0
 8001e7c:	d101      	bne.n	8001e82 <HAL_DMA_Init+0x16>
  {
    return HAL_ERROR;
 8001e7e:	2301      	movs	r3, #1
 8001e80:	e036      	b.n	8001ef0 <HAL_DMA_Init+0x84>
  assert_param(IS_DMA_MEMORY_DATA_SIZE(hdma->Init.MemDataAlignment));
  assert_param(IS_DMA_MODE(hdma->Init.Mode));
  assert_param(IS_DMA_PRIORITY(hdma->Init.Priority));
  
  /* Change DMA peripheral state */
  hdma->State = HAL_DMA_STATE_BUSY;
 8001e82:	687b      	ldr	r3, [r7, #4]
 8001e84:	2221      	movs	r2, #33	; 0x21
 8001e86:	2102      	movs	r1, #2
 8001e88:	5499      	strb	r1, [r3, r2]

  /* Get the CR register value */
  tmp = hdma->Instance->CCR;
 8001e8a:	687b      	ldr	r3, [r7, #4]
 8001e8c:	681b      	ldr	r3, [r3, #0]
 8001e8e:	681b      	ldr	r3, [r3, #0]
 8001e90:	60fb      	str	r3, [r7, #12]
  
  /* Clear PL, MSIZE, PSIZE, MINC, PINC, CIRC, DIR bits */
  tmp &= ((uint32_t)~(DMA_CCR_PL    | DMA_CCR_MSIZE  | DMA_CCR_PSIZE  | \
 8001e92:	68fb      	ldr	r3, [r7, #12]
 8001e94:	4a18      	ldr	r2, [pc, #96]	; (8001ef8 <HAL_DMA_Init+0x8c>)
 8001e96:	4013      	ands	r3, r2
 8001e98:	60fb      	str	r3, [r7, #12]
                      DMA_CCR_MINC  | DMA_CCR_PINC   | DMA_CCR_CIRC   | \
                      DMA_CCR_DIR));
  
  /* Prepare the DMA Channel configuration */
  tmp |=  hdma->Init.Direction        |
 8001e9a:	687b      	ldr	r3, [r7, #4]
 8001e9c:	685a      	ldr	r2, [r3, #4]
          hdma->Init.PeriphInc           | hdma->Init.MemInc           |
 8001e9e:	687b      	ldr	r3, [r7, #4]
 8001ea0:	689b      	ldr	r3, [r3, #8]
  tmp |=  hdma->Init.Direction        |
 8001ea2:	431a      	orrs	r2, r3
          hdma->Init.PeriphInc           | hdma->Init.MemInc           |
 8001ea4:	687b      	ldr	r3, [r7, #4]
 8001ea6:	68db      	ldr	r3, [r3, #12]
 8001ea8:	431a      	orrs	r2, r3
          hdma->Init.PeriphDataAlignment | hdma->Init.MemDataAlignment |
 8001eaa:	687b      	ldr	r3, [r7, #4]
 8001eac:	691b      	ldr	r3, [r3, #16]
          hdma->Init.PeriphInc           | hdma->Init.MemInc           |
 8001eae:	431a      	orrs	r2, r3
          hdma->Init.PeriphDataAlignment | hdma->Init.MemDataAlignment |
 8001eb0:	687b      	ldr	r3, [r7, #4]
 8001eb2:	695b      	ldr	r3, [r3, #20]
 8001eb4:	431a      	orrs	r2, r3
          hdma->Init.Mode                | hdma->Init.Priority;
 8001eb6:	687b      	ldr	r3, [r7, #4]
 8001eb8:	699b      	ldr	r3, [r3, #24]
          hdma->Init.PeriphDataAlignment | hdma->Init.MemDataAlignment |
 8001eba:	431a      	orrs	r2, r3
          hdma->Init.Mode                | hdma->Init.Priority;
 8001ebc:	687b      	ldr	r3, [r7, #4]
 8001ebe:	69db      	ldr	r3, [r3, #28]
 8001ec0:	4313      	orrs	r3, r2
  tmp |=  hdma->Init.Direction        |
 8001ec2:	68fa      	ldr	r2, [r7, #12]
 8001ec4:	4313      	orrs	r3, r2
 8001ec6:	60fb      	str	r3, [r7, #12]

  /* Write to DMA Channel CR register */
  hdma->Instance->CCR = tmp;  
 8001ec8:	687b      	ldr	r3, [r7, #4]
 8001eca:	681b      	ldr	r3, [r3, #0]
 8001ecc:	68fa      	ldr	r2, [r7, #12]
 8001ece:	601a      	str	r2, [r3, #0]
  
  /* Initialize DmaBaseAddress and ChannelIndex parameters used 
     by HAL_DMA_IRQHandler() and HAL_DMA_PollForTransfer() */
  DMA_CalcBaseAndBitshift(hdma);
 8001ed0:	687b      	ldr	r3, [r7, #4]
 8001ed2:	0018      	movs	r0, r3
 8001ed4:	f000 f998 	bl	8002208 <DMA_CalcBaseAndBitshift>
  
  /* Initialise the error code */
  hdma->ErrorCode = HAL_DMA_ERROR_NONE;
 8001ed8:	687b      	ldr	r3, [r7, #4]
 8001eda:	2200      	movs	r2, #0
 8001edc:	639a      	str	r2, [r3, #56]	; 0x38

  /* Initialize the DMA state*/
  hdma->State = HAL_DMA_STATE_READY;
 8001ede:	687b      	ldr	r3, [r7, #4]
 8001ee0:	2221      	movs	r2, #33	; 0x21
 8001ee2:	2101      	movs	r1, #1
 8001ee4:	5499      	strb	r1, [r3, r2]
  
  /* Allocate lock resource and initialize it */
  hdma->Lock = HAL_UNLOCKED;
 8001ee6:	687b      	ldr	r3, [r7, #4]
 8001ee8:	2220      	movs	r2, #32
 8001eea:	2100      	movs	r1, #0
 8001eec:	5499      	strb	r1, [r3, r2]
  
  return HAL_OK;
 8001eee:	2300      	movs	r3, #0
}  
 8001ef0:	0018      	movs	r0, r3
 8001ef2:	46bd      	mov	sp, r7
 8001ef4:	b004      	add	sp, #16
 8001ef6:	bd80      	pop	{r7, pc}
 8001ef8:	ffffc00f 	.word	0xffffc00f

08001efc <HAL_DMA_Start_IT>:
  * @param  DstAddress The destination memory Buffer address
  * @param  DataLength The length of data to be transferred from source to destination
  * @retval HAL status
  */
HAL_StatusTypeDef HAL_DMA_Start_IT(DMA_HandleTypeDef *hdma, uint32_t SrcAddress, uint32_t DstAddress, uint32_t DataLength)
{
 8001efc:	b580      	push	{r7, lr}
 8001efe:	b086      	sub	sp, #24
 8001f00:	af00      	add	r7, sp, #0
 8001f02:	60f8      	str	r0, [r7, #12]
 8001f04:	60b9      	str	r1, [r7, #8]
 8001f06:	607a      	str	r2, [r7, #4]
 8001f08:	603b      	str	r3, [r7, #0]
	HAL_StatusTypeDef status = HAL_OK;
 8001f0a:	2317      	movs	r3, #23
 8001f0c:	18fb      	adds	r3, r7, r3
 8001f0e:	2200      	movs	r2, #0
 8001f10:	701a      	strb	r2, [r3, #0]

  /* Check the parameters */
  assert_param(IS_DMA_BUFFER_SIZE(DataLength));
  
  /* Process locked */
  __HAL_LOCK(hdma);
 8001f12:	68fb      	ldr	r3, [r7, #12]
 8001f14:	2220      	movs	r2, #32
 8001f16:	5c9b      	ldrb	r3, [r3, r2]
 8001f18:	2b01      	cmp	r3, #1
 8001f1a:	d101      	bne.n	8001f20 <HAL_DMA_Start_IT+0x24>
 8001f1c:	2302      	movs	r3, #2
 8001f1e:	e04f      	b.n	8001fc0 <HAL_DMA_Start_IT+0xc4>
 8001f20:	68fb      	ldr	r3, [r7, #12]
 8001f22:	2220      	movs	r2, #32
 8001f24:	2101      	movs	r1, #1
 8001f26:	5499      	strb	r1, [r3, r2]
  
  if(HAL_DMA_STATE_READY == hdma->State)
 8001f28:	68fb      	ldr	r3, [r7, #12]
 8001f2a:	2221      	movs	r2, #33	; 0x21
 8001f2c:	5c9b      	ldrb	r3, [r3, r2]
 8001f2e:	b2db      	uxtb	r3, r3
 8001f30:	2b01      	cmp	r3, #1
 8001f32:	d13a      	bne.n	8001faa <HAL_DMA_Start_IT+0xae>
  {
  	/* Change DMA peripheral state */  
  	hdma->State = HAL_DMA_STATE_BUSY;
 8001f34:	68fb      	ldr	r3, [r7, #12]
 8001f36:	2221      	movs	r2, #33	; 0x21
 8001f38:	2102      	movs	r1, #2
 8001f3a:	5499      	strb	r1, [r3, r2]
  	
  	hdma->ErrorCode = HAL_DMA_ERROR_NONE;
 8001f3c:	68fb      	ldr	r3, [r7, #12]
 8001f3e:	2200      	movs	r2, #0
 8001f40:	639a      	str	r2, [r3, #56]	; 0x38
  	
  	/* Disable the peripheral */
  	hdma->Instance->CCR &= ~DMA_CCR_EN;
 8001f42:	68fb      	ldr	r3, [r7, #12]
 8001f44:	681b      	ldr	r3, [r3, #0]
 8001f46:	681a      	ldr	r2, [r3, #0]
 8001f48:	68fb      	ldr	r3, [r7, #12]
 8001f4a:	681b      	ldr	r3, [r3, #0]
 8001f4c:	2101      	movs	r1, #1
 8001f4e:	438a      	bics	r2, r1
 8001f50:	601a      	str	r2, [r3, #0]
  	
  	/* Configure the source, destination address and the data length */  
  	DMA_SetConfig(hdma, SrcAddress, DstAddress, DataLength);
 8001f52:	683b      	ldr	r3, [r7, #0]
 8001f54:	687a      	ldr	r2, [r7, #4]
 8001f56:	68b9      	ldr	r1, [r7, #8]
 8001f58:	68f8      	ldr	r0, [r7, #12]
 8001f5a:	f000 f928 	bl	80021ae <DMA_SetConfig>
  	
  	/* Enable the transfer complete, & transfer error interrupts */
  	/* Half transfer interrupt is optional: enable it only if associated callback is available */
    if(NULL != hdma->XferHalfCpltCallback )
 8001f5e:	68fb      	ldr	r3, [r7, #12]
 8001f60:	6adb      	ldr	r3, [r3, #44]	; 0x2c
 8001f62:	2b00      	cmp	r3, #0
 8001f64:	d008      	beq.n	8001f78 <HAL_DMA_Start_IT+0x7c>
    {
      hdma->Instance->CCR |= (DMA_IT_TC | DMA_IT_HT | DMA_IT_TE);
 8001f66:	68fb      	ldr	r3, [r7, #12]
 8001f68:	681b      	ldr	r3, [r3, #0]
 8001f6a:	681a      	ldr	r2, [r3, #0]
 8001f6c:	68fb      	ldr	r3, [r7, #12]
 8001f6e:	681b      	ldr	r3, [r3, #0]
 8001f70:	210e      	movs	r1, #14
 8001f72:	430a      	orrs	r2, r1
 8001f74:	601a      	str	r2, [r3, #0]
 8001f76:	e00f      	b.n	8001f98 <HAL_DMA_Start_IT+0x9c>
    }
  	else
  	{
  		hdma->Instance->CCR |= (DMA_IT_TC | DMA_IT_TE);
 8001f78:	68fb      	ldr	r3, [r7, #12]
 8001f7a:	681b      	ldr	r3, [r3, #0]
 8001f7c:	681a      	ldr	r2, [r3, #0]
 8001f7e:	68fb      	ldr	r3, [r7, #12]
 8001f80:	681b      	ldr	r3, [r3, #0]
 8001f82:	210a      	movs	r1, #10
 8001f84:	430a      	orrs	r2, r1
 8001f86:	601a      	str	r2, [r3, #0]
  		hdma->Instance->CCR &= ~DMA_IT_HT;
 8001f88:	68fb      	ldr	r3, [r7, #12]
 8001f8a:	681b      	ldr	r3, [r3, #0]
 8001f8c:	681a      	ldr	r2, [r3, #0]
 8001f8e:	68fb      	ldr	r3, [r7, #12]
 8001f90:	681b      	ldr	r3, [r3, #0]
 8001f92:	2104      	movs	r1, #4
 8001f94:	438a      	bics	r2, r1
 8001f96:	601a      	str	r2, [r3, #0]
  	}
  	
  	/* Enable the Peripheral */
  	hdma->Instance->CCR |= DMA_CCR_EN;
 8001f98:	68fb      	ldr	r3, [r7, #12]
 8001f9a:	681b      	ldr	r3, [r3, #0]
 8001f9c:	681a      	ldr	r2, [r3, #0]
 8001f9e:	68fb      	ldr	r3, [r7, #12]
 8001fa0:	681b      	ldr	r3, [r3, #0]
 8001fa2:	2101      	movs	r1, #1
 8001fa4:	430a      	orrs	r2, r1
 8001fa6:	601a      	str	r2, [r3, #0]
 8001fa8:	e007      	b.n	8001fba <HAL_DMA_Start_IT+0xbe>
  }
  else
  {
  	/* Process Unlocked */
    __HAL_UNLOCK(hdma); 
 8001faa:	68fb      	ldr	r3, [r7, #12]
 8001fac:	2220      	movs	r2, #32
 8001fae:	2100      	movs	r1, #0
 8001fb0:	5499      	strb	r1, [r3, r2]
  
    /* Remain BUSY */
    status = HAL_BUSY;
 8001fb2:	2317      	movs	r3, #23
 8001fb4:	18fb      	adds	r3, r7, r3
 8001fb6:	2202      	movs	r2, #2
 8001fb8:	701a      	strb	r2, [r3, #0]
  }     
  
  return status;    
 8001fba:	2317      	movs	r3, #23
 8001fbc:	18fb      	adds	r3, r7, r3
 8001fbe:	781b      	ldrb	r3, [r3, #0]
} 
 8001fc0:	0018      	movs	r0, r3
 8001fc2:	46bd      	mov	sp, r7
 8001fc4:	b006      	add	sp, #24
 8001fc6:	bd80      	pop	{r7, pc}

08001fc8 <HAL_DMA_Abort_IT>:
  * @param  hdma  pointer to a DMA_HandleTypeDef structure that contains
  *               the configuration information for the specified DMA Stream.
  * @retval HAL status
  */
HAL_StatusTypeDef HAL_DMA_Abort_IT(DMA_HandleTypeDef *hdma)
{  
 8001fc8:	b580      	push	{r7, lr}
 8001fca:	b084      	sub	sp, #16
 8001fcc:	af00      	add	r7, sp, #0
 8001fce:	6078      	str	r0, [r7, #4]
  HAL_StatusTypeDef status = HAL_OK;
 8001fd0:	210f      	movs	r1, #15
 8001fd2:	187b      	adds	r3, r7, r1
 8001fd4:	2200      	movs	r2, #0
 8001fd6:	701a      	strb	r2, [r3, #0]
  
  if(HAL_DMA_STATE_BUSY != hdma->State)
 8001fd8:	687b      	ldr	r3, [r7, #4]
 8001fda:	2221      	movs	r2, #33	; 0x21
 8001fdc:	5c9b      	ldrb	r3, [r3, r2]
 8001fde:	b2db      	uxtb	r3, r3
 8001fe0:	2b02      	cmp	r3, #2
 8001fe2:	d006      	beq.n	8001ff2 <HAL_DMA_Abort_IT+0x2a>
  {
    /* no transfer ongoing */
    hdma->ErrorCode = HAL_DMA_ERROR_NO_XFER;
 8001fe4:	687b      	ldr	r3, [r7, #4]
 8001fe6:	2204      	movs	r2, #4
 8001fe8:	639a      	str	r2, [r3, #56]	; 0x38
        
    status = HAL_ERROR;
 8001fea:	187b      	adds	r3, r7, r1
 8001fec:	2201      	movs	r2, #1
 8001fee:	701a      	strb	r2, [r3, #0]
 8001ff0:	e028      	b.n	8002044 <HAL_DMA_Abort_IT+0x7c>
  }
  else
  { 
  
    /* Disable DMA IT */
    hdma->Instance->CCR &= ~(DMA_IT_TC | DMA_IT_HT | DMA_IT_TE);
 8001ff2:	687b      	ldr	r3, [r7, #4]
 8001ff4:	681b      	ldr	r3, [r3, #0]
 8001ff6:	681a      	ldr	r2, [r3, #0]
 8001ff8:	687b      	ldr	r3, [r7, #4]
 8001ffa:	681b      	ldr	r3, [r3, #0]
 8001ffc:	210e      	movs	r1, #14
 8001ffe:	438a      	bics	r2, r1
 8002000:	601a      	str	r2, [r3, #0]
    
    /* Disable the channel */
    hdma->Instance->CCR &= ~DMA_CCR_EN;
 8002002:	687b      	ldr	r3, [r7, #4]
 8002004:	681b      	ldr	r3, [r3, #0]
 8002006:	681a      	ldr	r2, [r3, #0]
 8002008:	687b      	ldr	r3, [r7, #4]
 800200a:	681b      	ldr	r3, [r3, #0]
 800200c:	2101      	movs	r1, #1
 800200e:	438a      	bics	r2, r1
 8002010:	601a      	str	r2, [r3, #0]
    
    /* Clear all flags */
    hdma->DmaBaseAddress->IFCR = DMA_FLAG_GL1 << hdma->ChannelIndex;
 8002012:	687b      	ldr	r3, [r7, #4]
 8002014:	6c1a      	ldr	r2, [r3, #64]	; 0x40
 8002016:	687b      	ldr	r3, [r7, #4]
 8002018:	6bdb      	ldr	r3, [r3, #60]	; 0x3c
 800201a:	2101      	movs	r1, #1
 800201c:	4091      	lsls	r1, r2
 800201e:	000a      	movs	r2, r1
 8002020:	605a      	str	r2, [r3, #4]
    
    /* Change the DMA state */
    hdma->State = HAL_DMA_STATE_READY;
 8002022:	687b      	ldr	r3, [r7, #4]
 8002024:	2221      	movs	r2, #33	; 0x21
 8002026:	2101      	movs	r1, #1
 8002028:	5499      	strb	r1, [r3, r2]
    
    /* Process Unlocked */
    __HAL_UNLOCK(hdma);
 800202a:	687b      	ldr	r3, [r7, #4]
 800202c:	2220      	movs	r2, #32
 800202e:	2100      	movs	r1, #0
 8002030:	5499      	strb	r1, [r3, r2]
    
    /* Call User Abort callback */ 
    if(hdma->XferAbortCallback != NULL)
 8002032:	687b      	ldr	r3, [r7, #4]
 8002034:	6b5b      	ldr	r3, [r3, #52]	; 0x34
 8002036:	2b00      	cmp	r3, #0
 8002038:	d004      	beq.n	8002044 <HAL_DMA_Abort_IT+0x7c>
    {
      hdma->XferAbortCallback(hdma);
 800203a:	687b      	ldr	r3, [r7, #4]
 800203c:	6b5b      	ldr	r3, [r3, #52]	; 0x34
 800203e:	687a      	ldr	r2, [r7, #4]
 8002040:	0010      	movs	r0, r2
 8002042:	4798      	blx	r3
    } 
  }
  return status;
 8002044:	230f      	movs	r3, #15
 8002046:	18fb      	adds	r3, r7, r3
 8002048:	781b      	ldrb	r3, [r3, #0]
}
 800204a:	0018      	movs	r0, r3
 800204c:	46bd      	mov	sp, r7
 800204e:	b004      	add	sp, #16
 8002050:	bd80      	pop	{r7, pc}

08002052 <HAL_DMA_IRQHandler>:
  * @param  hdma pointer to a DMA_HandleTypeDef structure that contains
  *               the configuration information for the specified DMA Channel.  
  * @retval None
  */
void HAL_DMA_IRQHandler(DMA_HandleTypeDef *hdma)
{
 8002052:	b580      	push	{r7, lr}
 8002054:	b084      	sub	sp, #16
 8002056:	af00      	add	r7, sp, #0
 8002058:	6078      	str	r0, [r7, #4]
	uint32_t flag_it = hdma->DmaBaseAddress->ISR;
 800205a:	687b      	ldr	r3, [r7, #4]
 800205c:	6bdb      	ldr	r3, [r3, #60]	; 0x3c
 800205e:	681b      	ldr	r3, [r3, #0]
 8002060:	60fb      	str	r3, [r7, #12]
  uint32_t source_it = hdma->Instance->CCR;
 8002062:	687b      	ldr	r3, [r7, #4]
 8002064:	681b      	ldr	r3, [r3, #0]
 8002066:	681b      	ldr	r3, [r3, #0]
 8002068:	60bb      	str	r3, [r7, #8]
          
  /* Half Transfer Complete Interrupt management ******************************/
  if ((RESET != (flag_it & (DMA_FLAG_HT1 << hdma->ChannelIndex))) && (RESET != (source_it & DMA_IT_HT)))
 800206a:	687b      	ldr	r3, [r7, #4]
 800206c:	6c1b      	ldr	r3, [r3, #64]	; 0x40
 800206e:	2204      	movs	r2, #4
 8002070:	409a      	lsls	r2, r3
 8002072:	0013      	movs	r3, r2
 8002074:	68fa      	ldr	r2, [r7, #12]
 8002076:	4013      	ands	r3, r2
 8002078:	d024      	beq.n	80020c4 <HAL_DMA_IRQHandler+0x72>
 800207a:	68bb      	ldr	r3, [r7, #8]
 800207c:	2204      	movs	r2, #4
 800207e:	4013      	ands	r3, r2
 8002080:	d020      	beq.n	80020c4 <HAL_DMA_IRQHandler+0x72>
  {
  	/* Disable the half transfer interrupt if the DMA mode is not CIRCULAR */
  	if((hdma->Instance->CCR & DMA_CCR_CIRC) == 0U)
 8002082:	687b      	ldr	r3, [r7, #4]
 8002084:	681b      	ldr	r3, [r3, #0]
 8002086:	681b      	ldr	r3, [r3, #0]
 8002088:	2220      	movs	r2, #32
 800208a:	4013      	ands	r3, r2
 800208c:	d107      	bne.n	800209e <HAL_DMA_IRQHandler+0x4c>
  	{
  		/* Disable the half transfer interrupt */
  		hdma->Instance->CCR &= ~DMA_IT_HT;
 800208e:	687b      	ldr	r3, [r7, #4]
 8002090:	681b      	ldr	r3, [r3, #0]
 8002092:	681a      	ldr	r2, [r3, #0]
 8002094:	687b      	ldr	r3, [r7, #4]
 8002096:	681b      	ldr	r3, [r3, #0]
 8002098:	2104      	movs	r1, #4
 800209a:	438a      	bics	r2, r1
 800209c:	601a      	str	r2, [r3, #0]
  	}
  	
  	/* Clear the half transfer complete flag */
  	hdma->DmaBaseAddress->IFCR = DMA_FLAG_HT1 << hdma->ChannelIndex;
 800209e:	687b      	ldr	r3, [r7, #4]
 80020a0:	6c1a      	ldr	r2, [r3, #64]	; 0x40
 80020a2:	687b      	ldr	r3, [r7, #4]
 80020a4:	6bdb      	ldr	r3, [r3, #60]	; 0x3c
 80020a6:	2104      	movs	r1, #4
 80020a8:	4091      	lsls	r1, r2
 80020aa:	000a      	movs	r2, r1
 80020ac:	605a      	str	r2, [r3, #4]
  	
  	/* DMA peripheral state is not updated in Half Transfer */
  	/* State is updated only in Transfer Complete case */
  	
  	if(hdma->XferHalfCpltCallback != NULL)
 80020ae:	687b      	ldr	r3, [r7, #4]
 80020b0:	6adb      	ldr	r3, [r3, #44]	; 0x2c
 80020b2:	2b00      	cmp	r3, #0
 80020b4:	d100      	bne.n	80020b8 <HAL_DMA_IRQHandler+0x66>
 80020b6:	e06a      	b.n	800218e <HAL_DMA_IRQHandler+0x13c>
  	{
  		/* Half transfer callback */
  		hdma->XferHalfCpltCallback(hdma);
 80020b8:	687b      	ldr	r3, [r7, #4]
 80020ba:	6adb      	ldr	r3, [r3, #44]	; 0x2c
 80020bc:	687a      	ldr	r2, [r7, #4]
 80020be:	0010      	movs	r0, r2
 80020c0:	4798      	blx	r3
  	if(hdma->XferHalfCpltCallback != NULL)
 80020c2:	e064      	b.n	800218e <HAL_DMA_IRQHandler+0x13c>
  	}
  }
  
  /* Transfer Complete Interrupt management ***********************************/
  else if ((RESET != (flag_it & (DMA_FLAG_TC1 << hdma->ChannelIndex))) && (RESET != (source_it & DMA_IT_TC)))
 80020c4:	687b      	ldr	r3, [r7, #4]
 80020c6:	6c1b      	ldr	r3, [r3, #64]	; 0x40
 80020c8:	2202      	movs	r2, #2
 80020ca:	409a      	lsls	r2, r3
 80020cc:	0013      	movs	r3, r2
 80020ce:	68fa      	ldr	r2, [r7, #12]
 80020d0:	4013      	ands	r3, r2
 80020d2:	d02b      	beq.n	800212c <HAL_DMA_IRQHandler+0xda>
 80020d4:	68bb      	ldr	r3, [r7, #8]
 80020d6:	2202      	movs	r2, #2
 80020d8:	4013      	ands	r3, r2
 80020da:	d027      	beq.n	800212c <HAL_DMA_IRQHandler+0xda>
  {
  	if((hdma->Instance->CCR & DMA_CCR_CIRC) == 0U)
 80020dc:	687b      	ldr	r3, [r7, #4]
 80020de:	681b      	ldr	r3, [r3, #0]
 80020e0:	681b      	ldr	r3, [r3, #0]
 80020e2:	2220      	movs	r2, #32
 80020e4:	4013      	ands	r3, r2
 80020e6:	d10b      	bne.n	8002100 <HAL_DMA_IRQHandler+0xae>
  	{
  		/* Disable the transfer complete  & transfer error interrupts */
  		/* if the DMA mode is not CIRCULAR */
  		hdma->Instance->CCR &= ~(DMA_IT_TC | DMA_IT_TE);
 80020e8:	687b      	ldr	r3, [r7, #4]
 80020ea:	681b      	ldr	r3, [r3, #0]
 80020ec:	681a      	ldr	r2, [r3, #0]
 80020ee:	687b      	ldr	r3, [r7, #4]
 80020f0:	681b      	ldr	r3, [r3, #0]
 80020f2:	210a      	movs	r1, #10
 80020f4:	438a      	bics	r2, r1
 80020f6:	601a      	str	r2, [r3, #0]
  		
  		/* Change the DMA state */
  		hdma->State = HAL_DMA_STATE_READY;
 80020f8:	687b      	ldr	r3, [r7, #4]
 80020fa:	2221      	movs	r2, #33	; 0x21
 80020fc:	2101      	movs	r1, #1
 80020fe:	5499      	strb	r1, [r3, r2]
  	}
  	
  	/* Clear the transfer complete flag */
  	hdma->DmaBaseAddress->IFCR = DMA_FLAG_TC1 << hdma->ChannelIndex;
 8002100:	687b      	ldr	r3, [r7, #4]
 8002102:	6c1a      	ldr	r2, [r3, #64]	; 0x40
 8002104:	687b      	ldr	r3, [r7, #4]
 8002106:	6bdb      	ldr	r3, [r3, #60]	; 0x3c
 8002108:	2102      	movs	r1, #2
 800210a:	4091      	lsls	r1, r2
 800210c:	000a      	movs	r2, r1
 800210e:	605a      	str	r2, [r3, #4]
  	
  	/* Process Unlocked */
  	__HAL_UNLOCK(hdma);
 8002110:	687b      	ldr	r3, [r7, #4]
 8002112:	2220      	movs	r2, #32
 8002114:	2100      	movs	r1, #0
 8002116:	5499      	strb	r1, [r3, r2]
  	
  	if(hdma->XferCpltCallback != NULL)
 8002118:	687b      	ldr	r3, [r7, #4]
 800211a:	6a9b      	ldr	r3, [r3, #40]	; 0x28
 800211c:	2b00      	cmp	r3, #0
 800211e:	d036      	beq.n	800218e <HAL_DMA_IRQHandler+0x13c>
  	{
  		/* Transfer complete callback */
  		hdma->XferCpltCallback(hdma);
 8002120:	687b      	ldr	r3, [r7, #4]
 8002122:	6a9b      	ldr	r3, [r3, #40]	; 0x28
 8002124:	687a      	ldr	r2, [r7, #4]
 8002126:	0010      	movs	r0, r2
 8002128:	4798      	blx	r3
  	if(hdma->XferCpltCallback != NULL)
 800212a:	e030      	b.n	800218e <HAL_DMA_IRQHandler+0x13c>
  	}
  }
  
  /* Transfer Error Interrupt management ***************************************/
  else if (( RESET != (flag_it & (DMA_FLAG_TE1 << hdma->ChannelIndex))) && (RESET != (source_it & DMA_IT_TE)))
 800212c:	687b      	ldr	r3, [r7, #4]
 800212e:	6c1b      	ldr	r3, [r3, #64]	; 0x40
 8002130:	2208      	movs	r2, #8
 8002132:	409a      	lsls	r2, r3
 8002134:	0013      	movs	r3, r2
 8002136:	68fa      	ldr	r2, [r7, #12]
 8002138:	4013      	ands	r3, r2
 800213a:	d028      	beq.n	800218e <HAL_DMA_IRQHandler+0x13c>
 800213c:	68bb      	ldr	r3, [r7, #8]
 800213e:	2208      	movs	r2, #8
 8002140:	4013      	ands	r3, r2
 8002142:	d024      	beq.n	800218e <HAL_DMA_IRQHandler+0x13c>
  {
  	/* When a DMA transfer error occurs */
    /* A hardware clear of its EN bits is performed */
    /* Then, disable all DMA interrupts */
    hdma->Instance->CCR &= ~(DMA_IT_TC | DMA_IT_HT | DMA_IT_TE);
 8002144:	687b      	ldr	r3, [r7, #4]
 8002146:	681b      	ldr	r3, [r3, #0]
 8002148:	681a      	ldr	r2, [r3, #0]
 800214a:	687b      	ldr	r3, [r7, #4]
 800214c:	681b      	ldr	r3, [r3, #0]
 800214e:	210e      	movs	r1, #14
 8002150:	438a      	bics	r2, r1
 8002152:	601a      	str	r2, [r3, #0]
    
    /* Clear all flags */
    hdma->DmaBaseAddress->IFCR = DMA_FLAG_GL1 << hdma->ChannelIndex;
 8002154:	687b      	ldr	r3, [r7, #4]
 8002156:	6c1a      	ldr	r2, [r3, #64]	; 0x40
 8002158:	687b      	ldr	r3, [r7, #4]
 800215a:	6bdb      	ldr	r3, [r3, #60]	; 0x3c
 800215c:	2101      	movs	r1, #1
 800215e:	4091      	lsls	r1, r2
 8002160:	000a      	movs	r2, r1
 8002162:	605a      	str	r2, [r3, #4]
    
    /* Update error code */
    hdma->ErrorCode = HAL_DMA_ERROR_TE;
 8002164:	687b      	ldr	r3, [r7, #4]
 8002166:	2201      	movs	r2, #1
 8002168:	639a      	str	r2, [r3, #56]	; 0x38
    
    /* Change the DMA state */
    hdma->State = HAL_DMA_STATE_READY;    
 800216a:	687b      	ldr	r3, [r7, #4]
 800216c:	2221      	movs	r2, #33	; 0x21
 800216e:	2101      	movs	r1, #1
 8002170:	5499      	strb	r1, [r3, r2]
    
    /* Process Unlocked */
    __HAL_UNLOCK(hdma); 
 8002172:	687b      	ldr	r3, [r7, #4]
 8002174:	2220      	movs	r2, #32
 8002176:	2100      	movs	r1, #0
 8002178:	5499      	strb	r1, [r3, r2]
    
    if(hdma->XferErrorCallback != NULL)
 800217a:	687b      	ldr	r3, [r7, #4]
 800217c:	6b1b      	ldr	r3, [r3, #48]	; 0x30
 800217e:	2b00      	cmp	r3, #0
 8002180:	d005      	beq.n	800218e <HAL_DMA_IRQHandler+0x13c>
    {
    	/* Transfer error callback */
    	hdma->XferErrorCallback(hdma);
 8002182:	687b      	ldr	r3, [r7, #4]
 8002184:	6b1b      	ldr	r3, [r3, #48]	; 0x30
 8002186:	687a      	ldr	r2, [r7, #4]
 8002188:	0010      	movs	r0, r2
 800218a:	4798      	blx	r3
    }
   }
}  
 800218c:	e7ff      	b.n	800218e <HAL_DMA_IRQHandler+0x13c>
 800218e:	46c0      	nop			; (mov r8, r8)
 8002190:	46bd      	mov	sp, r7
 8002192:	b004      	add	sp, #16
 8002194:	bd80      	pop	{r7, pc}

08002196 <HAL_DMA_GetState>:
  * @param  hdma pointer to a DMA_HandleTypeDef structure that contains
  *               the configuration information for the specified DMA Channel.  
  * @retval HAL state
  */
HAL_DMA_StateTypeDef HAL_DMA_GetState(DMA_HandleTypeDef *hdma)
{
 8002196:	b580      	push	{r7, lr}
 8002198:	b082      	sub	sp, #8
 800219a:	af00      	add	r7, sp, #0
 800219c:	6078      	str	r0, [r7, #4]
  return hdma->State;
 800219e:	687b      	ldr	r3, [r7, #4]
 80021a0:	2221      	movs	r2, #33	; 0x21
 80021a2:	5c9b      	ldrb	r3, [r3, r2]
 80021a4:	b2db      	uxtb	r3, r3
}
 80021a6:	0018      	movs	r0, r3
 80021a8:	46bd      	mov	sp, r7
 80021aa:	b002      	add	sp, #8
 80021ac:	bd80      	pop	{r7, pc}

080021ae <DMA_SetConfig>:
  * @param  DstAddress The destination memory Buffer address
  * @param  DataLength The length of data to be transferred from source to destination
  * @retval HAL status
  */
static void DMA_SetConfig(DMA_HandleTypeDef *hdma, uint32_t SrcAddress, uint32_t DstAddress, uint32_t DataLength)
{
 80021ae:	b580      	push	{r7, lr}
 80021b0:	b084      	sub	sp, #16
 80021b2:	af00      	add	r7, sp, #0
 80021b4:	60f8      	str	r0, [r7, #12]
 80021b6:	60b9      	str	r1, [r7, #8]
 80021b8:	607a      	str	r2, [r7, #4]
 80021ba:	603b      	str	r3, [r7, #0]
	/* Clear all flags */
  hdma->DmaBaseAddress->IFCR  = (DMA_FLAG_GL1 << hdma->ChannelIndex);
 80021bc:	68fb      	ldr	r3, [r7, #12]
 80021be:	6c1a      	ldr	r2, [r3, #64]	; 0x40
 80021c0:	68fb      	ldr	r3, [r7, #12]
 80021c2:	6bdb      	ldr	r3, [r3, #60]	; 0x3c
 80021c4:	2101      	movs	r1, #1
 80021c6:	4091      	lsls	r1, r2
 80021c8:	000a      	movs	r2, r1
 80021ca:	605a      	str	r2, [r3, #4]
  
  /* Configure DMA Channel data length */
  hdma->Instance->CNDTR = DataLength;
 80021cc:	68fb      	ldr	r3, [r7, #12]
 80021ce:	681b      	ldr	r3, [r3, #0]
 80021d0:	683a      	ldr	r2, [r7, #0]
 80021d2:	605a      	str	r2, [r3, #4]
  
  /* Memory to Peripheral */
  if((hdma->Init.Direction) == DMA_MEMORY_TO_PERIPH)
 80021d4:	68fb      	ldr	r3, [r7, #12]
 80021d6:	685b      	ldr	r3, [r3, #4]
 80021d8:	2b10      	cmp	r3, #16
 80021da:	d108      	bne.n	80021ee <DMA_SetConfig+0x40>
  {   
    /* Configure DMA Channel destination address */
    hdma->Instance->CPAR = DstAddress;
 80021dc:	68fb      	ldr	r3, [r7, #12]
 80021de:	681b      	ldr	r3, [r3, #0]
 80021e0:	687a      	ldr	r2, [r7, #4]
 80021e2:	609a      	str	r2, [r3, #8]
    
    /* Configure DMA Channel source address */
    hdma->Instance->CMAR = SrcAddress;
 80021e4:	68fb      	ldr	r3, [r7, #12]
 80021e6:	681b      	ldr	r3, [r3, #0]
 80021e8:	68ba      	ldr	r2, [r7, #8]
 80021ea:	60da      	str	r2, [r3, #12]
    hdma->Instance->CPAR = SrcAddress;
    
    /* Configure DMA Channel destination address */
    hdma->Instance->CMAR = DstAddress;
  }
}
 80021ec:	e007      	b.n	80021fe <DMA_SetConfig+0x50>
    hdma->Instance->CPAR = SrcAddress;
 80021ee:	68fb      	ldr	r3, [r7, #12]
 80021f0:	681b      	ldr	r3, [r3, #0]
 80021f2:	68ba      	ldr	r2, [r7, #8]
 80021f4:	609a      	str	r2, [r3, #8]
    hdma->Instance->CMAR = DstAddress;
 80021f6:	68fb      	ldr	r3, [r7, #12]
 80021f8:	681b      	ldr	r3, [r3, #0]
 80021fa:	687a      	ldr	r2, [r7, #4]
 80021fc:	60da      	str	r2, [r3, #12]
}
 80021fe:	46c0      	nop			; (mov r8, r8)
 8002200:	46bd      	mov	sp, r7
 8002202:	b004      	add	sp, #16
 8002204:	bd80      	pop	{r7, pc}
	...

08002208 <DMA_CalcBaseAndBitshift>:
  * @param  hdma       pointer to a DMA_HandleTypeDef structure that contains
  *                     the configuration information for the specified DMA Stream. 
  * @retval None
  */
static void DMA_CalcBaseAndBitshift(DMA_HandleTypeDef *hdma)
{
 8002208:	b580      	push	{r7, lr}
 800220a:	b082      	sub	sp, #8
 800220c:	af00      	add	r7, sp, #0
 800220e:	6078      	str	r0, [r7, #4]
    hdma->DmaBaseAddress = DMA2;
  }
#else
  /* calculation of the channel index */
  /* DMA1 */
  hdma->ChannelIndex = (((uint32_t)hdma->Instance - (uint32_t)DMA1_Channel1) / ((uint32_t)DMA1_Channel2 - (uint32_t)DMA1_Channel1)) << 2U;
 8002210:	687b      	ldr	r3, [r7, #4]
 8002212:	681b      	ldr	r3, [r3, #0]
 8002214:	4a08      	ldr	r2, [pc, #32]	; (8002238 <DMA_CalcBaseAndBitshift+0x30>)
 8002216:	4694      	mov	ip, r2
 8002218:	4463      	add	r3, ip
 800221a:	2114      	movs	r1, #20
 800221c:	0018      	movs	r0, r3
 800221e:	f7fd ff85 	bl	800012c <__udivsi3>
 8002222:	0003      	movs	r3, r0
 8002224:	009a      	lsls	r2, r3, #2
 8002226:	687b      	ldr	r3, [r7, #4]
 8002228:	641a      	str	r2, [r3, #64]	; 0x40
  hdma->DmaBaseAddress = DMA1;
 800222a:	687b      	ldr	r3, [r7, #4]
 800222c:	4a03      	ldr	r2, [pc, #12]	; (800223c <DMA_CalcBaseAndBitshift+0x34>)
 800222e:	63da      	str	r2, [r3, #60]	; 0x3c
#endif
}
 8002230:	46c0      	nop			; (mov r8, r8)
 8002232:	46bd      	mov	sp, r7
 8002234:	b002      	add	sp, #8
 8002236:	bd80      	pop	{r7, pc}
 8002238:	bffdfff8 	.word	0xbffdfff8
 800223c:	40020000 	.word	0x40020000

08002240 <HAL_GPIO_Init>:
  * @param  GPIO_Init pointer to a GPIO_InitTypeDef structure that contains
  *         the configuration information for the specified GPIO peripheral.
  * @retval None
  */
void HAL_GPIO_Init(GPIO_TypeDef  *GPIOx, GPIO_InitTypeDef *GPIO_Init)
{
 8002240:	b580      	push	{r7, lr}
 8002242:	b086      	sub	sp, #24
 8002244:	af00      	add	r7, sp, #0
 8002246:	6078      	str	r0, [r7, #4]
 8002248:	6039      	str	r1, [r7, #0]
  uint32_t position = 0x00u;
 800224a:	2300      	movs	r3, #0
 800224c:	617b      	str	r3, [r7, #20]
  assert_param(IS_GPIO_ALL_INSTANCE(GPIOx));
  assert_param(IS_GPIO_PIN(GPIO_Init->Pin));
  assert_param(IS_GPIO_MODE(GPIO_Init->Mode));

  /* Configure the port pins */
  while (((GPIO_Init->Pin) >> position) != 0x00u)
 800224e:	e149      	b.n	80024e4 <HAL_GPIO_Init+0x2a4>
  {
    /* Get current io position */
    iocurrent = (GPIO_Init->Pin) & (1uL << position);
 8002250:	683b      	ldr	r3, [r7, #0]
 8002252:	681b      	ldr	r3, [r3, #0]
 8002254:	2101      	movs	r1, #1
 8002256:	697a      	ldr	r2, [r7, #20]
 8002258:	4091      	lsls	r1, r2
 800225a:	000a      	movs	r2, r1
 800225c:	4013      	ands	r3, r2
 800225e:	60fb      	str	r3, [r7, #12]

    if (iocurrent != 0x00u)
 8002260:	68fb      	ldr	r3, [r7, #12]
 8002262:	2b00      	cmp	r3, #0
 8002264:	d100      	bne.n	8002268 <HAL_GPIO_Init+0x28>
 8002266:	e13a      	b.n	80024de <HAL_GPIO_Init+0x29e>
    {
      /*--------------------- GPIO Mode Configuration ------------------------*/
      /* In case of Output or Alternate function mode selection */
      if(((GPIO_Init->Mode & GPIO_MODE) == MODE_OUTPUT) ||
 8002268:	683b      	ldr	r3, [r7, #0]
 800226a:	685b      	ldr	r3, [r3, #4]
 800226c:	2203      	movs	r2, #3
 800226e:	4013      	ands	r3, r2
 8002270:	2b01      	cmp	r3, #1
 8002272:	d005      	beq.n	8002280 <HAL_GPIO_Init+0x40>
         ((GPIO_Init->Mode & GPIO_MODE) == MODE_AF))
 8002274:	683b      	ldr	r3, [r7, #0]
 8002276:	685b      	ldr	r3, [r3, #4]
 8002278:	2203      	movs	r2, #3
 800227a:	4013      	ands	r3, r2
      if(((GPIO_Init->Mode & GPIO_MODE) == MODE_OUTPUT) ||
 800227c:	2b02      	cmp	r3, #2
 800227e:	d130      	bne.n	80022e2 <HAL_GPIO_Init+0xa2>
      {
        /* Check the Speed parameter */
        assert_param(IS_GPIO_SPEED(GPIO_Init->Speed));
        /* Configure the IO Speed */
        temp = GPIOx->OSPEEDR;
 8002280:	687b      	ldr	r3, [r7, #4]
 8002282:	689b      	ldr	r3, [r3, #8]
 8002284:	613b      	str	r3, [r7, #16]
        temp &= ~(GPIO_OSPEEDER_OSPEEDR0 << (position * 2u));
 8002286:	697b      	ldr	r3, [r7, #20]
 8002288:	005b      	lsls	r3, r3, #1
 800228a:	2203      	movs	r2, #3
 800228c:	409a      	lsls	r2, r3
 800228e:	0013      	movs	r3, r2
 8002290:	43da      	mvns	r2, r3
 8002292:	693b      	ldr	r3, [r7, #16]
 8002294:	4013      	ands	r3, r2
 8002296:	613b      	str	r3, [r7, #16]
        temp |= (GPIO_Init->Speed << (position * 2u));
 8002298:	683b      	ldr	r3, [r7, #0]
 800229a:	68da      	ldr	r2, [r3, #12]
 800229c:	697b      	ldr	r3, [r7, #20]
 800229e:	005b      	lsls	r3, r3, #1
 80022a0:	409a      	lsls	r2, r3
 80022a2:	0013      	movs	r3, r2
 80022a4:	693a      	ldr	r2, [r7, #16]
 80022a6:	4313      	orrs	r3, r2
 80022a8:	613b      	str	r3, [r7, #16]
        GPIOx->OSPEEDR = temp;
 80022aa:	687b      	ldr	r3, [r7, #4]
 80022ac:	693a      	ldr	r2, [r7, #16]
 80022ae:	609a      	str	r2, [r3, #8]

        /* Configure the IO Output Type */
        temp = GPIOx->OTYPER;
 80022b0:	687b      	ldr	r3, [r7, #4]
 80022b2:	685b      	ldr	r3, [r3, #4]
 80022b4:	613b      	str	r3, [r7, #16]
        temp &= ~(GPIO_OTYPER_OT_0 << position) ;
 80022b6:	2201      	movs	r2, #1
 80022b8:	697b      	ldr	r3, [r7, #20]
 80022ba:	409a      	lsls	r2, r3
 80022bc:	0013      	movs	r3, r2
 80022be:	43da      	mvns	r2, r3
 80022c0:	693b      	ldr	r3, [r7, #16]
 80022c2:	4013      	ands	r3, r2
 80022c4:	613b      	str	r3, [r7, #16]
        temp |= (((GPIO_Init->Mode & OUTPUT_TYPE) >> OUTPUT_TYPE_Pos) << position);
 80022c6:	683b      	ldr	r3, [r7, #0]
 80022c8:	685b      	ldr	r3, [r3, #4]
 80022ca:	091b      	lsrs	r3, r3, #4
 80022cc:	2201      	movs	r2, #1
 80022ce:	401a      	ands	r2, r3
 80022d0:	697b      	ldr	r3, [r7, #20]
 80022d2:	409a      	lsls	r2, r3
 80022d4:	0013      	movs	r3, r2
 80022d6:	693a      	ldr	r2, [r7, #16]
 80022d8:	4313      	orrs	r3, r2
 80022da:	613b      	str	r3, [r7, #16]
        GPIOx->OTYPER = temp;
 80022dc:	687b      	ldr	r3, [r7, #4]
 80022de:	693a      	ldr	r2, [r7, #16]
 80022e0:	605a      	str	r2, [r3, #4]
      }
      
      if((GPIO_Init->Mode & GPIO_MODE) != MODE_ANALOG)
 80022e2:	683b      	ldr	r3, [r7, #0]
 80022e4:	685b      	ldr	r3, [r3, #4]
 80022e6:	2203      	movs	r2, #3
 80022e8:	4013      	ands	r3, r2
 80022ea:	2b03      	cmp	r3, #3
 80022ec:	d017      	beq.n	800231e <HAL_GPIO_Init+0xde>
      {
        /* Check the Pull parameter */
        assert_param(IS_GPIO_PULL(GPIO_Init->Pull));

        /* Activate the Pull-up or Pull down resistor for the current IO */
        temp = GPIOx->PUPDR;
 80022ee:	687b      	ldr	r3, [r7, #4]
 80022f0:	68db      	ldr	r3, [r3, #12]
 80022f2:	613b      	str	r3, [r7, #16]
        temp &= ~(GPIO_PUPDR_PUPDR0 << (position * 2u));
 80022f4:	697b      	ldr	r3, [r7, #20]
 80022f6:	005b      	lsls	r3, r3, #1
 80022f8:	2203      	movs	r2, #3
 80022fa:	409a      	lsls	r2, r3
 80022fc:	0013      	movs	r3, r2
 80022fe:	43da      	mvns	r2, r3
 8002300:	693b      	ldr	r3, [r7, #16]
 8002302:	4013      	ands	r3, r2
 8002304:	613b      	str	r3, [r7, #16]
        temp |= ((GPIO_Init->Pull) << (position * 2u));
 8002306:	683b      	ldr	r3, [r7, #0]
 8002308:	689a      	ldr	r2, [r3, #8]
 800230a:	697b      	ldr	r3, [r7, #20]
 800230c:	005b      	lsls	r3, r3, #1
 800230e:	409a      	lsls	r2, r3
 8002310:	0013      	movs	r3, r2
 8002312:	693a      	ldr	r2, [r7, #16]
 8002314:	4313      	orrs	r3, r2
 8002316:	613b      	str	r3, [r7, #16]
        GPIOx->PUPDR = temp;
 8002318:	687b      	ldr	r3, [r7, #4]
 800231a:	693a      	ldr	r2, [r7, #16]
 800231c:	60da      	str	r2, [r3, #12]
      }

      /* In case of Alternate function mode selection */
      if((GPIO_Init->Mode & GPIO_MODE) == MODE_AF)
 800231e:	683b      	ldr	r3, [r7, #0]
 8002320:	685b      	ldr	r3, [r3, #4]
 8002322:	2203      	movs	r2, #3
 8002324:	4013      	ands	r3, r2
 8002326:	2b02      	cmp	r3, #2
 8002328:	d123      	bne.n	8002372 <HAL_GPIO_Init+0x132>
        /* Check the Alternate function parameters */
        assert_param(IS_GPIO_AF_INSTANCE(GPIOx));
        assert_param(IS_GPIO_AF(GPIO_Init->Alternate));

        /* Configure Alternate function mapped with the current IO */
        temp = GPIOx->AFR[position >> 3u];
 800232a:	697b      	ldr	r3, [r7, #20]
 800232c:	08da      	lsrs	r2, r3, #3
 800232e:	687b      	ldr	r3, [r7, #4]
 8002330:	3208      	adds	r2, #8
 8002332:	0092      	lsls	r2, r2, #2
 8002334:	58d3      	ldr	r3, [r2, r3]
 8002336:	613b      	str	r3, [r7, #16]
        temp &= ~(0xFu << ((position & 0x07u) * 4u));
 8002338:	697b      	ldr	r3, [r7, #20]
 800233a:	2207      	movs	r2, #7
 800233c:	4013      	ands	r3, r2
 800233e:	009b      	lsls	r3, r3, #2
 8002340:	220f      	movs	r2, #15
 8002342:	409a      	lsls	r2, r3
 8002344:	0013      	movs	r3, r2
 8002346:	43da      	mvns	r2, r3
 8002348:	693b      	ldr	r3, [r7, #16]
 800234a:	4013      	ands	r3, r2
 800234c:	613b      	str	r3, [r7, #16]
        temp |= ((GPIO_Init->Alternate) << ((position & 0x07u) * 4u));
 800234e:	683b      	ldr	r3, [r7, #0]
 8002350:	691a      	ldr	r2, [r3, #16]
 8002352:	697b      	ldr	r3, [r7, #20]
 8002354:	2107      	movs	r1, #7
 8002356:	400b      	ands	r3, r1
 8002358:	009b      	lsls	r3, r3, #2
 800235a:	409a      	lsls	r2, r3
 800235c:	0013      	movs	r3, r2
 800235e:	693a      	ldr	r2, [r7, #16]
 8002360:	4313      	orrs	r3, r2
 8002362:	613b      	str	r3, [r7, #16]
        GPIOx->AFR[position >> 3u] = temp;
 8002364:	697b      	ldr	r3, [r7, #20]
 8002366:	08da      	lsrs	r2, r3, #3
 8002368:	687b      	ldr	r3, [r7, #4]
 800236a:	3208      	adds	r2, #8
 800236c:	0092      	lsls	r2, r2, #2
 800236e:	6939      	ldr	r1, [r7, #16]
 8002370:	50d1      	str	r1, [r2, r3]
      }

      /* Configure IO Direction mode (Input, Output, Alternate or Analog) */
      temp = GPIOx->MODER;
 8002372:	687b      	ldr	r3, [r7, #4]
 8002374:	681b      	ldr	r3, [r3, #0]
 8002376:	613b      	str	r3, [r7, #16]
      temp &= ~(GPIO_MODER_MODER0 << (position * 2u));
 8002378:	697b      	ldr	r3, [r7, #20]
 800237a:	005b      	lsls	r3, r3, #1
 800237c:	2203      	movs	r2, #3
 800237e:	409a      	lsls	r2, r3
 8002380:	0013      	movs	r3, r2
 8002382:	43da      	mvns	r2, r3
 8002384:	693b      	ldr	r3, [r7, #16]
 8002386:	4013      	ands	r3, r2
 8002388:	613b      	str	r3, [r7, #16]
      temp |= ((GPIO_Init->Mode & GPIO_MODE) << (position * 2u));
 800238a:	683b      	ldr	r3, [r7, #0]
 800238c:	685b      	ldr	r3, [r3, #4]
 800238e:	2203      	movs	r2, #3
 8002390:	401a      	ands	r2, r3
 8002392:	697b      	ldr	r3, [r7, #20]
 8002394:	005b      	lsls	r3, r3, #1
 8002396:	409a      	lsls	r2, r3
 8002398:	0013      	movs	r3, r2
 800239a:	693a      	ldr	r2, [r7, #16]
 800239c:	4313      	orrs	r3, r2
 800239e:	613b      	str	r3, [r7, #16]
      GPIOx->MODER = temp;
 80023a0:	687b      	ldr	r3, [r7, #4]
 80023a2:	693a      	ldr	r2, [r7, #16]
 80023a4:	601a      	str	r2, [r3, #0]

      /*--------------------- EXTI Mode Configuration ------------------------*/
      /* Configure the External Interrupt or event for the current IO */
      if((GPIO_Init->Mode & EXTI_MODE) != 0x00u)
 80023a6:	683b      	ldr	r3, [r7, #0]
 80023a8:	685a      	ldr	r2, [r3, #4]
 80023aa:	23c0      	movs	r3, #192	; 0xc0
 80023ac:	029b      	lsls	r3, r3, #10
 80023ae:	4013      	ands	r3, r2
 80023b0:	d100      	bne.n	80023b4 <HAL_GPIO_Init+0x174>
 80023b2:	e094      	b.n	80024de <HAL_GPIO_Init+0x29e>
      {
        /* Enable SYSCFG Clock */
        __HAL_RCC_SYSCFG_CLK_ENABLE();
 80023b4:	4b51      	ldr	r3, [pc, #324]	; (80024fc <HAL_GPIO_Init+0x2bc>)
 80023b6:	699a      	ldr	r2, [r3, #24]
 80023b8:	4b50      	ldr	r3, [pc, #320]	; (80024fc <HAL_GPIO_Init+0x2bc>)
 80023ba:	2101      	movs	r1, #1
 80023bc:	430a      	orrs	r2, r1
 80023be:	619a      	str	r2, [r3, #24]
 80023c0:	4b4e      	ldr	r3, [pc, #312]	; (80024fc <HAL_GPIO_Init+0x2bc>)
 80023c2:	699b      	ldr	r3, [r3, #24]
 80023c4:	2201      	movs	r2, #1
 80023c6:	4013      	ands	r3, r2
 80023c8:	60bb      	str	r3, [r7, #8]
 80023ca:	68bb      	ldr	r3, [r7, #8]

        temp = SYSCFG->EXTICR[position >> 2u];
 80023cc:	4a4c      	ldr	r2, [pc, #304]	; (8002500 <HAL_GPIO_Init+0x2c0>)
 80023ce:	697b      	ldr	r3, [r7, #20]
 80023d0:	089b      	lsrs	r3, r3, #2
 80023d2:	3302      	adds	r3, #2
 80023d4:	009b      	lsls	r3, r3, #2
 80023d6:	589b      	ldr	r3, [r3, r2]
 80023d8:	613b      	str	r3, [r7, #16]
        temp &= ~(0x0FuL << (4u * (position & 0x03u)));
 80023da:	697b      	ldr	r3, [r7, #20]
 80023dc:	2203      	movs	r2, #3
 80023de:	4013      	ands	r3, r2
 80023e0:	009b      	lsls	r3, r3, #2
 80023e2:	220f      	movs	r2, #15
 80023e4:	409a      	lsls	r2, r3
 80023e6:	0013      	movs	r3, r2
 80023e8:	43da      	mvns	r2, r3
 80023ea:	693b      	ldr	r3, [r7, #16]
 80023ec:	4013      	ands	r3, r2
 80023ee:	613b      	str	r3, [r7, #16]
        temp |= (GPIO_GET_INDEX(GPIOx) << (4u * (position & 0x03u)));
 80023f0:	687a      	ldr	r2, [r7, #4]
 80023f2:	2390      	movs	r3, #144	; 0x90
 80023f4:	05db      	lsls	r3, r3, #23
 80023f6:	429a      	cmp	r2, r3
 80023f8:	d00d      	beq.n	8002416 <HAL_GPIO_Init+0x1d6>
 80023fa:	687b      	ldr	r3, [r7, #4]
 80023fc:	4a41      	ldr	r2, [pc, #260]	; (8002504 <HAL_GPIO_Init+0x2c4>)
 80023fe:	4293      	cmp	r3, r2
 8002400:	d007      	beq.n	8002412 <HAL_GPIO_Init+0x1d2>
 8002402:	687b      	ldr	r3, [r7, #4]
 8002404:	4a40      	ldr	r2, [pc, #256]	; (8002508 <HAL_GPIO_Init+0x2c8>)
 8002406:	4293      	cmp	r3, r2
 8002408:	d101      	bne.n	800240e <HAL_GPIO_Init+0x1ce>
 800240a:	2302      	movs	r3, #2
 800240c:	e004      	b.n	8002418 <HAL_GPIO_Init+0x1d8>
 800240e:	2305      	movs	r3, #5
 8002410:	e002      	b.n	8002418 <HAL_GPIO_Init+0x1d8>
 8002412:	2301      	movs	r3, #1
 8002414:	e000      	b.n	8002418 <HAL_GPIO_Init+0x1d8>
 8002416:	2300      	movs	r3, #0
 8002418:	697a      	ldr	r2, [r7, #20]
 800241a:	2103      	movs	r1, #3
 800241c:	400a      	ands	r2, r1
 800241e:	0092      	lsls	r2, r2, #2
 8002420:	4093      	lsls	r3, r2
 8002422:	693a      	ldr	r2, [r7, #16]
 8002424:	4313      	orrs	r3, r2
 8002426:	613b      	str	r3, [r7, #16]
        SYSCFG->EXTICR[position >> 2u] = temp;
 8002428:	4935      	ldr	r1, [pc, #212]	; (8002500 <HAL_GPIO_Init+0x2c0>)
 800242a:	697b      	ldr	r3, [r7, #20]
 800242c:	089b      	lsrs	r3, r3, #2
 800242e:	3302      	adds	r3, #2
 8002430:	009b      	lsls	r3, r3, #2
 8002432:	693a      	ldr	r2, [r7, #16]
 8002434:	505a      	str	r2, [r3, r1]

        /* Clear EXTI line configuration */
        temp = EXTI->IMR;
 8002436:	4b35      	ldr	r3, [pc, #212]	; (800250c <HAL_GPIO_Init+0x2cc>)
 8002438:	681b      	ldr	r3, [r3, #0]
 800243a:	613b      	str	r3, [r7, #16]
        temp &= ~(iocurrent);
 800243c:	68fb      	ldr	r3, [r7, #12]
 800243e:	43da      	mvns	r2, r3
 8002440:	693b      	ldr	r3, [r7, #16]
 8002442:	4013      	ands	r3, r2
 8002444:	613b      	str	r3, [r7, #16]
        if((GPIO_Init->Mode & EXTI_IT) != 0x00u)
 8002446:	683b      	ldr	r3, [r7, #0]
 8002448:	685a      	ldr	r2, [r3, #4]
 800244a:	2380      	movs	r3, #128	; 0x80
 800244c:	025b      	lsls	r3, r3, #9
 800244e:	4013      	ands	r3, r2
 8002450:	d003      	beq.n	800245a <HAL_GPIO_Init+0x21a>
        {
          temp |= iocurrent;
 8002452:	693a      	ldr	r2, [r7, #16]
 8002454:	68fb      	ldr	r3, [r7, #12]
 8002456:	4313      	orrs	r3, r2
 8002458:	613b      	str	r3, [r7, #16]
        }
        EXTI->IMR = temp;
 800245a:	4b2c      	ldr	r3, [pc, #176]	; (800250c <HAL_GPIO_Init+0x2cc>)
 800245c:	693a      	ldr	r2, [r7, #16]
 800245e:	601a      	str	r2, [r3, #0]

        temp = EXTI->EMR;
 8002460:	4b2a      	ldr	r3, [pc, #168]	; (800250c <HAL_GPIO_Init+0x2cc>)
 8002462:	685b      	ldr	r3, [r3, #4]
 8002464:	613b      	str	r3, [r7, #16]
        temp &= ~(iocurrent);
 8002466:	68fb      	ldr	r3, [r7, #12]
 8002468:	43da      	mvns	r2, r3
 800246a:	693b      	ldr	r3, [r7, #16]
 800246c:	4013      	ands	r3, r2
 800246e:	613b      	str	r3, [r7, #16]
        if((GPIO_Init->Mode & EXTI_EVT) != 0x00u)
 8002470:	683b      	ldr	r3, [r7, #0]
 8002472:	685a      	ldr	r2, [r3, #4]
 8002474:	2380      	movs	r3, #128	; 0x80
 8002476:	029b      	lsls	r3, r3, #10
 8002478:	4013      	ands	r3, r2
 800247a:	d003      	beq.n	8002484 <HAL_GPIO_Init+0x244>
        {
          temp |= iocurrent;
 800247c:	693a      	ldr	r2, [r7, #16]
 800247e:	68fb      	ldr	r3, [r7, #12]
 8002480:	4313      	orrs	r3, r2
 8002482:	613b      	str	r3, [r7, #16]
        }
        EXTI->EMR = temp;
 8002484:	4b21      	ldr	r3, [pc, #132]	; (800250c <HAL_GPIO_Init+0x2cc>)
 8002486:	693a      	ldr	r2, [r7, #16]
 8002488:	605a      	str	r2, [r3, #4]

        /* Clear Rising Falling edge configuration */
        temp = EXTI->RTSR;
 800248a:	4b20      	ldr	r3, [pc, #128]	; (800250c <HAL_GPIO_Init+0x2cc>)
 800248c:	689b      	ldr	r3, [r3, #8]
 800248e:	613b      	str	r3, [r7, #16]
        temp &= ~(iocurrent);
 8002490:	68fb      	ldr	r3, [r7, #12]
 8002492:	43da      	mvns	r2, r3
 8002494:	693b      	ldr	r3, [r7, #16]
 8002496:	4013      	ands	r3, r2
 8002498:	613b      	str	r3, [r7, #16]
        if((GPIO_Init->Mode & TRIGGER_RISING) != 0x00u)
 800249a:	683b      	ldr	r3, [r7, #0]
 800249c:	685a      	ldr	r2, [r3, #4]
 800249e:	2380      	movs	r3, #128	; 0x80
 80024a0:	035b      	lsls	r3, r3, #13
 80024a2:	4013      	ands	r3, r2
 80024a4:	d003      	beq.n	80024ae <HAL_GPIO_Init+0x26e>
        {
          temp |= iocurrent;
 80024a6:	693a      	ldr	r2, [r7, #16]
 80024a8:	68fb      	ldr	r3, [r7, #12]
 80024aa:	4313      	orrs	r3, r2
 80024ac:	613b      	str	r3, [r7, #16]
        }
        EXTI->RTSR = temp;
 80024ae:	4b17      	ldr	r3, [pc, #92]	; (800250c <HAL_GPIO_Init+0x2cc>)
 80024b0:	693a      	ldr	r2, [r7, #16]
 80024b2:	609a      	str	r2, [r3, #8]

        temp = EXTI->FTSR;
 80024b4:	4b15      	ldr	r3, [pc, #84]	; (800250c <HAL_GPIO_Init+0x2cc>)
 80024b6:	68db      	ldr	r3, [r3, #12]
 80024b8:	613b      	str	r3, [r7, #16]
        temp &= ~(iocurrent);
 80024ba:	68fb      	ldr	r3, [r7, #12]
 80024bc:	43da      	mvns	r2, r3
 80024be:	693b      	ldr	r3, [r7, #16]
 80024c0:	4013      	ands	r3, r2
 80024c2:	613b      	str	r3, [r7, #16]
        if((GPIO_Init->Mode & TRIGGER_FALLING) != 0x00u)
 80024c4:	683b      	ldr	r3, [r7, #0]
 80024c6:	685a      	ldr	r2, [r3, #4]
 80024c8:	2380      	movs	r3, #128	; 0x80
 80024ca:	039b      	lsls	r3, r3, #14
 80024cc:	4013      	ands	r3, r2
 80024ce:	d003      	beq.n	80024d8 <HAL_GPIO_Init+0x298>
        {
          temp |= iocurrent;
 80024d0:	693a      	ldr	r2, [r7, #16]
 80024d2:	68fb      	ldr	r3, [r7, #12]
 80024d4:	4313      	orrs	r3, r2
 80024d6:	613b      	str	r3, [r7, #16]
        }
        EXTI->FTSR = temp;
 80024d8:	4b0c      	ldr	r3, [pc, #48]	; (800250c <HAL_GPIO_Init+0x2cc>)
 80024da:	693a      	ldr	r2, [r7, #16]
 80024dc:	60da      	str	r2, [r3, #12]
      }
    }

    position++;
 80024de:	697b      	ldr	r3, [r7, #20]
 80024e0:	3301      	adds	r3, #1
 80024e2:	617b      	str	r3, [r7, #20]
  while (((GPIO_Init->Pin) >> position) != 0x00u)
 80024e4:	683b      	ldr	r3, [r7, #0]
 80024e6:	681a      	ldr	r2, [r3, #0]
 80024e8:	697b      	ldr	r3, [r7, #20]
 80024ea:	40da      	lsrs	r2, r3
 80024ec:	1e13      	subs	r3, r2, #0
 80024ee:	d000      	beq.n	80024f2 <HAL_GPIO_Init+0x2b2>
 80024f0:	e6ae      	b.n	8002250 <HAL_GPIO_Init+0x10>
  } 
}
 80024f2:	46c0      	nop			; (mov r8, r8)
 80024f4:	46c0      	nop			; (mov r8, r8)
 80024f6:	46bd      	mov	sp, r7
 80024f8:	b006      	add	sp, #24
 80024fa:	bd80      	pop	{r7, pc}
 80024fc:	40021000 	.word	0x40021000
 8002500:	40010000 	.word	0x40010000
 8002504:	48000400 	.word	0x48000400
 8002508:	48000800 	.word	0x48000800
 800250c:	40010400 	.word	0x40010400

08002510 <HAL_GPIO_WritePin>:
  *            @arg GPIO_PIN_RESET: to clear the port pin
  *            @arg GPIO_PIN_SET: to set the port pin
  * @retval None
  */
void HAL_GPIO_WritePin(GPIO_TypeDef* GPIOx, uint16_t GPIO_Pin, GPIO_PinState PinState)
{
 8002510:	b580      	push	{r7, lr}
 8002512:	b082      	sub	sp, #8
 8002514:	af00      	add	r7, sp, #0
 8002516:	6078      	str	r0, [r7, #4]
 8002518:	0008      	movs	r0, r1
 800251a:	0011      	movs	r1, r2
 800251c:	1cbb      	adds	r3, r7, #2
 800251e:	1c02      	adds	r2, r0, #0
 8002520:	801a      	strh	r2, [r3, #0]
 8002522:	1c7b      	adds	r3, r7, #1
 8002524:	1c0a      	adds	r2, r1, #0
 8002526:	701a      	strb	r2, [r3, #0]
  /* Check the parameters */
  assert_param(IS_GPIO_PIN(GPIO_Pin));
  assert_param(IS_GPIO_PIN_ACTION(PinState));

  if (PinState != GPIO_PIN_RESET)
 8002528:	1c7b      	adds	r3, r7, #1
 800252a:	781b      	ldrb	r3, [r3, #0]
 800252c:	2b00      	cmp	r3, #0
 800252e:	d004      	beq.n	800253a <HAL_GPIO_WritePin+0x2a>
  {
    GPIOx->BSRR = (uint32_t)GPIO_Pin;
 8002530:	1cbb      	adds	r3, r7, #2
 8002532:	881a      	ldrh	r2, [r3, #0]
 8002534:	687b      	ldr	r3, [r7, #4]
 8002536:	619a      	str	r2, [r3, #24]
  }
  else
  {
    GPIOx->BRR = (uint32_t)GPIO_Pin;
  }
}
 8002538:	e003      	b.n	8002542 <HAL_GPIO_WritePin+0x32>
    GPIOx->BRR = (uint32_t)GPIO_Pin;
 800253a:	1cbb      	adds	r3, r7, #2
 800253c:	881a      	ldrh	r2, [r3, #0]
 800253e:	687b      	ldr	r3, [r7, #4]
 8002540:	629a      	str	r2, [r3, #40]	; 0x28
}
 8002542:	46c0      	nop			; (mov r8, r8)
 8002544:	46bd      	mov	sp, r7
 8002546:	b002      	add	sp, #8
 8002548:	bd80      	pop	{r7, pc}
	...

0800254c <HAL_I2C_Init>:
  * @param  hi2c Pointer to a I2C_HandleTypeDef structure that contains
  *                the configuration information for the specified I2C.
  * @retval HAL status
  */
HAL_StatusTypeDef HAL_I2C_Init(I2C_HandleTypeDef *hi2c)
{
 800254c:	b580      	push	{r7, lr}
 800254e:	b082      	sub	sp, #8
 8002550:	af00      	add	r7, sp, #0
 8002552:	6078      	str	r0, [r7, #4]
  /* Check the I2C handle allocation */
  if (hi2c == NULL)
 8002554:	687b      	ldr	r3, [r7, #4]
 8002556:	2b00      	cmp	r3, #0
 8002558:	d101      	bne.n	800255e <HAL_I2C_Init+0x12>
  {
    return HAL_ERROR;
 800255a:	2301      	movs	r3, #1
 800255c:	e082      	b.n	8002664 <HAL_I2C_Init+0x118>
  assert_param(IS_I2C_OWN_ADDRESS2(hi2c->Init.OwnAddress2));
  assert_param(IS_I2C_OWN_ADDRESS2_MASK(hi2c->Init.OwnAddress2Masks));
  assert_param(IS_I2C_GENERAL_CALL(hi2c->Init.GeneralCallMode));
  assert_param(IS_I2C_NO_STRETCH(hi2c->Init.NoStretchMode));

  if (hi2c->State == HAL_I2C_STATE_RESET)
 800255e:	687b      	ldr	r3, [r7, #4]
 8002560:	2241      	movs	r2, #65	; 0x41
 8002562:	5c9b      	ldrb	r3, [r3, r2]
 8002564:	b2db      	uxtb	r3, r3
 8002566:	2b00      	cmp	r3, #0
 8002568:	d107      	bne.n	800257a <HAL_I2C_Init+0x2e>
  {
    /* Allocate lock resource and initialize it */
    hi2c->Lock = HAL_UNLOCKED;
 800256a:	687b      	ldr	r3, [r7, #4]
 800256c:	2240      	movs	r2, #64	; 0x40
 800256e:	2100      	movs	r1, #0
 8002570:	5499      	strb	r1, [r3, r2]

    /* Init the low level hardware : GPIO, CLOCK, CORTEX...etc */
    hi2c->MspInitCallback(hi2c);
#else
    /* Init the low level hardware : GPIO, CLOCK, CORTEX...etc */
    HAL_I2C_MspInit(hi2c);
 8002572:	687b      	ldr	r3, [r7, #4]
 8002574:	0018      	movs	r0, r3
 8002576:	f7fe fcb7 	bl	8000ee8 <HAL_I2C_MspInit>
#endif /* USE_HAL_I2C_REGISTER_CALLBACKS */
  }

  hi2c->State = HAL_I2C_STATE_BUSY;
 800257a:	687b      	ldr	r3, [r7, #4]
 800257c:	2241      	movs	r2, #65	; 0x41
 800257e:	2124      	movs	r1, #36	; 0x24
 8002580:	5499      	strb	r1, [r3, r2]

  /* Disable the selected I2C peripheral */
  __HAL_I2C_DISABLE(hi2c);
 8002582:	687b      	ldr	r3, [r7, #4]
 8002584:	681b      	ldr	r3, [r3, #0]
 8002586:	681a      	ldr	r2, [r3, #0]
 8002588:	687b      	ldr	r3, [r7, #4]
 800258a:	681b      	ldr	r3, [r3, #0]
 800258c:	2101      	movs	r1, #1
 800258e:	438a      	bics	r2, r1
 8002590:	601a      	str	r2, [r3, #0]

  /*---------------------------- I2Cx TIMINGR Configuration ------------------*/
  /* Configure I2Cx: Frequency range */
  hi2c->Instance->TIMINGR = hi2c->Init.Timing & TIMING_CLEAR_MASK;
 8002592:	687b      	ldr	r3, [r7, #4]
 8002594:	685a      	ldr	r2, [r3, #4]
 8002596:	687b      	ldr	r3, [r7, #4]
 8002598:	681b      	ldr	r3, [r3, #0]
 800259a:	4934      	ldr	r1, [pc, #208]	; (800266c <HAL_I2C_Init+0x120>)
 800259c:	400a      	ands	r2, r1
 800259e:	611a      	str	r2, [r3, #16]

  /*---------------------------- I2Cx OAR1 Configuration ---------------------*/
  /* Disable Own Address1 before set the Own Address1 configuration */
  hi2c->Instance->OAR1 &= ~I2C_OAR1_OA1EN;
 80025a0:	687b      	ldr	r3, [r7, #4]
 80025a2:	681b      	ldr	r3, [r3, #0]
 80025a4:	689a      	ldr	r2, [r3, #8]
 80025a6:	687b      	ldr	r3, [r7, #4]
 80025a8:	681b      	ldr	r3, [r3, #0]
 80025aa:	4931      	ldr	r1, [pc, #196]	; (8002670 <HAL_I2C_Init+0x124>)
 80025ac:	400a      	ands	r2, r1
 80025ae:	609a      	str	r2, [r3, #8]

  /* Configure I2Cx: Own Address1 and ack own address1 mode */
  if (hi2c->Init.AddressingMode == I2C_ADDRESSINGMODE_7BIT)
 80025b0:	687b      	ldr	r3, [r7, #4]
 80025b2:	68db      	ldr	r3, [r3, #12]
 80025b4:	2b01      	cmp	r3, #1
 80025b6:	d108      	bne.n	80025ca <HAL_I2C_Init+0x7e>
  {
    hi2c->Instance->OAR1 = (I2C_OAR1_OA1EN | hi2c->Init.OwnAddress1);
 80025b8:	687b      	ldr	r3, [r7, #4]
 80025ba:	689a      	ldr	r2, [r3, #8]
 80025bc:	687b      	ldr	r3, [r7, #4]
 80025be:	681b      	ldr	r3, [r3, #0]
 80025c0:	2180      	movs	r1, #128	; 0x80
 80025c2:	0209      	lsls	r1, r1, #8
 80025c4:	430a      	orrs	r2, r1
 80025c6:	609a      	str	r2, [r3, #8]
 80025c8:	e007      	b.n	80025da <HAL_I2C_Init+0x8e>
  }
  else /* I2C_ADDRESSINGMODE_10BIT */
  {
    hi2c->Instance->OAR1 = (I2C_OAR1_OA1EN | I2C_OAR1_OA1MODE | hi2c->Init.OwnAddress1);
 80025ca:	687b      	ldr	r3, [r7, #4]
 80025cc:	689a      	ldr	r2, [r3, #8]
 80025ce:	687b      	ldr	r3, [r7, #4]
 80025d0:	681b      	ldr	r3, [r3, #0]
 80025d2:	2184      	movs	r1, #132	; 0x84
 80025d4:	0209      	lsls	r1, r1, #8
 80025d6:	430a      	orrs	r2, r1
 80025d8:	609a      	str	r2, [r3, #8]
  }

  /*---------------------------- I2Cx CR2 Configuration ----------------------*/
  /* Configure I2Cx: Addressing Master mode */
  if (hi2c->Init.AddressingMode == I2C_ADDRESSINGMODE_10BIT)
 80025da:	687b      	ldr	r3, [r7, #4]
 80025dc:	68db      	ldr	r3, [r3, #12]
 80025de:	2b02      	cmp	r3, #2
 80025e0:	d104      	bne.n	80025ec <HAL_I2C_Init+0xa0>
  {
    hi2c->Instance->CR2 = (I2C_CR2_ADD10);
 80025e2:	687b      	ldr	r3, [r7, #4]
 80025e4:	681b      	ldr	r3, [r3, #0]
 80025e6:	2280      	movs	r2, #128	; 0x80
 80025e8:	0112      	lsls	r2, r2, #4
 80025ea:	605a      	str	r2, [r3, #4]
  }
  /* Enable the AUTOEND by default, and enable NACK (should be disable only during Slave process */
  hi2c->Instance->CR2 |= (I2C_CR2_AUTOEND | I2C_CR2_NACK);
 80025ec:	687b      	ldr	r3, [r7, #4]
 80025ee:	681b      	ldr	r3, [r3, #0]
 80025f0:	685a      	ldr	r2, [r3, #4]
 80025f2:	687b      	ldr	r3, [r7, #4]
 80025f4:	681b      	ldr	r3, [r3, #0]
 80025f6:	491f      	ldr	r1, [pc, #124]	; (8002674 <HAL_I2C_Init+0x128>)
 80025f8:	430a      	orrs	r2, r1
 80025fa:	605a      	str	r2, [r3, #4]

  /*---------------------------- I2Cx OAR2 Configuration ---------------------*/
  /* Disable Own Address2 before set the Own Address2 configuration */
  hi2c->Instance->OAR2 &= ~I2C_DUALADDRESS_ENABLE;
 80025fc:	687b      	ldr	r3, [r7, #4]
 80025fe:	681b      	ldr	r3, [r3, #0]
 8002600:	68da      	ldr	r2, [r3, #12]
 8002602:	687b      	ldr	r3, [r7, #4]
 8002604:	681b      	ldr	r3, [r3, #0]
 8002606:	491a      	ldr	r1, [pc, #104]	; (8002670 <HAL_I2C_Init+0x124>)
 8002608:	400a      	ands	r2, r1
 800260a:	60da      	str	r2, [r3, #12]

  /* Configure I2Cx: Dual mode and Own Address2 */
  hi2c->Instance->OAR2 = (hi2c->Init.DualAddressMode | hi2c->Init.OwnAddress2 | \
 800260c:	687b      	ldr	r3, [r7, #4]
 800260e:	691a      	ldr	r2, [r3, #16]
 8002610:	687b      	ldr	r3, [r7, #4]
 8002612:	695b      	ldr	r3, [r3, #20]
 8002614:	431a      	orrs	r2, r3
 8002616:	0011      	movs	r1, r2
                          (hi2c->Init.OwnAddress2Masks << 8));
 8002618:	687b      	ldr	r3, [r7, #4]
 800261a:	699b      	ldr	r3, [r3, #24]
 800261c:	021a      	lsls	r2, r3, #8
  hi2c->Instance->OAR2 = (hi2c->Init.DualAddressMode | hi2c->Init.OwnAddress2 | \
 800261e:	687b      	ldr	r3, [r7, #4]
 8002620:	681b      	ldr	r3, [r3, #0]
 8002622:	430a      	orrs	r2, r1
 8002624:	60da      	str	r2, [r3, #12]

  /*---------------------------- I2Cx CR1 Configuration ----------------------*/
  /* Configure I2Cx: Generalcall and NoStretch mode */
  hi2c->Instance->CR1 = (hi2c->Init.GeneralCallMode | hi2c->Init.NoStretchMode);
 8002626:	687b      	ldr	r3, [r7, #4]
 8002628:	69d9      	ldr	r1, [r3, #28]
 800262a:	687b      	ldr	r3, [r7, #4]
 800262c:	6a1a      	ldr	r2, [r3, #32]
 800262e:	687b      	ldr	r3, [r7, #4]
 8002630:	681b      	ldr	r3, [r3, #0]
 8002632:	430a      	orrs	r2, r1
 8002634:	601a      	str	r2, [r3, #0]

  /* Enable the selected I2C peripheral */
  __HAL_I2C_ENABLE(hi2c);
 8002636:	687b      	ldr	r3, [r7, #4]
 8002638:	681b      	ldr	r3, [r3, #0]
 800263a:	681a      	ldr	r2, [r3, #0]
 800263c:	687b      	ldr	r3, [r7, #4]
 800263e:	681b      	ldr	r3, [r3, #0]
 8002640:	2101      	movs	r1, #1
 8002642:	430a      	orrs	r2, r1
 8002644:	601a      	str	r2, [r3, #0]

  hi2c->ErrorCode = HAL_I2C_ERROR_NONE;
 8002646:	687b      	ldr	r3, [r7, #4]
 8002648:	2200      	movs	r2, #0
 800264a:	645a      	str	r2, [r3, #68]	; 0x44
  hi2c->State = HAL_I2C_STATE_READY;
 800264c:	687b      	ldr	r3, [r7, #4]
 800264e:	2241      	movs	r2, #65	; 0x41
 8002650:	2120      	movs	r1, #32
 8002652:	5499      	strb	r1, [r3, r2]
  hi2c->PreviousState = I2C_STATE_NONE;
 8002654:	687b      	ldr	r3, [r7, #4]
 8002656:	2200      	movs	r2, #0
 8002658:	631a      	str	r2, [r3, #48]	; 0x30
  hi2c->Mode = HAL_I2C_MODE_NONE;
 800265a:	687b      	ldr	r3, [r7, #4]
 800265c:	2242      	movs	r2, #66	; 0x42
 800265e:	2100      	movs	r1, #0
 8002660:	5499      	strb	r1, [r3, r2]

  return HAL_OK;
 8002662:	2300      	movs	r3, #0
}
 8002664:	0018      	movs	r0, r3
 8002666:	46bd      	mov	sp, r7
 8002668:	b002      	add	sp, #8
 800266a:	bd80      	pop	{r7, pc}
 800266c:	f0ffffff 	.word	0xf0ffffff
 8002670:	ffff7fff 	.word	0xffff7fff
 8002674:	02008000 	.word	0x02008000

08002678 <HAL_I2C_Slave_Seq_Transmit_IT>:
  * @param  XferOptions Options of Transfer, value of @ref I2C_XFEROPTIONS
  * @retval HAL status
  */
HAL_StatusTypeDef HAL_I2C_Slave_Seq_Transmit_IT(I2C_HandleTypeDef *hi2c, uint8_t *pData, uint16_t Size,
                                                uint32_t XferOptions)
{
 8002678:	b580      	push	{r7, lr}
 800267a:	b084      	sub	sp, #16
 800267c:	af00      	add	r7, sp, #0
 800267e:	60f8      	str	r0, [r7, #12]
 8002680:	60b9      	str	r1, [r7, #8]
 8002682:	603b      	str	r3, [r7, #0]
 8002684:	1dbb      	adds	r3, r7, #6
 8002686:	801a      	strh	r2, [r3, #0]
  /* Check the parameters */
  assert_param(IS_I2C_TRANSFER_OPTIONS_REQUEST(XferOptions));

  if (((uint32_t)hi2c->State & (uint32_t)HAL_I2C_STATE_LISTEN) == (uint32_t)HAL_I2C_STATE_LISTEN)
 8002688:	68fb      	ldr	r3, [r7, #12]
 800268a:	2241      	movs	r2, #65	; 0x41
 800268c:	5c9b      	ldrb	r3, [r3, r2]
 800268e:	b2db      	uxtb	r3, r3
 8002690:	001a      	movs	r2, r3
 8002692:	2328      	movs	r3, #40	; 0x28
 8002694:	4013      	ands	r3, r2
 8002696:	2b28      	cmp	r3, #40	; 0x28
 8002698:	d000      	beq.n	800269c <HAL_I2C_Slave_Seq_Transmit_IT+0x24>
 800269a:	e08f      	b.n	80027bc <HAL_I2C_Slave_Seq_Transmit_IT+0x144>
  {
    if ((pData == NULL) || (Size == 0U))
 800269c:	68bb      	ldr	r3, [r7, #8]
 800269e:	2b00      	cmp	r3, #0
 80026a0:	d003      	beq.n	80026aa <HAL_I2C_Slave_Seq_Transmit_IT+0x32>
 80026a2:	1dbb      	adds	r3, r7, #6
 80026a4:	881b      	ldrh	r3, [r3, #0]
 80026a6:	2b00      	cmp	r3, #0
 80026a8:	d105      	bne.n	80026b6 <HAL_I2C_Slave_Seq_Transmit_IT+0x3e>
    {
      hi2c->ErrorCode = HAL_I2C_ERROR_INVALID_PARAM;
 80026aa:	68fb      	ldr	r3, [r7, #12]
 80026ac:	2280      	movs	r2, #128	; 0x80
 80026ae:	0092      	lsls	r2, r2, #2
 80026b0:	645a      	str	r2, [r3, #68]	; 0x44
      return  HAL_ERROR;
 80026b2:	2301      	movs	r3, #1
 80026b4:	e083      	b.n	80027be <HAL_I2C_Slave_Seq_Transmit_IT+0x146>
    }

    /* Disable Interrupts, to prevent preemption during treatment in case of multicall */
    I2C_Disable_IRQ(hi2c, I2C_XFER_LISTEN_IT | I2C_XFER_TX_IT);
 80026b6:	4a44      	ldr	r2, [pc, #272]	; (80027c8 <HAL_I2C_Slave_Seq_Transmit_IT+0x150>)
 80026b8:	68fb      	ldr	r3, [r7, #12]
 80026ba:	0011      	movs	r1, r2
 80026bc:	0018      	movs	r0, r3
 80026be:	f001 faa9 	bl	8003c14 <I2C_Disable_IRQ>

    /* Process Locked */
    __HAL_LOCK(hi2c);
 80026c2:	68fb      	ldr	r3, [r7, #12]
 80026c4:	2240      	movs	r2, #64	; 0x40
 80026c6:	5c9b      	ldrb	r3, [r3, r2]
 80026c8:	2b01      	cmp	r3, #1
 80026ca:	d101      	bne.n	80026d0 <HAL_I2C_Slave_Seq_Transmit_IT+0x58>
 80026cc:	2302      	movs	r3, #2
 80026ce:	e076      	b.n	80027be <HAL_I2C_Slave_Seq_Transmit_IT+0x146>
 80026d0:	68fb      	ldr	r3, [r7, #12]
 80026d2:	2240      	movs	r2, #64	; 0x40
 80026d4:	2101      	movs	r1, #1
 80026d6:	5499      	strb	r1, [r3, r2]

    /* I2C cannot manage full duplex exchange so disable previous IT enabled if any */
    /* and then toggle the HAL slave RX state to TX state */
    if (hi2c->State == HAL_I2C_STATE_BUSY_RX_LISTEN)
 80026d8:	68fb      	ldr	r3, [r7, #12]
 80026da:	2241      	movs	r2, #65	; 0x41
 80026dc:	5c9b      	ldrb	r3, [r3, r2]
 80026de:	b2db      	uxtb	r3, r3
 80026e0:	2b2a      	cmp	r3, #42	; 0x2a
 80026e2:	d12c      	bne.n	800273e <HAL_I2C_Slave_Seq_Transmit_IT+0xc6>
    {
      /* Disable associated Interrupts */
      I2C_Disable_IRQ(hi2c, I2C_XFER_RX_IT);
 80026e4:	68fb      	ldr	r3, [r7, #12]
 80026e6:	2102      	movs	r1, #2
 80026e8:	0018      	movs	r0, r3
 80026ea:	f001 fa93 	bl	8003c14 <I2C_Disable_IRQ>

      /* Abort DMA Xfer if any */
      if ((hi2c->Instance->CR1 & I2C_CR1_RXDMAEN) == I2C_CR1_RXDMAEN)
 80026ee:	68fb      	ldr	r3, [r7, #12]
 80026f0:	681b      	ldr	r3, [r3, #0]
 80026f2:	681a      	ldr	r2, [r3, #0]
 80026f4:	2380      	movs	r3, #128	; 0x80
 80026f6:	021b      	lsls	r3, r3, #8
 80026f8:	401a      	ands	r2, r3
 80026fa:	2380      	movs	r3, #128	; 0x80
 80026fc:	021b      	lsls	r3, r3, #8
 80026fe:	429a      	cmp	r2, r3
 8002700:	d11d      	bne.n	800273e <HAL_I2C_Slave_Seq_Transmit_IT+0xc6>
      {
        hi2c->Instance->CR1 &= ~I2C_CR1_RXDMAEN;
 8002702:	68fb      	ldr	r3, [r7, #12]
 8002704:	681b      	ldr	r3, [r3, #0]
 8002706:	681a      	ldr	r2, [r3, #0]
 8002708:	68fb      	ldr	r3, [r7, #12]
 800270a:	681b      	ldr	r3, [r3, #0]
 800270c:	492f      	ldr	r1, [pc, #188]	; (80027cc <HAL_I2C_Slave_Seq_Transmit_IT+0x154>)
 800270e:	400a      	ands	r2, r1
 8002710:	601a      	str	r2, [r3, #0]

        if (hi2c->hdmarx != NULL)
 8002712:	68fb      	ldr	r3, [r7, #12]
 8002714:	6bdb      	ldr	r3, [r3, #60]	; 0x3c
 8002716:	2b00      	cmp	r3, #0
 8002718:	d011      	beq.n	800273e <HAL_I2C_Slave_Seq_Transmit_IT+0xc6>
        {
          /* Set the I2C DMA Abort callback :
           will lead to call HAL_I2C_ErrorCallback() at end of DMA abort procedure */
          hi2c->hdmarx->XferAbortCallback = I2C_DMAAbort;
 800271a:	68fb      	ldr	r3, [r7, #12]
 800271c:	6bdb      	ldr	r3, [r3, #60]	; 0x3c
 800271e:	4a2c      	ldr	r2, [pc, #176]	; (80027d0 <HAL_I2C_Slave_Seq_Transmit_IT+0x158>)
 8002720:	635a      	str	r2, [r3, #52]	; 0x34

          /* Abort DMA RX */
          if (HAL_DMA_Abort_IT(hi2c->hdmarx) != HAL_OK)
 8002722:	68fb      	ldr	r3, [r7, #12]
 8002724:	6bdb      	ldr	r3, [r3, #60]	; 0x3c
 8002726:	0018      	movs	r0, r3
 8002728:	f7ff fc4e 	bl	8001fc8 <HAL_DMA_Abort_IT>
 800272c:	1e03      	subs	r3, r0, #0
 800272e:	d006      	beq.n	800273e <HAL_I2C_Slave_Seq_Transmit_IT+0xc6>
          {
            /* Call Directly XferAbortCallback function in case of error */
            hi2c->hdmarx->XferAbortCallback(hi2c->hdmarx);
 8002730:	68fb      	ldr	r3, [r7, #12]
 8002732:	6bdb      	ldr	r3, [r3, #60]	; 0x3c
 8002734:	6b5a      	ldr	r2, [r3, #52]	; 0x34
 8002736:	68fb      	ldr	r3, [r7, #12]
 8002738:	6bdb      	ldr	r3, [r3, #60]	; 0x3c
 800273a:	0018      	movs	r0, r3
 800273c:	4790      	blx	r2
          }
        }
      }
    }

    hi2c->State     = HAL_I2C_STATE_BUSY_TX_LISTEN;
 800273e:	68fb      	ldr	r3, [r7, #12]
 8002740:	2241      	movs	r2, #65	; 0x41
 8002742:	2129      	movs	r1, #41	; 0x29
 8002744:	5499      	strb	r1, [r3, r2]
    hi2c->Mode      = HAL_I2C_MODE_SLAVE;
 8002746:	68fb      	ldr	r3, [r7, #12]
 8002748:	2242      	movs	r2, #66	; 0x42
 800274a:	2120      	movs	r1, #32
 800274c:	5499      	strb	r1, [r3, r2]
    hi2c->ErrorCode = HAL_I2C_ERROR_NONE;
 800274e:	68fb      	ldr	r3, [r7, #12]
 8002750:	2200      	movs	r2, #0
 8002752:	645a      	str	r2, [r3, #68]	; 0x44

    /* Enable Address Acknowledge */
    hi2c->Instance->CR2 &= ~I2C_CR2_NACK;
 8002754:	68fb      	ldr	r3, [r7, #12]
 8002756:	681b      	ldr	r3, [r3, #0]
 8002758:	685a      	ldr	r2, [r3, #4]
 800275a:	68fb      	ldr	r3, [r7, #12]
 800275c:	681b      	ldr	r3, [r3, #0]
 800275e:	491b      	ldr	r1, [pc, #108]	; (80027cc <HAL_I2C_Slave_Seq_Transmit_IT+0x154>)
 8002760:	400a      	ands	r2, r1
 8002762:	605a      	str	r2, [r3, #4]

    /* Prepare transfer parameters */
    hi2c->pBuffPtr    = pData;
 8002764:	68fb      	ldr	r3, [r7, #12]
 8002766:	68ba      	ldr	r2, [r7, #8]
 8002768:	625a      	str	r2, [r3, #36]	; 0x24
    hi2c->XferCount   = Size;
 800276a:	68fb      	ldr	r3, [r7, #12]
 800276c:	1dba      	adds	r2, r7, #6
 800276e:	8812      	ldrh	r2, [r2, #0]
 8002770:	855a      	strh	r2, [r3, #42]	; 0x2a
    hi2c->XferSize    = hi2c->XferCount;
 8002772:	68fb      	ldr	r3, [r7, #12]
 8002774:	8d5b      	ldrh	r3, [r3, #42]	; 0x2a
 8002776:	b29a      	uxth	r2, r3
 8002778:	68fb      	ldr	r3, [r7, #12]
 800277a:	851a      	strh	r2, [r3, #40]	; 0x28
    hi2c->XferOptions = XferOptions;
 800277c:	68fb      	ldr	r3, [r7, #12]
 800277e:	683a      	ldr	r2, [r7, #0]
 8002780:	62da      	str	r2, [r3, #44]	; 0x2c
    hi2c->XferISR     = I2C_Slave_ISR_IT;
 8002782:	68fb      	ldr	r3, [r7, #12]
 8002784:	4a13      	ldr	r2, [pc, #76]	; (80027d4 <HAL_I2C_Slave_Seq_Transmit_IT+0x15c>)
 8002786:	635a      	str	r2, [r3, #52]	; 0x34

    if (I2C_GET_DIR(hi2c) == I2C_DIRECTION_RECEIVE)
 8002788:	68fb      	ldr	r3, [r7, #12]
 800278a:	681b      	ldr	r3, [r3, #0]
 800278c:	699b      	ldr	r3, [r3, #24]
 800278e:	0c1b      	lsrs	r3, r3, #16
 8002790:	b2db      	uxtb	r3, r3
 8002792:	2201      	movs	r2, #1
 8002794:	4013      	ands	r3, r2
 8002796:	b2db      	uxtb	r3, r3
 8002798:	2b01      	cmp	r3, #1
 800279a:	d103      	bne.n	80027a4 <HAL_I2C_Slave_Seq_Transmit_IT+0x12c>
    {
      /* Clear ADDR flag after prepare the transfer parameters */
      /* This action will generate an acknowledge to the Master */
      __HAL_I2C_CLEAR_FLAG(hi2c, I2C_FLAG_ADDR);
 800279c:	68fb      	ldr	r3, [r7, #12]
 800279e:	681b      	ldr	r3, [r3, #0]
 80027a0:	2208      	movs	r2, #8
 80027a2:	61da      	str	r2, [r3, #28]
    }

    /* Process Unlocked */
    __HAL_UNLOCK(hi2c);
 80027a4:	68fb      	ldr	r3, [r7, #12]
 80027a6:	2240      	movs	r2, #64	; 0x40
 80027a8:	2100      	movs	r1, #0
 80027aa:	5499      	strb	r1, [r3, r2]

    /* Note : The I2C interrupts must be enabled after unlocking current process
    to avoid the risk of I2C interrupt handle execution before current
    process unlock */
    /* REnable ADDR interrupt */
    I2C_Enable_IRQ(hi2c, I2C_XFER_TX_IT | I2C_XFER_LISTEN_IT);
 80027ac:	4a06      	ldr	r2, [pc, #24]	; (80027c8 <HAL_I2C_Slave_Seq_Transmit_IT+0x150>)
 80027ae:	68fb      	ldr	r3, [r7, #12]
 80027b0:	0011      	movs	r1, r2
 80027b2:	0018      	movs	r0, r3
 80027b4:	f001 f9c6 	bl	8003b44 <I2C_Enable_IRQ>

    return HAL_OK;
 80027b8:	2300      	movs	r3, #0
 80027ba:	e000      	b.n	80027be <HAL_I2C_Slave_Seq_Transmit_IT+0x146>
  }
  else
  {
    return HAL_ERROR;
 80027bc:	2301      	movs	r3, #1
  }
}
 80027be:	0018      	movs	r0, r3
 80027c0:	46bd      	mov	sp, r7
 80027c2:	b004      	add	sp, #16
 80027c4:	bd80      	pop	{r7, pc}
 80027c6:	46c0      	nop			; (mov r8, r8)
 80027c8:	00008001 	.word	0x00008001
 80027cc:	ffff7fff 	.word	0xffff7fff
 80027d0:	08003a9b 	.word	0x08003a9b
 80027d4:	08002add 	.word	0x08002add

080027d8 <HAL_I2C_Slave_Seq_Receive_IT>:
  * @param  XferOptions Options of Transfer, value of @ref I2C_XFEROPTIONS
  * @retval HAL status
  */
HAL_StatusTypeDef HAL_I2C_Slave_Seq_Receive_IT(I2C_HandleTypeDef *hi2c, uint8_t *pData, uint16_t Size,
                                               uint32_t XferOptions)
{
 80027d8:	b580      	push	{r7, lr}
 80027da:	b084      	sub	sp, #16
 80027dc:	af00      	add	r7, sp, #0
 80027de:	60f8      	str	r0, [r7, #12]
 80027e0:	60b9      	str	r1, [r7, #8]
 80027e2:	603b      	str	r3, [r7, #0]
 80027e4:	1dbb      	adds	r3, r7, #6
 80027e6:	801a      	strh	r2, [r3, #0]
  /* Check the parameters */
  assert_param(IS_I2C_TRANSFER_OPTIONS_REQUEST(XferOptions));

  if (((uint32_t)hi2c->State & (uint32_t)HAL_I2C_STATE_LISTEN) == (uint32_t)HAL_I2C_STATE_LISTEN)
 80027e8:	68fb      	ldr	r3, [r7, #12]
 80027ea:	2241      	movs	r2, #65	; 0x41
 80027ec:	5c9b      	ldrb	r3, [r3, r2]
 80027ee:	b2db      	uxtb	r3, r3
 80027f0:	001a      	movs	r2, r3
 80027f2:	2328      	movs	r3, #40	; 0x28
 80027f4:	4013      	ands	r3, r2
 80027f6:	2b28      	cmp	r3, #40	; 0x28
 80027f8:	d000      	beq.n	80027fc <HAL_I2C_Slave_Seq_Receive_IT+0x24>
 80027fa:	e08f      	b.n	800291c <HAL_I2C_Slave_Seq_Receive_IT+0x144>
  {
    if ((pData == NULL) || (Size == 0U))
 80027fc:	68bb      	ldr	r3, [r7, #8]
 80027fe:	2b00      	cmp	r3, #0
 8002800:	d003      	beq.n	800280a <HAL_I2C_Slave_Seq_Receive_IT+0x32>
 8002802:	1dbb      	adds	r3, r7, #6
 8002804:	881b      	ldrh	r3, [r3, #0]
 8002806:	2b00      	cmp	r3, #0
 8002808:	d105      	bne.n	8002816 <HAL_I2C_Slave_Seq_Receive_IT+0x3e>
    {
      hi2c->ErrorCode = HAL_I2C_ERROR_INVALID_PARAM;
 800280a:	68fb      	ldr	r3, [r7, #12]
 800280c:	2280      	movs	r2, #128	; 0x80
 800280e:	0092      	lsls	r2, r2, #2
 8002810:	645a      	str	r2, [r3, #68]	; 0x44
      return  HAL_ERROR;
 8002812:	2301      	movs	r3, #1
 8002814:	e083      	b.n	800291e <HAL_I2C_Slave_Seq_Receive_IT+0x146>
    }

    /* Disable Interrupts, to prevent preemption during treatment in case of multicall */
    I2C_Disable_IRQ(hi2c, I2C_XFER_LISTEN_IT | I2C_XFER_RX_IT);
 8002816:	4a44      	ldr	r2, [pc, #272]	; (8002928 <HAL_I2C_Slave_Seq_Receive_IT+0x150>)
 8002818:	68fb      	ldr	r3, [r7, #12]
 800281a:	0011      	movs	r1, r2
 800281c:	0018      	movs	r0, r3
 800281e:	f001 f9f9 	bl	8003c14 <I2C_Disable_IRQ>

    /* Process Locked */
    __HAL_LOCK(hi2c);
 8002822:	68fb      	ldr	r3, [r7, #12]
 8002824:	2240      	movs	r2, #64	; 0x40
 8002826:	5c9b      	ldrb	r3, [r3, r2]
 8002828:	2b01      	cmp	r3, #1
 800282a:	d101      	bne.n	8002830 <HAL_I2C_Slave_Seq_Receive_IT+0x58>
 800282c:	2302      	movs	r3, #2
 800282e:	e076      	b.n	800291e <HAL_I2C_Slave_Seq_Receive_IT+0x146>
 8002830:	68fb      	ldr	r3, [r7, #12]
 8002832:	2240      	movs	r2, #64	; 0x40
 8002834:	2101      	movs	r1, #1
 8002836:	5499      	strb	r1, [r3, r2]

    /* I2C cannot manage full duplex exchange so disable previous IT enabled if any */
    /* and then toggle the HAL slave TX state to RX state */
    if (hi2c->State == HAL_I2C_STATE_BUSY_TX_LISTEN)
 8002838:	68fb      	ldr	r3, [r7, #12]
 800283a:	2241      	movs	r2, #65	; 0x41
 800283c:	5c9b      	ldrb	r3, [r3, r2]
 800283e:	b2db      	uxtb	r3, r3
 8002840:	2b29      	cmp	r3, #41	; 0x29
 8002842:	d12c      	bne.n	800289e <HAL_I2C_Slave_Seq_Receive_IT+0xc6>
    {
      /* Disable associated Interrupts */
      I2C_Disable_IRQ(hi2c, I2C_XFER_TX_IT);
 8002844:	68fb      	ldr	r3, [r7, #12]
 8002846:	2101      	movs	r1, #1
 8002848:	0018      	movs	r0, r3
 800284a:	f001 f9e3 	bl	8003c14 <I2C_Disable_IRQ>

      if ((hi2c->Instance->CR1 & I2C_CR1_TXDMAEN) == I2C_CR1_TXDMAEN)
 800284e:	68fb      	ldr	r3, [r7, #12]
 8002850:	681b      	ldr	r3, [r3, #0]
 8002852:	681a      	ldr	r2, [r3, #0]
 8002854:	2380      	movs	r3, #128	; 0x80
 8002856:	01db      	lsls	r3, r3, #7
 8002858:	401a      	ands	r2, r3
 800285a:	2380      	movs	r3, #128	; 0x80
 800285c:	01db      	lsls	r3, r3, #7
 800285e:	429a      	cmp	r2, r3
 8002860:	d11d      	bne.n	800289e <HAL_I2C_Slave_Seq_Receive_IT+0xc6>
      {
        hi2c->Instance->CR1 &= ~I2C_CR1_TXDMAEN;
 8002862:	68fb      	ldr	r3, [r7, #12]
 8002864:	681b      	ldr	r3, [r3, #0]
 8002866:	681a      	ldr	r2, [r3, #0]
 8002868:	68fb      	ldr	r3, [r7, #12]
 800286a:	681b      	ldr	r3, [r3, #0]
 800286c:	492f      	ldr	r1, [pc, #188]	; (800292c <HAL_I2C_Slave_Seq_Receive_IT+0x154>)
 800286e:	400a      	ands	r2, r1
 8002870:	601a      	str	r2, [r3, #0]

        /* Abort DMA Xfer if any */
        if (hi2c->hdmatx != NULL)
 8002872:	68fb      	ldr	r3, [r7, #12]
 8002874:	6b9b      	ldr	r3, [r3, #56]	; 0x38
 8002876:	2b00      	cmp	r3, #0
 8002878:	d011      	beq.n	800289e <HAL_I2C_Slave_Seq_Receive_IT+0xc6>
        {
          /* Set the I2C DMA Abort callback :
           will lead to call HAL_I2C_ErrorCallback() at end of DMA abort procedure */
          hi2c->hdmatx->XferAbortCallback = I2C_DMAAbort;
 800287a:	68fb      	ldr	r3, [r7, #12]
 800287c:	6b9b      	ldr	r3, [r3, #56]	; 0x38
 800287e:	4a2c      	ldr	r2, [pc, #176]	; (8002930 <HAL_I2C_Slave_Seq_Receive_IT+0x158>)
 8002880:	635a      	str	r2, [r3, #52]	; 0x34

          /* Abort DMA TX */
          if (HAL_DMA_Abort_IT(hi2c->hdmatx) != HAL_OK)
 8002882:	68fb      	ldr	r3, [r7, #12]
 8002884:	6b9b      	ldr	r3, [r3, #56]	; 0x38
 8002886:	0018      	movs	r0, r3
 8002888:	f7ff fb9e 	bl	8001fc8 <HAL_DMA_Abort_IT>
 800288c:	1e03      	subs	r3, r0, #0
 800288e:	d006      	beq.n	800289e <HAL_I2C_Slave_Seq_Receive_IT+0xc6>
          {
            /* Call Directly XferAbortCallback function in case of error */
            hi2c->hdmatx->XferAbortCallback(hi2c->hdmatx);
 8002890:	68fb      	ldr	r3, [r7, #12]
 8002892:	6b9b      	ldr	r3, [r3, #56]	; 0x38
 8002894:	6b5a      	ldr	r2, [r3, #52]	; 0x34
 8002896:	68fb      	ldr	r3, [r7, #12]
 8002898:	6b9b      	ldr	r3, [r3, #56]	; 0x38
 800289a:	0018      	movs	r0, r3
 800289c:	4790      	blx	r2
          }
        }
      }
    }

    hi2c->State     = HAL_I2C_STATE_BUSY_RX_LISTEN;
 800289e:	68fb      	ldr	r3, [r7, #12]
 80028a0:	2241      	movs	r2, #65	; 0x41
 80028a2:	212a      	movs	r1, #42	; 0x2a
 80028a4:	5499      	strb	r1, [r3, r2]
    hi2c->Mode      = HAL_I2C_MODE_SLAVE;
 80028a6:	68fb      	ldr	r3, [r7, #12]
 80028a8:	2242      	movs	r2, #66	; 0x42
 80028aa:	2120      	movs	r1, #32
 80028ac:	5499      	strb	r1, [r3, r2]
    hi2c->ErrorCode = HAL_I2C_ERROR_NONE;
 80028ae:	68fb      	ldr	r3, [r7, #12]
 80028b0:	2200      	movs	r2, #0
 80028b2:	645a      	str	r2, [r3, #68]	; 0x44

    /* Enable Address Acknowledge */
    hi2c->Instance->CR2 &= ~I2C_CR2_NACK;
 80028b4:	68fb      	ldr	r3, [r7, #12]
 80028b6:	681b      	ldr	r3, [r3, #0]
 80028b8:	685a      	ldr	r2, [r3, #4]
 80028ba:	68fb      	ldr	r3, [r7, #12]
 80028bc:	681b      	ldr	r3, [r3, #0]
 80028be:	491d      	ldr	r1, [pc, #116]	; (8002934 <HAL_I2C_Slave_Seq_Receive_IT+0x15c>)
 80028c0:	400a      	ands	r2, r1
 80028c2:	605a      	str	r2, [r3, #4]

    /* Prepare transfer parameters */
    hi2c->pBuffPtr    = pData;
 80028c4:	68fb      	ldr	r3, [r7, #12]
 80028c6:	68ba      	ldr	r2, [r7, #8]
 80028c8:	625a      	str	r2, [r3, #36]	; 0x24
    hi2c->XferCount   = Size;
 80028ca:	68fb      	ldr	r3, [r7, #12]
 80028cc:	1dba      	adds	r2, r7, #6
 80028ce:	8812      	ldrh	r2, [r2, #0]
 80028d0:	855a      	strh	r2, [r3, #42]	; 0x2a
    hi2c->XferSize    = hi2c->XferCount;
 80028d2:	68fb      	ldr	r3, [r7, #12]
 80028d4:	8d5b      	ldrh	r3, [r3, #42]	; 0x2a
 80028d6:	b29a      	uxth	r2, r3
 80028d8:	68fb      	ldr	r3, [r7, #12]
 80028da:	851a      	strh	r2, [r3, #40]	; 0x28
    hi2c->XferOptions = XferOptions;
 80028dc:	68fb      	ldr	r3, [r7, #12]
 80028de:	683a      	ldr	r2, [r7, #0]
 80028e0:	62da      	str	r2, [r3, #44]	; 0x2c
    hi2c->XferISR     = I2C_Slave_ISR_IT;
 80028e2:	68fb      	ldr	r3, [r7, #12]
 80028e4:	4a14      	ldr	r2, [pc, #80]	; (8002938 <HAL_I2C_Slave_Seq_Receive_IT+0x160>)
 80028e6:	635a      	str	r2, [r3, #52]	; 0x34

    if (I2C_GET_DIR(hi2c) == I2C_DIRECTION_TRANSMIT)
 80028e8:	68fb      	ldr	r3, [r7, #12]
 80028ea:	681b      	ldr	r3, [r3, #0]
 80028ec:	699b      	ldr	r3, [r3, #24]
 80028ee:	0c1b      	lsrs	r3, r3, #16
 80028f0:	b2db      	uxtb	r3, r3
 80028f2:	2201      	movs	r2, #1
 80028f4:	4013      	ands	r3, r2
 80028f6:	b2db      	uxtb	r3, r3
 80028f8:	2b00      	cmp	r3, #0
 80028fa:	d103      	bne.n	8002904 <HAL_I2C_Slave_Seq_Receive_IT+0x12c>
    {
      /* Clear ADDR flag after prepare the transfer parameters */
      /* This action will generate an acknowledge to the Master */
      __HAL_I2C_CLEAR_FLAG(hi2c, I2C_FLAG_ADDR);
 80028fc:	68fb      	ldr	r3, [r7, #12]
 80028fe:	681b      	ldr	r3, [r3, #0]
 8002900:	2208      	movs	r2, #8
 8002902:	61da      	str	r2, [r3, #28]
    }

    /* Process Unlocked */
    __HAL_UNLOCK(hi2c);
 8002904:	68fb      	ldr	r3, [r7, #12]
 8002906:	2240      	movs	r2, #64	; 0x40
 8002908:	2100      	movs	r1, #0
 800290a:	5499      	strb	r1, [r3, r2]

    /* Note : The I2C interrupts must be enabled after unlocking current process
    to avoid the risk of I2C interrupt handle execution before current
    process unlock */
    /* REnable ADDR interrupt */
    I2C_Enable_IRQ(hi2c, I2C_XFER_RX_IT | I2C_XFER_LISTEN_IT);
 800290c:	4a06      	ldr	r2, [pc, #24]	; (8002928 <HAL_I2C_Slave_Seq_Receive_IT+0x150>)
 800290e:	68fb      	ldr	r3, [r7, #12]
 8002910:	0011      	movs	r1, r2
 8002912:	0018      	movs	r0, r3
 8002914:	f001 f916 	bl	8003b44 <I2C_Enable_IRQ>

    return HAL_OK;
 8002918:	2300      	movs	r3, #0
 800291a:	e000      	b.n	800291e <HAL_I2C_Slave_Seq_Receive_IT+0x146>
  }
  else
  {
    return HAL_ERROR;
 800291c:	2301      	movs	r3, #1
  }
}
 800291e:	0018      	movs	r0, r3
 8002920:	46bd      	mov	sp, r7
 8002922:	b004      	add	sp, #16
 8002924:	bd80      	pop	{r7, pc}
 8002926:	46c0      	nop			; (mov r8, r8)
 8002928:	00008002 	.word	0x00008002
 800292c:	ffffbfff 	.word	0xffffbfff
 8002930:	08003a9b 	.word	0x08003a9b
 8002934:	ffff7fff 	.word	0xffff7fff
 8002938:	08002add 	.word	0x08002add

0800293c <HAL_I2C_EnableListen_IT>:
  * @param  hi2c Pointer to a I2C_HandleTypeDef structure that contains
  *                the configuration information for the specified I2C.
  * @retval HAL status
  */
HAL_StatusTypeDef HAL_I2C_EnableListen_IT(I2C_HandleTypeDef *hi2c)
{
 800293c:	b580      	push	{r7, lr}
 800293e:	b082      	sub	sp, #8
 8002940:	af00      	add	r7, sp, #0
 8002942:	6078      	str	r0, [r7, #4]
  if (hi2c->State == HAL_I2C_STATE_READY)
 8002944:	687b      	ldr	r3, [r7, #4]
 8002946:	2241      	movs	r2, #65	; 0x41
 8002948:	5c9b      	ldrb	r3, [r3, r2]
 800294a:	b2db      	uxtb	r3, r3
 800294c:	2b20      	cmp	r3, #32
 800294e:	d10f      	bne.n	8002970 <HAL_I2C_EnableListen_IT+0x34>
  {
    hi2c->State = HAL_I2C_STATE_LISTEN;
 8002950:	687b      	ldr	r3, [r7, #4]
 8002952:	2241      	movs	r2, #65	; 0x41
 8002954:	2128      	movs	r1, #40	; 0x28
 8002956:	5499      	strb	r1, [r3, r2]
    hi2c->XferISR = I2C_Slave_ISR_IT;
 8002958:	687b      	ldr	r3, [r7, #4]
 800295a:	4a08      	ldr	r2, [pc, #32]	; (800297c <HAL_I2C_EnableListen_IT+0x40>)
 800295c:	635a      	str	r2, [r3, #52]	; 0x34

    /* Enable the Address Match interrupt */
    I2C_Enable_IRQ(hi2c, I2C_XFER_LISTEN_IT);
 800295e:	2380      	movs	r3, #128	; 0x80
 8002960:	021a      	lsls	r2, r3, #8
 8002962:	687b      	ldr	r3, [r7, #4]
 8002964:	0011      	movs	r1, r2
 8002966:	0018      	movs	r0, r3
 8002968:	f001 f8ec 	bl	8003b44 <I2C_Enable_IRQ>

    return HAL_OK;
 800296c:	2300      	movs	r3, #0
 800296e:	e000      	b.n	8002972 <HAL_I2C_EnableListen_IT+0x36>
  }
  else
  {
    return HAL_BUSY;
 8002970:	2302      	movs	r3, #2
  }
}
 8002972:	0018      	movs	r0, r3
 8002974:	46bd      	mov	sp, r7
 8002976:	b002      	add	sp, #8
 8002978:	bd80      	pop	{r7, pc}
 800297a:	46c0      	nop			; (mov r8, r8)
 800297c:	08002add 	.word	0x08002add

08002980 <HAL_I2C_EV_IRQHandler>:
  * @param  hi2c Pointer to a I2C_HandleTypeDef structure that contains
  *                the configuration information for the specified I2C.
  * @retval None
  */
void HAL_I2C_EV_IRQHandler(I2C_HandleTypeDef *hi2c)
{
 8002980:	b580      	push	{r7, lr}
 8002982:	b084      	sub	sp, #16
 8002984:	af00      	add	r7, sp, #0
 8002986:	6078      	str	r0, [r7, #4]
  /* Get current IT Flags and IT sources value */
  uint32_t itflags   = READ_REG(hi2c->Instance->ISR);
 8002988:	687b      	ldr	r3, [r7, #4]
 800298a:	681b      	ldr	r3, [r3, #0]
 800298c:	699b      	ldr	r3, [r3, #24]
 800298e:	60fb      	str	r3, [r7, #12]
  uint32_t itsources = READ_REG(hi2c->Instance->CR1);
 8002990:	687b      	ldr	r3, [r7, #4]
 8002992:	681b      	ldr	r3, [r3, #0]
 8002994:	681b      	ldr	r3, [r3, #0]
 8002996:	60bb      	str	r3, [r7, #8]

  /* I2C events treatment -------------------------------------*/
  if (hi2c->XferISR != NULL)
 8002998:	687b      	ldr	r3, [r7, #4]
 800299a:	6b5b      	ldr	r3, [r3, #52]	; 0x34
 800299c:	2b00      	cmp	r3, #0
 800299e:	d005      	beq.n	80029ac <HAL_I2C_EV_IRQHandler+0x2c>
  {
    hi2c->XferISR(hi2c, itflags, itsources);
 80029a0:	687b      	ldr	r3, [r7, #4]
 80029a2:	6b5b      	ldr	r3, [r3, #52]	; 0x34
 80029a4:	68ba      	ldr	r2, [r7, #8]
 80029a6:	68f9      	ldr	r1, [r7, #12]
 80029a8:	6878      	ldr	r0, [r7, #4]
 80029aa:	4798      	blx	r3
  }
}
 80029ac:	46c0      	nop			; (mov r8, r8)
 80029ae:	46bd      	mov	sp, r7
 80029b0:	b004      	add	sp, #16
 80029b2:	bd80      	pop	{r7, pc}

080029b4 <HAL_I2C_ER_IRQHandler>:
  * @param  hi2c Pointer to a I2C_HandleTypeDef structure that contains
  *                the configuration information for the specified I2C.
  * @retval None
  */
void HAL_I2C_ER_IRQHandler(I2C_HandleTypeDef *hi2c)
{
 80029b4:	b580      	push	{r7, lr}
 80029b6:	b086      	sub	sp, #24
 80029b8:	af00      	add	r7, sp, #0
 80029ba:	6078      	str	r0, [r7, #4]
  uint32_t itflags   = READ_REG(hi2c->Instance->ISR);
 80029bc:	687b      	ldr	r3, [r7, #4]
 80029be:	681b      	ldr	r3, [r3, #0]
 80029c0:	699b      	ldr	r3, [r3, #24]
 80029c2:	617b      	str	r3, [r7, #20]
  uint32_t itsources = READ_REG(hi2c->Instance->CR1);
 80029c4:	687b      	ldr	r3, [r7, #4]
 80029c6:	681b      	ldr	r3, [r3, #0]
 80029c8:	681b      	ldr	r3, [r3, #0]
 80029ca:	613b      	str	r3, [r7, #16]
  uint32_t tmperror;

  /* I2C Bus error interrupt occurred ------------------------------------*/
  if ((I2C_CHECK_FLAG(itflags, I2C_FLAG_BERR) != RESET) && \
 80029cc:	697b      	ldr	r3, [r7, #20]
 80029ce:	0a1b      	lsrs	r3, r3, #8
 80029d0:	001a      	movs	r2, r3
 80029d2:	2301      	movs	r3, #1
 80029d4:	4013      	ands	r3, r2
 80029d6:	d010      	beq.n	80029fa <HAL_I2C_ER_IRQHandler+0x46>
      (I2C_CHECK_IT_SOURCE(itsources, I2C_IT_ERRI) != RESET))
 80029d8:	693b      	ldr	r3, [r7, #16]
 80029da:	09db      	lsrs	r3, r3, #7
 80029dc:	001a      	movs	r2, r3
 80029de:	2301      	movs	r3, #1
 80029e0:	4013      	ands	r3, r2
  if ((I2C_CHECK_FLAG(itflags, I2C_FLAG_BERR) != RESET) && \
 80029e2:	d00a      	beq.n	80029fa <HAL_I2C_ER_IRQHandler+0x46>
  {
    hi2c->ErrorCode |= HAL_I2C_ERROR_BERR;
 80029e4:	687b      	ldr	r3, [r7, #4]
 80029e6:	6c5b      	ldr	r3, [r3, #68]	; 0x44
 80029e8:	2201      	movs	r2, #1
 80029ea:	431a      	orrs	r2, r3
 80029ec:	687b      	ldr	r3, [r7, #4]
 80029ee:	645a      	str	r2, [r3, #68]	; 0x44

    /* Clear BERR flag */
    __HAL_I2C_CLEAR_FLAG(hi2c, I2C_FLAG_BERR);
 80029f0:	687b      	ldr	r3, [r7, #4]
 80029f2:	681b      	ldr	r3, [r3, #0]
 80029f4:	2280      	movs	r2, #128	; 0x80
 80029f6:	0052      	lsls	r2, r2, #1
 80029f8:	61da      	str	r2, [r3, #28]
  }

  /* I2C Over-Run/Under-Run interrupt occurred ----------------------------------------*/
  if ((I2C_CHECK_FLAG(itflags, I2C_FLAG_OVR) != RESET) && \
 80029fa:	697b      	ldr	r3, [r7, #20]
 80029fc:	0a9b      	lsrs	r3, r3, #10
 80029fe:	001a      	movs	r2, r3
 8002a00:	2301      	movs	r3, #1
 8002a02:	4013      	ands	r3, r2
 8002a04:	d010      	beq.n	8002a28 <HAL_I2C_ER_IRQHandler+0x74>
      (I2C_CHECK_IT_SOURCE(itsources, I2C_IT_ERRI) != RESET))
 8002a06:	693b      	ldr	r3, [r7, #16]
 8002a08:	09db      	lsrs	r3, r3, #7
 8002a0a:	001a      	movs	r2, r3
 8002a0c:	2301      	movs	r3, #1
 8002a0e:	4013      	ands	r3, r2
  if ((I2C_CHECK_FLAG(itflags, I2C_FLAG_OVR) != RESET) && \
 8002a10:	d00a      	beq.n	8002a28 <HAL_I2C_ER_IRQHandler+0x74>
  {
    hi2c->ErrorCode |= HAL_I2C_ERROR_OVR;
 8002a12:	687b      	ldr	r3, [r7, #4]
 8002a14:	6c5b      	ldr	r3, [r3, #68]	; 0x44
 8002a16:	2208      	movs	r2, #8
 8002a18:	431a      	orrs	r2, r3
 8002a1a:	687b      	ldr	r3, [r7, #4]
 8002a1c:	645a      	str	r2, [r3, #68]	; 0x44

    /* Clear OVR flag */
    __HAL_I2C_CLEAR_FLAG(hi2c, I2C_FLAG_OVR);
 8002a1e:	687b      	ldr	r3, [r7, #4]
 8002a20:	681b      	ldr	r3, [r3, #0]
 8002a22:	2280      	movs	r2, #128	; 0x80
 8002a24:	00d2      	lsls	r2, r2, #3
 8002a26:	61da      	str	r2, [r3, #28]
  }

  /* I2C Arbitration Loss error interrupt occurred -------------------------------------*/
  if ((I2C_CHECK_FLAG(itflags, I2C_FLAG_ARLO) != RESET) && \
 8002a28:	697b      	ldr	r3, [r7, #20]
 8002a2a:	0a5b      	lsrs	r3, r3, #9
 8002a2c:	001a      	movs	r2, r3
 8002a2e:	2301      	movs	r3, #1
 8002a30:	4013      	ands	r3, r2
 8002a32:	d010      	beq.n	8002a56 <HAL_I2C_ER_IRQHandler+0xa2>
      (I2C_CHECK_IT_SOURCE(itsources, I2C_IT_ERRI) != RESET))
 8002a34:	693b      	ldr	r3, [r7, #16]
 8002a36:	09db      	lsrs	r3, r3, #7
 8002a38:	001a      	movs	r2, r3
 8002a3a:	2301      	movs	r3, #1
 8002a3c:	4013      	ands	r3, r2
  if ((I2C_CHECK_FLAG(itflags, I2C_FLAG_ARLO) != RESET) && \
 8002a3e:	d00a      	beq.n	8002a56 <HAL_I2C_ER_IRQHandler+0xa2>
  {
    hi2c->ErrorCode |= HAL_I2C_ERROR_ARLO;
 8002a40:	687b      	ldr	r3, [r7, #4]
 8002a42:	6c5b      	ldr	r3, [r3, #68]	; 0x44
 8002a44:	2202      	movs	r2, #2
 8002a46:	431a      	orrs	r2, r3
 8002a48:	687b      	ldr	r3, [r7, #4]
 8002a4a:	645a      	str	r2, [r3, #68]	; 0x44

    /* Clear ARLO flag */
    __HAL_I2C_CLEAR_FLAG(hi2c, I2C_FLAG_ARLO);
 8002a4c:	687b      	ldr	r3, [r7, #4]
 8002a4e:	681b      	ldr	r3, [r3, #0]
 8002a50:	2280      	movs	r2, #128	; 0x80
 8002a52:	0092      	lsls	r2, r2, #2
 8002a54:	61da      	str	r2, [r3, #28]
  }

  /* Store current volatile hi2c->ErrorCode, misra rule */
  tmperror = hi2c->ErrorCode;
 8002a56:	687b      	ldr	r3, [r7, #4]
 8002a58:	6c5b      	ldr	r3, [r3, #68]	; 0x44
 8002a5a:	60fb      	str	r3, [r7, #12]

  /* Call the Error Callback in case of Error detected */
  if ((tmperror & (HAL_I2C_ERROR_BERR | HAL_I2C_ERROR_OVR | HAL_I2C_ERROR_ARLO)) !=  HAL_I2C_ERROR_NONE)
 8002a5c:	68fb      	ldr	r3, [r7, #12]
 8002a5e:	220b      	movs	r2, #11
 8002a60:	4013      	ands	r3, r2
 8002a62:	d005      	beq.n	8002a70 <HAL_I2C_ER_IRQHandler+0xbc>
  {
    I2C_ITError(hi2c, tmperror);
 8002a64:	68fa      	ldr	r2, [r7, #12]
 8002a66:	687b      	ldr	r3, [r7, #4]
 8002a68:	0011      	movs	r1, r2
 8002a6a:	0018      	movs	r0, r3
 8002a6c:	f000 fee8 	bl	8003840 <I2C_ITError>
  }
}
 8002a70:	46c0      	nop			; (mov r8, r8)
 8002a72:	46bd      	mov	sp, r7
 8002a74:	b006      	add	sp, #24
 8002a76:	bd80      	pop	{r7, pc}

08002a78 <HAL_I2C_MasterTxCpltCallback>:
  * @param  hi2c Pointer to a I2C_HandleTypeDef structure that contains
  *                the configuration information for the specified I2C.
  * @retval None
  */
__weak void HAL_I2C_MasterTxCpltCallback(I2C_HandleTypeDef *hi2c)
{
 8002a78:	b580      	push	{r7, lr}
 8002a7a:	b082      	sub	sp, #8
 8002a7c:	af00      	add	r7, sp, #0
 8002a7e:	6078      	str	r0, [r7, #4]
  UNUSED(hi2c);

  /* NOTE : This function should not be modified, when the callback is needed,
            the HAL_I2C_MasterTxCpltCallback could be implemented in the user file
   */
}
 8002a80:	46c0      	nop			; (mov r8, r8)
 8002a82:	46bd      	mov	sp, r7
 8002a84:	b002      	add	sp, #8
 8002a86:	bd80      	pop	{r7, pc}

08002a88 <HAL_I2C_MasterRxCpltCallback>:
  * @param  hi2c Pointer to a I2C_HandleTypeDef structure that contains
  *                the configuration information for the specified I2C.
  * @retval None
  */
__weak void HAL_I2C_MasterRxCpltCallback(I2C_HandleTypeDef *hi2c)
{
 8002a88:	b580      	push	{r7, lr}
 8002a8a:	b082      	sub	sp, #8
 8002a8c:	af00      	add	r7, sp, #0
 8002a8e:	6078      	str	r0, [r7, #4]
  UNUSED(hi2c);

  /* NOTE : This function should not be modified, when the callback is needed,
            the HAL_I2C_MasterRxCpltCallback could be implemented in the user file
   */
}
 8002a90:	46c0      	nop			; (mov r8, r8)
 8002a92:	46bd      	mov	sp, r7
 8002a94:	b002      	add	sp, #8
 8002a96:	bd80      	pop	{r7, pc}

08002a98 <HAL_I2C_MemTxCpltCallback>:
  * @param  hi2c Pointer to a I2C_HandleTypeDef structure that contains
  *                the configuration information for the specified I2C.
  * @retval None
  */
__weak void HAL_I2C_MemTxCpltCallback(I2C_HandleTypeDef *hi2c)
{
 8002a98:	b580      	push	{r7, lr}
 8002a9a:	b082      	sub	sp, #8
 8002a9c:	af00      	add	r7, sp, #0
 8002a9e:	6078      	str	r0, [r7, #4]
  UNUSED(hi2c);

  /* NOTE : This function should not be modified, when the callback is needed,
            the HAL_I2C_MemTxCpltCallback could be implemented in the user file
   */
}
 8002aa0:	46c0      	nop			; (mov r8, r8)
 8002aa2:	46bd      	mov	sp, r7
 8002aa4:	b002      	add	sp, #8
 8002aa6:	bd80      	pop	{r7, pc}

08002aa8 <HAL_I2C_MemRxCpltCallback>:
  * @param  hi2c Pointer to a I2C_HandleTypeDef structure that contains
  *                the configuration information for the specified I2C.
  * @retval None
  */
__weak void HAL_I2C_MemRxCpltCallback(I2C_HandleTypeDef *hi2c)
{
 8002aa8:	b580      	push	{r7, lr}
 8002aaa:	b082      	sub	sp, #8
 8002aac:	af00      	add	r7, sp, #0
 8002aae:	6078      	str	r0, [r7, #4]
  UNUSED(hi2c);

  /* NOTE : This function should not be modified, when the callback is needed,
            the HAL_I2C_MemRxCpltCallback could be implemented in the user file
   */
}
 8002ab0:	46c0      	nop			; (mov r8, r8)
 8002ab2:	46bd      	mov	sp, r7
 8002ab4:	b002      	add	sp, #8
 8002ab6:	bd80      	pop	{r7, pc}

08002ab8 <HAL_I2C_AbortCpltCallback>:
  * @param  hi2c Pointer to a I2C_HandleTypeDef structure that contains
  *                the configuration information for the specified I2C.
  * @retval None
  */
__weak void HAL_I2C_AbortCpltCallback(I2C_HandleTypeDef *hi2c)
{
 8002ab8:	b580      	push	{r7, lr}
 8002aba:	b082      	sub	sp, #8
 8002abc:	af00      	add	r7, sp, #0
 8002abe:	6078      	str	r0, [r7, #4]
  UNUSED(hi2c);

  /* NOTE : This function should not be modified, when the callback is needed,
            the HAL_I2C_AbortCpltCallback could be implemented in the user file
   */
}
 8002ac0:	46c0      	nop			; (mov r8, r8)
 8002ac2:	46bd      	mov	sp, r7
 8002ac4:	b002      	add	sp, #8
 8002ac6:	bd80      	pop	{r7, pc}

08002ac8 <HAL_I2C_GetError>:
  * @param  hi2c Pointer to a I2C_HandleTypeDef structure that contains
  *              the configuration information for the specified I2C.
  * @retval I2C Error Code
  */
uint32_t HAL_I2C_GetError(I2C_HandleTypeDef *hi2c)
{
 8002ac8:	b580      	push	{r7, lr}
 8002aca:	b082      	sub	sp, #8
 8002acc:	af00      	add	r7, sp, #0
 8002ace:	6078      	str	r0, [r7, #4]
  return hi2c->ErrorCode;
 8002ad0:	687b      	ldr	r3, [r7, #4]
 8002ad2:	6c5b      	ldr	r3, [r3, #68]	; 0x44
}
 8002ad4:	0018      	movs	r0, r3
 8002ad6:	46bd      	mov	sp, r7
 8002ad8:	b002      	add	sp, #8
 8002ada:	bd80      	pop	{r7, pc}

08002adc <I2C_Slave_ISR_IT>:
  * @param  ITSources Interrupt sources enabled.
  * @retval HAL status
  */
static HAL_StatusTypeDef I2C_Slave_ISR_IT(struct __I2C_HandleTypeDef *hi2c, uint32_t ITFlags,
                                          uint32_t ITSources)
{
 8002adc:	b580      	push	{r7, lr}
 8002ade:	b086      	sub	sp, #24
 8002ae0:	af00      	add	r7, sp, #0
 8002ae2:	60f8      	str	r0, [r7, #12]
 8002ae4:	60b9      	str	r1, [r7, #8]
 8002ae6:	607a      	str	r2, [r7, #4]
  uint32_t tmpoptions = hi2c->XferOptions;
 8002ae8:	68fb      	ldr	r3, [r7, #12]
 8002aea:	6adb      	ldr	r3, [r3, #44]	; 0x2c
 8002aec:	617b      	str	r3, [r7, #20]
  uint32_t tmpITFlags = ITFlags;
 8002aee:	68bb      	ldr	r3, [r7, #8]
 8002af0:	613b      	str	r3, [r7, #16]

  /* Process locked */
  __HAL_LOCK(hi2c);
 8002af2:	68fb      	ldr	r3, [r7, #12]
 8002af4:	2240      	movs	r2, #64	; 0x40
 8002af6:	5c9b      	ldrb	r3, [r3, r2]
 8002af8:	2b01      	cmp	r3, #1
 8002afa:	d101      	bne.n	8002b00 <I2C_Slave_ISR_IT+0x24>
 8002afc:	2302      	movs	r3, #2
 8002afe:	e0fa      	b.n	8002cf6 <I2C_Slave_ISR_IT+0x21a>
 8002b00:	68fb      	ldr	r3, [r7, #12]
 8002b02:	2240      	movs	r2, #64	; 0x40
 8002b04:	2101      	movs	r1, #1
 8002b06:	5499      	strb	r1, [r3, r2]

  /* Check if STOPF is set */
  if ((I2C_CHECK_FLAG(tmpITFlags, I2C_FLAG_STOPF) != RESET) && \
 8002b08:	693b      	ldr	r3, [r7, #16]
 8002b0a:	095b      	lsrs	r3, r3, #5
 8002b0c:	001a      	movs	r2, r3
 8002b0e:	2301      	movs	r3, #1
 8002b10:	4013      	ands	r3, r2
 8002b12:	d00b      	beq.n	8002b2c <I2C_Slave_ISR_IT+0x50>
      (I2C_CHECK_IT_SOURCE(ITSources, I2C_IT_STOPI) != RESET))
 8002b14:	687b      	ldr	r3, [r7, #4]
 8002b16:	095b      	lsrs	r3, r3, #5
 8002b18:	001a      	movs	r2, r3
 8002b1a:	2301      	movs	r3, #1
 8002b1c:	4013      	ands	r3, r2
  if ((I2C_CHECK_FLAG(tmpITFlags, I2C_FLAG_STOPF) != RESET) && \
 8002b1e:	d005      	beq.n	8002b2c <I2C_Slave_ISR_IT+0x50>
  {
    /* Call I2C Slave complete process */
    I2C_ITSlaveCplt(hi2c, tmpITFlags);
 8002b20:	693a      	ldr	r2, [r7, #16]
 8002b22:	68fb      	ldr	r3, [r7, #12]
 8002b24:	0011      	movs	r1, r2
 8002b26:	0018      	movs	r0, r3
 8002b28:	f000 fd0c 	bl	8003544 <I2C_ITSlaveCplt>
  }

  if ((I2C_CHECK_FLAG(tmpITFlags, I2C_FLAG_AF) != RESET) && \
 8002b2c:	693b      	ldr	r3, [r7, #16]
 8002b2e:	091b      	lsrs	r3, r3, #4
 8002b30:	001a      	movs	r2, r3
 8002b32:	2301      	movs	r3, #1
 8002b34:	4013      	ands	r3, r2
 8002b36:	d054      	beq.n	8002be2 <I2C_Slave_ISR_IT+0x106>
      (I2C_CHECK_IT_SOURCE(ITSources, I2C_IT_NACKI) != RESET))
 8002b38:	687b      	ldr	r3, [r7, #4]
 8002b3a:	091b      	lsrs	r3, r3, #4
 8002b3c:	001a      	movs	r2, r3
 8002b3e:	2301      	movs	r3, #1
 8002b40:	4013      	ands	r3, r2
  if ((I2C_CHECK_FLAG(tmpITFlags, I2C_FLAG_AF) != RESET) && \
 8002b42:	d04e      	beq.n	8002be2 <I2C_Slave_ISR_IT+0x106>
  {
    /* Check that I2C transfer finished */
    /* if yes, normal use case, a NACK is sent by the MASTER when Transfer is finished */
    /* Mean XferCount == 0*/
    /* So clear Flag NACKF only */
    if (hi2c->XferCount == 0U)
 8002b44:	68fb      	ldr	r3, [r7, #12]
 8002b46:	8d5b      	ldrh	r3, [r3, #42]	; 0x2a
 8002b48:	b29b      	uxth	r3, r3
 8002b4a:	2b00      	cmp	r3, #0
 8002b4c:	d12d      	bne.n	8002baa <I2C_Slave_ISR_IT+0xce>
    {
      if ((hi2c->State == HAL_I2C_STATE_LISTEN) && (tmpoptions == I2C_FIRST_AND_LAST_FRAME))
 8002b4e:	68fb      	ldr	r3, [r7, #12]
 8002b50:	2241      	movs	r2, #65	; 0x41
 8002b52:	5c9b      	ldrb	r3, [r3, r2]
 8002b54:	b2db      	uxtb	r3, r3
 8002b56:	2b28      	cmp	r3, #40	; 0x28
 8002b58:	d10b      	bne.n	8002b72 <I2C_Slave_ISR_IT+0x96>
 8002b5a:	697a      	ldr	r2, [r7, #20]
 8002b5c:	2380      	movs	r3, #128	; 0x80
 8002b5e:	049b      	lsls	r3, r3, #18
 8002b60:	429a      	cmp	r2, r3
 8002b62:	d106      	bne.n	8002b72 <I2C_Slave_ISR_IT+0x96>
        /* Same action must be done for (tmpoptions == I2C_LAST_FRAME) which removed for
           Warning[Pa134]: left and right operands are identical */
      {
        /* Call I2C Listen complete process */
        I2C_ITListenCplt(hi2c, tmpITFlags);
 8002b64:	693a      	ldr	r2, [r7, #16]
 8002b66:	68fb      	ldr	r3, [r7, #12]
 8002b68:	0011      	movs	r1, r2
 8002b6a:	0018      	movs	r0, r3
 8002b6c:	f000 fe0e 	bl	800378c <I2C_ITListenCplt>
 8002b70:	e036      	b.n	8002be0 <I2C_Slave_ISR_IT+0x104>
      }
      else if ((hi2c->State == HAL_I2C_STATE_BUSY_TX_LISTEN) && (tmpoptions != I2C_NO_OPTION_FRAME))
 8002b72:	68fb      	ldr	r3, [r7, #12]
 8002b74:	2241      	movs	r2, #65	; 0x41
 8002b76:	5c9b      	ldrb	r3, [r3, r2]
 8002b78:	b2db      	uxtb	r3, r3
 8002b7a:	2b29      	cmp	r3, #41	; 0x29
 8002b7c:	d110      	bne.n	8002ba0 <I2C_Slave_ISR_IT+0xc4>
 8002b7e:	697b      	ldr	r3, [r7, #20]
 8002b80:	4a5f      	ldr	r2, [pc, #380]	; (8002d00 <I2C_Slave_ISR_IT+0x224>)
 8002b82:	4293      	cmp	r3, r2
 8002b84:	d00c      	beq.n	8002ba0 <I2C_Slave_ISR_IT+0xc4>
      {
        /* Clear NACK Flag */
        __HAL_I2C_CLEAR_FLAG(hi2c, I2C_FLAG_AF);
 8002b86:	68fb      	ldr	r3, [r7, #12]
 8002b88:	681b      	ldr	r3, [r3, #0]
 8002b8a:	2210      	movs	r2, #16
 8002b8c:	61da      	str	r2, [r3, #28]

        /* Flush TX register */
        I2C_Flush_TXDR(hi2c);
 8002b8e:	68fb      	ldr	r3, [r7, #12]
 8002b90:	0018      	movs	r0, r3
 8002b92:	f000 ff60 	bl	8003a56 <I2C_Flush_TXDR>

        /* Last Byte is Transmitted */
        /* Call I2C Slave Sequential complete process */
        I2C_ITSlaveSeqCplt(hi2c);
 8002b96:	68fb      	ldr	r3, [r7, #12]
 8002b98:	0018      	movs	r0, r3
 8002b9a:	f000 fb9b 	bl	80032d4 <I2C_ITSlaveSeqCplt>
 8002b9e:	e01f      	b.n	8002be0 <I2C_Slave_ISR_IT+0x104>
      }
      else
      {
        /* Clear NACK Flag */
        __HAL_I2C_CLEAR_FLAG(hi2c, I2C_FLAG_AF);
 8002ba0:	68fb      	ldr	r3, [r7, #12]
 8002ba2:	681b      	ldr	r3, [r3, #0]
 8002ba4:	2210      	movs	r2, #16
 8002ba6:	61da      	str	r2, [r3, #28]
    if (hi2c->XferCount == 0U)
 8002ba8:	e09d      	b.n	8002ce6 <I2C_Slave_ISR_IT+0x20a>
    }
    else
    {
      /* if no, error use case, a Non-Acknowledge of last Data is generated by the MASTER*/
      /* Clear NACK Flag */
      __HAL_I2C_CLEAR_FLAG(hi2c, I2C_FLAG_AF);
 8002baa:	68fb      	ldr	r3, [r7, #12]
 8002bac:	681b      	ldr	r3, [r3, #0]
 8002bae:	2210      	movs	r2, #16
 8002bb0:	61da      	str	r2, [r3, #28]

      /* Set ErrorCode corresponding to a Non-Acknowledge */
      hi2c->ErrorCode |= HAL_I2C_ERROR_AF;
 8002bb2:	68fb      	ldr	r3, [r7, #12]
 8002bb4:	6c5b      	ldr	r3, [r3, #68]	; 0x44
 8002bb6:	2204      	movs	r2, #4
 8002bb8:	431a      	orrs	r2, r3
 8002bba:	68fb      	ldr	r3, [r7, #12]
 8002bbc:	645a      	str	r2, [r3, #68]	; 0x44

      if ((tmpoptions == I2C_FIRST_FRAME) || (tmpoptions == I2C_NEXT_FRAME))
 8002bbe:	697b      	ldr	r3, [r7, #20]
 8002bc0:	2b00      	cmp	r3, #0
 8002bc2:	d005      	beq.n	8002bd0 <I2C_Slave_ISR_IT+0xf4>
 8002bc4:	697a      	ldr	r2, [r7, #20]
 8002bc6:	2380      	movs	r3, #128	; 0x80
 8002bc8:	045b      	lsls	r3, r3, #17
 8002bca:	429a      	cmp	r2, r3
 8002bcc:	d000      	beq.n	8002bd0 <I2C_Slave_ISR_IT+0xf4>
 8002bce:	e08a      	b.n	8002ce6 <I2C_Slave_ISR_IT+0x20a>
      {
        /* Call the corresponding callback to inform upper layer of End of Transfer */
        I2C_ITError(hi2c, hi2c->ErrorCode);
 8002bd0:	68fb      	ldr	r3, [r7, #12]
 8002bd2:	6c5a      	ldr	r2, [r3, #68]	; 0x44
 8002bd4:	68fb      	ldr	r3, [r7, #12]
 8002bd6:	0011      	movs	r1, r2
 8002bd8:	0018      	movs	r0, r3
 8002bda:	f000 fe31 	bl	8003840 <I2C_ITError>
    if (hi2c->XferCount == 0U)
 8002bde:	e082      	b.n	8002ce6 <I2C_Slave_ISR_IT+0x20a>
 8002be0:	e081      	b.n	8002ce6 <I2C_Slave_ISR_IT+0x20a>
      }
    }
  }
  else if ((I2C_CHECK_FLAG(tmpITFlags, I2C_FLAG_RXNE) != RESET) && \
 8002be2:	693b      	ldr	r3, [r7, #16]
 8002be4:	089b      	lsrs	r3, r3, #2
 8002be6:	001a      	movs	r2, r3
 8002be8:	2301      	movs	r3, #1
 8002bea:	4013      	ands	r3, r2
 8002bec:	d031      	beq.n	8002c52 <I2C_Slave_ISR_IT+0x176>
           (I2C_CHECK_IT_SOURCE(ITSources, I2C_IT_RXI) != RESET))
 8002bee:	687b      	ldr	r3, [r7, #4]
 8002bf0:	089b      	lsrs	r3, r3, #2
 8002bf2:	001a      	movs	r2, r3
 8002bf4:	2301      	movs	r3, #1
 8002bf6:	4013      	ands	r3, r2
  else if ((I2C_CHECK_FLAG(tmpITFlags, I2C_FLAG_RXNE) != RESET) && \
 8002bf8:	d02b      	beq.n	8002c52 <I2C_Slave_ISR_IT+0x176>
  {
    if (hi2c->XferCount > 0U)
 8002bfa:	68fb      	ldr	r3, [r7, #12]
 8002bfc:	8d5b      	ldrh	r3, [r3, #42]	; 0x2a
 8002bfe:	b29b      	uxth	r3, r3
 8002c00:	2b00      	cmp	r3, #0
 8002c02:	d018      	beq.n	8002c36 <I2C_Slave_ISR_IT+0x15a>
    {
      /* Read data from RXDR */
      *hi2c->pBuffPtr = (uint8_t)hi2c->Instance->RXDR;
 8002c04:	68fb      	ldr	r3, [r7, #12]
 8002c06:	681b      	ldr	r3, [r3, #0]
 8002c08:	6a5a      	ldr	r2, [r3, #36]	; 0x24
 8002c0a:	68fb      	ldr	r3, [r7, #12]
 8002c0c:	6a5b      	ldr	r3, [r3, #36]	; 0x24
 8002c0e:	b2d2      	uxtb	r2, r2
 8002c10:	701a      	strb	r2, [r3, #0]

      /* Increment Buffer pointer */
      hi2c->pBuffPtr++;
 8002c12:	68fb      	ldr	r3, [r7, #12]
 8002c14:	6a5b      	ldr	r3, [r3, #36]	; 0x24
 8002c16:	1c5a      	adds	r2, r3, #1
 8002c18:	68fb      	ldr	r3, [r7, #12]
 8002c1a:	625a      	str	r2, [r3, #36]	; 0x24

      hi2c->XferSize--;
 8002c1c:	68fb      	ldr	r3, [r7, #12]
 8002c1e:	8d1b      	ldrh	r3, [r3, #40]	; 0x28
 8002c20:	3b01      	subs	r3, #1
 8002c22:	b29a      	uxth	r2, r3
 8002c24:	68fb      	ldr	r3, [r7, #12]
 8002c26:	851a      	strh	r2, [r3, #40]	; 0x28
      hi2c->XferCount--;
 8002c28:	68fb      	ldr	r3, [r7, #12]
 8002c2a:	8d5b      	ldrh	r3, [r3, #42]	; 0x2a
 8002c2c:	b29b      	uxth	r3, r3
 8002c2e:	3b01      	subs	r3, #1
 8002c30:	b29a      	uxth	r2, r3
 8002c32:	68fb      	ldr	r3, [r7, #12]
 8002c34:	855a      	strh	r2, [r3, #42]	; 0x2a
    }

    if ((hi2c->XferCount == 0U) && \
 8002c36:	68fb      	ldr	r3, [r7, #12]
 8002c38:	8d5b      	ldrh	r3, [r3, #42]	; 0x2a
 8002c3a:	b29b      	uxth	r3, r3
 8002c3c:	2b00      	cmp	r3, #0
 8002c3e:	d154      	bne.n	8002cea <I2C_Slave_ISR_IT+0x20e>
 8002c40:	697b      	ldr	r3, [r7, #20]
 8002c42:	4a2f      	ldr	r2, [pc, #188]	; (8002d00 <I2C_Slave_ISR_IT+0x224>)
 8002c44:	4293      	cmp	r3, r2
 8002c46:	d050      	beq.n	8002cea <I2C_Slave_ISR_IT+0x20e>
        (tmpoptions != I2C_NO_OPTION_FRAME))
    {
      /* Call I2C Slave Sequential complete process */
      I2C_ITSlaveSeqCplt(hi2c);
 8002c48:	68fb      	ldr	r3, [r7, #12]
 8002c4a:	0018      	movs	r0, r3
 8002c4c:	f000 fb42 	bl	80032d4 <I2C_ITSlaveSeqCplt>
    if ((hi2c->XferCount == 0U) && \
 8002c50:	e04b      	b.n	8002cea <I2C_Slave_ISR_IT+0x20e>
    }
  }
  else if ((I2C_CHECK_FLAG(tmpITFlags, I2C_FLAG_ADDR) != RESET) && \
 8002c52:	693b      	ldr	r3, [r7, #16]
 8002c54:	08db      	lsrs	r3, r3, #3
 8002c56:	001a      	movs	r2, r3
 8002c58:	2301      	movs	r3, #1
 8002c5a:	4013      	ands	r3, r2
 8002c5c:	d00c      	beq.n	8002c78 <I2C_Slave_ISR_IT+0x19c>
           (I2C_CHECK_IT_SOURCE(ITSources, I2C_IT_ADDRI) != RESET))
 8002c5e:	687b      	ldr	r3, [r7, #4]
 8002c60:	08db      	lsrs	r3, r3, #3
 8002c62:	001a      	movs	r2, r3
 8002c64:	2301      	movs	r3, #1
 8002c66:	4013      	ands	r3, r2
  else if ((I2C_CHECK_FLAG(tmpITFlags, I2C_FLAG_ADDR) != RESET) && \
 8002c68:	d006      	beq.n	8002c78 <I2C_Slave_ISR_IT+0x19c>
  {
    I2C_ITAddrCplt(hi2c, tmpITFlags);
 8002c6a:	693a      	ldr	r2, [r7, #16]
 8002c6c:	68fb      	ldr	r3, [r7, #12]
 8002c6e:	0011      	movs	r1, r2
 8002c70:	0018      	movs	r0, r3
 8002c72:	f000 fa49 	bl	8003108 <I2C_ITAddrCplt>
 8002c76:	e039      	b.n	8002cec <I2C_Slave_ISR_IT+0x210>
  }
  else if ((I2C_CHECK_FLAG(tmpITFlags, I2C_FLAG_TXIS) != RESET) && \
 8002c78:	693b      	ldr	r3, [r7, #16]
 8002c7a:	085b      	lsrs	r3, r3, #1
 8002c7c:	001a      	movs	r2, r3
 8002c7e:	2301      	movs	r3, #1
 8002c80:	4013      	ands	r3, r2
 8002c82:	d033      	beq.n	8002cec <I2C_Slave_ISR_IT+0x210>
           (I2C_CHECK_IT_SOURCE(ITSources, I2C_IT_TXI) != RESET))
 8002c84:	687b      	ldr	r3, [r7, #4]
 8002c86:	085b      	lsrs	r3, r3, #1
 8002c88:	001a      	movs	r2, r3
 8002c8a:	2301      	movs	r3, #1
 8002c8c:	4013      	ands	r3, r2
  else if ((I2C_CHECK_FLAG(tmpITFlags, I2C_FLAG_TXIS) != RESET) && \
 8002c8e:	d02d      	beq.n	8002cec <I2C_Slave_ISR_IT+0x210>
  {
    /* Write data to TXDR only if XferCount not reach "0" */
    /* A TXIS flag can be set, during STOP treatment      */
    /* Check if all Data have already been sent */
    /* If it is the case, this last write in TXDR is not sent, correspond to a dummy TXIS event */
    if (hi2c->XferCount > 0U)
 8002c90:	68fb      	ldr	r3, [r7, #12]
 8002c92:	8d5b      	ldrh	r3, [r3, #42]	; 0x2a
 8002c94:	b29b      	uxth	r3, r3
 8002c96:	2b00      	cmp	r3, #0
 8002c98:	d018      	beq.n	8002ccc <I2C_Slave_ISR_IT+0x1f0>
    {
      /* Write data to TXDR */
      hi2c->Instance->TXDR = *hi2c->pBuffPtr;
 8002c9a:	68fb      	ldr	r3, [r7, #12]
 8002c9c:	6a5b      	ldr	r3, [r3, #36]	; 0x24
 8002c9e:	781a      	ldrb	r2, [r3, #0]
 8002ca0:	68fb      	ldr	r3, [r7, #12]
 8002ca2:	681b      	ldr	r3, [r3, #0]
 8002ca4:	629a      	str	r2, [r3, #40]	; 0x28

      /* Increment Buffer pointer */
      hi2c->pBuffPtr++;
 8002ca6:	68fb      	ldr	r3, [r7, #12]
 8002ca8:	6a5b      	ldr	r3, [r3, #36]	; 0x24
 8002caa:	1c5a      	adds	r2, r3, #1
 8002cac:	68fb      	ldr	r3, [r7, #12]
 8002cae:	625a      	str	r2, [r3, #36]	; 0x24

      hi2c->XferCount--;
 8002cb0:	68fb      	ldr	r3, [r7, #12]
 8002cb2:	8d5b      	ldrh	r3, [r3, #42]	; 0x2a
 8002cb4:	b29b      	uxth	r3, r3
 8002cb6:	3b01      	subs	r3, #1
 8002cb8:	b29a      	uxth	r2, r3
 8002cba:	68fb      	ldr	r3, [r7, #12]
 8002cbc:	855a      	strh	r2, [r3, #42]	; 0x2a
      hi2c->XferSize--;
 8002cbe:	68fb      	ldr	r3, [r7, #12]
 8002cc0:	8d1b      	ldrh	r3, [r3, #40]	; 0x28
 8002cc2:	3b01      	subs	r3, #1
 8002cc4:	b29a      	uxth	r2, r3
 8002cc6:	68fb      	ldr	r3, [r7, #12]
 8002cc8:	851a      	strh	r2, [r3, #40]	; 0x28
 8002cca:	e00f      	b.n	8002cec <I2C_Slave_ISR_IT+0x210>
    }
    else
    {
      if ((tmpoptions == I2C_NEXT_FRAME) || (tmpoptions == I2C_FIRST_FRAME))
 8002ccc:	697a      	ldr	r2, [r7, #20]
 8002cce:	2380      	movs	r3, #128	; 0x80
 8002cd0:	045b      	lsls	r3, r3, #17
 8002cd2:	429a      	cmp	r2, r3
 8002cd4:	d002      	beq.n	8002cdc <I2C_Slave_ISR_IT+0x200>
 8002cd6:	697b      	ldr	r3, [r7, #20]
 8002cd8:	2b00      	cmp	r3, #0
 8002cda:	d107      	bne.n	8002cec <I2C_Slave_ISR_IT+0x210>
      {
        /* Last Byte is Transmitted */
        /* Call I2C Slave Sequential complete process */
        I2C_ITSlaveSeqCplt(hi2c);
 8002cdc:	68fb      	ldr	r3, [r7, #12]
 8002cde:	0018      	movs	r0, r3
 8002ce0:	f000 faf8 	bl	80032d4 <I2C_ITSlaveSeqCplt>
 8002ce4:	e002      	b.n	8002cec <I2C_Slave_ISR_IT+0x210>
    if (hi2c->XferCount == 0U)
 8002ce6:	46c0      	nop			; (mov r8, r8)
 8002ce8:	e000      	b.n	8002cec <I2C_Slave_ISR_IT+0x210>
    if ((hi2c->XferCount == 0U) && \
 8002cea:	46c0      	nop			; (mov r8, r8)
  {
    /* Nothing to do */
  }

  /* Process Unlocked */
  __HAL_UNLOCK(hi2c);
 8002cec:	68fb      	ldr	r3, [r7, #12]
 8002cee:	2240      	movs	r2, #64	; 0x40
 8002cf0:	2100      	movs	r1, #0
 8002cf2:	5499      	strb	r1, [r3, r2]

  return HAL_OK;
 8002cf4:	2300      	movs	r3, #0
}
 8002cf6:	0018      	movs	r0, r3
 8002cf8:	46bd      	mov	sp, r7
 8002cfa:	b006      	add	sp, #24
 8002cfc:	bd80      	pop	{r7, pc}
 8002cfe:	46c0      	nop			; (mov r8, r8)
 8002d00:	ffff0000 	.word	0xffff0000

08002d04 <I2C_Master_ISR_DMA>:
  * @param  ITSources Interrupt sources enabled.
  * @retval HAL status
  */
static HAL_StatusTypeDef I2C_Master_ISR_DMA(struct __I2C_HandleTypeDef *hi2c, uint32_t ITFlags,
                                            uint32_t ITSources)
{
 8002d04:	b590      	push	{r4, r7, lr}
 8002d06:	b089      	sub	sp, #36	; 0x24
 8002d08:	af02      	add	r7, sp, #8
 8002d0a:	60f8      	str	r0, [r7, #12]
 8002d0c:	60b9      	str	r1, [r7, #8]
 8002d0e:	607a      	str	r2, [r7, #4]
  uint16_t devaddress;
  uint32_t xfermode;

  /* Process Locked */
  __HAL_LOCK(hi2c);
 8002d10:	68fb      	ldr	r3, [r7, #12]
 8002d12:	2240      	movs	r2, #64	; 0x40
 8002d14:	5c9b      	ldrb	r3, [r3, r2]
 8002d16:	2b01      	cmp	r3, #1
 8002d18:	d101      	bne.n	8002d1e <I2C_Master_ISR_DMA+0x1a>
 8002d1a:	2302      	movs	r3, #2
 8002d1c:	e0f7      	b.n	8002f0e <I2C_Master_ISR_DMA+0x20a>
 8002d1e:	68fb      	ldr	r3, [r7, #12]
 8002d20:	2240      	movs	r2, #64	; 0x40
 8002d22:	2101      	movs	r1, #1
 8002d24:	5499      	strb	r1, [r3, r2]

  if ((I2C_CHECK_FLAG(ITFlags, I2C_FLAG_AF) != RESET) && \
 8002d26:	68bb      	ldr	r3, [r7, #8]
 8002d28:	091b      	lsrs	r3, r3, #4
 8002d2a:	001a      	movs	r2, r3
 8002d2c:	2301      	movs	r3, #1
 8002d2e:	4013      	ands	r3, r2
 8002d30:	d019      	beq.n	8002d66 <I2C_Master_ISR_DMA+0x62>
      (I2C_CHECK_IT_SOURCE(ITSources, I2C_IT_NACKI) != RESET))
 8002d32:	687b      	ldr	r3, [r7, #4]
 8002d34:	091b      	lsrs	r3, r3, #4
 8002d36:	001a      	movs	r2, r3
 8002d38:	2301      	movs	r3, #1
 8002d3a:	4013      	ands	r3, r2
  if ((I2C_CHECK_FLAG(ITFlags, I2C_FLAG_AF) != RESET) && \
 8002d3c:	d013      	beq.n	8002d66 <I2C_Master_ISR_DMA+0x62>
  {
    /* Clear NACK Flag */
    __HAL_I2C_CLEAR_FLAG(hi2c, I2C_FLAG_AF);
 8002d3e:	68fb      	ldr	r3, [r7, #12]
 8002d40:	681b      	ldr	r3, [r3, #0]
 8002d42:	2210      	movs	r2, #16
 8002d44:	61da      	str	r2, [r3, #28]

    /* Set corresponding Error Code */
    hi2c->ErrorCode |= HAL_I2C_ERROR_AF;
 8002d46:	68fb      	ldr	r3, [r7, #12]
 8002d48:	6c5b      	ldr	r3, [r3, #68]	; 0x44
 8002d4a:	2204      	movs	r2, #4
 8002d4c:	431a      	orrs	r2, r3
 8002d4e:	68fb      	ldr	r3, [r7, #12]
 8002d50:	645a      	str	r2, [r3, #68]	; 0x44

    /* No need to generate STOP, it is automatically done */
    /* But enable STOP interrupt, to treat it */
    /* Error callback will be send during stop flag treatment */
    I2C_Enable_IRQ(hi2c, I2C_XFER_CPLT_IT);
 8002d52:	68fb      	ldr	r3, [r7, #12]
 8002d54:	2120      	movs	r1, #32
 8002d56:	0018      	movs	r0, r3
 8002d58:	f000 fef4 	bl	8003b44 <I2C_Enable_IRQ>

    /* Flush TX register */
    I2C_Flush_TXDR(hi2c);
 8002d5c:	68fb      	ldr	r3, [r7, #12]
 8002d5e:	0018      	movs	r0, r3
 8002d60:	f000 fe79 	bl	8003a56 <I2C_Flush_TXDR>
 8002d64:	e0ce      	b.n	8002f04 <I2C_Master_ISR_DMA+0x200>
  }
  else if ((I2C_CHECK_FLAG(ITFlags, I2C_FLAG_TCR) != RESET) && \
 8002d66:	68bb      	ldr	r3, [r7, #8]
 8002d68:	09db      	lsrs	r3, r3, #7
 8002d6a:	001a      	movs	r2, r3
 8002d6c:	2301      	movs	r3, #1
 8002d6e:	4013      	ands	r3, r2
 8002d70:	d100      	bne.n	8002d74 <I2C_Master_ISR_DMA+0x70>
 8002d72:	e07e      	b.n	8002e72 <I2C_Master_ISR_DMA+0x16e>
           (I2C_CHECK_IT_SOURCE(ITSources, I2C_IT_TCI) != RESET))
 8002d74:	687b      	ldr	r3, [r7, #4]
 8002d76:	099b      	lsrs	r3, r3, #6
 8002d78:	001a      	movs	r2, r3
 8002d7a:	2301      	movs	r3, #1
 8002d7c:	4013      	ands	r3, r2
  else if ((I2C_CHECK_FLAG(ITFlags, I2C_FLAG_TCR) != RESET) && \
 8002d7e:	d100      	bne.n	8002d82 <I2C_Master_ISR_DMA+0x7e>
 8002d80:	e077      	b.n	8002e72 <I2C_Master_ISR_DMA+0x16e>
  {
    /* Disable TC interrupt */
    __HAL_I2C_DISABLE_IT(hi2c, I2C_IT_TCI);
 8002d82:	68fb      	ldr	r3, [r7, #12]
 8002d84:	681b      	ldr	r3, [r3, #0]
 8002d86:	681a      	ldr	r2, [r3, #0]
 8002d88:	68fb      	ldr	r3, [r7, #12]
 8002d8a:	681b      	ldr	r3, [r3, #0]
 8002d8c:	2140      	movs	r1, #64	; 0x40
 8002d8e:	438a      	bics	r2, r1
 8002d90:	601a      	str	r2, [r3, #0]

    if (hi2c->XferCount != 0U)
 8002d92:	68fb      	ldr	r3, [r7, #12]
 8002d94:	8d5b      	ldrh	r3, [r3, #42]	; 0x2a
 8002d96:	b29b      	uxth	r3, r3
 8002d98:	2b00      	cmp	r3, #0
 8002d9a:	d055      	beq.n	8002e48 <I2C_Master_ISR_DMA+0x144>
    {
      /* Recover Slave address */
      devaddress = (uint16_t)(hi2c->Instance->CR2 & I2C_CR2_SADD);
 8002d9c:	68fb      	ldr	r3, [r7, #12]
 8002d9e:	681b      	ldr	r3, [r3, #0]
 8002da0:	685b      	ldr	r3, [r3, #4]
 8002da2:	b29a      	uxth	r2, r3
 8002da4:	2312      	movs	r3, #18
 8002da6:	18fb      	adds	r3, r7, r3
 8002da8:	0592      	lsls	r2, r2, #22
 8002daa:	0d92      	lsrs	r2, r2, #22
 8002dac:	801a      	strh	r2, [r3, #0]

      /* Prepare the new XferSize to transfer */
      if (hi2c->XferCount > MAX_NBYTE_SIZE)
 8002dae:	68fb      	ldr	r3, [r7, #12]
 8002db0:	8d5b      	ldrh	r3, [r3, #42]	; 0x2a
 8002db2:	b29b      	uxth	r3, r3
 8002db4:	2bff      	cmp	r3, #255	; 0xff
 8002db6:	d906      	bls.n	8002dc6 <I2C_Master_ISR_DMA+0xc2>
      {
        hi2c->XferSize = MAX_NBYTE_SIZE;
 8002db8:	68fb      	ldr	r3, [r7, #12]
 8002dba:	22ff      	movs	r2, #255	; 0xff
 8002dbc:	851a      	strh	r2, [r3, #40]	; 0x28
        xfermode = I2C_RELOAD_MODE;
 8002dbe:	2380      	movs	r3, #128	; 0x80
 8002dc0:	045b      	lsls	r3, r3, #17
 8002dc2:	617b      	str	r3, [r7, #20]
 8002dc4:	e010      	b.n	8002de8 <I2C_Master_ISR_DMA+0xe4>
      }
      else
      {
        hi2c->XferSize = hi2c->XferCount;
 8002dc6:	68fb      	ldr	r3, [r7, #12]
 8002dc8:	8d5b      	ldrh	r3, [r3, #42]	; 0x2a
 8002dca:	b29a      	uxth	r2, r3
 8002dcc:	68fb      	ldr	r3, [r7, #12]
 8002dce:	851a      	strh	r2, [r3, #40]	; 0x28
        if (hi2c->XferOptions != I2C_NO_OPTION_FRAME)
 8002dd0:	68fb      	ldr	r3, [r7, #12]
 8002dd2:	6adb      	ldr	r3, [r3, #44]	; 0x2c
 8002dd4:	4a50      	ldr	r2, [pc, #320]	; (8002f18 <I2C_Master_ISR_DMA+0x214>)
 8002dd6:	4293      	cmp	r3, r2
 8002dd8:	d003      	beq.n	8002de2 <I2C_Master_ISR_DMA+0xde>
        {
          xfermode = hi2c->XferOptions;
 8002dda:	68fb      	ldr	r3, [r7, #12]
 8002ddc:	6adb      	ldr	r3, [r3, #44]	; 0x2c
 8002dde:	617b      	str	r3, [r7, #20]
 8002de0:	e002      	b.n	8002de8 <I2C_Master_ISR_DMA+0xe4>
        }
        else
        {
          xfermode = I2C_AUTOEND_MODE;
 8002de2:	2380      	movs	r3, #128	; 0x80
 8002de4:	049b      	lsls	r3, r3, #18
 8002de6:	617b      	str	r3, [r7, #20]
        }
      }

      /* Set the new XferSize in Nbytes register */
      I2C_TransferConfig(hi2c, devaddress, (uint8_t)hi2c->XferSize, xfermode, I2C_NO_STARTSTOP);
 8002de8:	68fb      	ldr	r3, [r7, #12]
 8002dea:	8d1b      	ldrh	r3, [r3, #40]	; 0x28
 8002dec:	b2da      	uxtb	r2, r3
 8002dee:	697c      	ldr	r4, [r7, #20]
 8002df0:	2312      	movs	r3, #18
 8002df2:	18fb      	adds	r3, r7, r3
 8002df4:	8819      	ldrh	r1, [r3, #0]
 8002df6:	68f8      	ldr	r0, [r7, #12]
 8002df8:	2300      	movs	r3, #0
 8002dfa:	9300      	str	r3, [sp, #0]
 8002dfc:	0023      	movs	r3, r4
 8002dfe:	f000 fe6b 	bl	8003ad8 <I2C_TransferConfig>

      /* Update XferCount value */
      hi2c->XferCount -= hi2c->XferSize;
 8002e02:	68fb      	ldr	r3, [r7, #12]
 8002e04:	8d5b      	ldrh	r3, [r3, #42]	; 0x2a
 8002e06:	b29a      	uxth	r2, r3
 8002e08:	68fb      	ldr	r3, [r7, #12]
 8002e0a:	8d1b      	ldrh	r3, [r3, #40]	; 0x28
 8002e0c:	1ad3      	subs	r3, r2, r3
 8002e0e:	b29a      	uxth	r2, r3
 8002e10:	68fb      	ldr	r3, [r7, #12]
 8002e12:	855a      	strh	r2, [r3, #42]	; 0x2a

      /* Enable DMA Request */
      if (hi2c->State == HAL_I2C_STATE_BUSY_RX)
 8002e14:	68fb      	ldr	r3, [r7, #12]
 8002e16:	2241      	movs	r2, #65	; 0x41
 8002e18:	5c9b      	ldrb	r3, [r3, r2]
 8002e1a:	b2db      	uxtb	r3, r3
 8002e1c:	2b22      	cmp	r3, #34	; 0x22
 8002e1e:	d109      	bne.n	8002e34 <I2C_Master_ISR_DMA+0x130>
      {
        hi2c->Instance->CR1 |= I2C_CR1_RXDMAEN;
 8002e20:	68fb      	ldr	r3, [r7, #12]
 8002e22:	681b      	ldr	r3, [r3, #0]
 8002e24:	681a      	ldr	r2, [r3, #0]
 8002e26:	68fb      	ldr	r3, [r7, #12]
 8002e28:	681b      	ldr	r3, [r3, #0]
 8002e2a:	2180      	movs	r1, #128	; 0x80
 8002e2c:	0209      	lsls	r1, r1, #8
 8002e2e:	430a      	orrs	r2, r1
 8002e30:	601a      	str	r2, [r3, #0]
    if (hi2c->XferCount != 0U)
 8002e32:	e067      	b.n	8002f04 <I2C_Master_ISR_DMA+0x200>
      }
      else
      {
        hi2c->Instance->CR1 |= I2C_CR1_TXDMAEN;
 8002e34:	68fb      	ldr	r3, [r7, #12]
 8002e36:	681b      	ldr	r3, [r3, #0]
 8002e38:	681a      	ldr	r2, [r3, #0]
 8002e3a:	68fb      	ldr	r3, [r7, #12]
 8002e3c:	681b      	ldr	r3, [r3, #0]
 8002e3e:	2180      	movs	r1, #128	; 0x80
 8002e40:	01c9      	lsls	r1, r1, #7
 8002e42:	430a      	orrs	r2, r1
 8002e44:	601a      	str	r2, [r3, #0]
    if (hi2c->XferCount != 0U)
 8002e46:	e05d      	b.n	8002f04 <I2C_Master_ISR_DMA+0x200>
      }
    }
    else
    {
      /* Call TxCpltCallback() if no stop mode is set */
      if (I2C_GET_STOP_MODE(hi2c) != I2C_AUTOEND_MODE)
 8002e48:	68fb      	ldr	r3, [r7, #12]
 8002e4a:	681b      	ldr	r3, [r3, #0]
 8002e4c:	685a      	ldr	r2, [r3, #4]
 8002e4e:	2380      	movs	r3, #128	; 0x80
 8002e50:	049b      	lsls	r3, r3, #18
 8002e52:	401a      	ands	r2, r3
 8002e54:	2380      	movs	r3, #128	; 0x80
 8002e56:	049b      	lsls	r3, r3, #18
 8002e58:	429a      	cmp	r2, r3
 8002e5a:	d004      	beq.n	8002e66 <I2C_Master_ISR_DMA+0x162>
      {
        /* Call I2C Master Sequential complete process */
        I2C_ITMasterSeqCplt(hi2c);
 8002e5c:	68fb      	ldr	r3, [r7, #12]
 8002e5e:	0018      	movs	r0, r3
 8002e60:	f000 f9f6 	bl	8003250 <I2C_ITMasterSeqCplt>
    if (hi2c->XferCount != 0U)
 8002e64:	e04e      	b.n	8002f04 <I2C_Master_ISR_DMA+0x200>
      }
      else
      {
        /* Wrong size Status regarding TCR flag event */
        /* Call the corresponding callback to inform upper layer of End of Transfer */
        I2C_ITError(hi2c, HAL_I2C_ERROR_SIZE);
 8002e66:	68fb      	ldr	r3, [r7, #12]
 8002e68:	2140      	movs	r1, #64	; 0x40
 8002e6a:	0018      	movs	r0, r3
 8002e6c:	f000 fce8 	bl	8003840 <I2C_ITError>
    if (hi2c->XferCount != 0U)
 8002e70:	e048      	b.n	8002f04 <I2C_Master_ISR_DMA+0x200>
      }
    }
  }
  else if ((I2C_CHECK_FLAG(ITFlags, I2C_FLAG_TC) != RESET) && \
 8002e72:	68bb      	ldr	r3, [r7, #8]
 8002e74:	099b      	lsrs	r3, r3, #6
 8002e76:	001a      	movs	r2, r3
 8002e78:	2301      	movs	r3, #1
 8002e7a:	4013      	ands	r3, r2
 8002e7c:	d02e      	beq.n	8002edc <I2C_Master_ISR_DMA+0x1d8>
           (I2C_CHECK_IT_SOURCE(ITSources, I2C_IT_TCI) != RESET))
 8002e7e:	687b      	ldr	r3, [r7, #4]
 8002e80:	099b      	lsrs	r3, r3, #6
 8002e82:	001a      	movs	r2, r3
 8002e84:	2301      	movs	r3, #1
 8002e86:	4013      	ands	r3, r2
  else if ((I2C_CHECK_FLAG(ITFlags, I2C_FLAG_TC) != RESET) && \
 8002e88:	d028      	beq.n	8002edc <I2C_Master_ISR_DMA+0x1d8>
  {
    if (hi2c->XferCount == 0U)
 8002e8a:	68fb      	ldr	r3, [r7, #12]
 8002e8c:	8d5b      	ldrh	r3, [r3, #42]	; 0x2a
 8002e8e:	b29b      	uxth	r3, r3
 8002e90:	2b00      	cmp	r3, #0
 8002e92:	d11d      	bne.n	8002ed0 <I2C_Master_ISR_DMA+0x1cc>
    {
      if (I2C_GET_STOP_MODE(hi2c) != I2C_AUTOEND_MODE)
 8002e94:	68fb      	ldr	r3, [r7, #12]
 8002e96:	681b      	ldr	r3, [r3, #0]
 8002e98:	685a      	ldr	r2, [r3, #4]
 8002e9a:	2380      	movs	r3, #128	; 0x80
 8002e9c:	049b      	lsls	r3, r3, #18
 8002e9e:	401a      	ands	r2, r3
 8002ea0:	2380      	movs	r3, #128	; 0x80
 8002ea2:	049b      	lsls	r3, r3, #18
 8002ea4:	429a      	cmp	r2, r3
 8002ea6:	d02c      	beq.n	8002f02 <I2C_Master_ISR_DMA+0x1fe>
      {
        /* Generate a stop condition in case of no transfer option */
        if (hi2c->XferOptions == I2C_NO_OPTION_FRAME)
 8002ea8:	68fb      	ldr	r3, [r7, #12]
 8002eaa:	6adb      	ldr	r3, [r3, #44]	; 0x2c
 8002eac:	4a1a      	ldr	r2, [pc, #104]	; (8002f18 <I2C_Master_ISR_DMA+0x214>)
 8002eae:	4293      	cmp	r3, r2
 8002eb0:	d109      	bne.n	8002ec6 <I2C_Master_ISR_DMA+0x1c2>
        {
          /* Generate Stop */
          hi2c->Instance->CR2 |= I2C_CR2_STOP;
 8002eb2:	68fb      	ldr	r3, [r7, #12]
 8002eb4:	681b      	ldr	r3, [r3, #0]
 8002eb6:	685a      	ldr	r2, [r3, #4]
 8002eb8:	68fb      	ldr	r3, [r7, #12]
 8002eba:	681b      	ldr	r3, [r3, #0]
 8002ebc:	2180      	movs	r1, #128	; 0x80
 8002ebe:	01c9      	lsls	r1, r1, #7
 8002ec0:	430a      	orrs	r2, r1
 8002ec2:	605a      	str	r2, [r3, #4]
    if (hi2c->XferCount == 0U)
 8002ec4:	e01d      	b.n	8002f02 <I2C_Master_ISR_DMA+0x1fe>
        }
        else
        {
          /* Call I2C Master Sequential complete process */
          I2C_ITMasterSeqCplt(hi2c);
 8002ec6:	68fb      	ldr	r3, [r7, #12]
 8002ec8:	0018      	movs	r0, r3
 8002eca:	f000 f9c1 	bl	8003250 <I2C_ITMasterSeqCplt>
    if (hi2c->XferCount == 0U)
 8002ece:	e018      	b.n	8002f02 <I2C_Master_ISR_DMA+0x1fe>
    }
    else
    {
      /* Wrong size Status regarding TC flag event */
      /* Call the corresponding callback to inform upper layer of End of Transfer */
      I2C_ITError(hi2c, HAL_I2C_ERROR_SIZE);
 8002ed0:	68fb      	ldr	r3, [r7, #12]
 8002ed2:	2140      	movs	r1, #64	; 0x40
 8002ed4:	0018      	movs	r0, r3
 8002ed6:	f000 fcb3 	bl	8003840 <I2C_ITError>
    if (hi2c->XferCount == 0U)
 8002eda:	e012      	b.n	8002f02 <I2C_Master_ISR_DMA+0x1fe>
    }
  }
  else if ((I2C_CHECK_FLAG(ITFlags, I2C_FLAG_STOPF) != RESET) && \
 8002edc:	68bb      	ldr	r3, [r7, #8]
 8002ede:	095b      	lsrs	r3, r3, #5
 8002ee0:	001a      	movs	r2, r3
 8002ee2:	2301      	movs	r3, #1
 8002ee4:	4013      	ands	r3, r2
 8002ee6:	d00d      	beq.n	8002f04 <I2C_Master_ISR_DMA+0x200>
           (I2C_CHECK_IT_SOURCE(ITSources, I2C_IT_STOPI) != RESET))
 8002ee8:	687b      	ldr	r3, [r7, #4]
 8002eea:	095b      	lsrs	r3, r3, #5
 8002eec:	001a      	movs	r2, r3
 8002eee:	2301      	movs	r3, #1
 8002ef0:	4013      	ands	r3, r2
  else if ((I2C_CHECK_FLAG(ITFlags, I2C_FLAG_STOPF) != RESET) && \
 8002ef2:	d007      	beq.n	8002f04 <I2C_Master_ISR_DMA+0x200>
  {
    /* Call I2C Master complete process */
    I2C_ITMasterCplt(hi2c, ITFlags);
 8002ef4:	68ba      	ldr	r2, [r7, #8]
 8002ef6:	68fb      	ldr	r3, [r7, #12]
 8002ef8:	0011      	movs	r1, r2
 8002efa:	0018      	movs	r0, r3
 8002efc:	f000 fa50 	bl	80033a0 <I2C_ITMasterCplt>
 8002f00:	e000      	b.n	8002f04 <I2C_Master_ISR_DMA+0x200>
    if (hi2c->XferCount == 0U)
 8002f02:	46c0      	nop			; (mov r8, r8)
  {
    /* Nothing to do */
  }

  /* Process Unlocked */
  __HAL_UNLOCK(hi2c);
 8002f04:	68fb      	ldr	r3, [r7, #12]
 8002f06:	2240      	movs	r2, #64	; 0x40
 8002f08:	2100      	movs	r1, #0
 8002f0a:	5499      	strb	r1, [r3, r2]

  return HAL_OK;
 8002f0c:	2300      	movs	r3, #0
}
 8002f0e:	0018      	movs	r0, r3
 8002f10:	46bd      	mov	sp, r7
 8002f12:	b007      	add	sp, #28
 8002f14:	bd90      	pop	{r4, r7, pc}
 8002f16:	46c0      	nop			; (mov r8, r8)
 8002f18:	ffff0000 	.word	0xffff0000

08002f1c <I2C_Slave_ISR_DMA>:
  * @param  ITSources Interrupt sources enabled.
  * @retval HAL status
  */
static HAL_StatusTypeDef I2C_Slave_ISR_DMA(struct __I2C_HandleTypeDef *hi2c, uint32_t ITFlags,
                                           uint32_t ITSources)
{
 8002f1c:	b580      	push	{r7, lr}
 8002f1e:	b088      	sub	sp, #32
 8002f20:	af00      	add	r7, sp, #0
 8002f22:	60f8      	str	r0, [r7, #12]
 8002f24:	60b9      	str	r1, [r7, #8]
 8002f26:	607a      	str	r2, [r7, #4]
  uint32_t tmpoptions = hi2c->XferOptions;
 8002f28:	68fb      	ldr	r3, [r7, #12]
 8002f2a:	6adb      	ldr	r3, [r3, #44]	; 0x2c
 8002f2c:	61bb      	str	r3, [r7, #24]
  uint32_t treatdmanack = 0U;
 8002f2e:	2300      	movs	r3, #0
 8002f30:	61fb      	str	r3, [r7, #28]
  HAL_I2C_StateTypeDef tmpstate;

  /* Process locked */
  __HAL_LOCK(hi2c);
 8002f32:	68fb      	ldr	r3, [r7, #12]
 8002f34:	2240      	movs	r2, #64	; 0x40
 8002f36:	5c9b      	ldrb	r3, [r3, r2]
 8002f38:	2b01      	cmp	r3, #1
 8002f3a:	d101      	bne.n	8002f40 <I2C_Slave_ISR_DMA+0x24>
 8002f3c:	2302      	movs	r3, #2
 8002f3e:	e0dd      	b.n	80030fc <I2C_Slave_ISR_DMA+0x1e0>
 8002f40:	68fb      	ldr	r3, [r7, #12]
 8002f42:	2240      	movs	r2, #64	; 0x40
 8002f44:	2101      	movs	r1, #1
 8002f46:	5499      	strb	r1, [r3, r2]

  /* Check if STOPF is set */
  if ((I2C_CHECK_FLAG(ITFlags, I2C_FLAG_STOPF) != RESET) && \
 8002f48:	68bb      	ldr	r3, [r7, #8]
 8002f4a:	095b      	lsrs	r3, r3, #5
 8002f4c:	001a      	movs	r2, r3
 8002f4e:	2301      	movs	r3, #1
 8002f50:	4013      	ands	r3, r2
 8002f52:	d00b      	beq.n	8002f6c <I2C_Slave_ISR_DMA+0x50>
      (I2C_CHECK_IT_SOURCE(ITSources, I2C_IT_STOPI) != RESET))
 8002f54:	687b      	ldr	r3, [r7, #4]
 8002f56:	095b      	lsrs	r3, r3, #5
 8002f58:	001a      	movs	r2, r3
 8002f5a:	2301      	movs	r3, #1
 8002f5c:	4013      	ands	r3, r2
  if ((I2C_CHECK_FLAG(ITFlags, I2C_FLAG_STOPF) != RESET) && \
 8002f5e:	d005      	beq.n	8002f6c <I2C_Slave_ISR_DMA+0x50>
  {
    /* Call I2C Slave complete process */
    I2C_ITSlaveCplt(hi2c, ITFlags);
 8002f60:	68ba      	ldr	r2, [r7, #8]
 8002f62:	68fb      	ldr	r3, [r7, #12]
 8002f64:	0011      	movs	r1, r2
 8002f66:	0018      	movs	r0, r3
 8002f68:	f000 faec 	bl	8003544 <I2C_ITSlaveCplt>
  }

  if ((I2C_CHECK_FLAG(ITFlags, I2C_FLAG_AF) != RESET) && \
 8002f6c:	68bb      	ldr	r3, [r7, #8]
 8002f6e:	091b      	lsrs	r3, r3, #4
 8002f70:	001a      	movs	r2, r3
 8002f72:	2301      	movs	r3, #1
 8002f74:	4013      	ands	r3, r2
 8002f76:	d100      	bne.n	8002f7a <I2C_Slave_ISR_DMA+0x5e>
 8002f78:	e0a9      	b.n	80030ce <I2C_Slave_ISR_DMA+0x1b2>
      (I2C_CHECK_IT_SOURCE(ITSources, I2C_IT_NACKI) != RESET))
 8002f7a:	687b      	ldr	r3, [r7, #4]
 8002f7c:	091b      	lsrs	r3, r3, #4
 8002f7e:	001a      	movs	r2, r3
 8002f80:	2301      	movs	r3, #1
 8002f82:	4013      	ands	r3, r2
  if ((I2C_CHECK_FLAG(ITFlags, I2C_FLAG_AF) != RESET) && \
 8002f84:	d100      	bne.n	8002f88 <I2C_Slave_ISR_DMA+0x6c>
 8002f86:	e0a2      	b.n	80030ce <I2C_Slave_ISR_DMA+0x1b2>
  {
    /* Check that I2C transfer finished */
    /* if yes, normal use case, a NACK is sent by the MASTER when Transfer is finished */
    /* Mean XferCount == 0 */
    /* So clear Flag NACKF only */
    if ((I2C_CHECK_IT_SOURCE(ITSources, I2C_CR1_TXDMAEN) != RESET) ||
 8002f88:	687b      	ldr	r3, [r7, #4]
 8002f8a:	0b9b      	lsrs	r3, r3, #14
 8002f8c:	001a      	movs	r2, r3
 8002f8e:	2301      	movs	r3, #1
 8002f90:	4013      	ands	r3, r2
 8002f92:	d106      	bne.n	8002fa2 <I2C_Slave_ISR_DMA+0x86>
        (I2C_CHECK_IT_SOURCE(ITSources, I2C_CR1_RXDMAEN) != RESET))
 8002f94:	687b      	ldr	r3, [r7, #4]
 8002f96:	0bdb      	lsrs	r3, r3, #15
 8002f98:	001a      	movs	r2, r3
 8002f9a:	2301      	movs	r3, #1
 8002f9c:	4013      	ands	r3, r2
    if ((I2C_CHECK_IT_SOURCE(ITSources, I2C_CR1_TXDMAEN) != RESET) ||
 8002f9e:	d100      	bne.n	8002fa2 <I2C_Slave_ISR_DMA+0x86>
 8002fa0:	e08e      	b.n	80030c0 <I2C_Slave_ISR_DMA+0x1a4>
    {
      /* Split check of hdmarx, for MISRA compliance */
      if (hi2c->hdmarx != NULL)
 8002fa2:	68fb      	ldr	r3, [r7, #12]
 8002fa4:	6bdb      	ldr	r3, [r3, #60]	; 0x3c
 8002fa6:	2b00      	cmp	r3, #0
 8002fa8:	d00d      	beq.n	8002fc6 <I2C_Slave_ISR_DMA+0xaa>
      {
        if (I2C_CHECK_IT_SOURCE(ITSources, I2C_CR1_RXDMAEN) != RESET)
 8002faa:	687b      	ldr	r3, [r7, #4]
 8002fac:	0bdb      	lsrs	r3, r3, #15
 8002fae:	001a      	movs	r2, r3
 8002fb0:	2301      	movs	r3, #1
 8002fb2:	4013      	ands	r3, r2
 8002fb4:	d007      	beq.n	8002fc6 <I2C_Slave_ISR_DMA+0xaa>
        {
          if (__HAL_DMA_GET_COUNTER(hi2c->hdmarx) == 0U)
 8002fb6:	68fb      	ldr	r3, [r7, #12]
 8002fb8:	6bdb      	ldr	r3, [r3, #60]	; 0x3c
 8002fba:	681b      	ldr	r3, [r3, #0]
 8002fbc:	685b      	ldr	r3, [r3, #4]
 8002fbe:	2b00      	cmp	r3, #0
 8002fc0:	d101      	bne.n	8002fc6 <I2C_Slave_ISR_DMA+0xaa>
          {
            treatdmanack = 1U;
 8002fc2:	2301      	movs	r3, #1
 8002fc4:	61fb      	str	r3, [r7, #28]
          }
        }
      }

      /* Split check of hdmatx, for MISRA compliance  */
      if (hi2c->hdmatx != NULL)
 8002fc6:	68fb      	ldr	r3, [r7, #12]
 8002fc8:	6b9b      	ldr	r3, [r3, #56]	; 0x38
 8002fca:	2b00      	cmp	r3, #0
 8002fcc:	d00d      	beq.n	8002fea <I2C_Slave_ISR_DMA+0xce>
      {
        if (I2C_CHECK_IT_SOURCE(ITSources, I2C_CR1_TXDMAEN) != RESET)
 8002fce:	687b      	ldr	r3, [r7, #4]
 8002fd0:	0b9b      	lsrs	r3, r3, #14
 8002fd2:	001a      	movs	r2, r3
 8002fd4:	2301      	movs	r3, #1
 8002fd6:	4013      	ands	r3, r2
 8002fd8:	d007      	beq.n	8002fea <I2C_Slave_ISR_DMA+0xce>
        {
          if (__HAL_DMA_GET_COUNTER(hi2c->hdmatx) == 0U)
 8002fda:	68fb      	ldr	r3, [r7, #12]
 8002fdc:	6b9b      	ldr	r3, [r3, #56]	; 0x38
 8002fde:	681b      	ldr	r3, [r3, #0]
 8002fe0:	685b      	ldr	r3, [r3, #4]
 8002fe2:	2b00      	cmp	r3, #0
 8002fe4:	d101      	bne.n	8002fea <I2C_Slave_ISR_DMA+0xce>
          {
            treatdmanack = 1U;
 8002fe6:	2301      	movs	r3, #1
 8002fe8:	61fb      	str	r3, [r7, #28]
          }
        }
      }

      if (treatdmanack == 1U)
 8002fea:	69fb      	ldr	r3, [r7, #28]
 8002fec:	2b01      	cmp	r3, #1
 8002fee:	d12d      	bne.n	800304c <I2C_Slave_ISR_DMA+0x130>
      {
        if ((hi2c->State == HAL_I2C_STATE_LISTEN) && (tmpoptions == I2C_FIRST_AND_LAST_FRAME))
 8002ff0:	68fb      	ldr	r3, [r7, #12]
 8002ff2:	2241      	movs	r2, #65	; 0x41
 8002ff4:	5c9b      	ldrb	r3, [r3, r2]
 8002ff6:	b2db      	uxtb	r3, r3
 8002ff8:	2b28      	cmp	r3, #40	; 0x28
 8002ffa:	d10b      	bne.n	8003014 <I2C_Slave_ISR_DMA+0xf8>
 8002ffc:	69ba      	ldr	r2, [r7, #24]
 8002ffe:	2380      	movs	r3, #128	; 0x80
 8003000:	049b      	lsls	r3, r3, #18
 8003002:	429a      	cmp	r2, r3
 8003004:	d106      	bne.n	8003014 <I2C_Slave_ISR_DMA+0xf8>
          /* Same action must be done for (tmpoptions == I2C_LAST_FRAME) which removed for
             Warning[Pa134]: left and right operands are identical */
        {
          /* Call I2C Listen complete process */
          I2C_ITListenCplt(hi2c, ITFlags);
 8003006:	68ba      	ldr	r2, [r7, #8]
 8003008:	68fb      	ldr	r3, [r7, #12]
 800300a:	0011      	movs	r1, r2
 800300c:	0018      	movs	r0, r3
 800300e:	f000 fbbd 	bl	800378c <I2C_ITListenCplt>
 8003012:	e054      	b.n	80030be <I2C_Slave_ISR_DMA+0x1a2>
        }
        else if ((hi2c->State == HAL_I2C_STATE_BUSY_TX_LISTEN) && (tmpoptions != I2C_NO_OPTION_FRAME))
 8003014:	68fb      	ldr	r3, [r7, #12]
 8003016:	2241      	movs	r2, #65	; 0x41
 8003018:	5c9b      	ldrb	r3, [r3, r2]
 800301a:	b2db      	uxtb	r3, r3
 800301c:	2b29      	cmp	r3, #41	; 0x29
 800301e:	d110      	bne.n	8003042 <I2C_Slave_ISR_DMA+0x126>
 8003020:	69bb      	ldr	r3, [r7, #24]
 8003022:	4a38      	ldr	r2, [pc, #224]	; (8003104 <I2C_Slave_ISR_DMA+0x1e8>)
 8003024:	4293      	cmp	r3, r2
 8003026:	d00c      	beq.n	8003042 <I2C_Slave_ISR_DMA+0x126>
        {
          /* Clear NACK Flag */
          __HAL_I2C_CLEAR_FLAG(hi2c, I2C_FLAG_AF);
 8003028:	68fb      	ldr	r3, [r7, #12]
 800302a:	681b      	ldr	r3, [r3, #0]
 800302c:	2210      	movs	r2, #16
 800302e:	61da      	str	r2, [r3, #28]

          /* Flush TX register */
          I2C_Flush_TXDR(hi2c);
 8003030:	68fb      	ldr	r3, [r7, #12]
 8003032:	0018      	movs	r0, r3
 8003034:	f000 fd0f 	bl	8003a56 <I2C_Flush_TXDR>

          /* Last Byte is Transmitted */
          /* Call I2C Slave Sequential complete process */
          I2C_ITSlaveSeqCplt(hi2c);
 8003038:	68fb      	ldr	r3, [r7, #12]
 800303a:	0018      	movs	r0, r3
 800303c:	f000 f94a 	bl	80032d4 <I2C_ITSlaveSeqCplt>
 8003040:	e03d      	b.n	80030be <I2C_Slave_ISR_DMA+0x1a2>
        }
        else
        {
          /* Clear NACK Flag */
          __HAL_I2C_CLEAR_FLAG(hi2c, I2C_FLAG_AF);
 8003042:	68fb      	ldr	r3, [r7, #12]
 8003044:	681b      	ldr	r3, [r3, #0]
 8003046:	2210      	movs	r2, #16
 8003048:	61da      	str	r2, [r3, #28]
      if (treatdmanack == 1U)
 800304a:	e03e      	b.n	80030ca <I2C_Slave_ISR_DMA+0x1ae>
      }
      else
      {
        /* if no, error use case, a Non-Acknowledge of last Data is generated by the MASTER*/
        /* Clear NACK Flag */
        __HAL_I2C_CLEAR_FLAG(hi2c, I2C_FLAG_AF);
 800304c:	68fb      	ldr	r3, [r7, #12]
 800304e:	681b      	ldr	r3, [r3, #0]
 8003050:	2210      	movs	r2, #16
 8003052:	61da      	str	r2, [r3, #28]

        /* Set ErrorCode corresponding to a Non-Acknowledge */
        hi2c->ErrorCode |= HAL_I2C_ERROR_AF;
 8003054:	68fb      	ldr	r3, [r7, #12]
 8003056:	6c5b      	ldr	r3, [r3, #68]	; 0x44
 8003058:	2204      	movs	r2, #4
 800305a:	431a      	orrs	r2, r3
 800305c:	68fb      	ldr	r3, [r7, #12]
 800305e:	645a      	str	r2, [r3, #68]	; 0x44

        /* Store current hi2c->State, solve MISRA2012-Rule-13.5 */
        tmpstate = hi2c->State;
 8003060:	2317      	movs	r3, #23
 8003062:	18fb      	adds	r3, r7, r3
 8003064:	68fa      	ldr	r2, [r7, #12]
 8003066:	2141      	movs	r1, #65	; 0x41
 8003068:	5c52      	ldrb	r2, [r2, r1]
 800306a:	701a      	strb	r2, [r3, #0]

        if ((tmpoptions == I2C_FIRST_FRAME) || (tmpoptions == I2C_NEXT_FRAME))
 800306c:	69bb      	ldr	r3, [r7, #24]
 800306e:	2b00      	cmp	r3, #0
 8003070:	d004      	beq.n	800307c <I2C_Slave_ISR_DMA+0x160>
 8003072:	69ba      	ldr	r2, [r7, #24]
 8003074:	2380      	movs	r3, #128	; 0x80
 8003076:	045b      	lsls	r3, r3, #17
 8003078:	429a      	cmp	r2, r3
 800307a:	d126      	bne.n	80030ca <I2C_Slave_ISR_DMA+0x1ae>
        {
          if ((tmpstate == HAL_I2C_STATE_BUSY_TX) || (tmpstate == HAL_I2C_STATE_BUSY_TX_LISTEN))
 800307c:	2217      	movs	r2, #23
 800307e:	18bb      	adds	r3, r7, r2
 8003080:	781b      	ldrb	r3, [r3, #0]
 8003082:	2b21      	cmp	r3, #33	; 0x21
 8003084:	d003      	beq.n	800308e <I2C_Slave_ISR_DMA+0x172>
 8003086:	18bb      	adds	r3, r7, r2
 8003088:	781b      	ldrb	r3, [r3, #0]
 800308a:	2b29      	cmp	r3, #41	; 0x29
 800308c:	d103      	bne.n	8003096 <I2C_Slave_ISR_DMA+0x17a>
          {
            hi2c->PreviousState = I2C_STATE_SLAVE_BUSY_TX;
 800308e:	68fb      	ldr	r3, [r7, #12]
 8003090:	2221      	movs	r2, #33	; 0x21
 8003092:	631a      	str	r2, [r3, #48]	; 0x30
 8003094:	e00b      	b.n	80030ae <I2C_Slave_ISR_DMA+0x192>
          }
          else if ((tmpstate == HAL_I2C_STATE_BUSY_RX) || (tmpstate == HAL_I2C_STATE_BUSY_RX_LISTEN))
 8003096:	2217      	movs	r2, #23
 8003098:	18bb      	adds	r3, r7, r2
 800309a:	781b      	ldrb	r3, [r3, #0]
 800309c:	2b22      	cmp	r3, #34	; 0x22
 800309e:	d003      	beq.n	80030a8 <I2C_Slave_ISR_DMA+0x18c>
 80030a0:	18bb      	adds	r3, r7, r2
 80030a2:	781b      	ldrb	r3, [r3, #0]
 80030a4:	2b2a      	cmp	r3, #42	; 0x2a
 80030a6:	d102      	bne.n	80030ae <I2C_Slave_ISR_DMA+0x192>
          {
            hi2c->PreviousState = I2C_STATE_SLAVE_BUSY_RX;
 80030a8:	68fb      	ldr	r3, [r7, #12]
 80030aa:	2222      	movs	r2, #34	; 0x22
 80030ac:	631a      	str	r2, [r3, #48]	; 0x30
          {
            /* Do nothing */
          }

          /* Call the corresponding callback to inform upper layer of End of Transfer */
          I2C_ITError(hi2c, hi2c->ErrorCode);
 80030ae:	68fb      	ldr	r3, [r7, #12]
 80030b0:	6c5a      	ldr	r2, [r3, #68]	; 0x44
 80030b2:	68fb      	ldr	r3, [r7, #12]
 80030b4:	0011      	movs	r1, r2
 80030b6:	0018      	movs	r0, r3
 80030b8:	f000 fbc2 	bl	8003840 <I2C_ITError>
      if (treatdmanack == 1U)
 80030bc:	e005      	b.n	80030ca <I2C_Slave_ISR_DMA+0x1ae>
 80030be:	e004      	b.n	80030ca <I2C_Slave_ISR_DMA+0x1ae>
      }
    }
    else
    {
      /* Only Clear NACK Flag, no DMA treatment is pending */
      __HAL_I2C_CLEAR_FLAG(hi2c, I2C_FLAG_AF);
 80030c0:	68fb      	ldr	r3, [r7, #12]
 80030c2:	681b      	ldr	r3, [r3, #0]
 80030c4:	2210      	movs	r2, #16
 80030c6:	61da      	str	r2, [r3, #28]
    if ((I2C_CHECK_IT_SOURCE(ITSources, I2C_CR1_TXDMAEN) != RESET) ||
 80030c8:	e013      	b.n	80030f2 <I2C_Slave_ISR_DMA+0x1d6>
      if (treatdmanack == 1U)
 80030ca:	46c0      	nop			; (mov r8, r8)
    if ((I2C_CHECK_IT_SOURCE(ITSources, I2C_CR1_TXDMAEN) != RESET) ||
 80030cc:	e011      	b.n	80030f2 <I2C_Slave_ISR_DMA+0x1d6>
    }
  }
  else if ((I2C_CHECK_FLAG(ITFlags, I2C_FLAG_ADDR) != RESET) && \
 80030ce:	68bb      	ldr	r3, [r7, #8]
 80030d0:	08db      	lsrs	r3, r3, #3
 80030d2:	001a      	movs	r2, r3
 80030d4:	2301      	movs	r3, #1
 80030d6:	4013      	ands	r3, r2
 80030d8:	d00b      	beq.n	80030f2 <I2C_Slave_ISR_DMA+0x1d6>
           (I2C_CHECK_IT_SOURCE(ITSources, I2C_IT_ADDRI) != RESET))
 80030da:	687b      	ldr	r3, [r7, #4]
 80030dc:	08db      	lsrs	r3, r3, #3
 80030de:	001a      	movs	r2, r3
 80030e0:	2301      	movs	r3, #1
 80030e2:	4013      	ands	r3, r2
  else if ((I2C_CHECK_FLAG(ITFlags, I2C_FLAG_ADDR) != RESET) && \
 80030e4:	d005      	beq.n	80030f2 <I2C_Slave_ISR_DMA+0x1d6>
  {
    I2C_ITAddrCplt(hi2c, ITFlags);
 80030e6:	68ba      	ldr	r2, [r7, #8]
 80030e8:	68fb      	ldr	r3, [r7, #12]
 80030ea:	0011      	movs	r1, r2
 80030ec:	0018      	movs	r0, r3
 80030ee:	f000 f80b 	bl	8003108 <I2C_ITAddrCplt>
  {
    /* Nothing to do */
  }

  /* Process Unlocked */
  __HAL_UNLOCK(hi2c);
 80030f2:	68fb      	ldr	r3, [r7, #12]
 80030f4:	2240      	movs	r2, #64	; 0x40
 80030f6:	2100      	movs	r1, #0
 80030f8:	5499      	strb	r1, [r3, r2]

  return HAL_OK;
 80030fa:	2300      	movs	r3, #0
}
 80030fc:	0018      	movs	r0, r3
 80030fe:	46bd      	mov	sp, r7
 8003100:	b008      	add	sp, #32
 8003102:	bd80      	pop	{r7, pc}
 8003104:	ffff0000 	.word	0xffff0000

08003108 <I2C_ITAddrCplt>:
  * @param  hi2c I2C handle.
  * @param  ITFlags Interrupt flags to handle.
  * @retval None
  */
static void I2C_ITAddrCplt(I2C_HandleTypeDef *hi2c, uint32_t ITFlags)
{
 8003108:	b5b0      	push	{r4, r5, r7, lr}
 800310a:	b084      	sub	sp, #16
 800310c:	af00      	add	r7, sp, #0
 800310e:	6078      	str	r0, [r7, #4]
 8003110:	6039      	str	r1, [r7, #0]

  /* Prevent unused argument(s) compilation warning */
  UNUSED(ITFlags);

  /* In case of Listen state, need to inform upper layer of address match code event */
  if (((uint32_t)hi2c->State & (uint32_t)HAL_I2C_STATE_LISTEN) == (uint32_t)HAL_I2C_STATE_LISTEN)
 8003112:	687b      	ldr	r3, [r7, #4]
 8003114:	2241      	movs	r2, #65	; 0x41
 8003116:	5c9b      	ldrb	r3, [r3, r2]
 8003118:	b2db      	uxtb	r3, r3
 800311a:	001a      	movs	r2, r3
 800311c:	2328      	movs	r3, #40	; 0x28
 800311e:	4013      	ands	r3, r2
 8003120:	2b28      	cmp	r3, #40	; 0x28
 8003122:	d000      	beq.n	8003126 <I2C_ITAddrCplt+0x1e>
 8003124:	e088      	b.n	8003238 <I2C_ITAddrCplt+0x130>
  {
    transferdirection = I2C_GET_DIR(hi2c);
 8003126:	687b      	ldr	r3, [r7, #4]
 8003128:	681b      	ldr	r3, [r3, #0]
 800312a:	699b      	ldr	r3, [r3, #24]
 800312c:	0c1b      	lsrs	r3, r3, #16
 800312e:	b2da      	uxtb	r2, r3
 8003130:	250f      	movs	r5, #15
 8003132:	197b      	adds	r3, r7, r5
 8003134:	2101      	movs	r1, #1
 8003136:	400a      	ands	r2, r1
 8003138:	701a      	strb	r2, [r3, #0]
    slaveaddrcode     = I2C_GET_ADDR_MATCH(hi2c);
 800313a:	687b      	ldr	r3, [r7, #4]
 800313c:	681b      	ldr	r3, [r3, #0]
 800313e:	699b      	ldr	r3, [r3, #24]
 8003140:	0c1b      	lsrs	r3, r3, #16
 8003142:	b29a      	uxth	r2, r3
 8003144:	200c      	movs	r0, #12
 8003146:	183b      	adds	r3, r7, r0
 8003148:	21fe      	movs	r1, #254	; 0xfe
 800314a:	400a      	ands	r2, r1
 800314c:	801a      	strh	r2, [r3, #0]
    ownadd1code       = I2C_GET_OWN_ADDRESS1(hi2c);
 800314e:	687b      	ldr	r3, [r7, #4]
 8003150:	681b      	ldr	r3, [r3, #0]
 8003152:	689b      	ldr	r3, [r3, #8]
 8003154:	b29a      	uxth	r2, r3
 8003156:	240a      	movs	r4, #10
 8003158:	193b      	adds	r3, r7, r4
 800315a:	0592      	lsls	r2, r2, #22
 800315c:	0d92      	lsrs	r2, r2, #22
 800315e:	801a      	strh	r2, [r3, #0]
    ownadd2code       = I2C_GET_OWN_ADDRESS2(hi2c);
 8003160:	687b      	ldr	r3, [r7, #4]
 8003162:	681b      	ldr	r3, [r3, #0]
 8003164:	68db      	ldr	r3, [r3, #12]
 8003166:	b29a      	uxth	r2, r3
 8003168:	2308      	movs	r3, #8
 800316a:	18fb      	adds	r3, r7, r3
 800316c:	21fe      	movs	r1, #254	; 0xfe
 800316e:	400a      	ands	r2, r1
 8003170:	801a      	strh	r2, [r3, #0]

    /* If 10bits addressing mode is selected */
    if (hi2c->Init.AddressingMode == I2C_ADDRESSINGMODE_10BIT)
 8003172:	687b      	ldr	r3, [r7, #4]
 8003174:	68db      	ldr	r3, [r3, #12]
 8003176:	2b02      	cmp	r3, #2
 8003178:	d148      	bne.n	800320c <I2C_ITAddrCplt+0x104>
    {
      if ((slaveaddrcode & SLAVE_ADDR_MSK) == ((ownadd1code >> SLAVE_ADDR_SHIFT) & SLAVE_ADDR_MSK))
 800317a:	0021      	movs	r1, r4
 800317c:	187b      	adds	r3, r7, r1
 800317e:	881b      	ldrh	r3, [r3, #0]
 8003180:	09db      	lsrs	r3, r3, #7
 8003182:	b29a      	uxth	r2, r3
 8003184:	183b      	adds	r3, r7, r0
 8003186:	881b      	ldrh	r3, [r3, #0]
 8003188:	4053      	eors	r3, r2
 800318a:	b29b      	uxth	r3, r3
 800318c:	001a      	movs	r2, r3
 800318e:	2306      	movs	r3, #6
 8003190:	4013      	ands	r3, r2
 8003192:	d120      	bne.n	80031d6 <I2C_ITAddrCplt+0xce>
      {
        slaveaddrcode = ownadd1code;
 8003194:	183b      	adds	r3, r7, r0
 8003196:	187a      	adds	r2, r7, r1
 8003198:	8812      	ldrh	r2, [r2, #0]
 800319a:	801a      	strh	r2, [r3, #0]
        hi2c->AddrEventCount++;
 800319c:	687b      	ldr	r3, [r7, #4]
 800319e:	6c9b      	ldr	r3, [r3, #72]	; 0x48
 80031a0:	1c5a      	adds	r2, r3, #1
 80031a2:	687b      	ldr	r3, [r7, #4]
 80031a4:	649a      	str	r2, [r3, #72]	; 0x48
        if (hi2c->AddrEventCount == 2U)
 80031a6:	687b      	ldr	r3, [r7, #4]
 80031a8:	6c9b      	ldr	r3, [r3, #72]	; 0x48
 80031aa:	2b02      	cmp	r3, #2
 80031ac:	d14c      	bne.n	8003248 <I2C_ITAddrCplt+0x140>
        {
          /* Reset Address Event counter */
          hi2c->AddrEventCount = 0U;
 80031ae:	687b      	ldr	r3, [r7, #4]
 80031b0:	2200      	movs	r2, #0
 80031b2:	649a      	str	r2, [r3, #72]	; 0x48

          /* Clear ADDR flag */
          __HAL_I2C_CLEAR_FLAG(hi2c, I2C_FLAG_ADDR);
 80031b4:	687b      	ldr	r3, [r7, #4]
 80031b6:	681b      	ldr	r3, [r3, #0]
 80031b8:	2208      	movs	r2, #8
 80031ba:	61da      	str	r2, [r3, #28]

          /* Process Unlocked */
          __HAL_UNLOCK(hi2c);
 80031bc:	687b      	ldr	r3, [r7, #4]
 80031be:	2240      	movs	r2, #64	; 0x40
 80031c0:	2100      	movs	r1, #0
 80031c2:	5499      	strb	r1, [r3, r2]

          /* Call Slave Addr callback */
#if (USE_HAL_I2C_REGISTER_CALLBACKS == 1)
          hi2c->AddrCallback(hi2c, transferdirection, slaveaddrcode);
#else
          HAL_I2C_AddrCallback(hi2c, transferdirection, slaveaddrcode);
 80031c4:	183b      	adds	r3, r7, r0
 80031c6:	881a      	ldrh	r2, [r3, #0]
 80031c8:	197b      	adds	r3, r7, r5
 80031ca:	7819      	ldrb	r1, [r3, #0]
 80031cc:	687b      	ldr	r3, [r7, #4]
 80031ce:	0018      	movs	r0, r3
 80031d0:	f7fd fd6c 	bl	8000cac <HAL_I2C_AddrCallback>
    __HAL_I2C_CLEAR_FLAG(hi2c, I2C_FLAG_ADDR);

    /* Process Unlocked */
    __HAL_UNLOCK(hi2c);
  }
}
 80031d4:	e038      	b.n	8003248 <I2C_ITAddrCplt+0x140>
        slaveaddrcode = ownadd2code;
 80031d6:	240c      	movs	r4, #12
 80031d8:	193b      	adds	r3, r7, r4
 80031da:	2208      	movs	r2, #8
 80031dc:	18ba      	adds	r2, r7, r2
 80031de:	8812      	ldrh	r2, [r2, #0]
 80031e0:	801a      	strh	r2, [r3, #0]
        I2C_Disable_IRQ(hi2c, I2C_XFER_LISTEN_IT);
 80031e2:	2380      	movs	r3, #128	; 0x80
 80031e4:	021a      	lsls	r2, r3, #8
 80031e6:	687b      	ldr	r3, [r7, #4]
 80031e8:	0011      	movs	r1, r2
 80031ea:	0018      	movs	r0, r3
 80031ec:	f000 fd12 	bl	8003c14 <I2C_Disable_IRQ>
        __HAL_UNLOCK(hi2c);
 80031f0:	687b      	ldr	r3, [r7, #4]
 80031f2:	2240      	movs	r2, #64	; 0x40
 80031f4:	2100      	movs	r1, #0
 80031f6:	5499      	strb	r1, [r3, r2]
        HAL_I2C_AddrCallback(hi2c, transferdirection, slaveaddrcode);
 80031f8:	193b      	adds	r3, r7, r4
 80031fa:	881a      	ldrh	r2, [r3, #0]
 80031fc:	230f      	movs	r3, #15
 80031fe:	18fb      	adds	r3, r7, r3
 8003200:	7819      	ldrb	r1, [r3, #0]
 8003202:	687b      	ldr	r3, [r7, #4]
 8003204:	0018      	movs	r0, r3
 8003206:	f7fd fd51 	bl	8000cac <HAL_I2C_AddrCallback>
}
 800320a:	e01d      	b.n	8003248 <I2C_ITAddrCplt+0x140>
      I2C_Disable_IRQ(hi2c, I2C_XFER_LISTEN_IT);
 800320c:	2380      	movs	r3, #128	; 0x80
 800320e:	021a      	lsls	r2, r3, #8
 8003210:	687b      	ldr	r3, [r7, #4]
 8003212:	0011      	movs	r1, r2
 8003214:	0018      	movs	r0, r3
 8003216:	f000 fcfd 	bl	8003c14 <I2C_Disable_IRQ>
      __HAL_UNLOCK(hi2c);
 800321a:	687b      	ldr	r3, [r7, #4]
 800321c:	2240      	movs	r2, #64	; 0x40
 800321e:	2100      	movs	r1, #0
 8003220:	5499      	strb	r1, [r3, r2]
      HAL_I2C_AddrCallback(hi2c, transferdirection, slaveaddrcode);
 8003222:	230c      	movs	r3, #12
 8003224:	18fb      	adds	r3, r7, r3
 8003226:	881a      	ldrh	r2, [r3, #0]
 8003228:	230f      	movs	r3, #15
 800322a:	18fb      	adds	r3, r7, r3
 800322c:	7819      	ldrb	r1, [r3, #0]
 800322e:	687b      	ldr	r3, [r7, #4]
 8003230:	0018      	movs	r0, r3
 8003232:	f7fd fd3b 	bl	8000cac <HAL_I2C_AddrCallback>
}
 8003236:	e007      	b.n	8003248 <I2C_ITAddrCplt+0x140>
    __HAL_I2C_CLEAR_FLAG(hi2c, I2C_FLAG_ADDR);
 8003238:	687b      	ldr	r3, [r7, #4]
 800323a:	681b      	ldr	r3, [r3, #0]
 800323c:	2208      	movs	r2, #8
 800323e:	61da      	str	r2, [r3, #28]
    __HAL_UNLOCK(hi2c);
 8003240:	687b      	ldr	r3, [r7, #4]
 8003242:	2240      	movs	r2, #64	; 0x40
 8003244:	2100      	movs	r1, #0
 8003246:	5499      	strb	r1, [r3, r2]
}
 8003248:	46c0      	nop			; (mov r8, r8)
 800324a:	46bd      	mov	sp, r7
 800324c:	b004      	add	sp, #16
 800324e:	bdb0      	pop	{r4, r5, r7, pc}

08003250 <I2C_ITMasterSeqCplt>:
  * @brief  I2C Master sequential complete process.
  * @param  hi2c I2C handle.
  * @retval None
  */
static void I2C_ITMasterSeqCplt(I2C_HandleTypeDef *hi2c)
{
 8003250:	b580      	push	{r7, lr}
 8003252:	b082      	sub	sp, #8
 8003254:	af00      	add	r7, sp, #0
 8003256:	6078      	str	r0, [r7, #4]
  /* Reset I2C handle mode */
  hi2c->Mode = HAL_I2C_MODE_NONE;
 8003258:	687b      	ldr	r3, [r7, #4]
 800325a:	2242      	movs	r2, #66	; 0x42
 800325c:	2100      	movs	r1, #0
 800325e:	5499      	strb	r1, [r3, r2]

  /* No Generate Stop, to permit restart mode */
  /* The stop will be done at the end of transfer, when I2C_AUTOEND_MODE enable */
  if (hi2c->State == HAL_I2C_STATE_BUSY_TX)
 8003260:	687b      	ldr	r3, [r7, #4]
 8003262:	2241      	movs	r2, #65	; 0x41
 8003264:	5c9b      	ldrb	r3, [r3, r2]
 8003266:	b2db      	uxtb	r3, r3
 8003268:	2b21      	cmp	r3, #33	; 0x21
 800326a:	d117      	bne.n	800329c <I2C_ITMasterSeqCplt+0x4c>
  {
    hi2c->State         = HAL_I2C_STATE_READY;
 800326c:	687b      	ldr	r3, [r7, #4]
 800326e:	2241      	movs	r2, #65	; 0x41
 8003270:	2120      	movs	r1, #32
 8003272:	5499      	strb	r1, [r3, r2]
    hi2c->PreviousState = I2C_STATE_MASTER_BUSY_TX;
 8003274:	687b      	ldr	r3, [r7, #4]
 8003276:	2211      	movs	r2, #17
 8003278:	631a      	str	r2, [r3, #48]	; 0x30
    hi2c->XferISR       = NULL;
 800327a:	687b      	ldr	r3, [r7, #4]
 800327c:	2200      	movs	r2, #0
 800327e:	635a      	str	r2, [r3, #52]	; 0x34

    /* Disable Interrupts */
    I2C_Disable_IRQ(hi2c, I2C_XFER_TX_IT);
 8003280:	687b      	ldr	r3, [r7, #4]
 8003282:	2101      	movs	r1, #1
 8003284:	0018      	movs	r0, r3
 8003286:	f000 fcc5 	bl	8003c14 <I2C_Disable_IRQ>

    /* Process Unlocked */
    __HAL_UNLOCK(hi2c);
 800328a:	687b      	ldr	r3, [r7, #4]
 800328c:	2240      	movs	r2, #64	; 0x40
 800328e:	2100      	movs	r1, #0
 8003290:	5499      	strb	r1, [r3, r2]

    /* Call the corresponding callback to inform upper layer of End of Transfer */
#if (USE_HAL_I2C_REGISTER_CALLBACKS == 1)
    hi2c->MasterTxCpltCallback(hi2c);
#else
    HAL_I2C_MasterTxCpltCallback(hi2c);
 8003292:	687b      	ldr	r3, [r7, #4]
 8003294:	0018      	movs	r0, r3
 8003296:	f7ff fbef 	bl	8002a78 <HAL_I2C_MasterTxCpltCallback>
    hi2c->MasterRxCpltCallback(hi2c);
#else
    HAL_I2C_MasterRxCpltCallback(hi2c);
#endif /* USE_HAL_I2C_REGISTER_CALLBACKS */
  }
}
 800329a:	e016      	b.n	80032ca <I2C_ITMasterSeqCplt+0x7a>
    hi2c->State         = HAL_I2C_STATE_READY;
 800329c:	687b      	ldr	r3, [r7, #4]
 800329e:	2241      	movs	r2, #65	; 0x41
 80032a0:	2120      	movs	r1, #32
 80032a2:	5499      	strb	r1, [r3, r2]
    hi2c->PreviousState = I2C_STATE_MASTER_BUSY_RX;
 80032a4:	687b      	ldr	r3, [r7, #4]
 80032a6:	2212      	movs	r2, #18
 80032a8:	631a      	str	r2, [r3, #48]	; 0x30
    hi2c->XferISR       = NULL;
 80032aa:	687b      	ldr	r3, [r7, #4]
 80032ac:	2200      	movs	r2, #0
 80032ae:	635a      	str	r2, [r3, #52]	; 0x34
    I2C_Disable_IRQ(hi2c, I2C_XFER_RX_IT);
 80032b0:	687b      	ldr	r3, [r7, #4]
 80032b2:	2102      	movs	r1, #2
 80032b4:	0018      	movs	r0, r3
 80032b6:	f000 fcad 	bl	8003c14 <I2C_Disable_IRQ>
    __HAL_UNLOCK(hi2c);
 80032ba:	687b      	ldr	r3, [r7, #4]
 80032bc:	2240      	movs	r2, #64	; 0x40
 80032be:	2100      	movs	r1, #0
 80032c0:	5499      	strb	r1, [r3, r2]
    HAL_I2C_MasterRxCpltCallback(hi2c);
 80032c2:	687b      	ldr	r3, [r7, #4]
 80032c4:	0018      	movs	r0, r3
 80032c6:	f7ff fbdf 	bl	8002a88 <HAL_I2C_MasterRxCpltCallback>
}
 80032ca:	46c0      	nop			; (mov r8, r8)
 80032cc:	46bd      	mov	sp, r7
 80032ce:	b002      	add	sp, #8
 80032d0:	bd80      	pop	{r7, pc}
	...

080032d4 <I2C_ITSlaveSeqCplt>:
  * @brief  I2C Slave sequential complete process.
  * @param  hi2c I2C handle.
  * @retval None
  */
static void I2C_ITSlaveSeqCplt(I2C_HandleTypeDef *hi2c)
{
 80032d4:	b580      	push	{r7, lr}
 80032d6:	b084      	sub	sp, #16
 80032d8:	af00      	add	r7, sp, #0
 80032da:	6078      	str	r0, [r7, #4]
  uint32_t tmpcr1value = READ_REG(hi2c->Instance->CR1);
 80032dc:	687b      	ldr	r3, [r7, #4]
 80032de:	681b      	ldr	r3, [r3, #0]
 80032e0:	681b      	ldr	r3, [r3, #0]
 80032e2:	60fb      	str	r3, [r7, #12]

  /* Reset I2C handle mode */
  hi2c->Mode = HAL_I2C_MODE_NONE;
 80032e4:	687b      	ldr	r3, [r7, #4]
 80032e6:	2242      	movs	r2, #66	; 0x42
 80032e8:	2100      	movs	r1, #0
 80032ea:	5499      	strb	r1, [r3, r2]

  /* If a DMA is ongoing, Update handle size context */
  if (I2C_CHECK_IT_SOURCE(tmpcr1value, I2C_CR1_TXDMAEN) != RESET)
 80032ec:	68fb      	ldr	r3, [r7, #12]
 80032ee:	0b9b      	lsrs	r3, r3, #14
 80032f0:	001a      	movs	r2, r3
 80032f2:	2301      	movs	r3, #1
 80032f4:	4013      	ands	r3, r2
 80032f6:	d008      	beq.n	800330a <I2C_ITSlaveSeqCplt+0x36>
  {
    /* Disable DMA Request */
    hi2c->Instance->CR1 &= ~I2C_CR1_TXDMAEN;
 80032f8:	687b      	ldr	r3, [r7, #4]
 80032fa:	681b      	ldr	r3, [r3, #0]
 80032fc:	681a      	ldr	r2, [r3, #0]
 80032fe:	687b      	ldr	r3, [r7, #4]
 8003300:	681b      	ldr	r3, [r3, #0]
 8003302:	4925      	ldr	r1, [pc, #148]	; (8003398 <I2C_ITSlaveSeqCplt+0xc4>)
 8003304:	400a      	ands	r2, r1
 8003306:	601a      	str	r2, [r3, #0]
 8003308:	e00d      	b.n	8003326 <I2C_ITSlaveSeqCplt+0x52>
  }
  else if (I2C_CHECK_IT_SOURCE(tmpcr1value, I2C_CR1_RXDMAEN) != RESET)
 800330a:	68fb      	ldr	r3, [r7, #12]
 800330c:	0bdb      	lsrs	r3, r3, #15
 800330e:	001a      	movs	r2, r3
 8003310:	2301      	movs	r3, #1
 8003312:	4013      	ands	r3, r2
 8003314:	d007      	beq.n	8003326 <I2C_ITSlaveSeqCplt+0x52>
  {
    /* Disable DMA Request */
    hi2c->Instance->CR1 &= ~I2C_CR1_RXDMAEN;
 8003316:	687b      	ldr	r3, [r7, #4]
 8003318:	681b      	ldr	r3, [r3, #0]
 800331a:	681a      	ldr	r2, [r3, #0]
 800331c:	687b      	ldr	r3, [r7, #4]
 800331e:	681b      	ldr	r3, [r3, #0]
 8003320:	491e      	ldr	r1, [pc, #120]	; (800339c <I2C_ITSlaveSeqCplt+0xc8>)
 8003322:	400a      	ands	r2, r1
 8003324:	601a      	str	r2, [r3, #0]
  else
  {
    /* Do nothing */
  }

  if (hi2c->State == HAL_I2C_STATE_BUSY_TX_LISTEN)
 8003326:	687b      	ldr	r3, [r7, #4]
 8003328:	2241      	movs	r2, #65	; 0x41
 800332a:	5c9b      	ldrb	r3, [r3, r2]
 800332c:	b2db      	uxtb	r3, r3
 800332e:	2b29      	cmp	r3, #41	; 0x29
 8003330:	d114      	bne.n	800335c <I2C_ITSlaveSeqCplt+0x88>
  {
    /* Remove HAL_I2C_STATE_SLAVE_BUSY_TX, keep only HAL_I2C_STATE_LISTEN */
    hi2c->State         = HAL_I2C_STATE_LISTEN;
 8003332:	687b      	ldr	r3, [r7, #4]
 8003334:	2241      	movs	r2, #65	; 0x41
 8003336:	2128      	movs	r1, #40	; 0x28
 8003338:	5499      	strb	r1, [r3, r2]
    hi2c->PreviousState = I2C_STATE_SLAVE_BUSY_TX;
 800333a:	687b      	ldr	r3, [r7, #4]
 800333c:	2221      	movs	r2, #33	; 0x21
 800333e:	631a      	str	r2, [r3, #48]	; 0x30

    /* Disable Interrupts */
    I2C_Disable_IRQ(hi2c, I2C_XFER_TX_IT);
 8003340:	687b      	ldr	r3, [r7, #4]
 8003342:	2101      	movs	r1, #1
 8003344:	0018      	movs	r0, r3
 8003346:	f000 fc65 	bl	8003c14 <I2C_Disable_IRQ>

    /* Process Unlocked */
    __HAL_UNLOCK(hi2c);
 800334a:	687b      	ldr	r3, [r7, #4]
 800334c:	2240      	movs	r2, #64	; 0x40
 800334e:	2100      	movs	r1, #0
 8003350:	5499      	strb	r1, [r3, r2]

    /* Call the corresponding callback to inform upper layer of End of Transfer */
#if (USE_HAL_I2C_REGISTER_CALLBACKS == 1)
    hi2c->SlaveTxCpltCallback(hi2c);
#else
    HAL_I2C_SlaveTxCpltCallback(hi2c);
 8003352:	687b      	ldr	r3, [r7, #4]
 8003354:	0018      	movs	r0, r3
 8003356:	f7fd fc93 	bl	8000c80 <HAL_I2C_SlaveTxCpltCallback>
  }
  else
  {
    /* Nothing to do */
  }
}
 800335a:	e019      	b.n	8003390 <I2C_ITSlaveSeqCplt+0xbc>
  else if (hi2c->State == HAL_I2C_STATE_BUSY_RX_LISTEN)
 800335c:	687b      	ldr	r3, [r7, #4]
 800335e:	2241      	movs	r2, #65	; 0x41
 8003360:	5c9b      	ldrb	r3, [r3, r2]
 8003362:	b2db      	uxtb	r3, r3
 8003364:	2b2a      	cmp	r3, #42	; 0x2a
 8003366:	d113      	bne.n	8003390 <I2C_ITSlaveSeqCplt+0xbc>
    hi2c->State         = HAL_I2C_STATE_LISTEN;
 8003368:	687b      	ldr	r3, [r7, #4]
 800336a:	2241      	movs	r2, #65	; 0x41
 800336c:	2128      	movs	r1, #40	; 0x28
 800336e:	5499      	strb	r1, [r3, r2]
    hi2c->PreviousState = I2C_STATE_SLAVE_BUSY_RX;
 8003370:	687b      	ldr	r3, [r7, #4]
 8003372:	2222      	movs	r2, #34	; 0x22
 8003374:	631a      	str	r2, [r3, #48]	; 0x30
    I2C_Disable_IRQ(hi2c, I2C_XFER_RX_IT);
 8003376:	687b      	ldr	r3, [r7, #4]
 8003378:	2102      	movs	r1, #2
 800337a:	0018      	movs	r0, r3
 800337c:	f000 fc4a 	bl	8003c14 <I2C_Disable_IRQ>
    __HAL_UNLOCK(hi2c);
 8003380:	687b      	ldr	r3, [r7, #4]
 8003382:	2240      	movs	r2, #64	; 0x40
 8003384:	2100      	movs	r1, #0
 8003386:	5499      	strb	r1, [r3, r2]
    HAL_I2C_SlaveRxCpltCallback(hi2c);
 8003388:	687b      	ldr	r3, [r7, #4]
 800338a:	0018      	movs	r0, r3
 800338c:	f7fd fc86 	bl	8000c9c <HAL_I2C_SlaveRxCpltCallback>
}
 8003390:	46c0      	nop			; (mov r8, r8)
 8003392:	46bd      	mov	sp, r7
 8003394:	b004      	add	sp, #16
 8003396:	bd80      	pop	{r7, pc}
 8003398:	ffffbfff 	.word	0xffffbfff
 800339c:	ffff7fff 	.word	0xffff7fff

080033a0 <I2C_ITMasterCplt>:
  * @param  hi2c I2C handle.
  * @param  ITFlags Interrupt flags to handle.
  * @retval None
  */
static void I2C_ITMasterCplt(I2C_HandleTypeDef *hi2c, uint32_t ITFlags)
{
 80033a0:	b580      	push	{r7, lr}
 80033a2:	b086      	sub	sp, #24
 80033a4:	af00      	add	r7, sp, #0
 80033a6:	6078      	str	r0, [r7, #4]
 80033a8:	6039      	str	r1, [r7, #0]
  uint32_t tmperror;
  uint32_t tmpITFlags = ITFlags;
 80033aa:	683b      	ldr	r3, [r7, #0]
 80033ac:	617b      	str	r3, [r7, #20]
  __IO uint32_t tmpreg;

  /* Clear STOP Flag */
  __HAL_I2C_CLEAR_FLAG(hi2c, I2C_FLAG_STOPF);
 80033ae:	687b      	ldr	r3, [r7, #4]
 80033b0:	681b      	ldr	r3, [r3, #0]
 80033b2:	2220      	movs	r2, #32
 80033b4:	61da      	str	r2, [r3, #28]

  /* Disable Interrupts and Store Previous state */
  if (hi2c->State == HAL_I2C_STATE_BUSY_TX)
 80033b6:	687b      	ldr	r3, [r7, #4]
 80033b8:	2241      	movs	r2, #65	; 0x41
 80033ba:	5c9b      	ldrb	r3, [r3, r2]
 80033bc:	b2db      	uxtb	r3, r3
 80033be:	2b21      	cmp	r3, #33	; 0x21
 80033c0:	d108      	bne.n	80033d4 <I2C_ITMasterCplt+0x34>
  {
    I2C_Disable_IRQ(hi2c, I2C_XFER_TX_IT);
 80033c2:	687b      	ldr	r3, [r7, #4]
 80033c4:	2101      	movs	r1, #1
 80033c6:	0018      	movs	r0, r3
 80033c8:	f000 fc24 	bl	8003c14 <I2C_Disable_IRQ>
    hi2c->PreviousState = I2C_STATE_MASTER_BUSY_TX;
 80033cc:	687b      	ldr	r3, [r7, #4]
 80033ce:	2211      	movs	r2, #17
 80033d0:	631a      	str	r2, [r3, #48]	; 0x30
 80033d2:	e00d      	b.n	80033f0 <I2C_ITMasterCplt+0x50>
  }
  else if (hi2c->State == HAL_I2C_STATE_BUSY_RX)
 80033d4:	687b      	ldr	r3, [r7, #4]
 80033d6:	2241      	movs	r2, #65	; 0x41
 80033d8:	5c9b      	ldrb	r3, [r3, r2]
 80033da:	b2db      	uxtb	r3, r3
 80033dc:	2b22      	cmp	r3, #34	; 0x22
 80033de:	d107      	bne.n	80033f0 <I2C_ITMasterCplt+0x50>
  {
    I2C_Disable_IRQ(hi2c, I2C_XFER_RX_IT);
 80033e0:	687b      	ldr	r3, [r7, #4]
 80033e2:	2102      	movs	r1, #2
 80033e4:	0018      	movs	r0, r3
 80033e6:	f000 fc15 	bl	8003c14 <I2C_Disable_IRQ>
    hi2c->PreviousState = I2C_STATE_MASTER_BUSY_RX;
 80033ea:	687b      	ldr	r3, [r7, #4]
 80033ec:	2212      	movs	r2, #18
 80033ee:	631a      	str	r2, [r3, #48]	; 0x30
  {
    /* Do nothing */
  }

  /* Clear Configuration Register 2 */
  I2C_RESET_CR2(hi2c);
 80033f0:	687b      	ldr	r3, [r7, #4]
 80033f2:	681b      	ldr	r3, [r3, #0]
 80033f4:	685a      	ldr	r2, [r3, #4]
 80033f6:	687b      	ldr	r3, [r7, #4]
 80033f8:	681b      	ldr	r3, [r3, #0]
 80033fa:	4950      	ldr	r1, [pc, #320]	; (800353c <I2C_ITMasterCplt+0x19c>)
 80033fc:	400a      	ands	r2, r1
 80033fe:	605a      	str	r2, [r3, #4]

  /* Reset handle parameters */
  hi2c->XferISR       = NULL;
 8003400:	687b      	ldr	r3, [r7, #4]
 8003402:	2200      	movs	r2, #0
 8003404:	635a      	str	r2, [r3, #52]	; 0x34
  hi2c->XferOptions   = I2C_NO_OPTION_FRAME;
 8003406:	687b      	ldr	r3, [r7, #4]
 8003408:	4a4d      	ldr	r2, [pc, #308]	; (8003540 <I2C_ITMasterCplt+0x1a0>)
 800340a:	62da      	str	r2, [r3, #44]	; 0x2c

  if (I2C_CHECK_FLAG(tmpITFlags, I2C_FLAG_AF) != RESET)
 800340c:	697b      	ldr	r3, [r7, #20]
 800340e:	091b      	lsrs	r3, r3, #4
 8003410:	001a      	movs	r2, r3
 8003412:	2301      	movs	r3, #1
 8003414:	4013      	ands	r3, r2
 8003416:	d009      	beq.n	800342c <I2C_ITMasterCplt+0x8c>
  {
    /* Clear NACK Flag */
    __HAL_I2C_CLEAR_FLAG(hi2c, I2C_FLAG_AF);
 8003418:	687b      	ldr	r3, [r7, #4]
 800341a:	681b      	ldr	r3, [r3, #0]
 800341c:	2210      	movs	r2, #16
 800341e:	61da      	str	r2, [r3, #28]

    /* Set acknowledge error code */
    hi2c->ErrorCode |= HAL_I2C_ERROR_AF;
 8003420:	687b      	ldr	r3, [r7, #4]
 8003422:	6c5b      	ldr	r3, [r3, #68]	; 0x44
 8003424:	2204      	movs	r2, #4
 8003426:	431a      	orrs	r2, r3
 8003428:	687b      	ldr	r3, [r7, #4]
 800342a:	645a      	str	r2, [r3, #68]	; 0x44
  }

  /* Fetch Last receive data if any */
  if ((hi2c->State == HAL_I2C_STATE_ABORT) && (I2C_CHECK_FLAG(tmpITFlags, I2C_FLAG_RXNE) != RESET))
 800342c:	687b      	ldr	r3, [r7, #4]
 800342e:	2241      	movs	r2, #65	; 0x41
 8003430:	5c9b      	ldrb	r3, [r3, r2]
 8003432:	b2db      	uxtb	r3, r3
 8003434:	2b60      	cmp	r3, #96	; 0x60
 8003436:	d10b      	bne.n	8003450 <I2C_ITMasterCplt+0xb0>
 8003438:	697b      	ldr	r3, [r7, #20]
 800343a:	089b      	lsrs	r3, r3, #2
 800343c:	001a      	movs	r2, r3
 800343e:	2301      	movs	r3, #1
 8003440:	4013      	ands	r3, r2
 8003442:	d005      	beq.n	8003450 <I2C_ITMasterCplt+0xb0>
  {
    /* Read data from RXDR */
    tmpreg = (uint8_t)hi2c->Instance->RXDR;
 8003444:	687b      	ldr	r3, [r7, #4]
 8003446:	681b      	ldr	r3, [r3, #0]
 8003448:	6a5b      	ldr	r3, [r3, #36]	; 0x24
 800344a:	b2db      	uxtb	r3, r3
 800344c:	60fb      	str	r3, [r7, #12]
    UNUSED(tmpreg);
 800344e:	68fb      	ldr	r3, [r7, #12]
  }

  /* Flush TX register */
  I2C_Flush_TXDR(hi2c);
 8003450:	687b      	ldr	r3, [r7, #4]
 8003452:	0018      	movs	r0, r3
 8003454:	f000 faff 	bl	8003a56 <I2C_Flush_TXDR>

  /* Store current volatile hi2c->ErrorCode, misra rule */
  tmperror = hi2c->ErrorCode;
 8003458:	687b      	ldr	r3, [r7, #4]
 800345a:	6c5b      	ldr	r3, [r3, #68]	; 0x44
 800345c:	613b      	str	r3, [r7, #16]

  /* Call the corresponding callback to inform upper layer of End of Transfer */
  if ((hi2c->State == HAL_I2C_STATE_ABORT) || (tmperror != HAL_I2C_ERROR_NONE))
 800345e:	687b      	ldr	r3, [r7, #4]
 8003460:	2241      	movs	r2, #65	; 0x41
 8003462:	5c9b      	ldrb	r3, [r3, r2]
 8003464:	b2db      	uxtb	r3, r3
 8003466:	2b60      	cmp	r3, #96	; 0x60
 8003468:	d002      	beq.n	8003470 <I2C_ITMasterCplt+0xd0>
 800346a:	693b      	ldr	r3, [r7, #16]
 800346c:	2b00      	cmp	r3, #0
 800346e:	d007      	beq.n	8003480 <I2C_ITMasterCplt+0xe0>
  {
    /* Call the corresponding callback to inform upper layer of End of Transfer */
    I2C_ITError(hi2c, hi2c->ErrorCode);
 8003470:	687b      	ldr	r3, [r7, #4]
 8003472:	6c5a      	ldr	r2, [r3, #68]	; 0x44
 8003474:	687b      	ldr	r3, [r7, #4]
 8003476:	0011      	movs	r1, r2
 8003478:	0018      	movs	r0, r3
 800347a:	f000 f9e1 	bl	8003840 <I2C_ITError>
  }
  else
  {
    /* Nothing to do */
  }
}
 800347e:	e058      	b.n	8003532 <I2C_ITMasterCplt+0x192>
  else if (hi2c->State == HAL_I2C_STATE_BUSY_TX)
 8003480:	687b      	ldr	r3, [r7, #4]
 8003482:	2241      	movs	r2, #65	; 0x41
 8003484:	5c9b      	ldrb	r3, [r3, r2]
 8003486:	b2db      	uxtb	r3, r3
 8003488:	2b21      	cmp	r3, #33	; 0x21
 800348a:	d126      	bne.n	80034da <I2C_ITMasterCplt+0x13a>
    hi2c->State = HAL_I2C_STATE_READY;
 800348c:	687b      	ldr	r3, [r7, #4]
 800348e:	2241      	movs	r2, #65	; 0x41
 8003490:	2120      	movs	r1, #32
 8003492:	5499      	strb	r1, [r3, r2]
    hi2c->PreviousState = I2C_STATE_NONE;
 8003494:	687b      	ldr	r3, [r7, #4]
 8003496:	2200      	movs	r2, #0
 8003498:	631a      	str	r2, [r3, #48]	; 0x30
    if (hi2c->Mode == HAL_I2C_MODE_MEM)
 800349a:	687b      	ldr	r3, [r7, #4]
 800349c:	2242      	movs	r2, #66	; 0x42
 800349e:	5c9b      	ldrb	r3, [r3, r2]
 80034a0:	b2db      	uxtb	r3, r3
 80034a2:	2b40      	cmp	r3, #64	; 0x40
 80034a4:	d10c      	bne.n	80034c0 <I2C_ITMasterCplt+0x120>
      hi2c->Mode = HAL_I2C_MODE_NONE;
 80034a6:	687b      	ldr	r3, [r7, #4]
 80034a8:	2242      	movs	r2, #66	; 0x42
 80034aa:	2100      	movs	r1, #0
 80034ac:	5499      	strb	r1, [r3, r2]
      __HAL_UNLOCK(hi2c);
 80034ae:	687b      	ldr	r3, [r7, #4]
 80034b0:	2240      	movs	r2, #64	; 0x40
 80034b2:	2100      	movs	r1, #0
 80034b4:	5499      	strb	r1, [r3, r2]
      HAL_I2C_MemTxCpltCallback(hi2c);
 80034b6:	687b      	ldr	r3, [r7, #4]
 80034b8:	0018      	movs	r0, r3
 80034ba:	f7ff faed 	bl	8002a98 <HAL_I2C_MemTxCpltCallback>
}
 80034be:	e038      	b.n	8003532 <I2C_ITMasterCplt+0x192>
      hi2c->Mode = HAL_I2C_MODE_NONE;
 80034c0:	687b      	ldr	r3, [r7, #4]
 80034c2:	2242      	movs	r2, #66	; 0x42
 80034c4:	2100      	movs	r1, #0
 80034c6:	5499      	strb	r1, [r3, r2]
      __HAL_UNLOCK(hi2c);
 80034c8:	687b      	ldr	r3, [r7, #4]
 80034ca:	2240      	movs	r2, #64	; 0x40
 80034cc:	2100      	movs	r1, #0
 80034ce:	5499      	strb	r1, [r3, r2]
      HAL_I2C_MasterTxCpltCallback(hi2c);
 80034d0:	687b      	ldr	r3, [r7, #4]
 80034d2:	0018      	movs	r0, r3
 80034d4:	f7ff fad0 	bl	8002a78 <HAL_I2C_MasterTxCpltCallback>
}
 80034d8:	e02b      	b.n	8003532 <I2C_ITMasterCplt+0x192>
  else if (hi2c->State == HAL_I2C_STATE_BUSY_RX)
 80034da:	687b      	ldr	r3, [r7, #4]
 80034dc:	2241      	movs	r2, #65	; 0x41
 80034de:	5c9b      	ldrb	r3, [r3, r2]
 80034e0:	b2db      	uxtb	r3, r3
 80034e2:	2b22      	cmp	r3, #34	; 0x22
 80034e4:	d125      	bne.n	8003532 <I2C_ITMasterCplt+0x192>
    hi2c->State = HAL_I2C_STATE_READY;
 80034e6:	687b      	ldr	r3, [r7, #4]
 80034e8:	2241      	movs	r2, #65	; 0x41
 80034ea:	2120      	movs	r1, #32
 80034ec:	5499      	strb	r1, [r3, r2]
    hi2c->PreviousState = I2C_STATE_NONE;
 80034ee:	687b      	ldr	r3, [r7, #4]
 80034f0:	2200      	movs	r2, #0
 80034f2:	631a      	str	r2, [r3, #48]	; 0x30
    if (hi2c->Mode == HAL_I2C_MODE_MEM)
 80034f4:	687b      	ldr	r3, [r7, #4]
 80034f6:	2242      	movs	r2, #66	; 0x42
 80034f8:	5c9b      	ldrb	r3, [r3, r2]
 80034fa:	b2db      	uxtb	r3, r3
 80034fc:	2b40      	cmp	r3, #64	; 0x40
 80034fe:	d10c      	bne.n	800351a <I2C_ITMasterCplt+0x17a>
      hi2c->Mode = HAL_I2C_MODE_NONE;
 8003500:	687b      	ldr	r3, [r7, #4]
 8003502:	2242      	movs	r2, #66	; 0x42
 8003504:	2100      	movs	r1, #0
 8003506:	5499      	strb	r1, [r3, r2]
      __HAL_UNLOCK(hi2c);
 8003508:	687b      	ldr	r3, [r7, #4]
 800350a:	2240      	movs	r2, #64	; 0x40
 800350c:	2100      	movs	r1, #0
 800350e:	5499      	strb	r1, [r3, r2]
      HAL_I2C_MemRxCpltCallback(hi2c);
 8003510:	687b      	ldr	r3, [r7, #4]
 8003512:	0018      	movs	r0, r3
 8003514:	f7ff fac8 	bl	8002aa8 <HAL_I2C_MemRxCpltCallback>
}
 8003518:	e00b      	b.n	8003532 <I2C_ITMasterCplt+0x192>
      hi2c->Mode = HAL_I2C_MODE_NONE;
 800351a:	687b      	ldr	r3, [r7, #4]
 800351c:	2242      	movs	r2, #66	; 0x42
 800351e:	2100      	movs	r1, #0
 8003520:	5499      	strb	r1, [r3, r2]
      __HAL_UNLOCK(hi2c);
 8003522:	687b      	ldr	r3, [r7, #4]
 8003524:	2240      	movs	r2, #64	; 0x40
 8003526:	2100      	movs	r1, #0
 8003528:	5499      	strb	r1, [r3, r2]
      HAL_I2C_MasterRxCpltCallback(hi2c);
 800352a:	687b      	ldr	r3, [r7, #4]
 800352c:	0018      	movs	r0, r3
 800352e:	f7ff faab 	bl	8002a88 <HAL_I2C_MasterRxCpltCallback>
}
 8003532:	46c0      	nop			; (mov r8, r8)
 8003534:	46bd      	mov	sp, r7
 8003536:	b006      	add	sp, #24
 8003538:	bd80      	pop	{r7, pc}
 800353a:	46c0      	nop			; (mov r8, r8)
 800353c:	fe00e800 	.word	0xfe00e800
 8003540:	ffff0000 	.word	0xffff0000

08003544 <I2C_ITSlaveCplt>:
  * @param  hi2c I2C handle.
  * @param  ITFlags Interrupt flags to handle.
  * @retval None
  */
static void I2C_ITSlaveCplt(I2C_HandleTypeDef *hi2c, uint32_t ITFlags)
{
 8003544:	b580      	push	{r7, lr}
 8003546:	b086      	sub	sp, #24
 8003548:	af00      	add	r7, sp, #0
 800354a:	6078      	str	r0, [r7, #4]
 800354c:	6039      	str	r1, [r7, #0]
  uint32_t tmpcr1value = READ_REG(hi2c->Instance->CR1);
 800354e:	687b      	ldr	r3, [r7, #4]
 8003550:	681b      	ldr	r3, [r3, #0]
 8003552:	681b      	ldr	r3, [r3, #0]
 8003554:	613b      	str	r3, [r7, #16]
  uint32_t tmpITFlags = ITFlags;
 8003556:	683b      	ldr	r3, [r7, #0]
 8003558:	617b      	str	r3, [r7, #20]
  HAL_I2C_StateTypeDef tmpstate = hi2c->State;
 800355a:	200f      	movs	r0, #15
 800355c:	183b      	adds	r3, r7, r0
 800355e:	687a      	ldr	r2, [r7, #4]
 8003560:	2141      	movs	r1, #65	; 0x41
 8003562:	5c52      	ldrb	r2, [r2, r1]
 8003564:	701a      	strb	r2, [r3, #0]

  /* Clear STOP Flag */
  __HAL_I2C_CLEAR_FLAG(hi2c, I2C_FLAG_STOPF);
 8003566:	687b      	ldr	r3, [r7, #4]
 8003568:	681b      	ldr	r3, [r3, #0]
 800356a:	2220      	movs	r2, #32
 800356c:	61da      	str	r2, [r3, #28]

  /* Disable Interrupts and Store Previous state */
  if ((tmpstate == HAL_I2C_STATE_BUSY_TX) || (tmpstate == HAL_I2C_STATE_BUSY_TX_LISTEN))
 800356e:	183b      	adds	r3, r7, r0
 8003570:	781b      	ldrb	r3, [r3, #0]
 8003572:	2b21      	cmp	r3, #33	; 0x21
 8003574:	d003      	beq.n	800357e <I2C_ITSlaveCplt+0x3a>
 8003576:	183b      	adds	r3, r7, r0
 8003578:	781b      	ldrb	r3, [r3, #0]
 800357a:	2b29      	cmp	r3, #41	; 0x29
 800357c:	d109      	bne.n	8003592 <I2C_ITSlaveCplt+0x4e>
  {
    I2C_Disable_IRQ(hi2c, I2C_XFER_LISTEN_IT | I2C_XFER_TX_IT);
 800357e:	4a7d      	ldr	r2, [pc, #500]	; (8003774 <I2C_ITSlaveCplt+0x230>)
 8003580:	687b      	ldr	r3, [r7, #4]
 8003582:	0011      	movs	r1, r2
 8003584:	0018      	movs	r0, r3
 8003586:	f000 fb45 	bl	8003c14 <I2C_Disable_IRQ>
    hi2c->PreviousState = I2C_STATE_SLAVE_BUSY_TX;
 800358a:	687b      	ldr	r3, [r7, #4]
 800358c:	2221      	movs	r2, #33	; 0x21
 800358e:	631a      	str	r2, [r3, #48]	; 0x30
 8003590:	e011      	b.n	80035b6 <I2C_ITSlaveCplt+0x72>
  }
  else if ((tmpstate == HAL_I2C_STATE_BUSY_RX) || (tmpstate == HAL_I2C_STATE_BUSY_RX_LISTEN))
 8003592:	220f      	movs	r2, #15
 8003594:	18bb      	adds	r3, r7, r2
 8003596:	781b      	ldrb	r3, [r3, #0]
 8003598:	2b22      	cmp	r3, #34	; 0x22
 800359a:	d003      	beq.n	80035a4 <I2C_ITSlaveCplt+0x60>
 800359c:	18bb      	adds	r3, r7, r2
 800359e:	781b      	ldrb	r3, [r3, #0]
 80035a0:	2b2a      	cmp	r3, #42	; 0x2a
 80035a2:	d108      	bne.n	80035b6 <I2C_ITSlaveCplt+0x72>
  {
    I2C_Disable_IRQ(hi2c, I2C_XFER_LISTEN_IT | I2C_XFER_RX_IT);
 80035a4:	4a74      	ldr	r2, [pc, #464]	; (8003778 <I2C_ITSlaveCplt+0x234>)
 80035a6:	687b      	ldr	r3, [r7, #4]
 80035a8:	0011      	movs	r1, r2
 80035aa:	0018      	movs	r0, r3
 80035ac:	f000 fb32 	bl	8003c14 <I2C_Disable_IRQ>
    hi2c->PreviousState = I2C_STATE_SLAVE_BUSY_RX;
 80035b0:	687b      	ldr	r3, [r7, #4]
 80035b2:	2222      	movs	r2, #34	; 0x22
 80035b4:	631a      	str	r2, [r3, #48]	; 0x30
  {
    /* Do nothing */
  }

  /* Disable Address Acknowledge */
  hi2c->Instance->CR2 |= I2C_CR2_NACK;
 80035b6:	687b      	ldr	r3, [r7, #4]
 80035b8:	681b      	ldr	r3, [r3, #0]
 80035ba:	685a      	ldr	r2, [r3, #4]
 80035bc:	687b      	ldr	r3, [r7, #4]
 80035be:	681b      	ldr	r3, [r3, #0]
 80035c0:	2180      	movs	r1, #128	; 0x80
 80035c2:	0209      	lsls	r1, r1, #8
 80035c4:	430a      	orrs	r2, r1
 80035c6:	605a      	str	r2, [r3, #4]

  /* Clear Configuration Register 2 */
  I2C_RESET_CR2(hi2c);
 80035c8:	687b      	ldr	r3, [r7, #4]
 80035ca:	681b      	ldr	r3, [r3, #0]
 80035cc:	685a      	ldr	r2, [r3, #4]
 80035ce:	687b      	ldr	r3, [r7, #4]
 80035d0:	681b      	ldr	r3, [r3, #0]
 80035d2:	496a      	ldr	r1, [pc, #424]	; (800377c <I2C_ITSlaveCplt+0x238>)
 80035d4:	400a      	ands	r2, r1
 80035d6:	605a      	str	r2, [r3, #4]

  /* Flush TX register */
  I2C_Flush_TXDR(hi2c);
 80035d8:	687b      	ldr	r3, [r7, #4]
 80035da:	0018      	movs	r0, r3
 80035dc:	f000 fa3b 	bl	8003a56 <I2C_Flush_TXDR>

  /* If a DMA is ongoing, Update handle size context */
  if (I2C_CHECK_IT_SOURCE(tmpcr1value, I2C_CR1_TXDMAEN) != RESET)
 80035e0:	693b      	ldr	r3, [r7, #16]
 80035e2:	0b9b      	lsrs	r3, r3, #14
 80035e4:	001a      	movs	r2, r3
 80035e6:	2301      	movs	r3, #1
 80035e8:	4013      	ands	r3, r2
 80035ea:	d013      	beq.n	8003614 <I2C_ITSlaveCplt+0xd0>
  {
    /* Disable DMA Request */
    hi2c->Instance->CR1 &= ~I2C_CR1_TXDMAEN;
 80035ec:	687b      	ldr	r3, [r7, #4]
 80035ee:	681b      	ldr	r3, [r3, #0]
 80035f0:	681a      	ldr	r2, [r3, #0]
 80035f2:	687b      	ldr	r3, [r7, #4]
 80035f4:	681b      	ldr	r3, [r3, #0]
 80035f6:	4962      	ldr	r1, [pc, #392]	; (8003780 <I2C_ITSlaveCplt+0x23c>)
 80035f8:	400a      	ands	r2, r1
 80035fa:	601a      	str	r2, [r3, #0]

    if (hi2c->hdmatx != NULL)
 80035fc:	687b      	ldr	r3, [r7, #4]
 80035fe:	6b9b      	ldr	r3, [r3, #56]	; 0x38
 8003600:	2b00      	cmp	r3, #0
 8003602:	d020      	beq.n	8003646 <I2C_ITSlaveCplt+0x102>
    {
      hi2c->XferCount = (uint16_t)__HAL_DMA_GET_COUNTER(hi2c->hdmatx);
 8003604:	687b      	ldr	r3, [r7, #4]
 8003606:	6b9b      	ldr	r3, [r3, #56]	; 0x38
 8003608:	681b      	ldr	r3, [r3, #0]
 800360a:	685b      	ldr	r3, [r3, #4]
 800360c:	b29a      	uxth	r2, r3
 800360e:	687b      	ldr	r3, [r7, #4]
 8003610:	855a      	strh	r2, [r3, #42]	; 0x2a
 8003612:	e018      	b.n	8003646 <I2C_ITSlaveCplt+0x102>
    }
  }
  else if (I2C_CHECK_IT_SOURCE(tmpcr1value, I2C_CR1_RXDMAEN) != RESET)
 8003614:	693b      	ldr	r3, [r7, #16]
 8003616:	0bdb      	lsrs	r3, r3, #15
 8003618:	001a      	movs	r2, r3
 800361a:	2301      	movs	r3, #1
 800361c:	4013      	ands	r3, r2
 800361e:	d012      	beq.n	8003646 <I2C_ITSlaveCplt+0x102>
  {
    /* Disable DMA Request */
    hi2c->Instance->CR1 &= ~I2C_CR1_RXDMAEN;
 8003620:	687b      	ldr	r3, [r7, #4]
 8003622:	681b      	ldr	r3, [r3, #0]
 8003624:	681a      	ldr	r2, [r3, #0]
 8003626:	687b      	ldr	r3, [r7, #4]
 8003628:	681b      	ldr	r3, [r3, #0]
 800362a:	4956      	ldr	r1, [pc, #344]	; (8003784 <I2C_ITSlaveCplt+0x240>)
 800362c:	400a      	ands	r2, r1
 800362e:	601a      	str	r2, [r3, #0]

    if (hi2c->hdmarx != NULL)
 8003630:	687b      	ldr	r3, [r7, #4]
 8003632:	6bdb      	ldr	r3, [r3, #60]	; 0x3c
 8003634:	2b00      	cmp	r3, #0
 8003636:	d006      	beq.n	8003646 <I2C_ITSlaveCplt+0x102>
    {
      hi2c->XferCount = (uint16_t)__HAL_DMA_GET_COUNTER(hi2c->hdmarx);
 8003638:	687b      	ldr	r3, [r7, #4]
 800363a:	6bdb      	ldr	r3, [r3, #60]	; 0x3c
 800363c:	681b      	ldr	r3, [r3, #0]
 800363e:	685b      	ldr	r3, [r3, #4]
 8003640:	b29a      	uxth	r2, r3
 8003642:	687b      	ldr	r3, [r7, #4]
 8003644:	855a      	strh	r2, [r3, #42]	; 0x2a
  {
    /* Do nothing */
  }

  /* Store Last receive data if any */
  if (I2C_CHECK_FLAG(tmpITFlags, I2C_FLAG_RXNE) != RESET)
 8003646:	697b      	ldr	r3, [r7, #20]
 8003648:	089b      	lsrs	r3, r3, #2
 800364a:	001a      	movs	r2, r3
 800364c:	2301      	movs	r3, #1
 800364e:	4013      	ands	r3, r2
 8003650:	d020      	beq.n	8003694 <I2C_ITSlaveCplt+0x150>
  {
    /* Remove RXNE flag on temporary variable as read done */
    tmpITFlags &= ~I2C_FLAG_RXNE;
 8003652:	697b      	ldr	r3, [r7, #20]
 8003654:	2204      	movs	r2, #4
 8003656:	4393      	bics	r3, r2
 8003658:	617b      	str	r3, [r7, #20]

    /* Read data from RXDR */
    *hi2c->pBuffPtr = (uint8_t)hi2c->Instance->RXDR;
 800365a:	687b      	ldr	r3, [r7, #4]
 800365c:	681b      	ldr	r3, [r3, #0]
 800365e:	6a5a      	ldr	r2, [r3, #36]	; 0x24
 8003660:	687b      	ldr	r3, [r7, #4]
 8003662:	6a5b      	ldr	r3, [r3, #36]	; 0x24
 8003664:	b2d2      	uxtb	r2, r2
 8003666:	701a      	strb	r2, [r3, #0]

    /* Increment Buffer pointer */
    hi2c->pBuffPtr++;
 8003668:	687b      	ldr	r3, [r7, #4]
 800366a:	6a5b      	ldr	r3, [r3, #36]	; 0x24
 800366c:	1c5a      	adds	r2, r3, #1
 800366e:	687b      	ldr	r3, [r7, #4]
 8003670:	625a      	str	r2, [r3, #36]	; 0x24

    if ((hi2c->XferSize > 0U))
 8003672:	687b      	ldr	r3, [r7, #4]
 8003674:	8d1b      	ldrh	r3, [r3, #40]	; 0x28
 8003676:	2b00      	cmp	r3, #0
 8003678:	d00c      	beq.n	8003694 <I2C_ITSlaveCplt+0x150>
    {
      hi2c->XferSize--;
 800367a:	687b      	ldr	r3, [r7, #4]
 800367c:	8d1b      	ldrh	r3, [r3, #40]	; 0x28
 800367e:	3b01      	subs	r3, #1
 8003680:	b29a      	uxth	r2, r3
 8003682:	687b      	ldr	r3, [r7, #4]
 8003684:	851a      	strh	r2, [r3, #40]	; 0x28
      hi2c->XferCount--;
 8003686:	687b      	ldr	r3, [r7, #4]
 8003688:	8d5b      	ldrh	r3, [r3, #42]	; 0x2a
 800368a:	b29b      	uxth	r3, r3
 800368c:	3b01      	subs	r3, #1
 800368e:	b29a      	uxth	r2, r3
 8003690:	687b      	ldr	r3, [r7, #4]
 8003692:	855a      	strh	r2, [r3, #42]	; 0x2a
    }
  }

  /* All data are not transferred, so set error code accordingly */
  if (hi2c->XferCount != 0U)
 8003694:	687b      	ldr	r3, [r7, #4]
 8003696:	8d5b      	ldrh	r3, [r3, #42]	; 0x2a
 8003698:	b29b      	uxth	r3, r3
 800369a:	2b00      	cmp	r3, #0
 800369c:	d005      	beq.n	80036aa <I2C_ITSlaveCplt+0x166>
  {
    /* Set ErrorCode corresponding to a Non-Acknowledge */
    hi2c->ErrorCode |= HAL_I2C_ERROR_AF;
 800369e:	687b      	ldr	r3, [r7, #4]
 80036a0:	6c5b      	ldr	r3, [r3, #68]	; 0x44
 80036a2:	2204      	movs	r2, #4
 80036a4:	431a      	orrs	r2, r3
 80036a6:	687b      	ldr	r3, [r7, #4]
 80036a8:	645a      	str	r2, [r3, #68]	; 0x44
  }

  hi2c->Mode = HAL_I2C_MODE_NONE;
 80036aa:	687b      	ldr	r3, [r7, #4]
 80036ac:	2242      	movs	r2, #66	; 0x42
 80036ae:	2100      	movs	r1, #0
 80036b0:	5499      	strb	r1, [r3, r2]
  hi2c->XferISR = NULL;
 80036b2:	687b      	ldr	r3, [r7, #4]
 80036b4:	2200      	movs	r2, #0
 80036b6:	635a      	str	r2, [r3, #52]	; 0x34

  if (hi2c->ErrorCode != HAL_I2C_ERROR_NONE)
 80036b8:	687b      	ldr	r3, [r7, #4]
 80036ba:	6c5b      	ldr	r3, [r3, #68]	; 0x44
 80036bc:	2b00      	cmp	r3, #0
 80036be:	d013      	beq.n	80036e8 <I2C_ITSlaveCplt+0x1a4>
  {
    /* Call the corresponding callback to inform upper layer of End of Transfer */
    I2C_ITError(hi2c, hi2c->ErrorCode);
 80036c0:	687b      	ldr	r3, [r7, #4]
 80036c2:	6c5a      	ldr	r2, [r3, #68]	; 0x44
 80036c4:	687b      	ldr	r3, [r7, #4]
 80036c6:	0011      	movs	r1, r2
 80036c8:	0018      	movs	r0, r3
 80036ca:	f000 f8b9 	bl	8003840 <I2C_ITError>

    /* Call the Listen Complete callback, to inform upper layer of the end of Listen usecase */
    if (hi2c->State == HAL_I2C_STATE_LISTEN)
 80036ce:	687b      	ldr	r3, [r7, #4]
 80036d0:	2241      	movs	r2, #65	; 0x41
 80036d2:	5c9b      	ldrb	r3, [r3, r2]
 80036d4:	b2db      	uxtb	r3, r3
 80036d6:	2b28      	cmp	r3, #40	; 0x28
 80036d8:	d147      	bne.n	800376a <I2C_ITSlaveCplt+0x226>
    {
      /* Call I2C Listen complete process */
      I2C_ITListenCplt(hi2c, tmpITFlags);
 80036da:	697a      	ldr	r2, [r7, #20]
 80036dc:	687b      	ldr	r3, [r7, #4]
 80036de:	0011      	movs	r1, r2
 80036e0:	0018      	movs	r0, r3
 80036e2:	f000 f853 	bl	800378c <I2C_ITListenCplt>
    hi2c->SlaveTxCpltCallback(hi2c);
#else
    HAL_I2C_SlaveTxCpltCallback(hi2c);
#endif /* USE_HAL_I2C_REGISTER_CALLBACKS */
  }
}
 80036e6:	e040      	b.n	800376a <I2C_ITSlaveCplt+0x226>
  else if (hi2c->XferOptions != I2C_NO_OPTION_FRAME)
 80036e8:	687b      	ldr	r3, [r7, #4]
 80036ea:	6adb      	ldr	r3, [r3, #44]	; 0x2c
 80036ec:	4a26      	ldr	r2, [pc, #152]	; (8003788 <I2C_ITSlaveCplt+0x244>)
 80036ee:	4293      	cmp	r3, r2
 80036f0:	d016      	beq.n	8003720 <I2C_ITSlaveCplt+0x1dc>
    I2C_ITSlaveSeqCplt(hi2c);
 80036f2:	687b      	ldr	r3, [r7, #4]
 80036f4:	0018      	movs	r0, r3
 80036f6:	f7ff fded 	bl	80032d4 <I2C_ITSlaveSeqCplt>
    hi2c->XferOptions = I2C_NO_OPTION_FRAME;
 80036fa:	687b      	ldr	r3, [r7, #4]
 80036fc:	4a22      	ldr	r2, [pc, #136]	; (8003788 <I2C_ITSlaveCplt+0x244>)
 80036fe:	62da      	str	r2, [r3, #44]	; 0x2c
    hi2c->State = HAL_I2C_STATE_READY;
 8003700:	687b      	ldr	r3, [r7, #4]
 8003702:	2241      	movs	r2, #65	; 0x41
 8003704:	2120      	movs	r1, #32
 8003706:	5499      	strb	r1, [r3, r2]
    hi2c->PreviousState = I2C_STATE_NONE;
 8003708:	687b      	ldr	r3, [r7, #4]
 800370a:	2200      	movs	r2, #0
 800370c:	631a      	str	r2, [r3, #48]	; 0x30
    __HAL_UNLOCK(hi2c);
 800370e:	687b      	ldr	r3, [r7, #4]
 8003710:	2240      	movs	r2, #64	; 0x40
 8003712:	2100      	movs	r1, #0
 8003714:	5499      	strb	r1, [r3, r2]
    HAL_I2C_ListenCpltCallback(hi2c);
 8003716:	687b      	ldr	r3, [r7, #4]
 8003718:	0018      	movs	r0, r3
 800371a:	f7fd fb11 	bl	8000d40 <HAL_I2C_ListenCpltCallback>
}
 800371e:	e024      	b.n	800376a <I2C_ITSlaveCplt+0x226>
  else if (hi2c->State == HAL_I2C_STATE_BUSY_RX)
 8003720:	687b      	ldr	r3, [r7, #4]
 8003722:	2241      	movs	r2, #65	; 0x41
 8003724:	5c9b      	ldrb	r3, [r3, r2]
 8003726:	b2db      	uxtb	r3, r3
 8003728:	2b22      	cmp	r3, #34	; 0x22
 800372a:	d10f      	bne.n	800374c <I2C_ITSlaveCplt+0x208>
    hi2c->State = HAL_I2C_STATE_READY;
 800372c:	687b      	ldr	r3, [r7, #4]
 800372e:	2241      	movs	r2, #65	; 0x41
 8003730:	2120      	movs	r1, #32
 8003732:	5499      	strb	r1, [r3, r2]
    hi2c->PreviousState = I2C_STATE_NONE;
 8003734:	687b      	ldr	r3, [r7, #4]
 8003736:	2200      	movs	r2, #0
 8003738:	631a      	str	r2, [r3, #48]	; 0x30
    __HAL_UNLOCK(hi2c);
 800373a:	687b      	ldr	r3, [r7, #4]
 800373c:	2240      	movs	r2, #64	; 0x40
 800373e:	2100      	movs	r1, #0
 8003740:	5499      	strb	r1, [r3, r2]
    HAL_I2C_SlaveRxCpltCallback(hi2c);
 8003742:	687b      	ldr	r3, [r7, #4]
 8003744:	0018      	movs	r0, r3
 8003746:	f7fd faa9 	bl	8000c9c <HAL_I2C_SlaveRxCpltCallback>
}
 800374a:	e00e      	b.n	800376a <I2C_ITSlaveCplt+0x226>
    hi2c->State = HAL_I2C_STATE_READY;
 800374c:	687b      	ldr	r3, [r7, #4]
 800374e:	2241      	movs	r2, #65	; 0x41
 8003750:	2120      	movs	r1, #32
 8003752:	5499      	strb	r1, [r3, r2]
    hi2c->PreviousState = I2C_STATE_NONE;
 8003754:	687b      	ldr	r3, [r7, #4]
 8003756:	2200      	movs	r2, #0
 8003758:	631a      	str	r2, [r3, #48]	; 0x30
    __HAL_UNLOCK(hi2c);
 800375a:	687b      	ldr	r3, [r7, #4]
 800375c:	2240      	movs	r2, #64	; 0x40
 800375e:	2100      	movs	r1, #0
 8003760:	5499      	strb	r1, [r3, r2]
    HAL_I2C_SlaveTxCpltCallback(hi2c);
 8003762:	687b      	ldr	r3, [r7, #4]
 8003764:	0018      	movs	r0, r3
 8003766:	f7fd fa8b 	bl	8000c80 <HAL_I2C_SlaveTxCpltCallback>
}
 800376a:	46c0      	nop			; (mov r8, r8)
 800376c:	46bd      	mov	sp, r7
 800376e:	b006      	add	sp, #24
 8003770:	bd80      	pop	{r7, pc}
 8003772:	46c0      	nop			; (mov r8, r8)
 8003774:	00008001 	.word	0x00008001
 8003778:	00008002 	.word	0x00008002
 800377c:	fe00e800 	.word	0xfe00e800
 8003780:	ffffbfff 	.word	0xffffbfff
 8003784:	ffff7fff 	.word	0xffff7fff
 8003788:	ffff0000 	.word	0xffff0000

0800378c <I2C_ITListenCplt>:
  * @param  hi2c I2C handle.
  * @param  ITFlags Interrupt flags to handle.
  * @retval None
  */
static void I2C_ITListenCplt(I2C_HandleTypeDef *hi2c, uint32_t ITFlags)
{
 800378c:	b580      	push	{r7, lr}
 800378e:	b082      	sub	sp, #8
 8003790:	af00      	add	r7, sp, #0
 8003792:	6078      	str	r0, [r7, #4]
 8003794:	6039      	str	r1, [r7, #0]
  /* Reset handle parameters */
  hi2c->XferOptions = I2C_NO_OPTION_FRAME;
 8003796:	687b      	ldr	r3, [r7, #4]
 8003798:	4a27      	ldr	r2, [pc, #156]	; (8003838 <I2C_ITListenCplt+0xac>)
 800379a:	62da      	str	r2, [r3, #44]	; 0x2c
  hi2c->PreviousState = I2C_STATE_NONE;
 800379c:	687b      	ldr	r3, [r7, #4]
 800379e:	2200      	movs	r2, #0
 80037a0:	631a      	str	r2, [r3, #48]	; 0x30
  hi2c->State = HAL_I2C_STATE_READY;
 80037a2:	687b      	ldr	r3, [r7, #4]
 80037a4:	2241      	movs	r2, #65	; 0x41
 80037a6:	2120      	movs	r1, #32
 80037a8:	5499      	strb	r1, [r3, r2]
  hi2c->Mode = HAL_I2C_MODE_NONE;
 80037aa:	687b      	ldr	r3, [r7, #4]
 80037ac:	2242      	movs	r2, #66	; 0x42
 80037ae:	2100      	movs	r1, #0
 80037b0:	5499      	strb	r1, [r3, r2]
  hi2c->XferISR = NULL;
 80037b2:	687b      	ldr	r3, [r7, #4]
 80037b4:	2200      	movs	r2, #0
 80037b6:	635a      	str	r2, [r3, #52]	; 0x34

  /* Store Last receive data if any */
  if (I2C_CHECK_FLAG(ITFlags, I2C_FLAG_RXNE) != RESET)
 80037b8:	683b      	ldr	r3, [r7, #0]
 80037ba:	089b      	lsrs	r3, r3, #2
 80037bc:	001a      	movs	r2, r3
 80037be:	2301      	movs	r3, #1
 80037c0:	4013      	ands	r3, r2
 80037c2:	d022      	beq.n	800380a <I2C_ITListenCplt+0x7e>
  {
    /* Read data from RXDR */
    *hi2c->pBuffPtr = (uint8_t)hi2c->Instance->RXDR;
 80037c4:	687b      	ldr	r3, [r7, #4]
 80037c6:	681b      	ldr	r3, [r3, #0]
 80037c8:	6a5a      	ldr	r2, [r3, #36]	; 0x24
 80037ca:	687b      	ldr	r3, [r7, #4]
 80037cc:	6a5b      	ldr	r3, [r3, #36]	; 0x24
 80037ce:	b2d2      	uxtb	r2, r2
 80037d0:	701a      	strb	r2, [r3, #0]

    /* Increment Buffer pointer */
    hi2c->pBuffPtr++;
 80037d2:	687b      	ldr	r3, [r7, #4]
 80037d4:	6a5b      	ldr	r3, [r3, #36]	; 0x24
 80037d6:	1c5a      	adds	r2, r3, #1
 80037d8:	687b      	ldr	r3, [r7, #4]
 80037da:	625a      	str	r2, [r3, #36]	; 0x24

    if ((hi2c->XferSize > 0U))
 80037dc:	687b      	ldr	r3, [r7, #4]
 80037de:	8d1b      	ldrh	r3, [r3, #40]	; 0x28
 80037e0:	2b00      	cmp	r3, #0
 80037e2:	d012      	beq.n	800380a <I2C_ITListenCplt+0x7e>
    {
      hi2c->XferSize--;
 80037e4:	687b      	ldr	r3, [r7, #4]
 80037e6:	8d1b      	ldrh	r3, [r3, #40]	; 0x28
 80037e8:	3b01      	subs	r3, #1
 80037ea:	b29a      	uxth	r2, r3
 80037ec:	687b      	ldr	r3, [r7, #4]
 80037ee:	851a      	strh	r2, [r3, #40]	; 0x28
      hi2c->XferCount--;
 80037f0:	687b      	ldr	r3, [r7, #4]
 80037f2:	8d5b      	ldrh	r3, [r3, #42]	; 0x2a
 80037f4:	b29b      	uxth	r3, r3
 80037f6:	3b01      	subs	r3, #1
 80037f8:	b29a      	uxth	r2, r3
 80037fa:	687b      	ldr	r3, [r7, #4]
 80037fc:	855a      	strh	r2, [r3, #42]	; 0x2a

      /* Set ErrorCode corresponding to a Non-Acknowledge */
      hi2c->ErrorCode |= HAL_I2C_ERROR_AF;
 80037fe:	687b      	ldr	r3, [r7, #4]
 8003800:	6c5b      	ldr	r3, [r3, #68]	; 0x44
 8003802:	2204      	movs	r2, #4
 8003804:	431a      	orrs	r2, r3
 8003806:	687b      	ldr	r3, [r7, #4]
 8003808:	645a      	str	r2, [r3, #68]	; 0x44
    }
  }

  /* Disable all Interrupts*/
  I2C_Disable_IRQ(hi2c, I2C_XFER_LISTEN_IT | I2C_XFER_RX_IT | I2C_XFER_TX_IT);
 800380a:	4a0c      	ldr	r2, [pc, #48]	; (800383c <I2C_ITListenCplt+0xb0>)
 800380c:	687b      	ldr	r3, [r7, #4]
 800380e:	0011      	movs	r1, r2
 8003810:	0018      	movs	r0, r3
 8003812:	f000 f9ff 	bl	8003c14 <I2C_Disable_IRQ>

  /* Clear NACK Flag */
  __HAL_I2C_CLEAR_FLAG(hi2c, I2C_FLAG_AF);
 8003816:	687b      	ldr	r3, [r7, #4]
 8003818:	681b      	ldr	r3, [r3, #0]
 800381a:	2210      	movs	r2, #16
 800381c:	61da      	str	r2, [r3, #28]

  /* Process Unlocked */
  __HAL_UNLOCK(hi2c);
 800381e:	687b      	ldr	r3, [r7, #4]
 8003820:	2240      	movs	r2, #64	; 0x40
 8003822:	2100      	movs	r1, #0
 8003824:	5499      	strb	r1, [r3, r2]

  /* Call the Listen Complete callback, to inform upper layer of the end of Listen usecase */
#if (USE_HAL_I2C_REGISTER_CALLBACKS == 1)
  hi2c->ListenCpltCallback(hi2c);
#else
  HAL_I2C_ListenCpltCallback(hi2c);
 8003826:	687b      	ldr	r3, [r7, #4]
 8003828:	0018      	movs	r0, r3
 800382a:	f7fd fa89 	bl	8000d40 <HAL_I2C_ListenCpltCallback>
#endif /* USE_HAL_I2C_REGISTER_CALLBACKS */
}
 800382e:	46c0      	nop			; (mov r8, r8)
 8003830:	46bd      	mov	sp, r7
 8003832:	b002      	add	sp, #8
 8003834:	bd80      	pop	{r7, pc}
 8003836:	46c0      	nop			; (mov r8, r8)
 8003838:	ffff0000 	.word	0xffff0000
 800383c:	00008003 	.word	0x00008003

08003840 <I2C_ITError>:
  * @param  hi2c I2C handle.
  * @param  ErrorCode Error code to handle.
  * @retval None
  */
static void I2C_ITError(I2C_HandleTypeDef *hi2c, uint32_t ErrorCode)
{
 8003840:	b580      	push	{r7, lr}
 8003842:	b084      	sub	sp, #16
 8003844:	af00      	add	r7, sp, #0
 8003846:	6078      	str	r0, [r7, #4]
 8003848:	6039      	str	r1, [r7, #0]
  HAL_I2C_StateTypeDef tmpstate = hi2c->State;
 800384a:	200f      	movs	r0, #15
 800384c:	183b      	adds	r3, r7, r0
 800384e:	687a      	ldr	r2, [r7, #4]
 8003850:	2141      	movs	r1, #65	; 0x41
 8003852:	5c52      	ldrb	r2, [r2, r1]
 8003854:	701a      	strb	r2, [r3, #0]
  uint32_t tmppreviousstate;

  /* Reset handle parameters */
  hi2c->Mode          = HAL_I2C_MODE_NONE;
 8003856:	687b      	ldr	r3, [r7, #4]
 8003858:	2242      	movs	r2, #66	; 0x42
 800385a:	2100      	movs	r1, #0
 800385c:	5499      	strb	r1, [r3, r2]
  hi2c->XferOptions   = I2C_NO_OPTION_FRAME;
 800385e:	687b      	ldr	r3, [r7, #4]
 8003860:	4a62      	ldr	r2, [pc, #392]	; (80039ec <I2C_ITError+0x1ac>)
 8003862:	62da      	str	r2, [r3, #44]	; 0x2c
  hi2c->XferCount     = 0U;
 8003864:	687b      	ldr	r3, [r7, #4]
 8003866:	2200      	movs	r2, #0
 8003868:	855a      	strh	r2, [r3, #42]	; 0x2a

  /* Set new error code */
  hi2c->ErrorCode |= ErrorCode;
 800386a:	687b      	ldr	r3, [r7, #4]
 800386c:	6c5a      	ldr	r2, [r3, #68]	; 0x44
 800386e:	683b      	ldr	r3, [r7, #0]
 8003870:	431a      	orrs	r2, r3
 8003872:	687b      	ldr	r3, [r7, #4]
 8003874:	645a      	str	r2, [r3, #68]	; 0x44

  /* Disable Interrupts */
  if ((tmpstate == HAL_I2C_STATE_LISTEN)         ||
 8003876:	183b      	adds	r3, r7, r0
 8003878:	781b      	ldrb	r3, [r3, #0]
 800387a:	2b28      	cmp	r3, #40	; 0x28
 800387c:	d007      	beq.n	800388e <I2C_ITError+0x4e>
 800387e:	183b      	adds	r3, r7, r0
 8003880:	781b      	ldrb	r3, [r3, #0]
 8003882:	2b29      	cmp	r3, #41	; 0x29
 8003884:	d003      	beq.n	800388e <I2C_ITError+0x4e>
      (tmpstate == HAL_I2C_STATE_BUSY_TX_LISTEN) ||
 8003886:	183b      	adds	r3, r7, r0
 8003888:	781b      	ldrb	r3, [r3, #0]
 800388a:	2b2a      	cmp	r3, #42	; 0x2a
 800388c:	d10c      	bne.n	80038a8 <I2C_ITError+0x68>
      (tmpstate == HAL_I2C_STATE_BUSY_RX_LISTEN))
  {
    /* Disable all interrupts, except interrupts related to LISTEN state */
    I2C_Disable_IRQ(hi2c, I2C_XFER_RX_IT | I2C_XFER_TX_IT);
 800388e:	687b      	ldr	r3, [r7, #4]
 8003890:	2103      	movs	r1, #3
 8003892:	0018      	movs	r0, r3
 8003894:	f000 f9be 	bl	8003c14 <I2C_Disable_IRQ>

    /* keep HAL_I2C_STATE_LISTEN if set */
    hi2c->State         = HAL_I2C_STATE_LISTEN;
 8003898:	687b      	ldr	r3, [r7, #4]
 800389a:	2241      	movs	r2, #65	; 0x41
 800389c:	2128      	movs	r1, #40	; 0x28
 800389e:	5499      	strb	r1, [r3, r2]
    hi2c->XferISR       = I2C_Slave_ISR_IT;
 80038a0:	687b      	ldr	r3, [r7, #4]
 80038a2:	4a53      	ldr	r2, [pc, #332]	; (80039f0 <I2C_ITError+0x1b0>)
 80038a4:	635a      	str	r2, [r3, #52]	; 0x34
 80038a6:	e012      	b.n	80038ce <I2C_ITError+0x8e>
  }
  else
  {
    /* Disable all interrupts */
    I2C_Disable_IRQ(hi2c, I2C_XFER_LISTEN_IT | I2C_XFER_RX_IT | I2C_XFER_TX_IT);
 80038a8:	4a52      	ldr	r2, [pc, #328]	; (80039f4 <I2C_ITError+0x1b4>)
 80038aa:	687b      	ldr	r3, [r7, #4]
 80038ac:	0011      	movs	r1, r2
 80038ae:	0018      	movs	r0, r3
 80038b0:	f000 f9b0 	bl	8003c14 <I2C_Disable_IRQ>

    /* If state is an abort treatment on going, don't change state */
    /* This change will be do later */
    if (hi2c->State != HAL_I2C_STATE_ABORT)
 80038b4:	687b      	ldr	r3, [r7, #4]
 80038b6:	2241      	movs	r2, #65	; 0x41
 80038b8:	5c9b      	ldrb	r3, [r3, r2]
 80038ba:	b2db      	uxtb	r3, r3
 80038bc:	2b60      	cmp	r3, #96	; 0x60
 80038be:	d003      	beq.n	80038c8 <I2C_ITError+0x88>
    {
      /* Set HAL_I2C_STATE_READY */
      hi2c->State         = HAL_I2C_STATE_READY;
 80038c0:	687b      	ldr	r3, [r7, #4]
 80038c2:	2241      	movs	r2, #65	; 0x41
 80038c4:	2120      	movs	r1, #32
 80038c6:	5499      	strb	r1, [r3, r2]
    }
    hi2c->XferISR       = NULL;
 80038c8:	687b      	ldr	r3, [r7, #4]
 80038ca:	2200      	movs	r2, #0
 80038cc:	635a      	str	r2, [r3, #52]	; 0x34
  }

  /* Abort DMA TX transfer if any */
  tmppreviousstate = hi2c->PreviousState;
 80038ce:	687b      	ldr	r3, [r7, #4]
 80038d0:	6b1b      	ldr	r3, [r3, #48]	; 0x30
 80038d2:	60bb      	str	r3, [r7, #8]
  if ((hi2c->hdmatx != NULL) && ((tmppreviousstate == I2C_STATE_MASTER_BUSY_TX) || \
 80038d4:	687b      	ldr	r3, [r7, #4]
 80038d6:	6b9b      	ldr	r3, [r3, #56]	; 0x38
 80038d8:	2b00      	cmp	r3, #0
 80038da:	d03b      	beq.n	8003954 <I2C_ITError+0x114>
 80038dc:	68bb      	ldr	r3, [r7, #8]
 80038de:	2b11      	cmp	r3, #17
 80038e0:	d002      	beq.n	80038e8 <I2C_ITError+0xa8>
 80038e2:	68bb      	ldr	r3, [r7, #8]
 80038e4:	2b21      	cmp	r3, #33	; 0x21
 80038e6:	d135      	bne.n	8003954 <I2C_ITError+0x114>
                                 (tmppreviousstate == I2C_STATE_SLAVE_BUSY_TX)))
  {
    if ((hi2c->Instance->CR1 & I2C_CR1_TXDMAEN) == I2C_CR1_TXDMAEN)
 80038e8:	687b      	ldr	r3, [r7, #4]
 80038ea:	681b      	ldr	r3, [r3, #0]
 80038ec:	681a      	ldr	r2, [r3, #0]
 80038ee:	2380      	movs	r3, #128	; 0x80
 80038f0:	01db      	lsls	r3, r3, #7
 80038f2:	401a      	ands	r2, r3
 80038f4:	2380      	movs	r3, #128	; 0x80
 80038f6:	01db      	lsls	r3, r3, #7
 80038f8:	429a      	cmp	r2, r3
 80038fa:	d107      	bne.n	800390c <I2C_ITError+0xcc>
    {
      hi2c->Instance->CR1 &= ~I2C_CR1_TXDMAEN;
 80038fc:	687b      	ldr	r3, [r7, #4]
 80038fe:	681b      	ldr	r3, [r3, #0]
 8003900:	681a      	ldr	r2, [r3, #0]
 8003902:	687b      	ldr	r3, [r7, #4]
 8003904:	681b      	ldr	r3, [r3, #0]
 8003906:	493c      	ldr	r1, [pc, #240]	; (80039f8 <I2C_ITError+0x1b8>)
 8003908:	400a      	ands	r2, r1
 800390a:	601a      	str	r2, [r3, #0]
    }

    if (HAL_DMA_GetState(hi2c->hdmatx) != HAL_DMA_STATE_READY)
 800390c:	687b      	ldr	r3, [r7, #4]
 800390e:	6b9b      	ldr	r3, [r3, #56]	; 0x38
 8003910:	0018      	movs	r0, r3
 8003912:	f7fe fc40 	bl	8002196 <HAL_DMA_GetState>
 8003916:	0003      	movs	r3, r0
 8003918:	2b01      	cmp	r3, #1
 800391a:	d016      	beq.n	800394a <I2C_ITError+0x10a>
    {
      /* Set the I2C DMA Abort callback :
       will lead to call HAL_I2C_ErrorCallback() at end of DMA abort procedure */
      hi2c->hdmatx->XferAbortCallback = I2C_DMAAbort;
 800391c:	687b      	ldr	r3, [r7, #4]
 800391e:	6b9b      	ldr	r3, [r3, #56]	; 0x38
 8003920:	4a36      	ldr	r2, [pc, #216]	; (80039fc <I2C_ITError+0x1bc>)
 8003922:	635a      	str	r2, [r3, #52]	; 0x34

      /* Process Unlocked */
      __HAL_UNLOCK(hi2c);
 8003924:	687b      	ldr	r3, [r7, #4]
 8003926:	2240      	movs	r2, #64	; 0x40
 8003928:	2100      	movs	r1, #0
 800392a:	5499      	strb	r1, [r3, r2]

      /* Abort DMA TX */
      if (HAL_DMA_Abort_IT(hi2c->hdmatx) != HAL_OK)
 800392c:	687b      	ldr	r3, [r7, #4]
 800392e:	6b9b      	ldr	r3, [r3, #56]	; 0x38
 8003930:	0018      	movs	r0, r3
 8003932:	f7fe fb49 	bl	8001fc8 <HAL_DMA_Abort_IT>
 8003936:	1e03      	subs	r3, r0, #0
 8003938:	d051      	beq.n	80039de <I2C_ITError+0x19e>
      {
        /* Call Directly XferAbortCallback function in case of error */
        hi2c->hdmatx->XferAbortCallback(hi2c->hdmatx);
 800393a:	687b      	ldr	r3, [r7, #4]
 800393c:	6b9b      	ldr	r3, [r3, #56]	; 0x38
 800393e:	6b5a      	ldr	r2, [r3, #52]	; 0x34
 8003940:	687b      	ldr	r3, [r7, #4]
 8003942:	6b9b      	ldr	r3, [r3, #56]	; 0x38
 8003944:	0018      	movs	r0, r3
 8003946:	4790      	blx	r2
    if (HAL_DMA_GetState(hi2c->hdmatx) != HAL_DMA_STATE_READY)
 8003948:	e049      	b.n	80039de <I2C_ITError+0x19e>
      }
    }
    else
    {
      I2C_TreatErrorCallback(hi2c);
 800394a:	687b      	ldr	r3, [r7, #4]
 800394c:	0018      	movs	r0, r3
 800394e:	f000 f859 	bl	8003a04 <I2C_TreatErrorCallback>
    if (HAL_DMA_GetState(hi2c->hdmatx) != HAL_DMA_STATE_READY)
 8003952:	e044      	b.n	80039de <I2C_ITError+0x19e>
    }
  }
  /* Abort DMA RX transfer if any */
  else if ((hi2c->hdmarx != NULL) && ((tmppreviousstate == I2C_STATE_MASTER_BUSY_RX) || \
 8003954:	687b      	ldr	r3, [r7, #4]
 8003956:	6bdb      	ldr	r3, [r3, #60]	; 0x3c
 8003958:	2b00      	cmp	r3, #0
 800395a:	d03b      	beq.n	80039d4 <I2C_ITError+0x194>
 800395c:	68bb      	ldr	r3, [r7, #8]
 800395e:	2b12      	cmp	r3, #18
 8003960:	d002      	beq.n	8003968 <I2C_ITError+0x128>
 8003962:	68bb      	ldr	r3, [r7, #8]
 8003964:	2b22      	cmp	r3, #34	; 0x22
 8003966:	d135      	bne.n	80039d4 <I2C_ITError+0x194>
                                      (tmppreviousstate == I2C_STATE_SLAVE_BUSY_RX)))
  {
    if ((hi2c->Instance->CR1 & I2C_CR1_RXDMAEN) == I2C_CR1_RXDMAEN)
 8003968:	687b      	ldr	r3, [r7, #4]
 800396a:	681b      	ldr	r3, [r3, #0]
 800396c:	681a      	ldr	r2, [r3, #0]
 800396e:	2380      	movs	r3, #128	; 0x80
 8003970:	021b      	lsls	r3, r3, #8
 8003972:	401a      	ands	r2, r3
 8003974:	2380      	movs	r3, #128	; 0x80
 8003976:	021b      	lsls	r3, r3, #8
 8003978:	429a      	cmp	r2, r3
 800397a:	d107      	bne.n	800398c <I2C_ITError+0x14c>
    {
      hi2c->Instance->CR1 &= ~I2C_CR1_RXDMAEN;
 800397c:	687b      	ldr	r3, [r7, #4]
 800397e:	681b      	ldr	r3, [r3, #0]
 8003980:	681a      	ldr	r2, [r3, #0]
 8003982:	687b      	ldr	r3, [r7, #4]
 8003984:	681b      	ldr	r3, [r3, #0]
 8003986:	491e      	ldr	r1, [pc, #120]	; (8003a00 <I2C_ITError+0x1c0>)
 8003988:	400a      	ands	r2, r1
 800398a:	601a      	str	r2, [r3, #0]
    }

    if (HAL_DMA_GetState(hi2c->hdmarx) != HAL_DMA_STATE_READY)
 800398c:	687b      	ldr	r3, [r7, #4]
 800398e:	6bdb      	ldr	r3, [r3, #60]	; 0x3c
 8003990:	0018      	movs	r0, r3
 8003992:	f7fe fc00 	bl	8002196 <HAL_DMA_GetState>
 8003996:	0003      	movs	r3, r0
 8003998:	2b01      	cmp	r3, #1
 800399a:	d016      	beq.n	80039ca <I2C_ITError+0x18a>
    {
      /* Set the I2C DMA Abort callback :
        will lead to call HAL_I2C_ErrorCallback() at end of DMA abort procedure */
      hi2c->hdmarx->XferAbortCallback = I2C_DMAAbort;
 800399c:	687b      	ldr	r3, [r7, #4]
 800399e:	6bdb      	ldr	r3, [r3, #60]	; 0x3c
 80039a0:	4a16      	ldr	r2, [pc, #88]	; (80039fc <I2C_ITError+0x1bc>)
 80039a2:	635a      	str	r2, [r3, #52]	; 0x34

      /* Process Unlocked */
      __HAL_UNLOCK(hi2c);
 80039a4:	687b      	ldr	r3, [r7, #4]
 80039a6:	2240      	movs	r2, #64	; 0x40
 80039a8:	2100      	movs	r1, #0
 80039aa:	5499      	strb	r1, [r3, r2]

      /* Abort DMA RX */
      if (HAL_DMA_Abort_IT(hi2c->hdmarx) != HAL_OK)
 80039ac:	687b      	ldr	r3, [r7, #4]
 80039ae:	6bdb      	ldr	r3, [r3, #60]	; 0x3c
 80039b0:	0018      	movs	r0, r3
 80039b2:	f7fe fb09 	bl	8001fc8 <HAL_DMA_Abort_IT>
 80039b6:	1e03      	subs	r3, r0, #0
 80039b8:	d013      	beq.n	80039e2 <I2C_ITError+0x1a2>
      {
        /* Call Directly hi2c->hdmarx->XferAbortCallback function in case of error */
        hi2c->hdmarx->XferAbortCallback(hi2c->hdmarx);
 80039ba:	687b      	ldr	r3, [r7, #4]
 80039bc:	6bdb      	ldr	r3, [r3, #60]	; 0x3c
 80039be:	6b5a      	ldr	r2, [r3, #52]	; 0x34
 80039c0:	687b      	ldr	r3, [r7, #4]
 80039c2:	6bdb      	ldr	r3, [r3, #60]	; 0x3c
 80039c4:	0018      	movs	r0, r3
 80039c6:	4790      	blx	r2
    if (HAL_DMA_GetState(hi2c->hdmarx) != HAL_DMA_STATE_READY)
 80039c8:	e00b      	b.n	80039e2 <I2C_ITError+0x1a2>
      }
    }
    else
    {
      I2C_TreatErrorCallback(hi2c);
 80039ca:	687b      	ldr	r3, [r7, #4]
 80039cc:	0018      	movs	r0, r3
 80039ce:	f000 f819 	bl	8003a04 <I2C_TreatErrorCallback>
    if (HAL_DMA_GetState(hi2c->hdmarx) != HAL_DMA_STATE_READY)
 80039d2:	e006      	b.n	80039e2 <I2C_ITError+0x1a2>
    }
  }
  else
  {
    I2C_TreatErrorCallback(hi2c);
 80039d4:	687b      	ldr	r3, [r7, #4]
 80039d6:	0018      	movs	r0, r3
 80039d8:	f000 f814 	bl	8003a04 <I2C_TreatErrorCallback>
  }
}
 80039dc:	e002      	b.n	80039e4 <I2C_ITError+0x1a4>
    if (HAL_DMA_GetState(hi2c->hdmatx) != HAL_DMA_STATE_READY)
 80039de:	46c0      	nop			; (mov r8, r8)
 80039e0:	e000      	b.n	80039e4 <I2C_ITError+0x1a4>
    if (HAL_DMA_GetState(hi2c->hdmarx) != HAL_DMA_STATE_READY)
 80039e2:	46c0      	nop			; (mov r8, r8)
}
 80039e4:	46c0      	nop			; (mov r8, r8)
 80039e6:	46bd      	mov	sp, r7
 80039e8:	b004      	add	sp, #16
 80039ea:	bd80      	pop	{r7, pc}
 80039ec:	ffff0000 	.word	0xffff0000
 80039f0:	08002add 	.word	0x08002add
 80039f4:	00008003 	.word	0x00008003
 80039f8:	ffffbfff 	.word	0xffffbfff
 80039fc:	08003a9b 	.word	0x08003a9b
 8003a00:	ffff7fff 	.word	0xffff7fff

08003a04 <I2C_TreatErrorCallback>:
  * @brief  I2C Error callback treatment.
  * @param  hi2c I2C handle.
  * @retval None
  */
static void I2C_TreatErrorCallback(I2C_HandleTypeDef *hi2c)
{
 8003a04:	b580      	push	{r7, lr}
 8003a06:	b082      	sub	sp, #8
 8003a08:	af00      	add	r7, sp, #0
 8003a0a:	6078      	str	r0, [r7, #4]
  if (hi2c->State == HAL_I2C_STATE_ABORT)
 8003a0c:	687b      	ldr	r3, [r7, #4]
 8003a0e:	2241      	movs	r2, #65	; 0x41
 8003a10:	5c9b      	ldrb	r3, [r3, r2]
 8003a12:	b2db      	uxtb	r3, r3
 8003a14:	2b60      	cmp	r3, #96	; 0x60
 8003a16:	d10f      	bne.n	8003a38 <I2C_TreatErrorCallback+0x34>
  {
    hi2c->State = HAL_I2C_STATE_READY;
 8003a18:	687b      	ldr	r3, [r7, #4]
 8003a1a:	2241      	movs	r2, #65	; 0x41
 8003a1c:	2120      	movs	r1, #32
 8003a1e:	5499      	strb	r1, [r3, r2]
    hi2c->PreviousState = I2C_STATE_NONE;
 8003a20:	687b      	ldr	r3, [r7, #4]
 8003a22:	2200      	movs	r2, #0
 8003a24:	631a      	str	r2, [r3, #48]	; 0x30

    /* Process Unlocked */
    __HAL_UNLOCK(hi2c);
 8003a26:	687b      	ldr	r3, [r7, #4]
 8003a28:	2240      	movs	r2, #64	; 0x40
 8003a2a:	2100      	movs	r1, #0
 8003a2c:	5499      	strb	r1, [r3, r2]

    /* Call the corresponding callback to inform upper layer of End of Transfer */
#if (USE_HAL_I2C_REGISTER_CALLBACKS == 1)
    hi2c->AbortCpltCallback(hi2c);
#else
    HAL_I2C_AbortCpltCallback(hi2c);
 8003a2e:	687b      	ldr	r3, [r7, #4]
 8003a30:	0018      	movs	r0, r3
 8003a32:	f7ff f841 	bl	8002ab8 <HAL_I2C_AbortCpltCallback>
    hi2c->ErrorCallback(hi2c);
#else
    HAL_I2C_ErrorCallback(hi2c);
#endif /* USE_HAL_I2C_REGISTER_CALLBACKS */
  }
}
 8003a36:	e00a      	b.n	8003a4e <I2C_TreatErrorCallback+0x4a>
    hi2c->PreviousState = I2C_STATE_NONE;
 8003a38:	687b      	ldr	r3, [r7, #4]
 8003a3a:	2200      	movs	r2, #0
 8003a3c:	631a      	str	r2, [r3, #48]	; 0x30
    __HAL_UNLOCK(hi2c);
 8003a3e:	687b      	ldr	r3, [r7, #4]
 8003a40:	2240      	movs	r2, #64	; 0x40
 8003a42:	2100      	movs	r1, #0
 8003a44:	5499      	strb	r1, [r3, r2]
    HAL_I2C_ErrorCallback(hi2c);
 8003a46:	687b      	ldr	r3, [r7, #4]
 8003a48:	0018      	movs	r0, r3
 8003a4a:	f7fd f981 	bl	8000d50 <HAL_I2C_ErrorCallback>
}
 8003a4e:	46c0      	nop			; (mov r8, r8)
 8003a50:	46bd      	mov	sp, r7
 8003a52:	b002      	add	sp, #8
 8003a54:	bd80      	pop	{r7, pc}

08003a56 <I2C_Flush_TXDR>:
  * @brief  I2C Tx data register flush process.
  * @param  hi2c I2C handle.
  * @retval None
  */
static void I2C_Flush_TXDR(I2C_HandleTypeDef *hi2c)
{
 8003a56:	b580      	push	{r7, lr}
 8003a58:	b082      	sub	sp, #8
 8003a5a:	af00      	add	r7, sp, #0
 8003a5c:	6078      	str	r0, [r7, #4]
  /* If a pending TXIS flag is set */
  /* Write a dummy data in TXDR to clear it */
  if (__HAL_I2C_GET_FLAG(hi2c, I2C_FLAG_TXIS) != RESET)
 8003a5e:	687b      	ldr	r3, [r7, #4]
 8003a60:	681b      	ldr	r3, [r3, #0]
 8003a62:	699b      	ldr	r3, [r3, #24]
 8003a64:	2202      	movs	r2, #2
 8003a66:	4013      	ands	r3, r2
 8003a68:	2b02      	cmp	r3, #2
 8003a6a:	d103      	bne.n	8003a74 <I2C_Flush_TXDR+0x1e>
  {
    hi2c->Instance->TXDR = 0x00U;
 8003a6c:	687b      	ldr	r3, [r7, #4]
 8003a6e:	681b      	ldr	r3, [r3, #0]
 8003a70:	2200      	movs	r2, #0
 8003a72:	629a      	str	r2, [r3, #40]	; 0x28
  }

  /* Flush TX register if not empty */
  if (__HAL_I2C_GET_FLAG(hi2c, I2C_FLAG_TXE) == RESET)
 8003a74:	687b      	ldr	r3, [r7, #4]
 8003a76:	681b      	ldr	r3, [r3, #0]
 8003a78:	699b      	ldr	r3, [r3, #24]
 8003a7a:	2201      	movs	r2, #1
 8003a7c:	4013      	ands	r3, r2
 8003a7e:	2b01      	cmp	r3, #1
 8003a80:	d007      	beq.n	8003a92 <I2C_Flush_TXDR+0x3c>
  {
    __HAL_I2C_CLEAR_FLAG(hi2c, I2C_FLAG_TXE);
 8003a82:	687b      	ldr	r3, [r7, #4]
 8003a84:	681b      	ldr	r3, [r3, #0]
 8003a86:	699a      	ldr	r2, [r3, #24]
 8003a88:	687b      	ldr	r3, [r7, #4]
 8003a8a:	681b      	ldr	r3, [r3, #0]
 8003a8c:	2101      	movs	r1, #1
 8003a8e:	430a      	orrs	r2, r1
 8003a90:	619a      	str	r2, [r3, #24]
  }
}
 8003a92:	46c0      	nop			; (mov r8, r8)
 8003a94:	46bd      	mov	sp, r7
 8003a96:	b002      	add	sp, #8
 8003a98:	bd80      	pop	{r7, pc}

08003a9a <I2C_DMAAbort>:
  *        (To be called at end of DMA Abort procedure).
  * @param hdma DMA handle.
  * @retval None
  */
static void I2C_DMAAbort(DMA_HandleTypeDef *hdma)
{
 8003a9a:	b580      	push	{r7, lr}
 8003a9c:	b084      	sub	sp, #16
 8003a9e:	af00      	add	r7, sp, #0
 8003aa0:	6078      	str	r0, [r7, #4]
  /* Derogation MISRAC2012-Rule-11.5 */
  I2C_HandleTypeDef *hi2c = (I2C_HandleTypeDef *)(((DMA_HandleTypeDef *)hdma)->Parent);
 8003aa2:	687b      	ldr	r3, [r7, #4]
 8003aa4:	6a5b      	ldr	r3, [r3, #36]	; 0x24
 8003aa6:	60fb      	str	r3, [r7, #12]

  /* Reset AbortCpltCallback */
  if (hi2c->hdmatx != NULL)
 8003aa8:	68fb      	ldr	r3, [r7, #12]
 8003aaa:	6b9b      	ldr	r3, [r3, #56]	; 0x38
 8003aac:	2b00      	cmp	r3, #0
 8003aae:	d003      	beq.n	8003ab8 <I2C_DMAAbort+0x1e>
  {
    hi2c->hdmatx->XferAbortCallback = NULL;
 8003ab0:	68fb      	ldr	r3, [r7, #12]
 8003ab2:	6b9b      	ldr	r3, [r3, #56]	; 0x38
 8003ab4:	2200      	movs	r2, #0
 8003ab6:	635a      	str	r2, [r3, #52]	; 0x34
  }
  if (hi2c->hdmarx != NULL)
 8003ab8:	68fb      	ldr	r3, [r7, #12]
 8003aba:	6bdb      	ldr	r3, [r3, #60]	; 0x3c
 8003abc:	2b00      	cmp	r3, #0
 8003abe:	d003      	beq.n	8003ac8 <I2C_DMAAbort+0x2e>
  {
    hi2c->hdmarx->XferAbortCallback = NULL;
 8003ac0:	68fb      	ldr	r3, [r7, #12]
 8003ac2:	6bdb      	ldr	r3, [r3, #60]	; 0x3c
 8003ac4:	2200      	movs	r2, #0
 8003ac6:	635a      	str	r2, [r3, #52]	; 0x34
  }

  I2C_TreatErrorCallback(hi2c);
 8003ac8:	68fb      	ldr	r3, [r7, #12]
 8003aca:	0018      	movs	r0, r3
 8003acc:	f7ff ff9a 	bl	8003a04 <I2C_TreatErrorCallback>
}
 8003ad0:	46c0      	nop			; (mov r8, r8)
 8003ad2:	46bd      	mov	sp, r7
 8003ad4:	b004      	add	sp, #16
 8003ad6:	bd80      	pop	{r7, pc}

08003ad8 <I2C_TransferConfig>:
  *     @arg @ref I2C_GENERATE_START_WRITE Generate Restart for write request.
  * @retval None
  */
static void I2C_TransferConfig(I2C_HandleTypeDef *hi2c, uint16_t DevAddress, uint8_t Size, uint32_t Mode,
                               uint32_t Request)
{
 8003ad8:	b590      	push	{r4, r7, lr}
 8003ada:	b085      	sub	sp, #20
 8003adc:	af00      	add	r7, sp, #0
 8003ade:	60f8      	str	r0, [r7, #12]
 8003ae0:	0008      	movs	r0, r1
 8003ae2:	0011      	movs	r1, r2
 8003ae4:	607b      	str	r3, [r7, #4]
 8003ae6:	240a      	movs	r4, #10
 8003ae8:	193b      	adds	r3, r7, r4
 8003aea:	1c02      	adds	r2, r0, #0
 8003aec:	801a      	strh	r2, [r3, #0]
 8003aee:	2009      	movs	r0, #9
 8003af0:	183b      	adds	r3, r7, r0
 8003af2:	1c0a      	adds	r2, r1, #0
 8003af4:	701a      	strb	r2, [r3, #0]
  assert_param(IS_I2C_ALL_INSTANCE(hi2c->Instance));
  assert_param(IS_TRANSFER_MODE(Mode));
  assert_param(IS_TRANSFER_REQUEST(Request));

  /* update CR2 register */
  MODIFY_REG(hi2c->Instance->CR2,
 8003af6:	68fb      	ldr	r3, [r7, #12]
 8003af8:	681b      	ldr	r3, [r3, #0]
 8003afa:	685b      	ldr	r3, [r3, #4]
 8003afc:	6a3a      	ldr	r2, [r7, #32]
 8003afe:	0d51      	lsrs	r1, r2, #21
 8003b00:	2280      	movs	r2, #128	; 0x80
 8003b02:	00d2      	lsls	r2, r2, #3
 8003b04:	400a      	ands	r2, r1
 8003b06:	490e      	ldr	r1, [pc, #56]	; (8003b40 <I2C_TransferConfig+0x68>)
 8003b08:	430a      	orrs	r2, r1
 8003b0a:	43d2      	mvns	r2, r2
 8003b0c:	401a      	ands	r2, r3
 8003b0e:	0011      	movs	r1, r2
 8003b10:	193b      	adds	r3, r7, r4
 8003b12:	881b      	ldrh	r3, [r3, #0]
 8003b14:	059b      	lsls	r3, r3, #22
 8003b16:	0d9a      	lsrs	r2, r3, #22
 8003b18:	183b      	adds	r3, r7, r0
 8003b1a:	781b      	ldrb	r3, [r3, #0]
 8003b1c:	0418      	lsls	r0, r3, #16
 8003b1e:	23ff      	movs	r3, #255	; 0xff
 8003b20:	041b      	lsls	r3, r3, #16
 8003b22:	4003      	ands	r3, r0
 8003b24:	431a      	orrs	r2, r3
 8003b26:	687b      	ldr	r3, [r7, #4]
 8003b28:	431a      	orrs	r2, r3
 8003b2a:	6a3b      	ldr	r3, [r7, #32]
 8003b2c:	431a      	orrs	r2, r3
 8003b2e:	68fb      	ldr	r3, [r7, #12]
 8003b30:	681b      	ldr	r3, [r3, #0]
 8003b32:	430a      	orrs	r2, r1
 8003b34:	605a      	str	r2, [r3, #4]
               (I2C_CR2_RD_WRN & (uint32_t)(Request >> (31U - I2C_CR2_RD_WRN_Pos))) | \
               I2C_CR2_START | I2C_CR2_STOP)), \
             (uint32_t)(((uint32_t)DevAddress & I2C_CR2_SADD) | \
                        (((uint32_t)Size << I2C_CR2_NBYTES_Pos) & I2C_CR2_NBYTES) | \
                        (uint32_t)Mode | (uint32_t)Request));
}
 8003b36:	46c0      	nop			; (mov r8, r8)
 8003b38:	46bd      	mov	sp, r7
 8003b3a:	b005      	add	sp, #20
 8003b3c:	bd90      	pop	{r4, r7, pc}
 8003b3e:	46c0      	nop			; (mov r8, r8)
 8003b40:	03ff63ff 	.word	0x03ff63ff

08003b44 <I2C_Enable_IRQ>:
  *                the configuration information for the specified I2C.
  * @param  InterruptRequest Value of @ref I2C_Interrupt_configuration_definition.
  * @retval None
  */
static void I2C_Enable_IRQ(I2C_HandleTypeDef *hi2c, uint16_t InterruptRequest)
{
 8003b44:	b580      	push	{r7, lr}
 8003b46:	b084      	sub	sp, #16
 8003b48:	af00      	add	r7, sp, #0
 8003b4a:	6078      	str	r0, [r7, #4]
 8003b4c:	000a      	movs	r2, r1
 8003b4e:	1cbb      	adds	r3, r7, #2
 8003b50:	801a      	strh	r2, [r3, #0]
  uint32_t tmpisr = 0U;
 8003b52:	2300      	movs	r3, #0
 8003b54:	60fb      	str	r3, [r7, #12]

  if ((hi2c->XferISR == I2C_Master_ISR_DMA) || \
 8003b56:	687b      	ldr	r3, [r7, #4]
 8003b58:	6b5a      	ldr	r2, [r3, #52]	; 0x34
 8003b5a:	4b2c      	ldr	r3, [pc, #176]	; (8003c0c <I2C_Enable_IRQ+0xc8>)
 8003b5c:	429a      	cmp	r2, r3
 8003b5e:	d004      	beq.n	8003b6a <I2C_Enable_IRQ+0x26>
      (hi2c->XferISR == I2C_Slave_ISR_DMA))
 8003b60:	687b      	ldr	r3, [r7, #4]
 8003b62:	6b5a      	ldr	r2, [r3, #52]	; 0x34
  if ((hi2c->XferISR == I2C_Master_ISR_DMA) || \
 8003b64:	4b2a      	ldr	r3, [pc, #168]	; (8003c10 <I2C_Enable_IRQ+0xcc>)
 8003b66:	429a      	cmp	r2, r3
 8003b68:	d121      	bne.n	8003bae <I2C_Enable_IRQ+0x6a>
  {
    if ((InterruptRequest & I2C_XFER_LISTEN_IT) == I2C_XFER_LISTEN_IT)
 8003b6a:	1cbb      	adds	r3, r7, #2
 8003b6c:	2200      	movs	r2, #0
 8003b6e:	5e9b      	ldrsh	r3, [r3, r2]
 8003b70:	2b00      	cmp	r3, #0
 8003b72:	da03      	bge.n	8003b7c <I2C_Enable_IRQ+0x38>
    {
      /* Enable ERR, STOP, NACK and ADDR interrupts */
      tmpisr |= I2C_IT_ADDRI | I2C_IT_STOPI | I2C_IT_NACKI | I2C_IT_ERRI;
 8003b74:	68fb      	ldr	r3, [r7, #12]
 8003b76:	22b8      	movs	r2, #184	; 0xb8
 8003b78:	4313      	orrs	r3, r2
 8003b7a:	60fb      	str	r3, [r7, #12]
    }

    if (InterruptRequest == I2C_XFER_ERROR_IT)
 8003b7c:	1cbb      	adds	r3, r7, #2
 8003b7e:	881b      	ldrh	r3, [r3, #0]
 8003b80:	2b10      	cmp	r3, #16
 8003b82:	d103      	bne.n	8003b8c <I2C_Enable_IRQ+0x48>
    {
      /* Enable ERR and NACK interrupts */
      tmpisr |= I2C_IT_ERRI | I2C_IT_NACKI;
 8003b84:	68fb      	ldr	r3, [r7, #12]
 8003b86:	2290      	movs	r2, #144	; 0x90
 8003b88:	4313      	orrs	r3, r2
 8003b8a:	60fb      	str	r3, [r7, #12]
    }

    if (InterruptRequest == I2C_XFER_CPLT_IT)
 8003b8c:	1cbb      	adds	r3, r7, #2
 8003b8e:	881b      	ldrh	r3, [r3, #0]
 8003b90:	2b20      	cmp	r3, #32
 8003b92:	d103      	bne.n	8003b9c <I2C_Enable_IRQ+0x58>
    {
      /* Enable STOP interrupts */
      tmpisr |= (I2C_IT_STOPI | I2C_IT_TCI);
 8003b94:	68fb      	ldr	r3, [r7, #12]
 8003b96:	2260      	movs	r2, #96	; 0x60
 8003b98:	4313      	orrs	r3, r2
 8003b9a:	60fb      	str	r3, [r7, #12]
    }

    if (InterruptRequest == I2C_XFER_RELOAD_IT)
 8003b9c:	1cbb      	adds	r3, r7, #2
 8003b9e:	881b      	ldrh	r3, [r3, #0]
 8003ba0:	2b40      	cmp	r3, #64	; 0x40
 8003ba2:	d127      	bne.n	8003bf4 <I2C_Enable_IRQ+0xb0>
    {
      /* Enable TC interrupts */
      tmpisr |= I2C_IT_TCI;
 8003ba4:	68fb      	ldr	r3, [r7, #12]
 8003ba6:	2240      	movs	r2, #64	; 0x40
 8003ba8:	4313      	orrs	r3, r2
 8003baa:	60fb      	str	r3, [r7, #12]
    if (InterruptRequest == I2C_XFER_RELOAD_IT)
 8003bac:	e022      	b.n	8003bf4 <I2C_Enable_IRQ+0xb0>
    }
  }
  else
  {
    if ((InterruptRequest & I2C_XFER_LISTEN_IT) == I2C_XFER_LISTEN_IT)
 8003bae:	1cbb      	adds	r3, r7, #2
 8003bb0:	2200      	movs	r2, #0
 8003bb2:	5e9b      	ldrsh	r3, [r3, r2]
 8003bb4:	2b00      	cmp	r3, #0
 8003bb6:	da03      	bge.n	8003bc0 <I2C_Enable_IRQ+0x7c>
    {
      /* Enable ERR, STOP, NACK, and ADDR interrupts */
      tmpisr |= I2C_IT_ADDRI | I2C_IT_STOPI | I2C_IT_NACKI | I2C_IT_ERRI;
 8003bb8:	68fb      	ldr	r3, [r7, #12]
 8003bba:	22b8      	movs	r2, #184	; 0xb8
 8003bbc:	4313      	orrs	r3, r2
 8003bbe:	60fb      	str	r3, [r7, #12]
    }

    if ((InterruptRequest & I2C_XFER_TX_IT) == I2C_XFER_TX_IT)
 8003bc0:	1cbb      	adds	r3, r7, #2
 8003bc2:	881b      	ldrh	r3, [r3, #0]
 8003bc4:	2201      	movs	r2, #1
 8003bc6:	4013      	ands	r3, r2
 8003bc8:	d003      	beq.n	8003bd2 <I2C_Enable_IRQ+0x8e>
    {
      /* Enable ERR, TC, STOP, NACK and RXI interrupts */
      tmpisr |= I2C_IT_ERRI | I2C_IT_TCI | I2C_IT_STOPI | I2C_IT_NACKI | I2C_IT_TXI;
 8003bca:	68fb      	ldr	r3, [r7, #12]
 8003bcc:	22f2      	movs	r2, #242	; 0xf2
 8003bce:	4313      	orrs	r3, r2
 8003bd0:	60fb      	str	r3, [r7, #12]
    }

    if ((InterruptRequest & I2C_XFER_RX_IT) == I2C_XFER_RX_IT)
 8003bd2:	1cbb      	adds	r3, r7, #2
 8003bd4:	881b      	ldrh	r3, [r3, #0]
 8003bd6:	2202      	movs	r2, #2
 8003bd8:	4013      	ands	r3, r2
 8003bda:	d003      	beq.n	8003be4 <I2C_Enable_IRQ+0xa0>
    {
      /* Enable ERR, TC, STOP, NACK and TXI interrupts */
      tmpisr |= I2C_IT_ERRI | I2C_IT_TCI | I2C_IT_STOPI | I2C_IT_NACKI | I2C_IT_RXI;
 8003bdc:	68fb      	ldr	r3, [r7, #12]
 8003bde:	22f4      	movs	r2, #244	; 0xf4
 8003be0:	4313      	orrs	r3, r2
 8003be2:	60fb      	str	r3, [r7, #12]
    }

    if (InterruptRequest == I2C_XFER_CPLT_IT)
 8003be4:	1cbb      	adds	r3, r7, #2
 8003be6:	881b      	ldrh	r3, [r3, #0]
 8003be8:	2b20      	cmp	r3, #32
 8003bea:	d103      	bne.n	8003bf4 <I2C_Enable_IRQ+0xb0>
    {
      /* Enable STOP interrupts */
      tmpisr |= I2C_IT_STOPI;
 8003bec:	68fb      	ldr	r3, [r7, #12]
 8003bee:	2220      	movs	r2, #32
 8003bf0:	4313      	orrs	r3, r2
 8003bf2:	60fb      	str	r3, [r7, #12]
  }

  /* Enable interrupts only at the end */
  /* to avoid the risk of I2C interrupt handle execution before */
  /* all interrupts requested done */
  __HAL_I2C_ENABLE_IT(hi2c, tmpisr);
 8003bf4:	687b      	ldr	r3, [r7, #4]
 8003bf6:	681b      	ldr	r3, [r3, #0]
 8003bf8:	6819      	ldr	r1, [r3, #0]
 8003bfa:	687b      	ldr	r3, [r7, #4]
 8003bfc:	681b      	ldr	r3, [r3, #0]
 8003bfe:	68fa      	ldr	r2, [r7, #12]
 8003c00:	430a      	orrs	r2, r1
 8003c02:	601a      	str	r2, [r3, #0]
}
 8003c04:	46c0      	nop			; (mov r8, r8)
 8003c06:	46bd      	mov	sp, r7
 8003c08:	b004      	add	sp, #16
 8003c0a:	bd80      	pop	{r7, pc}
 8003c0c:	08002d05 	.word	0x08002d05
 8003c10:	08002f1d 	.word	0x08002f1d

08003c14 <I2C_Disable_IRQ>:
  *                the configuration information for the specified I2C.
  * @param  InterruptRequest Value of @ref I2C_Interrupt_configuration_definition.
  * @retval None
  */
static void I2C_Disable_IRQ(I2C_HandleTypeDef *hi2c, uint16_t InterruptRequest)
{
 8003c14:	b580      	push	{r7, lr}
 8003c16:	b084      	sub	sp, #16
 8003c18:	af00      	add	r7, sp, #0
 8003c1a:	6078      	str	r0, [r7, #4]
 8003c1c:	000a      	movs	r2, r1
 8003c1e:	1cbb      	adds	r3, r7, #2
 8003c20:	801a      	strh	r2, [r3, #0]
  uint32_t tmpisr = 0U;
 8003c22:	2300      	movs	r3, #0
 8003c24:	60fb      	str	r3, [r7, #12]

  if ((InterruptRequest & I2C_XFER_TX_IT) == I2C_XFER_TX_IT)
 8003c26:	1cbb      	adds	r3, r7, #2
 8003c28:	881b      	ldrh	r3, [r3, #0]
 8003c2a:	2201      	movs	r2, #1
 8003c2c:	4013      	ands	r3, r2
 8003c2e:	d010      	beq.n	8003c52 <I2C_Disable_IRQ+0x3e>
  {
    /* Disable TC and TXI interrupts */
    tmpisr |= I2C_IT_TCI | I2C_IT_TXI;
 8003c30:	68fb      	ldr	r3, [r7, #12]
 8003c32:	2242      	movs	r2, #66	; 0x42
 8003c34:	4313      	orrs	r3, r2
 8003c36:	60fb      	str	r3, [r7, #12]

    if (((uint32_t)hi2c->State & (uint32_t)HAL_I2C_STATE_LISTEN) != (uint32_t)HAL_I2C_STATE_LISTEN)
 8003c38:	687b      	ldr	r3, [r7, #4]
 8003c3a:	2241      	movs	r2, #65	; 0x41
 8003c3c:	5c9b      	ldrb	r3, [r3, r2]
 8003c3e:	b2db      	uxtb	r3, r3
 8003c40:	001a      	movs	r2, r3
 8003c42:	2328      	movs	r3, #40	; 0x28
 8003c44:	4013      	ands	r3, r2
 8003c46:	2b28      	cmp	r3, #40	; 0x28
 8003c48:	d003      	beq.n	8003c52 <I2C_Disable_IRQ+0x3e>
    {
      /* Disable NACK and STOP interrupts */
      tmpisr |= I2C_IT_STOPI | I2C_IT_NACKI | I2C_IT_ERRI;
 8003c4a:	68fb      	ldr	r3, [r7, #12]
 8003c4c:	22b0      	movs	r2, #176	; 0xb0
 8003c4e:	4313      	orrs	r3, r2
 8003c50:	60fb      	str	r3, [r7, #12]
    }
  }

  if ((InterruptRequest & I2C_XFER_RX_IT) == I2C_XFER_RX_IT)
 8003c52:	1cbb      	adds	r3, r7, #2
 8003c54:	881b      	ldrh	r3, [r3, #0]
 8003c56:	2202      	movs	r2, #2
 8003c58:	4013      	ands	r3, r2
 8003c5a:	d010      	beq.n	8003c7e <I2C_Disable_IRQ+0x6a>
  {
    /* Disable TC and RXI interrupts */
    tmpisr |= I2C_IT_TCI | I2C_IT_RXI;
 8003c5c:	68fb      	ldr	r3, [r7, #12]
 8003c5e:	2244      	movs	r2, #68	; 0x44
 8003c60:	4313      	orrs	r3, r2
 8003c62:	60fb      	str	r3, [r7, #12]

    if (((uint32_t)hi2c->State & (uint32_t)HAL_I2C_STATE_LISTEN) != (uint32_t)HAL_I2C_STATE_LISTEN)
 8003c64:	687b      	ldr	r3, [r7, #4]
 8003c66:	2241      	movs	r2, #65	; 0x41
 8003c68:	5c9b      	ldrb	r3, [r3, r2]
 8003c6a:	b2db      	uxtb	r3, r3
 8003c6c:	001a      	movs	r2, r3
 8003c6e:	2328      	movs	r3, #40	; 0x28
 8003c70:	4013      	ands	r3, r2
 8003c72:	2b28      	cmp	r3, #40	; 0x28
 8003c74:	d003      	beq.n	8003c7e <I2C_Disable_IRQ+0x6a>
    {
      /* Disable NACK and STOP interrupts */
      tmpisr |= I2C_IT_STOPI | I2C_IT_NACKI | I2C_IT_ERRI;
 8003c76:	68fb      	ldr	r3, [r7, #12]
 8003c78:	22b0      	movs	r2, #176	; 0xb0
 8003c7a:	4313      	orrs	r3, r2
 8003c7c:	60fb      	str	r3, [r7, #12]
    }
  }

  if ((InterruptRequest & I2C_XFER_LISTEN_IT) == I2C_XFER_LISTEN_IT)
 8003c7e:	1cbb      	adds	r3, r7, #2
 8003c80:	2200      	movs	r2, #0
 8003c82:	5e9b      	ldrsh	r3, [r3, r2]
 8003c84:	2b00      	cmp	r3, #0
 8003c86:	da03      	bge.n	8003c90 <I2C_Disable_IRQ+0x7c>
  {
    /* Disable ADDR, NACK and STOP interrupts */
    tmpisr |= I2C_IT_ADDRI | I2C_IT_STOPI | I2C_IT_NACKI | I2C_IT_ERRI;
 8003c88:	68fb      	ldr	r3, [r7, #12]
 8003c8a:	22b8      	movs	r2, #184	; 0xb8
 8003c8c:	4313      	orrs	r3, r2
 8003c8e:	60fb      	str	r3, [r7, #12]
  }

  if (InterruptRequest == I2C_XFER_ERROR_IT)
 8003c90:	1cbb      	adds	r3, r7, #2
 8003c92:	881b      	ldrh	r3, [r3, #0]
 8003c94:	2b10      	cmp	r3, #16
 8003c96:	d103      	bne.n	8003ca0 <I2C_Disable_IRQ+0x8c>
  {
    /* Enable ERR and NACK interrupts */
    tmpisr |= I2C_IT_ERRI | I2C_IT_NACKI;
 8003c98:	68fb      	ldr	r3, [r7, #12]
 8003c9a:	2290      	movs	r2, #144	; 0x90
 8003c9c:	4313      	orrs	r3, r2
 8003c9e:	60fb      	str	r3, [r7, #12]
  }

  if (InterruptRequest == I2C_XFER_CPLT_IT)
 8003ca0:	1cbb      	adds	r3, r7, #2
 8003ca2:	881b      	ldrh	r3, [r3, #0]
 8003ca4:	2b20      	cmp	r3, #32
 8003ca6:	d103      	bne.n	8003cb0 <I2C_Disable_IRQ+0x9c>
  {
    /* Enable STOP interrupts */
    tmpisr |= I2C_IT_STOPI;
 8003ca8:	68fb      	ldr	r3, [r7, #12]
 8003caa:	2220      	movs	r2, #32
 8003cac:	4313      	orrs	r3, r2
 8003cae:	60fb      	str	r3, [r7, #12]
  }

  if (InterruptRequest == I2C_XFER_RELOAD_IT)
 8003cb0:	1cbb      	adds	r3, r7, #2
 8003cb2:	881b      	ldrh	r3, [r3, #0]
 8003cb4:	2b40      	cmp	r3, #64	; 0x40
 8003cb6:	d103      	bne.n	8003cc0 <I2C_Disable_IRQ+0xac>
  {
    /* Enable TC interrupts */
    tmpisr |= I2C_IT_TCI;
 8003cb8:	68fb      	ldr	r3, [r7, #12]
 8003cba:	2240      	movs	r2, #64	; 0x40
 8003cbc:	4313      	orrs	r3, r2
 8003cbe:	60fb      	str	r3, [r7, #12]
  }

  /* Disable interrupts only at the end */
  /* to avoid a breaking situation like at "t" time */
  /* all disable interrupts request are not done */
  __HAL_I2C_DISABLE_IT(hi2c, tmpisr);
 8003cc0:	687b      	ldr	r3, [r7, #4]
 8003cc2:	681b      	ldr	r3, [r3, #0]
 8003cc4:	681a      	ldr	r2, [r3, #0]
 8003cc6:	68fb      	ldr	r3, [r7, #12]
 8003cc8:	43d9      	mvns	r1, r3
 8003cca:	687b      	ldr	r3, [r7, #4]
 8003ccc:	681b      	ldr	r3, [r3, #0]
 8003cce:	400a      	ands	r2, r1
 8003cd0:	601a      	str	r2, [r3, #0]
}
 8003cd2:	46c0      	nop			; (mov r8, r8)
 8003cd4:	46bd      	mov	sp, r7
 8003cd6:	b004      	add	sp, #16
 8003cd8:	bd80      	pop	{r7, pc}
	...

08003cdc <HAL_I2CEx_ConfigAnalogFilter>:
  *                the configuration information for the specified I2Cx peripheral.
  * @param  AnalogFilter New state of the Analog filter.
  * @retval HAL status
  */
HAL_StatusTypeDef HAL_I2CEx_ConfigAnalogFilter(I2C_HandleTypeDef *hi2c, uint32_t AnalogFilter)
{
 8003cdc:	b580      	push	{r7, lr}
 8003cde:	b082      	sub	sp, #8
 8003ce0:	af00      	add	r7, sp, #0
 8003ce2:	6078      	str	r0, [r7, #4]
 8003ce4:	6039      	str	r1, [r7, #0]
  /* Check the parameters */
  assert_param(IS_I2C_ALL_INSTANCE(hi2c->Instance));
  assert_param(IS_I2C_ANALOG_FILTER(AnalogFilter));

  if (hi2c->State == HAL_I2C_STATE_READY)
 8003ce6:	687b      	ldr	r3, [r7, #4]
 8003ce8:	2241      	movs	r2, #65	; 0x41
 8003cea:	5c9b      	ldrb	r3, [r3, r2]
 8003cec:	b2db      	uxtb	r3, r3
 8003cee:	2b20      	cmp	r3, #32
 8003cf0:	d138      	bne.n	8003d64 <HAL_I2CEx_ConfigAnalogFilter+0x88>
  {
    /* Process Locked */
    __HAL_LOCK(hi2c);
 8003cf2:	687b      	ldr	r3, [r7, #4]
 8003cf4:	2240      	movs	r2, #64	; 0x40
 8003cf6:	5c9b      	ldrb	r3, [r3, r2]
 8003cf8:	2b01      	cmp	r3, #1
 8003cfa:	d101      	bne.n	8003d00 <HAL_I2CEx_ConfigAnalogFilter+0x24>
 8003cfc:	2302      	movs	r3, #2
 8003cfe:	e032      	b.n	8003d66 <HAL_I2CEx_ConfigAnalogFilter+0x8a>
 8003d00:	687b      	ldr	r3, [r7, #4]
 8003d02:	2240      	movs	r2, #64	; 0x40
 8003d04:	2101      	movs	r1, #1
 8003d06:	5499      	strb	r1, [r3, r2]

    hi2c->State = HAL_I2C_STATE_BUSY;
 8003d08:	687b      	ldr	r3, [r7, #4]
 8003d0a:	2241      	movs	r2, #65	; 0x41
 8003d0c:	2124      	movs	r1, #36	; 0x24
 8003d0e:	5499      	strb	r1, [r3, r2]

    /* Disable the selected I2C peripheral */
    __HAL_I2C_DISABLE(hi2c);
 8003d10:	687b      	ldr	r3, [r7, #4]
 8003d12:	681b      	ldr	r3, [r3, #0]
 8003d14:	681a      	ldr	r2, [r3, #0]
 8003d16:	687b      	ldr	r3, [r7, #4]
 8003d18:	681b      	ldr	r3, [r3, #0]
 8003d1a:	2101      	movs	r1, #1
 8003d1c:	438a      	bics	r2, r1
 8003d1e:	601a      	str	r2, [r3, #0]

    /* Reset I2Cx ANOFF bit */
    hi2c->Instance->CR1 &= ~(I2C_CR1_ANFOFF);
 8003d20:	687b      	ldr	r3, [r7, #4]
 8003d22:	681b      	ldr	r3, [r3, #0]
 8003d24:	681a      	ldr	r2, [r3, #0]
 8003d26:	687b      	ldr	r3, [r7, #4]
 8003d28:	681b      	ldr	r3, [r3, #0]
 8003d2a:	4911      	ldr	r1, [pc, #68]	; (8003d70 <HAL_I2CEx_ConfigAnalogFilter+0x94>)
 8003d2c:	400a      	ands	r2, r1
 8003d2e:	601a      	str	r2, [r3, #0]

    /* Set analog filter bit*/
    hi2c->Instance->CR1 |= AnalogFilter;
 8003d30:	687b      	ldr	r3, [r7, #4]
 8003d32:	681b      	ldr	r3, [r3, #0]
 8003d34:	6819      	ldr	r1, [r3, #0]
 8003d36:	687b      	ldr	r3, [r7, #4]
 8003d38:	681b      	ldr	r3, [r3, #0]
 8003d3a:	683a      	ldr	r2, [r7, #0]
 8003d3c:	430a      	orrs	r2, r1
 8003d3e:	601a      	str	r2, [r3, #0]

    __HAL_I2C_ENABLE(hi2c);
 8003d40:	687b      	ldr	r3, [r7, #4]
 8003d42:	681b      	ldr	r3, [r3, #0]
 8003d44:	681a      	ldr	r2, [r3, #0]
 8003d46:	687b      	ldr	r3, [r7, #4]
 8003d48:	681b      	ldr	r3, [r3, #0]
 8003d4a:	2101      	movs	r1, #1
 8003d4c:	430a      	orrs	r2, r1
 8003d4e:	601a      	str	r2, [r3, #0]

    hi2c->State = HAL_I2C_STATE_READY;
 8003d50:	687b      	ldr	r3, [r7, #4]
 8003d52:	2241      	movs	r2, #65	; 0x41
 8003d54:	2120      	movs	r1, #32
 8003d56:	5499      	strb	r1, [r3, r2]

    /* Process Unlocked */
    __HAL_UNLOCK(hi2c);
 8003d58:	687b      	ldr	r3, [r7, #4]
 8003d5a:	2240      	movs	r2, #64	; 0x40
 8003d5c:	2100      	movs	r1, #0
 8003d5e:	5499      	strb	r1, [r3, r2]

    return HAL_OK;
 8003d60:	2300      	movs	r3, #0
 8003d62:	e000      	b.n	8003d66 <HAL_I2CEx_ConfigAnalogFilter+0x8a>
  }
  else
  {
    return HAL_BUSY;
 8003d64:	2302      	movs	r3, #2
  }
}
 8003d66:	0018      	movs	r0, r3
 8003d68:	46bd      	mov	sp, r7
 8003d6a:	b002      	add	sp, #8
 8003d6c:	bd80      	pop	{r7, pc}
 8003d6e:	46c0      	nop			; (mov r8, r8)
 8003d70:	ffffefff 	.word	0xffffefff

08003d74 <HAL_I2CEx_ConfigDigitalFilter>:
  *                the configuration information for the specified I2Cx peripheral.
  * @param  DigitalFilter Coefficient of digital noise filter between Min_Data=0x00 and Max_Data=0x0F.
  * @retval HAL status
  */
HAL_StatusTypeDef HAL_I2CEx_ConfigDigitalFilter(I2C_HandleTypeDef *hi2c, uint32_t DigitalFilter)
{
 8003d74:	b580      	push	{r7, lr}
 8003d76:	b084      	sub	sp, #16
 8003d78:	af00      	add	r7, sp, #0
 8003d7a:	6078      	str	r0, [r7, #4]
 8003d7c:	6039      	str	r1, [r7, #0]

  /* Check the parameters */
  assert_param(IS_I2C_ALL_INSTANCE(hi2c->Instance));
  assert_param(IS_I2C_DIGITAL_FILTER(DigitalFilter));

  if (hi2c->State == HAL_I2C_STATE_READY)
 8003d7e:	687b      	ldr	r3, [r7, #4]
 8003d80:	2241      	movs	r2, #65	; 0x41
 8003d82:	5c9b      	ldrb	r3, [r3, r2]
 8003d84:	b2db      	uxtb	r3, r3
 8003d86:	2b20      	cmp	r3, #32
 8003d88:	d139      	bne.n	8003dfe <HAL_I2CEx_ConfigDigitalFilter+0x8a>
  {
    /* Process Locked */
    __HAL_LOCK(hi2c);
 8003d8a:	687b      	ldr	r3, [r7, #4]
 8003d8c:	2240      	movs	r2, #64	; 0x40
 8003d8e:	5c9b      	ldrb	r3, [r3, r2]
 8003d90:	2b01      	cmp	r3, #1
 8003d92:	d101      	bne.n	8003d98 <HAL_I2CEx_ConfigDigitalFilter+0x24>
 8003d94:	2302      	movs	r3, #2
 8003d96:	e033      	b.n	8003e00 <HAL_I2CEx_ConfigDigitalFilter+0x8c>
 8003d98:	687b      	ldr	r3, [r7, #4]
 8003d9a:	2240      	movs	r2, #64	; 0x40
 8003d9c:	2101      	movs	r1, #1
 8003d9e:	5499      	strb	r1, [r3, r2]

    hi2c->State = HAL_I2C_STATE_BUSY;
 8003da0:	687b      	ldr	r3, [r7, #4]
 8003da2:	2241      	movs	r2, #65	; 0x41
 8003da4:	2124      	movs	r1, #36	; 0x24
 8003da6:	5499      	strb	r1, [r3, r2]

    /* Disable the selected I2C peripheral */
    __HAL_I2C_DISABLE(hi2c);
 8003da8:	687b      	ldr	r3, [r7, #4]
 8003daa:	681b      	ldr	r3, [r3, #0]
 8003dac:	681a      	ldr	r2, [r3, #0]
 8003dae:	687b      	ldr	r3, [r7, #4]
 8003db0:	681b      	ldr	r3, [r3, #0]
 8003db2:	2101      	movs	r1, #1
 8003db4:	438a      	bics	r2, r1
 8003db6:	601a      	str	r2, [r3, #0]

    /* Get the old register value */
    tmpreg = hi2c->Instance->CR1;
 8003db8:	687b      	ldr	r3, [r7, #4]
 8003dba:	681b      	ldr	r3, [r3, #0]
 8003dbc:	681b      	ldr	r3, [r3, #0]
 8003dbe:	60fb      	str	r3, [r7, #12]

    /* Reset I2Cx DNF bits [11:8] */
    tmpreg &= ~(I2C_CR1_DNF);
 8003dc0:	68fb      	ldr	r3, [r7, #12]
 8003dc2:	4a11      	ldr	r2, [pc, #68]	; (8003e08 <HAL_I2CEx_ConfigDigitalFilter+0x94>)
 8003dc4:	4013      	ands	r3, r2
 8003dc6:	60fb      	str	r3, [r7, #12]

    /* Set I2Cx DNF coefficient */
    tmpreg |= DigitalFilter << 8U;
 8003dc8:	683b      	ldr	r3, [r7, #0]
 8003dca:	021b      	lsls	r3, r3, #8
 8003dcc:	68fa      	ldr	r2, [r7, #12]
 8003dce:	4313      	orrs	r3, r2
 8003dd0:	60fb      	str	r3, [r7, #12]

    /* Store the new register value */
    hi2c->Instance->CR1 = tmpreg;
 8003dd2:	687b      	ldr	r3, [r7, #4]
 8003dd4:	681b      	ldr	r3, [r3, #0]
 8003dd6:	68fa      	ldr	r2, [r7, #12]
 8003dd8:	601a      	str	r2, [r3, #0]

    __HAL_I2C_ENABLE(hi2c);
 8003dda:	687b      	ldr	r3, [r7, #4]
 8003ddc:	681b      	ldr	r3, [r3, #0]
 8003dde:	681a      	ldr	r2, [r3, #0]
 8003de0:	687b      	ldr	r3, [r7, #4]
 8003de2:	681b      	ldr	r3, [r3, #0]
 8003de4:	2101      	movs	r1, #1
 8003de6:	430a      	orrs	r2, r1
 8003de8:	601a      	str	r2, [r3, #0]

    hi2c->State = HAL_I2C_STATE_READY;
 8003dea:	687b      	ldr	r3, [r7, #4]
 8003dec:	2241      	movs	r2, #65	; 0x41
 8003dee:	2120      	movs	r1, #32
 8003df0:	5499      	strb	r1, [r3, r2]

    /* Process Unlocked */
    __HAL_UNLOCK(hi2c);
 8003df2:	687b      	ldr	r3, [r7, #4]
 8003df4:	2240      	movs	r2, #64	; 0x40
 8003df6:	2100      	movs	r1, #0
 8003df8:	5499      	strb	r1, [r3, r2]

    return HAL_OK;
 8003dfa:	2300      	movs	r3, #0
 8003dfc:	e000      	b.n	8003e00 <HAL_I2CEx_ConfigDigitalFilter+0x8c>
  }
  else
  {
    return HAL_BUSY;
 8003dfe:	2302      	movs	r3, #2
  }
}
 8003e00:	0018      	movs	r0, r3
 8003e02:	46bd      	mov	sp, r7
 8003e04:	b004      	add	sp, #16
 8003e06:	bd80      	pop	{r7, pc}
 8003e08:	fffff0ff 	.word	0xfffff0ff

08003e0c <HAL_RCC_OscConfig>:
  *         supported by this macro. User should request a transition to HSE Off
  *         first and then HSE On or HSE Bypass.
  * @retval HAL status
  */
HAL_StatusTypeDef HAL_RCC_OscConfig(RCC_OscInitTypeDef  *RCC_OscInitStruct)
{
 8003e0c:	b580      	push	{r7, lr}
 8003e0e:	b088      	sub	sp, #32
 8003e10:	af00      	add	r7, sp, #0
 8003e12:	6078      	str	r0, [r7, #4]
  uint32_t tickstart;
  uint32_t pll_config;
  uint32_t pll_config2;

  /* Check Null pointer */
  if(RCC_OscInitStruct == NULL)
 8003e14:	687b      	ldr	r3, [r7, #4]
 8003e16:	2b00      	cmp	r3, #0
 8003e18:	d101      	bne.n	8003e1e <HAL_RCC_OscConfig+0x12>
  {
    return HAL_ERROR;
 8003e1a:	2301      	movs	r3, #1
 8003e1c:	e301      	b.n	8004422 <HAL_RCC_OscConfig+0x616>

  /* Check the parameters */
  assert_param(IS_RCC_OSCILLATORTYPE(RCC_OscInitStruct->OscillatorType));

  /*------------------------------- HSE Configuration ------------------------*/ 
  if(((RCC_OscInitStruct->OscillatorType) & RCC_OSCILLATORTYPE_HSE) == RCC_OSCILLATORTYPE_HSE)
 8003e1e:	687b      	ldr	r3, [r7, #4]
 8003e20:	681b      	ldr	r3, [r3, #0]
 8003e22:	2201      	movs	r2, #1
 8003e24:	4013      	ands	r3, r2
 8003e26:	d100      	bne.n	8003e2a <HAL_RCC_OscConfig+0x1e>
 8003e28:	e08d      	b.n	8003f46 <HAL_RCC_OscConfig+0x13a>
  {
    /* Check the parameters */
    assert_param(IS_RCC_HSE(RCC_OscInitStruct->HSEState));

    /* When the HSE is used as system clock or clock source for PLL in these cases it is not allowed to be disabled */
    if((__HAL_RCC_GET_SYSCLK_SOURCE() == RCC_SYSCLKSOURCE_STATUS_HSE) 
 8003e2a:	4bc3      	ldr	r3, [pc, #780]	; (8004138 <HAL_RCC_OscConfig+0x32c>)
 8003e2c:	685b      	ldr	r3, [r3, #4]
 8003e2e:	220c      	movs	r2, #12
 8003e30:	4013      	ands	r3, r2
 8003e32:	2b04      	cmp	r3, #4
 8003e34:	d00e      	beq.n	8003e54 <HAL_RCC_OscConfig+0x48>
       || ((__HAL_RCC_GET_SYSCLK_SOURCE() == RCC_SYSCLKSOURCE_STATUS_PLLCLK) && (__HAL_RCC_GET_PLL_OSCSOURCE() == RCC_PLLSOURCE_HSE)))
 8003e36:	4bc0      	ldr	r3, [pc, #768]	; (8004138 <HAL_RCC_OscConfig+0x32c>)
 8003e38:	685b      	ldr	r3, [r3, #4]
 8003e3a:	220c      	movs	r2, #12
 8003e3c:	4013      	ands	r3, r2
 8003e3e:	2b08      	cmp	r3, #8
 8003e40:	d116      	bne.n	8003e70 <HAL_RCC_OscConfig+0x64>
 8003e42:	4bbd      	ldr	r3, [pc, #756]	; (8004138 <HAL_RCC_OscConfig+0x32c>)
 8003e44:	685a      	ldr	r2, [r3, #4]
 8003e46:	2380      	movs	r3, #128	; 0x80
 8003e48:	025b      	lsls	r3, r3, #9
 8003e4a:	401a      	ands	r2, r3
 8003e4c:	2380      	movs	r3, #128	; 0x80
 8003e4e:	025b      	lsls	r3, r3, #9
 8003e50:	429a      	cmp	r2, r3
 8003e52:	d10d      	bne.n	8003e70 <HAL_RCC_OscConfig+0x64>
    {
      if((__HAL_RCC_GET_FLAG(RCC_FLAG_HSERDY) != RESET) && (RCC_OscInitStruct->HSEState == RCC_HSE_OFF))
 8003e54:	4bb8      	ldr	r3, [pc, #736]	; (8004138 <HAL_RCC_OscConfig+0x32c>)
 8003e56:	681a      	ldr	r2, [r3, #0]
 8003e58:	2380      	movs	r3, #128	; 0x80
 8003e5a:	029b      	lsls	r3, r3, #10
 8003e5c:	4013      	ands	r3, r2
 8003e5e:	d100      	bne.n	8003e62 <HAL_RCC_OscConfig+0x56>
 8003e60:	e070      	b.n	8003f44 <HAL_RCC_OscConfig+0x138>
 8003e62:	687b      	ldr	r3, [r7, #4]
 8003e64:	685b      	ldr	r3, [r3, #4]
 8003e66:	2b00      	cmp	r3, #0
 8003e68:	d000      	beq.n	8003e6c <HAL_RCC_OscConfig+0x60>
 8003e6a:	e06b      	b.n	8003f44 <HAL_RCC_OscConfig+0x138>
      {
        return HAL_ERROR;
 8003e6c:	2301      	movs	r3, #1
 8003e6e:	e2d8      	b.n	8004422 <HAL_RCC_OscConfig+0x616>
      }
    }
    else
    {
      /* Set the new HSE configuration ---------------------------------------*/
      __HAL_RCC_HSE_CONFIG(RCC_OscInitStruct->HSEState);
 8003e70:	687b      	ldr	r3, [r7, #4]
 8003e72:	685b      	ldr	r3, [r3, #4]
 8003e74:	2b01      	cmp	r3, #1
 8003e76:	d107      	bne.n	8003e88 <HAL_RCC_OscConfig+0x7c>
 8003e78:	4baf      	ldr	r3, [pc, #700]	; (8004138 <HAL_RCC_OscConfig+0x32c>)
 8003e7a:	681a      	ldr	r2, [r3, #0]
 8003e7c:	4bae      	ldr	r3, [pc, #696]	; (8004138 <HAL_RCC_OscConfig+0x32c>)
 8003e7e:	2180      	movs	r1, #128	; 0x80
 8003e80:	0249      	lsls	r1, r1, #9
 8003e82:	430a      	orrs	r2, r1
 8003e84:	601a      	str	r2, [r3, #0]
 8003e86:	e02f      	b.n	8003ee8 <HAL_RCC_OscConfig+0xdc>
 8003e88:	687b      	ldr	r3, [r7, #4]
 8003e8a:	685b      	ldr	r3, [r3, #4]
 8003e8c:	2b00      	cmp	r3, #0
 8003e8e:	d10c      	bne.n	8003eaa <HAL_RCC_OscConfig+0x9e>
 8003e90:	4ba9      	ldr	r3, [pc, #676]	; (8004138 <HAL_RCC_OscConfig+0x32c>)
 8003e92:	681a      	ldr	r2, [r3, #0]
 8003e94:	4ba8      	ldr	r3, [pc, #672]	; (8004138 <HAL_RCC_OscConfig+0x32c>)
 8003e96:	49a9      	ldr	r1, [pc, #676]	; (800413c <HAL_RCC_OscConfig+0x330>)
 8003e98:	400a      	ands	r2, r1
 8003e9a:	601a      	str	r2, [r3, #0]
 8003e9c:	4ba6      	ldr	r3, [pc, #664]	; (8004138 <HAL_RCC_OscConfig+0x32c>)
 8003e9e:	681a      	ldr	r2, [r3, #0]
 8003ea0:	4ba5      	ldr	r3, [pc, #660]	; (8004138 <HAL_RCC_OscConfig+0x32c>)
 8003ea2:	49a7      	ldr	r1, [pc, #668]	; (8004140 <HAL_RCC_OscConfig+0x334>)
 8003ea4:	400a      	ands	r2, r1
 8003ea6:	601a      	str	r2, [r3, #0]
 8003ea8:	e01e      	b.n	8003ee8 <HAL_RCC_OscConfig+0xdc>
 8003eaa:	687b      	ldr	r3, [r7, #4]
 8003eac:	685b      	ldr	r3, [r3, #4]
 8003eae:	2b05      	cmp	r3, #5
 8003eb0:	d10e      	bne.n	8003ed0 <HAL_RCC_OscConfig+0xc4>
 8003eb2:	4ba1      	ldr	r3, [pc, #644]	; (8004138 <HAL_RCC_OscConfig+0x32c>)
 8003eb4:	681a      	ldr	r2, [r3, #0]
 8003eb6:	4ba0      	ldr	r3, [pc, #640]	; (8004138 <HAL_RCC_OscConfig+0x32c>)
 8003eb8:	2180      	movs	r1, #128	; 0x80
 8003eba:	02c9      	lsls	r1, r1, #11
 8003ebc:	430a      	orrs	r2, r1
 8003ebe:	601a      	str	r2, [r3, #0]
 8003ec0:	4b9d      	ldr	r3, [pc, #628]	; (8004138 <HAL_RCC_OscConfig+0x32c>)
 8003ec2:	681a      	ldr	r2, [r3, #0]
 8003ec4:	4b9c      	ldr	r3, [pc, #624]	; (8004138 <HAL_RCC_OscConfig+0x32c>)
 8003ec6:	2180      	movs	r1, #128	; 0x80
 8003ec8:	0249      	lsls	r1, r1, #9
 8003eca:	430a      	orrs	r2, r1
 8003ecc:	601a      	str	r2, [r3, #0]
 8003ece:	e00b      	b.n	8003ee8 <HAL_RCC_OscConfig+0xdc>
 8003ed0:	4b99      	ldr	r3, [pc, #612]	; (8004138 <HAL_RCC_OscConfig+0x32c>)
 8003ed2:	681a      	ldr	r2, [r3, #0]
 8003ed4:	4b98      	ldr	r3, [pc, #608]	; (8004138 <HAL_RCC_OscConfig+0x32c>)
 8003ed6:	4999      	ldr	r1, [pc, #612]	; (800413c <HAL_RCC_OscConfig+0x330>)
 8003ed8:	400a      	ands	r2, r1
 8003eda:	601a      	str	r2, [r3, #0]
 8003edc:	4b96      	ldr	r3, [pc, #600]	; (8004138 <HAL_RCC_OscConfig+0x32c>)
 8003ede:	681a      	ldr	r2, [r3, #0]
 8003ee0:	4b95      	ldr	r3, [pc, #596]	; (8004138 <HAL_RCC_OscConfig+0x32c>)
 8003ee2:	4997      	ldr	r1, [pc, #604]	; (8004140 <HAL_RCC_OscConfig+0x334>)
 8003ee4:	400a      	ands	r2, r1
 8003ee6:	601a      	str	r2, [r3, #0]
      

       /* Check the HSE State */
      if(RCC_OscInitStruct->HSEState != RCC_HSE_OFF)
 8003ee8:	687b      	ldr	r3, [r7, #4]
 8003eea:	685b      	ldr	r3, [r3, #4]
 8003eec:	2b00      	cmp	r3, #0
 8003eee:	d014      	beq.n	8003f1a <HAL_RCC_OscConfig+0x10e>
      {
        /* Get Start Tick */
        tickstart = HAL_GetTick();
 8003ef0:	f7fd fac0 	bl	8001474 <HAL_GetTick>
 8003ef4:	0003      	movs	r3, r0
 8003ef6:	61bb      	str	r3, [r7, #24]
        
        /* Wait till HSE is ready */
        while(__HAL_RCC_GET_FLAG(RCC_FLAG_HSERDY) == RESET)
 8003ef8:	e008      	b.n	8003f0c <HAL_RCC_OscConfig+0x100>
        {
          if((HAL_GetTick() - tickstart ) > HSE_TIMEOUT_VALUE)
 8003efa:	f7fd fabb 	bl	8001474 <HAL_GetTick>
 8003efe:	0002      	movs	r2, r0
 8003f00:	69bb      	ldr	r3, [r7, #24]
 8003f02:	1ad3      	subs	r3, r2, r3
 8003f04:	2b64      	cmp	r3, #100	; 0x64
 8003f06:	d901      	bls.n	8003f0c <HAL_RCC_OscConfig+0x100>
          {
            return HAL_TIMEOUT;
 8003f08:	2303      	movs	r3, #3
 8003f0a:	e28a      	b.n	8004422 <HAL_RCC_OscConfig+0x616>
        while(__HAL_RCC_GET_FLAG(RCC_FLAG_HSERDY) == RESET)
 8003f0c:	4b8a      	ldr	r3, [pc, #552]	; (8004138 <HAL_RCC_OscConfig+0x32c>)
 8003f0e:	681a      	ldr	r2, [r3, #0]
 8003f10:	2380      	movs	r3, #128	; 0x80
 8003f12:	029b      	lsls	r3, r3, #10
 8003f14:	4013      	ands	r3, r2
 8003f16:	d0f0      	beq.n	8003efa <HAL_RCC_OscConfig+0xee>
 8003f18:	e015      	b.n	8003f46 <HAL_RCC_OscConfig+0x13a>
        }
      }
      else
      {
        /* Get Start Tick */
        tickstart = HAL_GetTick();
 8003f1a:	f7fd faab 	bl	8001474 <HAL_GetTick>
 8003f1e:	0003      	movs	r3, r0
 8003f20:	61bb      	str	r3, [r7, #24]
        
        /* Wait till HSE is disabled */
        while(__HAL_RCC_GET_FLAG(RCC_FLAG_HSERDY) != RESET)
 8003f22:	e008      	b.n	8003f36 <HAL_RCC_OscConfig+0x12a>
        {
           if((HAL_GetTick() - tickstart ) > HSE_TIMEOUT_VALUE)
 8003f24:	f7fd faa6 	bl	8001474 <HAL_GetTick>
 8003f28:	0002      	movs	r2, r0
 8003f2a:	69bb      	ldr	r3, [r7, #24]
 8003f2c:	1ad3      	subs	r3, r2, r3
 8003f2e:	2b64      	cmp	r3, #100	; 0x64
 8003f30:	d901      	bls.n	8003f36 <HAL_RCC_OscConfig+0x12a>
          {
            return HAL_TIMEOUT;
 8003f32:	2303      	movs	r3, #3
 8003f34:	e275      	b.n	8004422 <HAL_RCC_OscConfig+0x616>
        while(__HAL_RCC_GET_FLAG(RCC_FLAG_HSERDY) != RESET)
 8003f36:	4b80      	ldr	r3, [pc, #512]	; (8004138 <HAL_RCC_OscConfig+0x32c>)
 8003f38:	681a      	ldr	r2, [r3, #0]
 8003f3a:	2380      	movs	r3, #128	; 0x80
 8003f3c:	029b      	lsls	r3, r3, #10
 8003f3e:	4013      	ands	r3, r2
 8003f40:	d1f0      	bne.n	8003f24 <HAL_RCC_OscConfig+0x118>
 8003f42:	e000      	b.n	8003f46 <HAL_RCC_OscConfig+0x13a>
      if((__HAL_RCC_GET_FLAG(RCC_FLAG_HSERDY) != RESET) && (RCC_OscInitStruct->HSEState == RCC_HSE_OFF))
 8003f44:	46c0      	nop			; (mov r8, r8)
        }
      }
    }
  }
  /*----------------------------- HSI Configuration --------------------------*/ 
  if(((RCC_OscInitStruct->OscillatorType) & RCC_OSCILLATORTYPE_HSI) == RCC_OSCILLATORTYPE_HSI)
 8003f46:	687b      	ldr	r3, [r7, #4]
 8003f48:	681b      	ldr	r3, [r3, #0]
 8003f4a:	2202      	movs	r2, #2
 8003f4c:	4013      	ands	r3, r2
 8003f4e:	d100      	bne.n	8003f52 <HAL_RCC_OscConfig+0x146>
 8003f50:	e069      	b.n	8004026 <HAL_RCC_OscConfig+0x21a>
    /* Check the parameters */
    assert_param(IS_RCC_HSI(RCC_OscInitStruct->HSIState));
    assert_param(IS_RCC_CALIBRATION_VALUE(RCC_OscInitStruct->HSICalibrationValue));
    
    /* Check if HSI is used as system clock or as PLL source when PLL is selected as system clock */ 
    if((__HAL_RCC_GET_SYSCLK_SOURCE() == RCC_SYSCLKSOURCE_STATUS_HSI) 
 8003f52:	4b79      	ldr	r3, [pc, #484]	; (8004138 <HAL_RCC_OscConfig+0x32c>)
 8003f54:	685b      	ldr	r3, [r3, #4]
 8003f56:	220c      	movs	r2, #12
 8003f58:	4013      	ands	r3, r2
 8003f5a:	d00b      	beq.n	8003f74 <HAL_RCC_OscConfig+0x168>
       || ((__HAL_RCC_GET_SYSCLK_SOURCE() == RCC_SYSCLKSOURCE_STATUS_PLLCLK) && (__HAL_RCC_GET_PLL_OSCSOURCE() == RCC_PLLSOURCE_HSI)))
 8003f5c:	4b76      	ldr	r3, [pc, #472]	; (8004138 <HAL_RCC_OscConfig+0x32c>)
 8003f5e:	685b      	ldr	r3, [r3, #4]
 8003f60:	220c      	movs	r2, #12
 8003f62:	4013      	ands	r3, r2
 8003f64:	2b08      	cmp	r3, #8
 8003f66:	d11c      	bne.n	8003fa2 <HAL_RCC_OscConfig+0x196>
 8003f68:	4b73      	ldr	r3, [pc, #460]	; (8004138 <HAL_RCC_OscConfig+0x32c>)
 8003f6a:	685a      	ldr	r2, [r3, #4]
 8003f6c:	2380      	movs	r3, #128	; 0x80
 8003f6e:	025b      	lsls	r3, r3, #9
 8003f70:	4013      	ands	r3, r2
 8003f72:	d116      	bne.n	8003fa2 <HAL_RCC_OscConfig+0x196>
    {
      /* When HSI is used as system clock it will not disabled */
      if((__HAL_RCC_GET_FLAG(RCC_FLAG_HSIRDY) != RESET) && (RCC_OscInitStruct->HSIState != RCC_HSI_ON))
 8003f74:	4b70      	ldr	r3, [pc, #448]	; (8004138 <HAL_RCC_OscConfig+0x32c>)
 8003f76:	681b      	ldr	r3, [r3, #0]
 8003f78:	2202      	movs	r2, #2
 8003f7a:	4013      	ands	r3, r2
 8003f7c:	d005      	beq.n	8003f8a <HAL_RCC_OscConfig+0x17e>
 8003f7e:	687b      	ldr	r3, [r7, #4]
 8003f80:	68db      	ldr	r3, [r3, #12]
 8003f82:	2b01      	cmp	r3, #1
 8003f84:	d001      	beq.n	8003f8a <HAL_RCC_OscConfig+0x17e>
      {
        return HAL_ERROR;
 8003f86:	2301      	movs	r3, #1
 8003f88:	e24b      	b.n	8004422 <HAL_RCC_OscConfig+0x616>
      }
      /* Otherwise, just the calibration is allowed */
      else
      {
        /* Adjusts the Internal High Speed oscillator (HSI) calibration value.*/
        __HAL_RCC_HSI_CALIBRATIONVALUE_ADJUST(RCC_OscInitStruct->HSICalibrationValue);
 8003f8a:	4b6b      	ldr	r3, [pc, #428]	; (8004138 <HAL_RCC_OscConfig+0x32c>)
 8003f8c:	681b      	ldr	r3, [r3, #0]
 8003f8e:	22f8      	movs	r2, #248	; 0xf8
 8003f90:	4393      	bics	r3, r2
 8003f92:	0019      	movs	r1, r3
 8003f94:	687b      	ldr	r3, [r7, #4]
 8003f96:	691b      	ldr	r3, [r3, #16]
 8003f98:	00da      	lsls	r2, r3, #3
 8003f9a:	4b67      	ldr	r3, [pc, #412]	; (8004138 <HAL_RCC_OscConfig+0x32c>)
 8003f9c:	430a      	orrs	r2, r1
 8003f9e:	601a      	str	r2, [r3, #0]
      if((__HAL_RCC_GET_FLAG(RCC_FLAG_HSIRDY) != RESET) && (RCC_OscInitStruct->HSIState != RCC_HSI_ON))
 8003fa0:	e041      	b.n	8004026 <HAL_RCC_OscConfig+0x21a>
      }
    }
    else
    {
      /* Check the HSI State */
      if(RCC_OscInitStruct->HSIState != RCC_HSI_OFF)
 8003fa2:	687b      	ldr	r3, [r7, #4]
 8003fa4:	68db      	ldr	r3, [r3, #12]
 8003fa6:	2b00      	cmp	r3, #0
 8003fa8:	d024      	beq.n	8003ff4 <HAL_RCC_OscConfig+0x1e8>
      {
       /* Enable the Internal High Speed oscillator (HSI). */
        __HAL_RCC_HSI_ENABLE();
 8003faa:	4b63      	ldr	r3, [pc, #396]	; (8004138 <HAL_RCC_OscConfig+0x32c>)
 8003fac:	681a      	ldr	r2, [r3, #0]
 8003fae:	4b62      	ldr	r3, [pc, #392]	; (8004138 <HAL_RCC_OscConfig+0x32c>)
 8003fb0:	2101      	movs	r1, #1
 8003fb2:	430a      	orrs	r2, r1
 8003fb4:	601a      	str	r2, [r3, #0]
        
        /* Get Start Tick */
        tickstart = HAL_GetTick();
 8003fb6:	f7fd fa5d 	bl	8001474 <HAL_GetTick>
 8003fba:	0003      	movs	r3, r0
 8003fbc:	61bb      	str	r3, [r7, #24]
        
        /* Wait till HSI is ready */
        while(__HAL_RCC_GET_FLAG(RCC_FLAG_HSIRDY) == RESET)
 8003fbe:	e008      	b.n	8003fd2 <HAL_RCC_OscConfig+0x1c6>
        {
          if((HAL_GetTick() - tickstart ) > HSI_TIMEOUT_VALUE)
 8003fc0:	f7fd fa58 	bl	8001474 <HAL_GetTick>
 8003fc4:	0002      	movs	r2, r0
 8003fc6:	69bb      	ldr	r3, [r7, #24]
 8003fc8:	1ad3      	subs	r3, r2, r3
 8003fca:	2b02      	cmp	r3, #2
 8003fcc:	d901      	bls.n	8003fd2 <HAL_RCC_OscConfig+0x1c6>
          {
            return HAL_TIMEOUT;
 8003fce:	2303      	movs	r3, #3
 8003fd0:	e227      	b.n	8004422 <HAL_RCC_OscConfig+0x616>
        while(__HAL_RCC_GET_FLAG(RCC_FLAG_HSIRDY) == RESET)
 8003fd2:	4b59      	ldr	r3, [pc, #356]	; (8004138 <HAL_RCC_OscConfig+0x32c>)
 8003fd4:	681b      	ldr	r3, [r3, #0]
 8003fd6:	2202      	movs	r2, #2
 8003fd8:	4013      	ands	r3, r2
 8003fda:	d0f1      	beq.n	8003fc0 <HAL_RCC_OscConfig+0x1b4>
          }
        }
                
        /* Adjusts the Internal High Speed oscillator (HSI) calibration value.*/
        __HAL_RCC_HSI_CALIBRATIONVALUE_ADJUST(RCC_OscInitStruct->HSICalibrationValue);
 8003fdc:	4b56      	ldr	r3, [pc, #344]	; (8004138 <HAL_RCC_OscConfig+0x32c>)
 8003fde:	681b      	ldr	r3, [r3, #0]
 8003fe0:	22f8      	movs	r2, #248	; 0xf8
 8003fe2:	4393      	bics	r3, r2
 8003fe4:	0019      	movs	r1, r3
 8003fe6:	687b      	ldr	r3, [r7, #4]
 8003fe8:	691b      	ldr	r3, [r3, #16]
 8003fea:	00da      	lsls	r2, r3, #3
 8003fec:	4b52      	ldr	r3, [pc, #328]	; (8004138 <HAL_RCC_OscConfig+0x32c>)
 8003fee:	430a      	orrs	r2, r1
 8003ff0:	601a      	str	r2, [r3, #0]
 8003ff2:	e018      	b.n	8004026 <HAL_RCC_OscConfig+0x21a>
      }
      else
      {
        /* Disable the Internal High Speed oscillator (HSI). */
        __HAL_RCC_HSI_DISABLE();
 8003ff4:	4b50      	ldr	r3, [pc, #320]	; (8004138 <HAL_RCC_OscConfig+0x32c>)
 8003ff6:	681a      	ldr	r2, [r3, #0]
 8003ff8:	4b4f      	ldr	r3, [pc, #316]	; (8004138 <HAL_RCC_OscConfig+0x32c>)
 8003ffa:	2101      	movs	r1, #1
 8003ffc:	438a      	bics	r2, r1
 8003ffe:	601a      	str	r2, [r3, #0]
        
        /* Get Start Tick */
        tickstart = HAL_GetTick();
 8004000:	f7fd fa38 	bl	8001474 <HAL_GetTick>
 8004004:	0003      	movs	r3, r0
 8004006:	61bb      	str	r3, [r7, #24]
        
        /* Wait till HSI is disabled */
        while(__HAL_RCC_GET_FLAG(RCC_FLAG_HSIRDY) != RESET)
 8004008:	e008      	b.n	800401c <HAL_RCC_OscConfig+0x210>
        {
          if((HAL_GetTick() - tickstart ) > HSI_TIMEOUT_VALUE)
 800400a:	f7fd fa33 	bl	8001474 <HAL_GetTick>
 800400e:	0002      	movs	r2, r0
 8004010:	69bb      	ldr	r3, [r7, #24]
 8004012:	1ad3      	subs	r3, r2, r3
 8004014:	2b02      	cmp	r3, #2
 8004016:	d901      	bls.n	800401c <HAL_RCC_OscConfig+0x210>
          {
            return HAL_TIMEOUT;
 8004018:	2303      	movs	r3, #3
 800401a:	e202      	b.n	8004422 <HAL_RCC_OscConfig+0x616>
        while(__HAL_RCC_GET_FLAG(RCC_FLAG_HSIRDY) != RESET)
 800401c:	4b46      	ldr	r3, [pc, #280]	; (8004138 <HAL_RCC_OscConfig+0x32c>)
 800401e:	681b      	ldr	r3, [r3, #0]
 8004020:	2202      	movs	r2, #2
 8004022:	4013      	ands	r3, r2
 8004024:	d1f1      	bne.n	800400a <HAL_RCC_OscConfig+0x1fe>
        }
      }
    }
  }
  /*------------------------------ LSI Configuration -------------------------*/ 
  if(((RCC_OscInitStruct->OscillatorType) & RCC_OSCILLATORTYPE_LSI) == RCC_OSCILLATORTYPE_LSI)
 8004026:	687b      	ldr	r3, [r7, #4]
 8004028:	681b      	ldr	r3, [r3, #0]
 800402a:	2208      	movs	r2, #8
 800402c:	4013      	ands	r3, r2
 800402e:	d036      	beq.n	800409e <HAL_RCC_OscConfig+0x292>
  {
    /* Check the parameters */
    assert_param(IS_RCC_LSI(RCC_OscInitStruct->LSIState));
    
    /* Check the LSI State */
    if(RCC_OscInitStruct->LSIState != RCC_LSI_OFF)
 8004030:	687b      	ldr	r3, [r7, #4]
 8004032:	69db      	ldr	r3, [r3, #28]
 8004034:	2b00      	cmp	r3, #0
 8004036:	d019      	beq.n	800406c <HAL_RCC_OscConfig+0x260>
    {
      /* Enable the Internal Low Speed oscillator (LSI). */
      __HAL_RCC_LSI_ENABLE();
 8004038:	4b3f      	ldr	r3, [pc, #252]	; (8004138 <HAL_RCC_OscConfig+0x32c>)
 800403a:	6a5a      	ldr	r2, [r3, #36]	; 0x24
 800403c:	4b3e      	ldr	r3, [pc, #248]	; (8004138 <HAL_RCC_OscConfig+0x32c>)
 800403e:	2101      	movs	r1, #1
 8004040:	430a      	orrs	r2, r1
 8004042:	625a      	str	r2, [r3, #36]	; 0x24
      
      /* Get Start Tick */
      tickstart = HAL_GetTick();
 8004044:	f7fd fa16 	bl	8001474 <HAL_GetTick>
 8004048:	0003      	movs	r3, r0
 800404a:	61bb      	str	r3, [r7, #24]
      
      /* Wait till LSI is ready */  
      while(__HAL_RCC_GET_FLAG(RCC_FLAG_LSIRDY) == RESET)
 800404c:	e008      	b.n	8004060 <HAL_RCC_OscConfig+0x254>
      {
        if((HAL_GetTick() - tickstart ) > LSI_TIMEOUT_VALUE)
 800404e:	f7fd fa11 	bl	8001474 <HAL_GetTick>
 8004052:	0002      	movs	r2, r0
 8004054:	69bb      	ldr	r3, [r7, #24]
 8004056:	1ad3      	subs	r3, r2, r3
 8004058:	2b02      	cmp	r3, #2
 800405a:	d901      	bls.n	8004060 <HAL_RCC_OscConfig+0x254>
        {
          return HAL_TIMEOUT;
 800405c:	2303      	movs	r3, #3
 800405e:	e1e0      	b.n	8004422 <HAL_RCC_OscConfig+0x616>
      while(__HAL_RCC_GET_FLAG(RCC_FLAG_LSIRDY) == RESET)
 8004060:	4b35      	ldr	r3, [pc, #212]	; (8004138 <HAL_RCC_OscConfig+0x32c>)
 8004062:	6a5b      	ldr	r3, [r3, #36]	; 0x24
 8004064:	2202      	movs	r2, #2
 8004066:	4013      	ands	r3, r2
 8004068:	d0f1      	beq.n	800404e <HAL_RCC_OscConfig+0x242>
 800406a:	e018      	b.n	800409e <HAL_RCC_OscConfig+0x292>
      }
    }
    else
    {
      /* Disable the Internal Low Speed oscillator (LSI). */
      __HAL_RCC_LSI_DISABLE();
 800406c:	4b32      	ldr	r3, [pc, #200]	; (8004138 <HAL_RCC_OscConfig+0x32c>)
 800406e:	6a5a      	ldr	r2, [r3, #36]	; 0x24
 8004070:	4b31      	ldr	r3, [pc, #196]	; (8004138 <HAL_RCC_OscConfig+0x32c>)
 8004072:	2101      	movs	r1, #1
 8004074:	438a      	bics	r2, r1
 8004076:	625a      	str	r2, [r3, #36]	; 0x24
      
      /* Get Start Tick */
      tickstart = HAL_GetTick();
 8004078:	f7fd f9fc 	bl	8001474 <HAL_GetTick>
 800407c:	0003      	movs	r3, r0
 800407e:	61bb      	str	r3, [r7, #24]
      
      /* Wait till LSI is disabled */  
      while(__HAL_RCC_GET_FLAG(RCC_FLAG_LSIRDY) != RESET)
 8004080:	e008      	b.n	8004094 <HAL_RCC_OscConfig+0x288>
      {
        if((HAL_GetTick() - tickstart ) > LSI_TIMEOUT_VALUE)
 8004082:	f7fd f9f7 	bl	8001474 <HAL_GetTick>
 8004086:	0002      	movs	r2, r0
 8004088:	69bb      	ldr	r3, [r7, #24]
 800408a:	1ad3      	subs	r3, r2, r3
 800408c:	2b02      	cmp	r3, #2
 800408e:	d901      	bls.n	8004094 <HAL_RCC_OscConfig+0x288>
        {
          return HAL_TIMEOUT;
 8004090:	2303      	movs	r3, #3
 8004092:	e1c6      	b.n	8004422 <HAL_RCC_OscConfig+0x616>
      while(__HAL_RCC_GET_FLAG(RCC_FLAG_LSIRDY) != RESET)
 8004094:	4b28      	ldr	r3, [pc, #160]	; (8004138 <HAL_RCC_OscConfig+0x32c>)
 8004096:	6a5b      	ldr	r3, [r3, #36]	; 0x24
 8004098:	2202      	movs	r2, #2
 800409a:	4013      	ands	r3, r2
 800409c:	d1f1      	bne.n	8004082 <HAL_RCC_OscConfig+0x276>
        }
      }
    }
  }
  /*------------------------------ LSE Configuration -------------------------*/ 
  if(((RCC_OscInitStruct->OscillatorType) & RCC_OSCILLATORTYPE_LSE) == RCC_OSCILLATORTYPE_LSE)
 800409e:	687b      	ldr	r3, [r7, #4]
 80040a0:	681b      	ldr	r3, [r3, #0]
 80040a2:	2204      	movs	r2, #4
 80040a4:	4013      	ands	r3, r2
 80040a6:	d100      	bne.n	80040aa <HAL_RCC_OscConfig+0x29e>
 80040a8:	e0b4      	b.n	8004214 <HAL_RCC_OscConfig+0x408>
  {
    FlagStatus       pwrclkchanged = RESET;
 80040aa:	201f      	movs	r0, #31
 80040ac:	183b      	adds	r3, r7, r0
 80040ae:	2200      	movs	r2, #0
 80040b0:	701a      	strb	r2, [r3, #0]
    /* Check the parameters */
    assert_param(IS_RCC_LSE(RCC_OscInitStruct->LSEState));

    /* Update LSE configuration in Backup Domain control register    */
    /* Requires to enable write access to Backup Domain of necessary */
    if(__HAL_RCC_PWR_IS_CLK_DISABLED())
 80040b2:	4b21      	ldr	r3, [pc, #132]	; (8004138 <HAL_RCC_OscConfig+0x32c>)
 80040b4:	69da      	ldr	r2, [r3, #28]
 80040b6:	2380      	movs	r3, #128	; 0x80
 80040b8:	055b      	lsls	r3, r3, #21
 80040ba:	4013      	ands	r3, r2
 80040bc:	d110      	bne.n	80040e0 <HAL_RCC_OscConfig+0x2d4>
    {
      __HAL_RCC_PWR_CLK_ENABLE();
 80040be:	4b1e      	ldr	r3, [pc, #120]	; (8004138 <HAL_RCC_OscConfig+0x32c>)
 80040c0:	69da      	ldr	r2, [r3, #28]
 80040c2:	4b1d      	ldr	r3, [pc, #116]	; (8004138 <HAL_RCC_OscConfig+0x32c>)
 80040c4:	2180      	movs	r1, #128	; 0x80
 80040c6:	0549      	lsls	r1, r1, #21
 80040c8:	430a      	orrs	r2, r1
 80040ca:	61da      	str	r2, [r3, #28]
 80040cc:	4b1a      	ldr	r3, [pc, #104]	; (8004138 <HAL_RCC_OscConfig+0x32c>)
 80040ce:	69da      	ldr	r2, [r3, #28]
 80040d0:	2380      	movs	r3, #128	; 0x80
 80040d2:	055b      	lsls	r3, r3, #21
 80040d4:	4013      	ands	r3, r2
 80040d6:	60fb      	str	r3, [r7, #12]
 80040d8:	68fb      	ldr	r3, [r7, #12]
      pwrclkchanged = SET;
 80040da:	183b      	adds	r3, r7, r0
 80040dc:	2201      	movs	r2, #1
 80040de:	701a      	strb	r2, [r3, #0]
    }
    
    if(HAL_IS_BIT_CLR(PWR->CR, PWR_CR_DBP))
 80040e0:	4b18      	ldr	r3, [pc, #96]	; (8004144 <HAL_RCC_OscConfig+0x338>)
 80040e2:	681a      	ldr	r2, [r3, #0]
 80040e4:	2380      	movs	r3, #128	; 0x80
 80040e6:	005b      	lsls	r3, r3, #1
 80040e8:	4013      	ands	r3, r2
 80040ea:	d11a      	bne.n	8004122 <HAL_RCC_OscConfig+0x316>
    {
      /* Enable write access to Backup domain */
      SET_BIT(PWR->CR, PWR_CR_DBP);
 80040ec:	4b15      	ldr	r3, [pc, #84]	; (8004144 <HAL_RCC_OscConfig+0x338>)
 80040ee:	681a      	ldr	r2, [r3, #0]
 80040f0:	4b14      	ldr	r3, [pc, #80]	; (8004144 <HAL_RCC_OscConfig+0x338>)
 80040f2:	2180      	movs	r1, #128	; 0x80
 80040f4:	0049      	lsls	r1, r1, #1
 80040f6:	430a      	orrs	r2, r1
 80040f8:	601a      	str	r2, [r3, #0]
      
      /* Wait for Backup domain Write protection disable */
      tickstart = HAL_GetTick();
 80040fa:	f7fd f9bb 	bl	8001474 <HAL_GetTick>
 80040fe:	0003      	movs	r3, r0
 8004100:	61bb      	str	r3, [r7, #24]

      while(HAL_IS_BIT_CLR(PWR->CR, PWR_CR_DBP))
 8004102:	e008      	b.n	8004116 <HAL_RCC_OscConfig+0x30a>
      {
        if((HAL_GetTick() - tickstart) > RCC_DBP_TIMEOUT_VALUE)
 8004104:	f7fd f9b6 	bl	8001474 <HAL_GetTick>
 8004108:	0002      	movs	r2, r0
 800410a:	69bb      	ldr	r3, [r7, #24]
 800410c:	1ad3      	subs	r3, r2, r3
 800410e:	2b64      	cmp	r3, #100	; 0x64
 8004110:	d901      	bls.n	8004116 <HAL_RCC_OscConfig+0x30a>
        {
          return HAL_TIMEOUT;
 8004112:	2303      	movs	r3, #3
 8004114:	e185      	b.n	8004422 <HAL_RCC_OscConfig+0x616>
      while(HAL_IS_BIT_CLR(PWR->CR, PWR_CR_DBP))
 8004116:	4b0b      	ldr	r3, [pc, #44]	; (8004144 <HAL_RCC_OscConfig+0x338>)
 8004118:	681a      	ldr	r2, [r3, #0]
 800411a:	2380      	movs	r3, #128	; 0x80
 800411c:	005b      	lsls	r3, r3, #1
 800411e:	4013      	ands	r3, r2
 8004120:	d0f0      	beq.n	8004104 <HAL_RCC_OscConfig+0x2f8>
        }
      }
    }

    /* Set the new LSE configuration -----------------------------------------*/
    __HAL_RCC_LSE_CONFIG(RCC_OscInitStruct->LSEState);
 8004122:	687b      	ldr	r3, [r7, #4]
 8004124:	689b      	ldr	r3, [r3, #8]
 8004126:	2b01      	cmp	r3, #1
 8004128:	d10e      	bne.n	8004148 <HAL_RCC_OscConfig+0x33c>
 800412a:	4b03      	ldr	r3, [pc, #12]	; (8004138 <HAL_RCC_OscConfig+0x32c>)
 800412c:	6a1a      	ldr	r2, [r3, #32]
 800412e:	4b02      	ldr	r3, [pc, #8]	; (8004138 <HAL_RCC_OscConfig+0x32c>)
 8004130:	2101      	movs	r1, #1
 8004132:	430a      	orrs	r2, r1
 8004134:	621a      	str	r2, [r3, #32]
 8004136:	e035      	b.n	80041a4 <HAL_RCC_OscConfig+0x398>
 8004138:	40021000 	.word	0x40021000
 800413c:	fffeffff 	.word	0xfffeffff
 8004140:	fffbffff 	.word	0xfffbffff
 8004144:	40007000 	.word	0x40007000
 8004148:	687b      	ldr	r3, [r7, #4]
 800414a:	689b      	ldr	r3, [r3, #8]
 800414c:	2b00      	cmp	r3, #0
 800414e:	d10c      	bne.n	800416a <HAL_RCC_OscConfig+0x35e>
 8004150:	4bb6      	ldr	r3, [pc, #728]	; (800442c <HAL_RCC_OscConfig+0x620>)
 8004152:	6a1a      	ldr	r2, [r3, #32]
 8004154:	4bb5      	ldr	r3, [pc, #724]	; (800442c <HAL_RCC_OscConfig+0x620>)
 8004156:	2101      	movs	r1, #1
 8004158:	438a      	bics	r2, r1
 800415a:	621a      	str	r2, [r3, #32]
 800415c:	4bb3      	ldr	r3, [pc, #716]	; (800442c <HAL_RCC_OscConfig+0x620>)
 800415e:	6a1a      	ldr	r2, [r3, #32]
 8004160:	4bb2      	ldr	r3, [pc, #712]	; (800442c <HAL_RCC_OscConfig+0x620>)
 8004162:	2104      	movs	r1, #4
 8004164:	438a      	bics	r2, r1
 8004166:	621a      	str	r2, [r3, #32]
 8004168:	e01c      	b.n	80041a4 <HAL_RCC_OscConfig+0x398>
 800416a:	687b      	ldr	r3, [r7, #4]
 800416c:	689b      	ldr	r3, [r3, #8]
 800416e:	2b05      	cmp	r3, #5
 8004170:	d10c      	bne.n	800418c <HAL_RCC_OscConfig+0x380>
 8004172:	4bae      	ldr	r3, [pc, #696]	; (800442c <HAL_RCC_OscConfig+0x620>)
 8004174:	6a1a      	ldr	r2, [r3, #32]
 8004176:	4bad      	ldr	r3, [pc, #692]	; (800442c <HAL_RCC_OscConfig+0x620>)
 8004178:	2104      	movs	r1, #4
 800417a:	430a      	orrs	r2, r1
 800417c:	621a      	str	r2, [r3, #32]
 800417e:	4bab      	ldr	r3, [pc, #684]	; (800442c <HAL_RCC_OscConfig+0x620>)
 8004180:	6a1a      	ldr	r2, [r3, #32]
 8004182:	4baa      	ldr	r3, [pc, #680]	; (800442c <HAL_RCC_OscConfig+0x620>)
 8004184:	2101      	movs	r1, #1
 8004186:	430a      	orrs	r2, r1
 8004188:	621a      	str	r2, [r3, #32]
 800418a:	e00b      	b.n	80041a4 <HAL_RCC_OscConfig+0x398>
 800418c:	4ba7      	ldr	r3, [pc, #668]	; (800442c <HAL_RCC_OscConfig+0x620>)
 800418e:	6a1a      	ldr	r2, [r3, #32]
 8004190:	4ba6      	ldr	r3, [pc, #664]	; (800442c <HAL_RCC_OscConfig+0x620>)
 8004192:	2101      	movs	r1, #1
 8004194:	438a      	bics	r2, r1
 8004196:	621a      	str	r2, [r3, #32]
 8004198:	4ba4      	ldr	r3, [pc, #656]	; (800442c <HAL_RCC_OscConfig+0x620>)
 800419a:	6a1a      	ldr	r2, [r3, #32]
 800419c:	4ba3      	ldr	r3, [pc, #652]	; (800442c <HAL_RCC_OscConfig+0x620>)
 800419e:	2104      	movs	r1, #4
 80041a0:	438a      	bics	r2, r1
 80041a2:	621a      	str	r2, [r3, #32]
    /* Check the LSE State */
    if(RCC_OscInitStruct->LSEState != RCC_LSE_OFF)
 80041a4:	687b      	ldr	r3, [r7, #4]
 80041a6:	689b      	ldr	r3, [r3, #8]
 80041a8:	2b00      	cmp	r3, #0
 80041aa:	d014      	beq.n	80041d6 <HAL_RCC_OscConfig+0x3ca>
    {
      /* Get Start Tick */
      tickstart = HAL_GetTick();
 80041ac:	f7fd f962 	bl	8001474 <HAL_GetTick>
 80041b0:	0003      	movs	r3, r0
 80041b2:	61bb      	str	r3, [r7, #24]
      
      /* Wait till LSE is ready */  
      while(__HAL_RCC_GET_FLAG(RCC_FLAG_LSERDY) == RESET)
 80041b4:	e009      	b.n	80041ca <HAL_RCC_OscConfig+0x3be>
      {
        if((HAL_GetTick() - tickstart ) > RCC_LSE_TIMEOUT_VALUE)
 80041b6:	f7fd f95d 	bl	8001474 <HAL_GetTick>
 80041ba:	0002      	movs	r2, r0
 80041bc:	69bb      	ldr	r3, [r7, #24]
 80041be:	1ad3      	subs	r3, r2, r3
 80041c0:	4a9b      	ldr	r2, [pc, #620]	; (8004430 <HAL_RCC_OscConfig+0x624>)
 80041c2:	4293      	cmp	r3, r2
 80041c4:	d901      	bls.n	80041ca <HAL_RCC_OscConfig+0x3be>
        {
          return HAL_TIMEOUT;
 80041c6:	2303      	movs	r3, #3
 80041c8:	e12b      	b.n	8004422 <HAL_RCC_OscConfig+0x616>
      while(__HAL_RCC_GET_FLAG(RCC_FLAG_LSERDY) == RESET)
 80041ca:	4b98      	ldr	r3, [pc, #608]	; (800442c <HAL_RCC_OscConfig+0x620>)
 80041cc:	6a1b      	ldr	r3, [r3, #32]
 80041ce:	2202      	movs	r2, #2
 80041d0:	4013      	ands	r3, r2
 80041d2:	d0f0      	beq.n	80041b6 <HAL_RCC_OscConfig+0x3aa>
 80041d4:	e013      	b.n	80041fe <HAL_RCC_OscConfig+0x3f2>
      }
    }
    else
    {
      /* Get Start Tick */
      tickstart = HAL_GetTick();
 80041d6:	f7fd f94d 	bl	8001474 <HAL_GetTick>
 80041da:	0003      	movs	r3, r0
 80041dc:	61bb      	str	r3, [r7, #24]
      
      /* Wait till LSE is disabled */  
      while(__HAL_RCC_GET_FLAG(RCC_FLAG_LSERDY) != RESET)
 80041de:	e009      	b.n	80041f4 <HAL_RCC_OscConfig+0x3e8>
      {
        if((HAL_GetTick() - tickstart ) > RCC_LSE_TIMEOUT_VALUE)
 80041e0:	f7fd f948 	bl	8001474 <HAL_GetTick>
 80041e4:	0002      	movs	r2, r0
 80041e6:	69bb      	ldr	r3, [r7, #24]
 80041e8:	1ad3      	subs	r3, r2, r3
 80041ea:	4a91      	ldr	r2, [pc, #580]	; (8004430 <HAL_RCC_OscConfig+0x624>)
 80041ec:	4293      	cmp	r3, r2
 80041ee:	d901      	bls.n	80041f4 <HAL_RCC_OscConfig+0x3e8>
        {
          return HAL_TIMEOUT;
 80041f0:	2303      	movs	r3, #3
 80041f2:	e116      	b.n	8004422 <HAL_RCC_OscConfig+0x616>
      while(__HAL_RCC_GET_FLAG(RCC_FLAG_LSERDY) != RESET)
 80041f4:	4b8d      	ldr	r3, [pc, #564]	; (800442c <HAL_RCC_OscConfig+0x620>)
 80041f6:	6a1b      	ldr	r3, [r3, #32]
 80041f8:	2202      	movs	r2, #2
 80041fa:	4013      	ands	r3, r2
 80041fc:	d1f0      	bne.n	80041e0 <HAL_RCC_OscConfig+0x3d4>
        }
      }
    }

    /* Require to disable power clock if necessary */
    if(pwrclkchanged == SET)
 80041fe:	231f      	movs	r3, #31
 8004200:	18fb      	adds	r3, r7, r3
 8004202:	781b      	ldrb	r3, [r3, #0]
 8004204:	2b01      	cmp	r3, #1
 8004206:	d105      	bne.n	8004214 <HAL_RCC_OscConfig+0x408>
    {
      __HAL_RCC_PWR_CLK_DISABLE();
 8004208:	4b88      	ldr	r3, [pc, #544]	; (800442c <HAL_RCC_OscConfig+0x620>)
 800420a:	69da      	ldr	r2, [r3, #28]
 800420c:	4b87      	ldr	r3, [pc, #540]	; (800442c <HAL_RCC_OscConfig+0x620>)
 800420e:	4989      	ldr	r1, [pc, #548]	; (8004434 <HAL_RCC_OscConfig+0x628>)
 8004210:	400a      	ands	r2, r1
 8004212:	61da      	str	r2, [r3, #28]
    }
  }

  /*----------------------------- HSI14 Configuration --------------------------*/
  if(((RCC_OscInitStruct->OscillatorType) & RCC_OSCILLATORTYPE_HSI14) == RCC_OSCILLATORTYPE_HSI14)
 8004214:	687b      	ldr	r3, [r7, #4]
 8004216:	681b      	ldr	r3, [r3, #0]
 8004218:	2210      	movs	r2, #16
 800421a:	4013      	ands	r3, r2
 800421c:	d063      	beq.n	80042e6 <HAL_RCC_OscConfig+0x4da>
    /* Check the parameters */
    assert_param(IS_RCC_HSI14(RCC_OscInitStruct->HSI14State));
    assert_param(IS_RCC_CALIBRATION_VALUE(RCC_OscInitStruct->HSI14CalibrationValue));

    /* Check the HSI14 State */
    if(RCC_OscInitStruct->HSI14State == RCC_HSI14_ON)
 800421e:	687b      	ldr	r3, [r7, #4]
 8004220:	695b      	ldr	r3, [r3, #20]
 8004222:	2b01      	cmp	r3, #1
 8004224:	d12a      	bne.n	800427c <HAL_RCC_OscConfig+0x470>
    {
      /* Disable ADC control of the Internal High Speed oscillator HSI14 */
      __HAL_RCC_HSI14ADC_DISABLE();
 8004226:	4b81      	ldr	r3, [pc, #516]	; (800442c <HAL_RCC_OscConfig+0x620>)
 8004228:	6b5a      	ldr	r2, [r3, #52]	; 0x34
 800422a:	4b80      	ldr	r3, [pc, #512]	; (800442c <HAL_RCC_OscConfig+0x620>)
 800422c:	2104      	movs	r1, #4
 800422e:	430a      	orrs	r2, r1
 8004230:	635a      	str	r2, [r3, #52]	; 0x34

      /* Enable the Internal High Speed oscillator (HSI). */
      __HAL_RCC_HSI14_ENABLE();
 8004232:	4b7e      	ldr	r3, [pc, #504]	; (800442c <HAL_RCC_OscConfig+0x620>)
 8004234:	6b5a      	ldr	r2, [r3, #52]	; 0x34
 8004236:	4b7d      	ldr	r3, [pc, #500]	; (800442c <HAL_RCC_OscConfig+0x620>)
 8004238:	2101      	movs	r1, #1
 800423a:	430a      	orrs	r2, r1
 800423c:	635a      	str	r2, [r3, #52]	; 0x34

      /* Get Start Tick */
      tickstart = HAL_GetTick();
 800423e:	f7fd f919 	bl	8001474 <HAL_GetTick>
 8004242:	0003      	movs	r3, r0
 8004244:	61bb      	str	r3, [r7, #24]
      
      /* Wait till HSI is ready */  
      while(__HAL_RCC_GET_FLAG(RCC_FLAG_HSI14RDY) == RESET)
 8004246:	e008      	b.n	800425a <HAL_RCC_OscConfig+0x44e>
      {
        if((HAL_GetTick() - tickstart) > HSI14_TIMEOUT_VALUE)
 8004248:	f7fd f914 	bl	8001474 <HAL_GetTick>
 800424c:	0002      	movs	r2, r0
 800424e:	69bb      	ldr	r3, [r7, #24]
 8004250:	1ad3      	subs	r3, r2, r3
 8004252:	2b02      	cmp	r3, #2
 8004254:	d901      	bls.n	800425a <HAL_RCC_OscConfig+0x44e>
        {
          return HAL_TIMEOUT;
 8004256:	2303      	movs	r3, #3
 8004258:	e0e3      	b.n	8004422 <HAL_RCC_OscConfig+0x616>
      while(__HAL_RCC_GET_FLAG(RCC_FLAG_HSI14RDY) == RESET)
 800425a:	4b74      	ldr	r3, [pc, #464]	; (800442c <HAL_RCC_OscConfig+0x620>)
 800425c:	6b5b      	ldr	r3, [r3, #52]	; 0x34
 800425e:	2202      	movs	r2, #2
 8004260:	4013      	ands	r3, r2
 8004262:	d0f1      	beq.n	8004248 <HAL_RCC_OscConfig+0x43c>
        }      
      } 

      /* Adjusts the Internal High Speed oscillator 14Mhz (HSI14) calibration value. */
      __HAL_RCC_HSI14_CALIBRATIONVALUE_ADJUST(RCC_OscInitStruct->HSI14CalibrationValue);
 8004264:	4b71      	ldr	r3, [pc, #452]	; (800442c <HAL_RCC_OscConfig+0x620>)
 8004266:	6b5b      	ldr	r3, [r3, #52]	; 0x34
 8004268:	22f8      	movs	r2, #248	; 0xf8
 800426a:	4393      	bics	r3, r2
 800426c:	0019      	movs	r1, r3
 800426e:	687b      	ldr	r3, [r7, #4]
 8004270:	699b      	ldr	r3, [r3, #24]
 8004272:	00da      	lsls	r2, r3, #3
 8004274:	4b6d      	ldr	r3, [pc, #436]	; (800442c <HAL_RCC_OscConfig+0x620>)
 8004276:	430a      	orrs	r2, r1
 8004278:	635a      	str	r2, [r3, #52]	; 0x34
 800427a:	e034      	b.n	80042e6 <HAL_RCC_OscConfig+0x4da>
    }
    else if(RCC_OscInitStruct->HSI14State == RCC_HSI14_ADC_CONTROL)
 800427c:	687b      	ldr	r3, [r7, #4]
 800427e:	695b      	ldr	r3, [r3, #20]
 8004280:	3305      	adds	r3, #5
 8004282:	d111      	bne.n	80042a8 <HAL_RCC_OscConfig+0x49c>
    {
      /* Enable ADC control of the Internal High Speed oscillator HSI14 */
      __HAL_RCC_HSI14ADC_ENABLE();
 8004284:	4b69      	ldr	r3, [pc, #420]	; (800442c <HAL_RCC_OscConfig+0x620>)
 8004286:	6b5a      	ldr	r2, [r3, #52]	; 0x34
 8004288:	4b68      	ldr	r3, [pc, #416]	; (800442c <HAL_RCC_OscConfig+0x620>)
 800428a:	2104      	movs	r1, #4
 800428c:	438a      	bics	r2, r1
 800428e:	635a      	str	r2, [r3, #52]	; 0x34

      /* Adjusts the Internal High Speed oscillator 14Mhz (HSI14) calibration value. */
      __HAL_RCC_HSI14_CALIBRATIONVALUE_ADJUST(RCC_OscInitStruct->HSI14CalibrationValue);
 8004290:	4b66      	ldr	r3, [pc, #408]	; (800442c <HAL_RCC_OscConfig+0x620>)
 8004292:	6b5b      	ldr	r3, [r3, #52]	; 0x34
 8004294:	22f8      	movs	r2, #248	; 0xf8
 8004296:	4393      	bics	r3, r2
 8004298:	0019      	movs	r1, r3
 800429a:	687b      	ldr	r3, [r7, #4]
 800429c:	699b      	ldr	r3, [r3, #24]
 800429e:	00da      	lsls	r2, r3, #3
 80042a0:	4b62      	ldr	r3, [pc, #392]	; (800442c <HAL_RCC_OscConfig+0x620>)
 80042a2:	430a      	orrs	r2, r1
 80042a4:	635a      	str	r2, [r3, #52]	; 0x34
 80042a6:	e01e      	b.n	80042e6 <HAL_RCC_OscConfig+0x4da>
    }
    else
    {
      /* Disable ADC control of the Internal High Speed oscillator HSI14 */
      __HAL_RCC_HSI14ADC_DISABLE();
 80042a8:	4b60      	ldr	r3, [pc, #384]	; (800442c <HAL_RCC_OscConfig+0x620>)
 80042aa:	6b5a      	ldr	r2, [r3, #52]	; 0x34
 80042ac:	4b5f      	ldr	r3, [pc, #380]	; (800442c <HAL_RCC_OscConfig+0x620>)
 80042ae:	2104      	movs	r1, #4
 80042b0:	430a      	orrs	r2, r1
 80042b2:	635a      	str	r2, [r3, #52]	; 0x34

      /* Disable the Internal High Speed oscillator (HSI). */
      __HAL_RCC_HSI14_DISABLE();
 80042b4:	4b5d      	ldr	r3, [pc, #372]	; (800442c <HAL_RCC_OscConfig+0x620>)
 80042b6:	6b5a      	ldr	r2, [r3, #52]	; 0x34
 80042b8:	4b5c      	ldr	r3, [pc, #368]	; (800442c <HAL_RCC_OscConfig+0x620>)
 80042ba:	2101      	movs	r1, #1
 80042bc:	438a      	bics	r2, r1
 80042be:	635a      	str	r2, [r3, #52]	; 0x34

      /* Get Start Tick */
      tickstart = HAL_GetTick();
 80042c0:	f7fd f8d8 	bl	8001474 <HAL_GetTick>
 80042c4:	0003      	movs	r3, r0
 80042c6:	61bb      	str	r3, [r7, #24]
      
      /* Wait till HSI is ready */  
      while(__HAL_RCC_GET_FLAG(RCC_FLAG_HSI14RDY) != RESET)
 80042c8:	e008      	b.n	80042dc <HAL_RCC_OscConfig+0x4d0>
      {
        if((HAL_GetTick() - tickstart) > HSI14_TIMEOUT_VALUE)
 80042ca:	f7fd f8d3 	bl	8001474 <HAL_GetTick>
 80042ce:	0002      	movs	r2, r0
 80042d0:	69bb      	ldr	r3, [r7, #24]
 80042d2:	1ad3      	subs	r3, r2, r3
 80042d4:	2b02      	cmp	r3, #2
 80042d6:	d901      	bls.n	80042dc <HAL_RCC_OscConfig+0x4d0>
        {
          return HAL_TIMEOUT;
 80042d8:	2303      	movs	r3, #3
 80042da:	e0a2      	b.n	8004422 <HAL_RCC_OscConfig+0x616>
      while(__HAL_RCC_GET_FLAG(RCC_FLAG_HSI14RDY) != RESET)
 80042dc:	4b53      	ldr	r3, [pc, #332]	; (800442c <HAL_RCC_OscConfig+0x620>)
 80042de:	6b5b      	ldr	r3, [r3, #52]	; 0x34
 80042e0:	2202      	movs	r2, #2
 80042e2:	4013      	ands	r3, r2
 80042e4:	d1f1      	bne.n	80042ca <HAL_RCC_OscConfig+0x4be>
#endif /* RCC_HSI48_SUPPORT */
       
  /*-------------------------------- PLL Configuration -----------------------*/
  /* Check the parameters */
  assert_param(IS_RCC_PLL(RCC_OscInitStruct->PLL.PLLState));
  if ((RCC_OscInitStruct->PLL.PLLState) != RCC_PLL_NONE)
 80042e6:	687b      	ldr	r3, [r7, #4]
 80042e8:	6a1b      	ldr	r3, [r3, #32]
 80042ea:	2b00      	cmp	r3, #0
 80042ec:	d100      	bne.n	80042f0 <HAL_RCC_OscConfig+0x4e4>
 80042ee:	e097      	b.n	8004420 <HAL_RCC_OscConfig+0x614>
  {
    /* Check if the PLL is used as system clock or not */
    if(__HAL_RCC_GET_SYSCLK_SOURCE() != RCC_SYSCLKSOURCE_STATUS_PLLCLK)
 80042f0:	4b4e      	ldr	r3, [pc, #312]	; (800442c <HAL_RCC_OscConfig+0x620>)
 80042f2:	685b      	ldr	r3, [r3, #4]
 80042f4:	220c      	movs	r2, #12
 80042f6:	4013      	ands	r3, r2
 80042f8:	2b08      	cmp	r3, #8
 80042fa:	d100      	bne.n	80042fe <HAL_RCC_OscConfig+0x4f2>
 80042fc:	e06b      	b.n	80043d6 <HAL_RCC_OscConfig+0x5ca>
    { 
      if((RCC_OscInitStruct->PLL.PLLState) == RCC_PLL_ON)
 80042fe:	687b      	ldr	r3, [r7, #4]
 8004300:	6a1b      	ldr	r3, [r3, #32]
 8004302:	2b02      	cmp	r3, #2
 8004304:	d14c      	bne.n	80043a0 <HAL_RCC_OscConfig+0x594>
        assert_param(IS_RCC_PLLSOURCE(RCC_OscInitStruct->PLL.PLLSource));
        assert_param(IS_RCC_PLL_MUL(RCC_OscInitStruct->PLL.PLLMUL));
        assert_param(IS_RCC_PREDIV(RCC_OscInitStruct->PLL.PREDIV));
  
        /* Disable the main PLL. */
        __HAL_RCC_PLL_DISABLE();
 8004306:	4b49      	ldr	r3, [pc, #292]	; (800442c <HAL_RCC_OscConfig+0x620>)
 8004308:	681a      	ldr	r2, [r3, #0]
 800430a:	4b48      	ldr	r3, [pc, #288]	; (800442c <HAL_RCC_OscConfig+0x620>)
 800430c:	494a      	ldr	r1, [pc, #296]	; (8004438 <HAL_RCC_OscConfig+0x62c>)
 800430e:	400a      	ands	r2, r1
 8004310:	601a      	str	r2, [r3, #0]
        
        /* Get Start Tick */
        tickstart = HAL_GetTick();
 8004312:	f7fd f8af 	bl	8001474 <HAL_GetTick>
 8004316:	0003      	movs	r3, r0
 8004318:	61bb      	str	r3, [r7, #24]
        
        /* Wait till PLL is disabled */
        while(__HAL_RCC_GET_FLAG(RCC_FLAG_PLLRDY)  != RESET)
 800431a:	e008      	b.n	800432e <HAL_RCC_OscConfig+0x522>
        {
          if((HAL_GetTick() - tickstart ) > PLL_TIMEOUT_VALUE)
 800431c:	f7fd f8aa 	bl	8001474 <HAL_GetTick>
 8004320:	0002      	movs	r2, r0
 8004322:	69bb      	ldr	r3, [r7, #24]
 8004324:	1ad3      	subs	r3, r2, r3
 8004326:	2b02      	cmp	r3, #2
 8004328:	d901      	bls.n	800432e <HAL_RCC_OscConfig+0x522>
          {
            return HAL_TIMEOUT;
 800432a:	2303      	movs	r3, #3
 800432c:	e079      	b.n	8004422 <HAL_RCC_OscConfig+0x616>
        while(__HAL_RCC_GET_FLAG(RCC_FLAG_PLLRDY)  != RESET)
 800432e:	4b3f      	ldr	r3, [pc, #252]	; (800442c <HAL_RCC_OscConfig+0x620>)
 8004330:	681a      	ldr	r2, [r3, #0]
 8004332:	2380      	movs	r3, #128	; 0x80
 8004334:	049b      	lsls	r3, r3, #18
 8004336:	4013      	ands	r3, r2
 8004338:	d1f0      	bne.n	800431c <HAL_RCC_OscConfig+0x510>
          }
        }

        /* Configure the main PLL clock source, predivider and multiplication factor. */
        __HAL_RCC_PLL_CONFIG(RCC_OscInitStruct->PLL.PLLSource,
 800433a:	4b3c      	ldr	r3, [pc, #240]	; (800442c <HAL_RCC_OscConfig+0x620>)
 800433c:	6adb      	ldr	r3, [r3, #44]	; 0x2c
 800433e:	220f      	movs	r2, #15
 8004340:	4393      	bics	r3, r2
 8004342:	0019      	movs	r1, r3
 8004344:	687b      	ldr	r3, [r7, #4]
 8004346:	6ada      	ldr	r2, [r3, #44]	; 0x2c
 8004348:	4b38      	ldr	r3, [pc, #224]	; (800442c <HAL_RCC_OscConfig+0x620>)
 800434a:	430a      	orrs	r2, r1
 800434c:	62da      	str	r2, [r3, #44]	; 0x2c
 800434e:	4b37      	ldr	r3, [pc, #220]	; (800442c <HAL_RCC_OscConfig+0x620>)
 8004350:	685b      	ldr	r3, [r3, #4]
 8004352:	4a3a      	ldr	r2, [pc, #232]	; (800443c <HAL_RCC_OscConfig+0x630>)
 8004354:	4013      	ands	r3, r2
 8004356:	0019      	movs	r1, r3
 8004358:	687b      	ldr	r3, [r7, #4]
 800435a:	6a9a      	ldr	r2, [r3, #40]	; 0x28
 800435c:	687b      	ldr	r3, [r7, #4]
 800435e:	6a5b      	ldr	r3, [r3, #36]	; 0x24
 8004360:	431a      	orrs	r2, r3
 8004362:	4b32      	ldr	r3, [pc, #200]	; (800442c <HAL_RCC_OscConfig+0x620>)
 8004364:	430a      	orrs	r2, r1
 8004366:	605a      	str	r2, [r3, #4]
                             RCC_OscInitStruct->PLL.PREDIV,
                             RCC_OscInitStruct->PLL.PLLMUL);
        /* Enable the main PLL. */
        __HAL_RCC_PLL_ENABLE();
 8004368:	4b30      	ldr	r3, [pc, #192]	; (800442c <HAL_RCC_OscConfig+0x620>)
 800436a:	681a      	ldr	r2, [r3, #0]
 800436c:	4b2f      	ldr	r3, [pc, #188]	; (800442c <HAL_RCC_OscConfig+0x620>)
 800436e:	2180      	movs	r1, #128	; 0x80
 8004370:	0449      	lsls	r1, r1, #17
 8004372:	430a      	orrs	r2, r1
 8004374:	601a      	str	r2, [r3, #0]
        
        /* Get Start Tick */
        tickstart = HAL_GetTick();
 8004376:	f7fd f87d 	bl	8001474 <HAL_GetTick>
 800437a:	0003      	movs	r3, r0
 800437c:	61bb      	str	r3, [r7, #24]
        
        /* Wait till PLL is ready */
        while(__HAL_RCC_GET_FLAG(RCC_FLAG_PLLRDY)  == RESET)
 800437e:	e008      	b.n	8004392 <HAL_RCC_OscConfig+0x586>
        {
          if((HAL_GetTick() - tickstart ) > PLL_TIMEOUT_VALUE)
 8004380:	f7fd f878 	bl	8001474 <HAL_GetTick>
 8004384:	0002      	movs	r2, r0
 8004386:	69bb      	ldr	r3, [r7, #24]
 8004388:	1ad3      	subs	r3, r2, r3
 800438a:	2b02      	cmp	r3, #2
 800438c:	d901      	bls.n	8004392 <HAL_RCC_OscConfig+0x586>
          {
            return HAL_TIMEOUT;
 800438e:	2303      	movs	r3, #3
 8004390:	e047      	b.n	8004422 <HAL_RCC_OscConfig+0x616>
        while(__HAL_RCC_GET_FLAG(RCC_FLAG_PLLRDY)  == RESET)
 8004392:	4b26      	ldr	r3, [pc, #152]	; (800442c <HAL_RCC_OscConfig+0x620>)
 8004394:	681a      	ldr	r2, [r3, #0]
 8004396:	2380      	movs	r3, #128	; 0x80
 8004398:	049b      	lsls	r3, r3, #18
 800439a:	4013      	ands	r3, r2
 800439c:	d0f0      	beq.n	8004380 <HAL_RCC_OscConfig+0x574>
 800439e:	e03f      	b.n	8004420 <HAL_RCC_OscConfig+0x614>
        }
      }
      else
      {
        /* Disable the main PLL. */
        __HAL_RCC_PLL_DISABLE();
 80043a0:	4b22      	ldr	r3, [pc, #136]	; (800442c <HAL_RCC_OscConfig+0x620>)
 80043a2:	681a      	ldr	r2, [r3, #0]
 80043a4:	4b21      	ldr	r3, [pc, #132]	; (800442c <HAL_RCC_OscConfig+0x620>)
 80043a6:	4924      	ldr	r1, [pc, #144]	; (8004438 <HAL_RCC_OscConfig+0x62c>)
 80043a8:	400a      	ands	r2, r1
 80043aa:	601a      	str	r2, [r3, #0]
 
        /* Get Start Tick */
        tickstart = HAL_GetTick();
 80043ac:	f7fd f862 	bl	8001474 <HAL_GetTick>
 80043b0:	0003      	movs	r3, r0
 80043b2:	61bb      	str	r3, [r7, #24]
        
        /* Wait till PLL is disabled */  
        while(__HAL_RCC_GET_FLAG(RCC_FLAG_PLLRDY)  != RESET)
 80043b4:	e008      	b.n	80043c8 <HAL_RCC_OscConfig+0x5bc>
        {
          if((HAL_GetTick() - tickstart ) > PLL_TIMEOUT_VALUE)
 80043b6:	f7fd f85d 	bl	8001474 <HAL_GetTick>
 80043ba:	0002      	movs	r2, r0
 80043bc:	69bb      	ldr	r3, [r7, #24]
 80043be:	1ad3      	subs	r3, r2, r3
 80043c0:	2b02      	cmp	r3, #2
 80043c2:	d901      	bls.n	80043c8 <HAL_RCC_OscConfig+0x5bc>
          {
            return HAL_TIMEOUT;
 80043c4:	2303      	movs	r3, #3
 80043c6:	e02c      	b.n	8004422 <HAL_RCC_OscConfig+0x616>
        while(__HAL_RCC_GET_FLAG(RCC_FLAG_PLLRDY)  != RESET)
 80043c8:	4b18      	ldr	r3, [pc, #96]	; (800442c <HAL_RCC_OscConfig+0x620>)
 80043ca:	681a      	ldr	r2, [r3, #0]
 80043cc:	2380      	movs	r3, #128	; 0x80
 80043ce:	049b      	lsls	r3, r3, #18
 80043d0:	4013      	ands	r3, r2
 80043d2:	d1f0      	bne.n	80043b6 <HAL_RCC_OscConfig+0x5aa>
 80043d4:	e024      	b.n	8004420 <HAL_RCC_OscConfig+0x614>
      }
    }
    else
    {
      /* Check if there is a request to disable the PLL used as System clock source */
      if((RCC_OscInitStruct->PLL.PLLState) == RCC_PLL_OFF)
 80043d6:	687b      	ldr	r3, [r7, #4]
 80043d8:	6a1b      	ldr	r3, [r3, #32]
 80043da:	2b01      	cmp	r3, #1
 80043dc:	d101      	bne.n	80043e2 <HAL_RCC_OscConfig+0x5d6>
      {
        return HAL_ERROR;
 80043de:	2301      	movs	r3, #1
 80043e0:	e01f      	b.n	8004422 <HAL_RCC_OscConfig+0x616>
      }
      else
      {
        /* Do not return HAL_ERROR if request repeats the current configuration */
        pll_config  = RCC->CFGR;
 80043e2:	4b12      	ldr	r3, [pc, #72]	; (800442c <HAL_RCC_OscConfig+0x620>)
 80043e4:	685b      	ldr	r3, [r3, #4]
 80043e6:	617b      	str	r3, [r7, #20]
        pll_config2 = RCC->CFGR2;
 80043e8:	4b10      	ldr	r3, [pc, #64]	; (800442c <HAL_RCC_OscConfig+0x620>)
 80043ea:	6adb      	ldr	r3, [r3, #44]	; 0x2c
 80043ec:	613b      	str	r3, [r7, #16]
        if((READ_BIT(pll_config,  RCC_CFGR_PLLSRC)  != RCC_OscInitStruct->PLL.PLLSource) ||
 80043ee:	697a      	ldr	r2, [r7, #20]
 80043f0:	2380      	movs	r3, #128	; 0x80
 80043f2:	025b      	lsls	r3, r3, #9
 80043f4:	401a      	ands	r2, r3
 80043f6:	687b      	ldr	r3, [r7, #4]
 80043f8:	6a5b      	ldr	r3, [r3, #36]	; 0x24
 80043fa:	429a      	cmp	r2, r3
 80043fc:	d10e      	bne.n	800441c <HAL_RCC_OscConfig+0x610>
           (READ_BIT(pll_config2, RCC_CFGR2_PREDIV) != RCC_OscInitStruct->PLL.PREDIV)    ||
 80043fe:	693b      	ldr	r3, [r7, #16]
 8004400:	220f      	movs	r2, #15
 8004402:	401a      	ands	r2, r3
 8004404:	687b      	ldr	r3, [r7, #4]
 8004406:	6adb      	ldr	r3, [r3, #44]	; 0x2c
        if((READ_BIT(pll_config,  RCC_CFGR_PLLSRC)  != RCC_OscInitStruct->PLL.PLLSource) ||
 8004408:	429a      	cmp	r2, r3
 800440a:	d107      	bne.n	800441c <HAL_RCC_OscConfig+0x610>
           (READ_BIT(pll_config,  RCC_CFGR_PLLMUL)  != RCC_OscInitStruct->PLL.PLLMUL))
 800440c:	697a      	ldr	r2, [r7, #20]
 800440e:	23f0      	movs	r3, #240	; 0xf0
 8004410:	039b      	lsls	r3, r3, #14
 8004412:	401a      	ands	r2, r3
 8004414:	687b      	ldr	r3, [r7, #4]
 8004416:	6a9b      	ldr	r3, [r3, #40]	; 0x28
           (READ_BIT(pll_config2, RCC_CFGR2_PREDIV) != RCC_OscInitStruct->PLL.PREDIV)    ||
 8004418:	429a      	cmp	r2, r3
 800441a:	d001      	beq.n	8004420 <HAL_RCC_OscConfig+0x614>
        {
          return HAL_ERROR;
 800441c:	2301      	movs	r3, #1
 800441e:	e000      	b.n	8004422 <HAL_RCC_OscConfig+0x616>
        }
      }
    }
  }

  return HAL_OK;
 8004420:	2300      	movs	r3, #0
}
 8004422:	0018      	movs	r0, r3
 8004424:	46bd      	mov	sp, r7
 8004426:	b008      	add	sp, #32
 8004428:	bd80      	pop	{r7, pc}
 800442a:	46c0      	nop			; (mov r8, r8)
 800442c:	40021000 	.word	0x40021000
 8004430:	00001388 	.word	0x00001388
 8004434:	efffffff 	.word	0xefffffff
 8004438:	feffffff 	.word	0xfeffffff
 800443c:	ffc2ffff 	.word	0xffc2ffff

08004440 <HAL_RCC_ClockConfig>:
  *         You can use @ref HAL_RCC_GetClockConfig() function to know which clock is
  *         currently used as system clock source.
  * @retval HAL status
  */
HAL_StatusTypeDef HAL_RCC_ClockConfig(RCC_ClkInitTypeDef  *RCC_ClkInitStruct, uint32_t FLatency)
{
 8004440:	b580      	push	{r7, lr}
 8004442:	b084      	sub	sp, #16
 8004444:	af00      	add	r7, sp, #0
 8004446:	6078      	str	r0, [r7, #4]
 8004448:	6039      	str	r1, [r7, #0]
  uint32_t tickstart;

  /* Check Null pointer */
  if(RCC_ClkInitStruct == NULL)
 800444a:	687b      	ldr	r3, [r7, #4]
 800444c:	2b00      	cmp	r3, #0
 800444e:	d101      	bne.n	8004454 <HAL_RCC_ClockConfig+0x14>
  {
    return HAL_ERROR;
 8004450:	2301      	movs	r3, #1
 8004452:	e0b3      	b.n	80045bc <HAL_RCC_ClockConfig+0x17c>
  /* To correctly read data from FLASH memory, the number of wait states (LATENCY) 
  must be correctly programmed according to the frequency of the CPU clock 
    (HCLK) of the device. */

  /* Increasing the number of wait states because of higher CPU frequency */
  if(FLatency > __HAL_FLASH_GET_LATENCY())
 8004454:	4b5b      	ldr	r3, [pc, #364]	; (80045c4 <HAL_RCC_ClockConfig+0x184>)
 8004456:	681b      	ldr	r3, [r3, #0]
 8004458:	2201      	movs	r2, #1
 800445a:	4013      	ands	r3, r2
 800445c:	683a      	ldr	r2, [r7, #0]
 800445e:	429a      	cmp	r2, r3
 8004460:	d911      	bls.n	8004486 <HAL_RCC_ClockConfig+0x46>
  {    
    /* Program the new number of wait states to the LATENCY bits in the FLASH_ACR register */
    __HAL_FLASH_SET_LATENCY(FLatency);
 8004462:	4b58      	ldr	r3, [pc, #352]	; (80045c4 <HAL_RCC_ClockConfig+0x184>)
 8004464:	681b      	ldr	r3, [r3, #0]
 8004466:	2201      	movs	r2, #1
 8004468:	4393      	bics	r3, r2
 800446a:	0019      	movs	r1, r3
 800446c:	4b55      	ldr	r3, [pc, #340]	; (80045c4 <HAL_RCC_ClockConfig+0x184>)
 800446e:	683a      	ldr	r2, [r7, #0]
 8004470:	430a      	orrs	r2, r1
 8004472:	601a      	str	r2, [r3, #0]
    
    /* Check that the new number of wait states is taken into account to access the Flash
    memory by reading the FLASH_ACR register */
    if(__HAL_FLASH_GET_LATENCY() != FLatency)
 8004474:	4b53      	ldr	r3, [pc, #332]	; (80045c4 <HAL_RCC_ClockConfig+0x184>)
 8004476:	681b      	ldr	r3, [r3, #0]
 8004478:	2201      	movs	r2, #1
 800447a:	4013      	ands	r3, r2
 800447c:	683a      	ldr	r2, [r7, #0]
 800447e:	429a      	cmp	r2, r3
 8004480:	d001      	beq.n	8004486 <HAL_RCC_ClockConfig+0x46>
    {
      return HAL_ERROR;
 8004482:	2301      	movs	r3, #1
 8004484:	e09a      	b.n	80045bc <HAL_RCC_ClockConfig+0x17c>
    }
  }

  /*-------------------------- HCLK Configuration --------------------------*/
  if(((RCC_ClkInitStruct->ClockType) & RCC_CLOCKTYPE_HCLK) == RCC_CLOCKTYPE_HCLK)
 8004486:	687b      	ldr	r3, [r7, #4]
 8004488:	681b      	ldr	r3, [r3, #0]
 800448a:	2202      	movs	r2, #2
 800448c:	4013      	ands	r3, r2
 800448e:	d015      	beq.n	80044bc <HAL_RCC_ClockConfig+0x7c>
  {
    /* Set the highest APB divider in order to ensure that we do not go through
       a non-spec phase whatever we decrease or increase HCLK. */
    if(((RCC_ClkInitStruct->ClockType) & RCC_CLOCKTYPE_PCLK1) == RCC_CLOCKTYPE_PCLK1)
 8004490:	687b      	ldr	r3, [r7, #4]
 8004492:	681b      	ldr	r3, [r3, #0]
 8004494:	2204      	movs	r2, #4
 8004496:	4013      	ands	r3, r2
 8004498:	d006      	beq.n	80044a8 <HAL_RCC_ClockConfig+0x68>
    {
      MODIFY_REG(RCC->CFGR, RCC_CFGR_PPRE, RCC_HCLK_DIV16);
 800449a:	4b4b      	ldr	r3, [pc, #300]	; (80045c8 <HAL_RCC_ClockConfig+0x188>)
 800449c:	685a      	ldr	r2, [r3, #4]
 800449e:	4b4a      	ldr	r3, [pc, #296]	; (80045c8 <HAL_RCC_ClockConfig+0x188>)
 80044a0:	21e0      	movs	r1, #224	; 0xe0
 80044a2:	00c9      	lsls	r1, r1, #3
 80044a4:	430a      	orrs	r2, r1
 80044a6:	605a      	str	r2, [r3, #4]
    }

    /* Set the new HCLK clock divider */
    assert_param(IS_RCC_HCLK(RCC_ClkInitStruct->AHBCLKDivider));
    MODIFY_REG(RCC->CFGR, RCC_CFGR_HPRE, RCC_ClkInitStruct->AHBCLKDivider);
 80044a8:	4b47      	ldr	r3, [pc, #284]	; (80045c8 <HAL_RCC_ClockConfig+0x188>)
 80044aa:	685b      	ldr	r3, [r3, #4]
 80044ac:	22f0      	movs	r2, #240	; 0xf0
 80044ae:	4393      	bics	r3, r2
 80044b0:	0019      	movs	r1, r3
 80044b2:	687b      	ldr	r3, [r7, #4]
 80044b4:	689a      	ldr	r2, [r3, #8]
 80044b6:	4b44      	ldr	r3, [pc, #272]	; (80045c8 <HAL_RCC_ClockConfig+0x188>)
 80044b8:	430a      	orrs	r2, r1
 80044ba:	605a      	str	r2, [r3, #4]
  }

  /*------------------------- SYSCLK Configuration ---------------------------*/ 
  if(((RCC_ClkInitStruct->ClockType) & RCC_CLOCKTYPE_SYSCLK) == RCC_CLOCKTYPE_SYSCLK)
 80044bc:	687b      	ldr	r3, [r7, #4]
 80044be:	681b      	ldr	r3, [r3, #0]
 80044c0:	2201      	movs	r2, #1
 80044c2:	4013      	ands	r3, r2
 80044c4:	d040      	beq.n	8004548 <HAL_RCC_ClockConfig+0x108>
  {
    assert_param(IS_RCC_SYSCLKSOURCE(RCC_ClkInitStruct->SYSCLKSource));
    
    /* HSE is selected as System Clock Source */
    if(RCC_ClkInitStruct->SYSCLKSource == RCC_SYSCLKSOURCE_HSE)
 80044c6:	687b      	ldr	r3, [r7, #4]
 80044c8:	685b      	ldr	r3, [r3, #4]
 80044ca:	2b01      	cmp	r3, #1
 80044cc:	d107      	bne.n	80044de <HAL_RCC_ClockConfig+0x9e>
    {
      /* Check the HSE ready flag */  
      if(__HAL_RCC_GET_FLAG(RCC_FLAG_HSERDY) == RESET)
 80044ce:	4b3e      	ldr	r3, [pc, #248]	; (80045c8 <HAL_RCC_ClockConfig+0x188>)
 80044d0:	681a      	ldr	r2, [r3, #0]
 80044d2:	2380      	movs	r3, #128	; 0x80
 80044d4:	029b      	lsls	r3, r3, #10
 80044d6:	4013      	ands	r3, r2
 80044d8:	d114      	bne.n	8004504 <HAL_RCC_ClockConfig+0xc4>
      {
        return HAL_ERROR;
 80044da:	2301      	movs	r3, #1
 80044dc:	e06e      	b.n	80045bc <HAL_RCC_ClockConfig+0x17c>
      }
    }
    /* PLL is selected as System Clock Source */
    else if(RCC_ClkInitStruct->SYSCLKSource == RCC_SYSCLKSOURCE_PLLCLK)
 80044de:	687b      	ldr	r3, [r7, #4]
 80044e0:	685b      	ldr	r3, [r3, #4]
 80044e2:	2b02      	cmp	r3, #2
 80044e4:	d107      	bne.n	80044f6 <HAL_RCC_ClockConfig+0xb6>
    {
      /* Check the PLL ready flag */  
      if(__HAL_RCC_GET_FLAG(RCC_FLAG_PLLRDY) == RESET)
 80044e6:	4b38      	ldr	r3, [pc, #224]	; (80045c8 <HAL_RCC_ClockConfig+0x188>)
 80044e8:	681a      	ldr	r2, [r3, #0]
 80044ea:	2380      	movs	r3, #128	; 0x80
 80044ec:	049b      	lsls	r3, r3, #18
 80044ee:	4013      	ands	r3, r2
 80044f0:	d108      	bne.n	8004504 <HAL_RCC_ClockConfig+0xc4>
      {
        return HAL_ERROR;
 80044f2:	2301      	movs	r3, #1
 80044f4:	e062      	b.n	80045bc <HAL_RCC_ClockConfig+0x17c>
#endif /* RCC_CFGR_SWS_HSI48 */
    /* HSI is selected as System Clock Source */
    else
    {
      /* Check the HSI ready flag */  
      if(__HAL_RCC_GET_FLAG(RCC_FLAG_HSIRDY) == RESET)
 80044f6:	4b34      	ldr	r3, [pc, #208]	; (80045c8 <HAL_RCC_ClockConfig+0x188>)
 80044f8:	681b      	ldr	r3, [r3, #0]
 80044fa:	2202      	movs	r2, #2
 80044fc:	4013      	ands	r3, r2
 80044fe:	d101      	bne.n	8004504 <HAL_RCC_ClockConfig+0xc4>
      {
        return HAL_ERROR;
 8004500:	2301      	movs	r3, #1
 8004502:	e05b      	b.n	80045bc <HAL_RCC_ClockConfig+0x17c>
      }
    }
    __HAL_RCC_SYSCLK_CONFIG(RCC_ClkInitStruct->SYSCLKSource);
 8004504:	4b30      	ldr	r3, [pc, #192]	; (80045c8 <HAL_RCC_ClockConfig+0x188>)
 8004506:	685b      	ldr	r3, [r3, #4]
 8004508:	2203      	movs	r2, #3
 800450a:	4393      	bics	r3, r2
 800450c:	0019      	movs	r1, r3
 800450e:	687b      	ldr	r3, [r7, #4]
 8004510:	685a      	ldr	r2, [r3, #4]
 8004512:	4b2d      	ldr	r3, [pc, #180]	; (80045c8 <HAL_RCC_ClockConfig+0x188>)
 8004514:	430a      	orrs	r2, r1
 8004516:	605a      	str	r2, [r3, #4]

    /* Get Start Tick */
    tickstart = HAL_GetTick();
 8004518:	f7fc ffac 	bl	8001474 <HAL_GetTick>
 800451c:	0003      	movs	r3, r0
 800451e:	60fb      	str	r3, [r7, #12]
    
    while (__HAL_RCC_GET_SYSCLK_SOURCE() != (RCC_ClkInitStruct->SYSCLKSource << RCC_CFGR_SWS_Pos))
 8004520:	e009      	b.n	8004536 <HAL_RCC_ClockConfig+0xf6>
    {
      if((HAL_GetTick() - tickstart ) > CLOCKSWITCH_TIMEOUT_VALUE)
 8004522:	f7fc ffa7 	bl	8001474 <HAL_GetTick>
 8004526:	0002      	movs	r2, r0
 8004528:	68fb      	ldr	r3, [r7, #12]
 800452a:	1ad3      	subs	r3, r2, r3
 800452c:	4a27      	ldr	r2, [pc, #156]	; (80045cc <HAL_RCC_ClockConfig+0x18c>)
 800452e:	4293      	cmp	r3, r2
 8004530:	d901      	bls.n	8004536 <HAL_RCC_ClockConfig+0xf6>
      {
        return HAL_TIMEOUT;
 8004532:	2303      	movs	r3, #3
 8004534:	e042      	b.n	80045bc <HAL_RCC_ClockConfig+0x17c>
    while (__HAL_RCC_GET_SYSCLK_SOURCE() != (RCC_ClkInitStruct->SYSCLKSource << RCC_CFGR_SWS_Pos))
 8004536:	4b24      	ldr	r3, [pc, #144]	; (80045c8 <HAL_RCC_ClockConfig+0x188>)
 8004538:	685b      	ldr	r3, [r3, #4]
 800453a:	220c      	movs	r2, #12
 800453c:	401a      	ands	r2, r3
 800453e:	687b      	ldr	r3, [r7, #4]
 8004540:	685b      	ldr	r3, [r3, #4]
 8004542:	009b      	lsls	r3, r3, #2
 8004544:	429a      	cmp	r2, r3
 8004546:	d1ec      	bne.n	8004522 <HAL_RCC_ClockConfig+0xe2>
      }
    }
  }

  /* Decreasing the number of wait states because of lower CPU frequency */
  if(FLatency < __HAL_FLASH_GET_LATENCY())
 8004548:	4b1e      	ldr	r3, [pc, #120]	; (80045c4 <HAL_RCC_ClockConfig+0x184>)
 800454a:	681b      	ldr	r3, [r3, #0]
 800454c:	2201      	movs	r2, #1
 800454e:	4013      	ands	r3, r2
 8004550:	683a      	ldr	r2, [r7, #0]
 8004552:	429a      	cmp	r2, r3
 8004554:	d211      	bcs.n	800457a <HAL_RCC_ClockConfig+0x13a>
  {    
    /* Program the new number of wait states to the LATENCY bits in the FLASH_ACR register */
    __HAL_FLASH_SET_LATENCY(FLatency);
 8004556:	4b1b      	ldr	r3, [pc, #108]	; (80045c4 <HAL_RCC_ClockConfig+0x184>)
 8004558:	681b      	ldr	r3, [r3, #0]
 800455a:	2201      	movs	r2, #1
 800455c:	4393      	bics	r3, r2
 800455e:	0019      	movs	r1, r3
 8004560:	4b18      	ldr	r3, [pc, #96]	; (80045c4 <HAL_RCC_ClockConfig+0x184>)
 8004562:	683a      	ldr	r2, [r7, #0]
 8004564:	430a      	orrs	r2, r1
 8004566:	601a      	str	r2, [r3, #0]
    
    /* Check that the new number of wait states is taken into account to access the Flash
    memory by reading the FLASH_ACR register */
    if(__HAL_FLASH_GET_LATENCY() != FLatency)
 8004568:	4b16      	ldr	r3, [pc, #88]	; (80045c4 <HAL_RCC_ClockConfig+0x184>)
 800456a:	681b      	ldr	r3, [r3, #0]
 800456c:	2201      	movs	r2, #1
 800456e:	4013      	ands	r3, r2
 8004570:	683a      	ldr	r2, [r7, #0]
 8004572:	429a      	cmp	r2, r3
 8004574:	d001      	beq.n	800457a <HAL_RCC_ClockConfig+0x13a>
    {
      return HAL_ERROR;
 8004576:	2301      	movs	r3, #1
 8004578:	e020      	b.n	80045bc <HAL_RCC_ClockConfig+0x17c>
    }
  }    

  /*-------------------------- PCLK1 Configuration ---------------------------*/ 
  if(((RCC_ClkInitStruct->ClockType) & RCC_CLOCKTYPE_PCLK1) == RCC_CLOCKTYPE_PCLK1)
 800457a:	687b      	ldr	r3, [r7, #4]
 800457c:	681b      	ldr	r3, [r3, #0]
 800457e:	2204      	movs	r2, #4
 8004580:	4013      	ands	r3, r2
 8004582:	d009      	beq.n	8004598 <HAL_RCC_ClockConfig+0x158>
  {
    assert_param(IS_RCC_PCLK(RCC_ClkInitStruct->APB1CLKDivider));
    MODIFY_REG(RCC->CFGR, RCC_CFGR_PPRE, RCC_ClkInitStruct->APB1CLKDivider);
 8004584:	4b10      	ldr	r3, [pc, #64]	; (80045c8 <HAL_RCC_ClockConfig+0x188>)
 8004586:	685b      	ldr	r3, [r3, #4]
 8004588:	4a11      	ldr	r2, [pc, #68]	; (80045d0 <HAL_RCC_ClockConfig+0x190>)
 800458a:	4013      	ands	r3, r2
 800458c:	0019      	movs	r1, r3
 800458e:	687b      	ldr	r3, [r7, #4]
 8004590:	68da      	ldr	r2, [r3, #12]
 8004592:	4b0d      	ldr	r3, [pc, #52]	; (80045c8 <HAL_RCC_ClockConfig+0x188>)
 8004594:	430a      	orrs	r2, r1
 8004596:	605a      	str	r2, [r3, #4]
  }
  
  /* Update the SystemCoreClock global variable */
  SystemCoreClock = HAL_RCC_GetSysClockFreq() >> AHBPrescTable[(RCC->CFGR & RCC_CFGR_HPRE)>> RCC_CFGR_HPRE_BITNUMBER];
 8004598:	f000 f820 	bl	80045dc <HAL_RCC_GetSysClockFreq>
 800459c:	0001      	movs	r1, r0
 800459e:	4b0a      	ldr	r3, [pc, #40]	; (80045c8 <HAL_RCC_ClockConfig+0x188>)
 80045a0:	685b      	ldr	r3, [r3, #4]
 80045a2:	091b      	lsrs	r3, r3, #4
 80045a4:	220f      	movs	r2, #15
 80045a6:	4013      	ands	r3, r2
 80045a8:	4a0a      	ldr	r2, [pc, #40]	; (80045d4 <HAL_RCC_ClockConfig+0x194>)
 80045aa:	5cd3      	ldrb	r3, [r2, r3]
 80045ac:	000a      	movs	r2, r1
 80045ae:	40da      	lsrs	r2, r3
 80045b0:	4b09      	ldr	r3, [pc, #36]	; (80045d8 <HAL_RCC_ClockConfig+0x198>)
 80045b2:	601a      	str	r2, [r3, #0]

  /* Configure the source of time base considering new system clocks settings*/
  HAL_InitTick (TICK_INT_PRIORITY);
 80045b4:	2003      	movs	r0, #3
 80045b6:	f7fc ff17 	bl	80013e8 <HAL_InitTick>
  
  return HAL_OK;
 80045ba:	2300      	movs	r3, #0
}
 80045bc:	0018      	movs	r0, r3
 80045be:	46bd      	mov	sp, r7
 80045c0:	b004      	add	sp, #16
 80045c2:	bd80      	pop	{r7, pc}
 80045c4:	40022000 	.word	0x40022000
 80045c8:	40021000 	.word	0x40021000
 80045cc:	00001388 	.word	0x00001388
 80045d0:	fffff8ff 	.word	0xfffff8ff
 80045d4:	08006c04 	.word	0x08006c04
 80045d8:	20000000 	.word	0x20000000

080045dc <HAL_RCC_GetSysClockFreq>:
  *         right SYSCLK value. Otherwise, any configuration based on this function will be incorrect.
  *         
  * @retval SYSCLK frequency
  */
uint32_t HAL_RCC_GetSysClockFreq(void)
{
 80045dc:	b590      	push	{r4, r7, lr}
 80045de:	b08f      	sub	sp, #60	; 0x3c
 80045e0:	af00      	add	r7, sp, #0
  const uint8_t aPLLMULFactorTable[16] = { 2U,  3U,  4U,  5U,  6U,  7U,  8U,  9U,
 80045e2:	2314      	movs	r3, #20
 80045e4:	18fb      	adds	r3, r7, r3
 80045e6:	4a2b      	ldr	r2, [pc, #172]	; (8004694 <HAL_RCC_GetSysClockFreq+0xb8>)
 80045e8:	ca13      	ldmia	r2!, {r0, r1, r4}
 80045ea:	c313      	stmia	r3!, {r0, r1, r4}
 80045ec:	6812      	ldr	r2, [r2, #0]
 80045ee:	601a      	str	r2, [r3, #0]
                                         10U, 11U, 12U, 13U, 14U, 15U, 16U, 16U};
  const uint8_t aPredivFactorTable[16] = { 1U, 2U,  3U,  4U,  5U,  6U,  7U,  8U,
 80045f0:	1d3b      	adds	r3, r7, #4
 80045f2:	4a29      	ldr	r2, [pc, #164]	; (8004698 <HAL_RCC_GetSysClockFreq+0xbc>)
 80045f4:	ca13      	ldmia	r2!, {r0, r1, r4}
 80045f6:	c313      	stmia	r3!, {r0, r1, r4}
 80045f8:	6812      	ldr	r2, [r2, #0]
 80045fa:	601a      	str	r2, [r3, #0]
                                           9U,10U, 11U, 12U, 13U, 14U, 15U, 16U};

  uint32_t tmpreg = 0U, prediv = 0U, pllclk = 0U, pllmul = 0U;
 80045fc:	2300      	movs	r3, #0
 80045fe:	62fb      	str	r3, [r7, #44]	; 0x2c
 8004600:	2300      	movs	r3, #0
 8004602:	62bb      	str	r3, [r7, #40]	; 0x28
 8004604:	2300      	movs	r3, #0
 8004606:	637b      	str	r3, [r7, #52]	; 0x34
 8004608:	2300      	movs	r3, #0
 800460a:	627b      	str	r3, [r7, #36]	; 0x24
  uint32_t sysclockfreq = 0U;
 800460c:	2300      	movs	r3, #0
 800460e:	633b      	str	r3, [r7, #48]	; 0x30
  
  tmpreg = RCC->CFGR;
 8004610:	4b22      	ldr	r3, [pc, #136]	; (800469c <HAL_RCC_GetSysClockFreq+0xc0>)
 8004612:	685b      	ldr	r3, [r3, #4]
 8004614:	62fb      	str	r3, [r7, #44]	; 0x2c
  
  /* Get SYSCLK source -------------------------------------------------------*/
  switch (tmpreg & RCC_CFGR_SWS)
 8004616:	6afb      	ldr	r3, [r7, #44]	; 0x2c
 8004618:	220c      	movs	r2, #12
 800461a:	4013      	ands	r3, r2
 800461c:	2b04      	cmp	r3, #4
 800461e:	d002      	beq.n	8004626 <HAL_RCC_GetSysClockFreq+0x4a>
 8004620:	2b08      	cmp	r3, #8
 8004622:	d003      	beq.n	800462c <HAL_RCC_GetSysClockFreq+0x50>
 8004624:	e02d      	b.n	8004682 <HAL_RCC_GetSysClockFreq+0xa6>
  {
    case RCC_SYSCLKSOURCE_STATUS_HSE:  /* HSE used as system clock */
    {
      sysclockfreq = HSE_VALUE;
 8004626:	4b1e      	ldr	r3, [pc, #120]	; (80046a0 <HAL_RCC_GetSysClockFreq+0xc4>)
 8004628:	633b      	str	r3, [r7, #48]	; 0x30
      break;
 800462a:	e02d      	b.n	8004688 <HAL_RCC_GetSysClockFreq+0xac>
    }
    case RCC_SYSCLKSOURCE_STATUS_PLLCLK:  /* PLL used as system clock */
    {
      pllmul = aPLLMULFactorTable[(uint32_t)(tmpreg & RCC_CFGR_PLLMUL) >> RCC_CFGR_PLLMUL_BITNUMBER];
 800462c:	6afb      	ldr	r3, [r7, #44]	; 0x2c
 800462e:	0c9b      	lsrs	r3, r3, #18
 8004630:	220f      	movs	r2, #15
 8004632:	4013      	ands	r3, r2
 8004634:	2214      	movs	r2, #20
 8004636:	18ba      	adds	r2, r7, r2
 8004638:	5cd3      	ldrb	r3, [r2, r3]
 800463a:	627b      	str	r3, [r7, #36]	; 0x24
      prediv = aPredivFactorTable[(uint32_t)(RCC->CFGR2 & RCC_CFGR2_PREDIV) >> RCC_CFGR2_PREDIV_BITNUMBER];
 800463c:	4b17      	ldr	r3, [pc, #92]	; (800469c <HAL_RCC_GetSysClockFreq+0xc0>)
 800463e:	6adb      	ldr	r3, [r3, #44]	; 0x2c
 8004640:	220f      	movs	r2, #15
 8004642:	4013      	ands	r3, r2
 8004644:	1d3a      	adds	r2, r7, #4
 8004646:	5cd3      	ldrb	r3, [r2, r3]
 8004648:	62bb      	str	r3, [r7, #40]	; 0x28
      if ((tmpreg & RCC_CFGR_PLLSRC) == RCC_PLLSOURCE_HSE)
 800464a:	6afa      	ldr	r2, [r7, #44]	; 0x2c
 800464c:	2380      	movs	r3, #128	; 0x80
 800464e:	025b      	lsls	r3, r3, #9
 8004650:	4013      	ands	r3, r2
 8004652:	d009      	beq.n	8004668 <HAL_RCC_GetSysClockFreq+0x8c>
      {
        /* HSE used as PLL clock source : PLLCLK = HSE/PREDIV * PLLMUL */
        pllclk = (uint32_t)((uint64_t) HSE_VALUE / (uint64_t) (prediv)) * ((uint64_t) pllmul);
 8004654:	6ab9      	ldr	r1, [r7, #40]	; 0x28
 8004656:	4812      	ldr	r0, [pc, #72]	; (80046a0 <HAL_RCC_GetSysClockFreq+0xc4>)
 8004658:	f7fb fd68 	bl	800012c <__udivsi3>
 800465c:	0003      	movs	r3, r0
 800465e:	001a      	movs	r2, r3
 8004660:	6a7b      	ldr	r3, [r7, #36]	; 0x24
 8004662:	4353      	muls	r3, r2
 8004664:	637b      	str	r3, [r7, #52]	; 0x34
 8004666:	e009      	b.n	800467c <HAL_RCC_GetSysClockFreq+0xa0>
#if  (defined(STM32F042x6) || defined(STM32F048xx) || defined(STM32F070x6) || defined(STM32F071xB) || defined(STM32F072xB) || defined(STM32F078xx) || defined(STM32F070xB) || defined(STM32F091xC) || defined(STM32F098xx) || defined(STM32F030xC))
        /* HSI used as PLL clock source : PLLCLK = HSI/PREDIV * PLLMUL */
        pllclk = (uint32_t)((uint64_t) HSI_VALUE / (uint64_t) (prediv)) * ((uint64_t) pllmul);
#else
        /* HSI used as PLL clock source : PLLCLK = HSI/2 * PLLMUL */
        pllclk = (uint32_t)((uint64_t) (HSI_VALUE >> 1U) * ((uint64_t) pllmul));
 8004668:	6a79      	ldr	r1, [r7, #36]	; 0x24
 800466a:	000a      	movs	r2, r1
 800466c:	0152      	lsls	r2, r2, #5
 800466e:	1a52      	subs	r2, r2, r1
 8004670:	0193      	lsls	r3, r2, #6
 8004672:	1a9b      	subs	r3, r3, r2
 8004674:	00db      	lsls	r3, r3, #3
 8004676:	185b      	adds	r3, r3, r1
 8004678:	021b      	lsls	r3, r3, #8
 800467a:	637b      	str	r3, [r7, #52]	; 0x34
#endif
      }
      sysclockfreq = pllclk;
 800467c:	6b7b      	ldr	r3, [r7, #52]	; 0x34
 800467e:	633b      	str	r3, [r7, #48]	; 0x30
      break;
 8004680:	e002      	b.n	8004688 <HAL_RCC_GetSysClockFreq+0xac>
    }
#endif /* RCC_CFGR_SWS_HSI48 */
    case RCC_SYSCLKSOURCE_STATUS_HSI:  /* HSI used as system clock source */
    default: /* HSI used as system clock */
    {
      sysclockfreq = HSI_VALUE;
 8004682:	4b07      	ldr	r3, [pc, #28]	; (80046a0 <HAL_RCC_GetSysClockFreq+0xc4>)
 8004684:	633b      	str	r3, [r7, #48]	; 0x30
      break;
 8004686:	46c0      	nop			; (mov r8, r8)
    }
  }
  return sysclockfreq;
 8004688:	6b3b      	ldr	r3, [r7, #48]	; 0x30
}
 800468a:	0018      	movs	r0, r3
 800468c:	46bd      	mov	sp, r7
 800468e:	b00f      	add	sp, #60	; 0x3c
 8004690:	bd90      	pop	{r4, r7, pc}
 8004692:	46c0      	nop			; (mov r8, r8)
 8004694:	08006be4 	.word	0x08006be4
 8004698:	08006bf4 	.word	0x08006bf4
 800469c:	40021000 	.word	0x40021000
 80046a0:	007a1200 	.word	0x007a1200

080046a4 <HAL_RCC_GetHCLKFreq>:
  * @note   The SystemCoreClock CMSIS variable is used to store System Clock Frequency 
  *         and updated within this function
  * @retval HCLK frequency
  */
uint32_t HAL_RCC_GetHCLKFreq(void)
{
 80046a4:	b580      	push	{r7, lr}
 80046a6:	af00      	add	r7, sp, #0
  return SystemCoreClock;
 80046a8:	4b02      	ldr	r3, [pc, #8]	; (80046b4 <HAL_RCC_GetHCLKFreq+0x10>)
 80046aa:	681b      	ldr	r3, [r3, #0]
}
 80046ac:	0018      	movs	r0, r3
 80046ae:	46bd      	mov	sp, r7
 80046b0:	bd80      	pop	{r7, pc}
 80046b2:	46c0      	nop			; (mov r8, r8)
 80046b4:	20000000 	.word	0x20000000

080046b8 <HAL_RCC_GetPCLK1Freq>:
  * @note   Each time PCLK1 changes, this function must be called to update the
  *         right PCLK1 value. Otherwise, any configuration based on this function will be incorrect.
  * @retval PCLK1 frequency
  */
uint32_t HAL_RCC_GetPCLK1Freq(void)
{
 80046b8:	b580      	push	{r7, lr}
 80046ba:	af00      	add	r7, sp, #0
  /* Get HCLK source and Compute PCLK1 frequency ---------------------------*/
  return (HAL_RCC_GetHCLKFreq() >> APBPrescTable[(RCC->CFGR & RCC_CFGR_PPRE) >> RCC_CFGR_PPRE_BITNUMBER]);
 80046bc:	f7ff fff2 	bl	80046a4 <HAL_RCC_GetHCLKFreq>
 80046c0:	0001      	movs	r1, r0
 80046c2:	4b06      	ldr	r3, [pc, #24]	; (80046dc <HAL_RCC_GetPCLK1Freq+0x24>)
 80046c4:	685b      	ldr	r3, [r3, #4]
 80046c6:	0a1b      	lsrs	r3, r3, #8
 80046c8:	2207      	movs	r2, #7
 80046ca:	4013      	ands	r3, r2
 80046cc:	4a04      	ldr	r2, [pc, #16]	; (80046e0 <HAL_RCC_GetPCLK1Freq+0x28>)
 80046ce:	5cd3      	ldrb	r3, [r2, r3]
 80046d0:	40d9      	lsrs	r1, r3
 80046d2:	000b      	movs	r3, r1
}    
 80046d4:	0018      	movs	r0, r3
 80046d6:	46bd      	mov	sp, r7
 80046d8:	bd80      	pop	{r7, pc}
 80046da:	46c0      	nop			; (mov r8, r8)
 80046dc:	40021000 	.word	0x40021000
 80046e0:	08006c14 	.word	0x08006c14

080046e4 <HAL_RCCEx_PeriphCLKConfig>:
  *         the backup registers) and RCC_BDCR register are set to their reset values.
  *
  * @retval HAL status
  */
HAL_StatusTypeDef HAL_RCCEx_PeriphCLKConfig(RCC_PeriphCLKInitTypeDef  *PeriphClkInit)
{
 80046e4:	b580      	push	{r7, lr}
 80046e6:	b086      	sub	sp, #24
 80046e8:	af00      	add	r7, sp, #0
 80046ea:	6078      	str	r0, [r7, #4]
  uint32_t tickstart = 0U;
 80046ec:	2300      	movs	r3, #0
 80046ee:	613b      	str	r3, [r7, #16]
  uint32_t temp_reg = 0U;
 80046f0:	2300      	movs	r3, #0
 80046f2:	60fb      	str	r3, [r7, #12]

  /* Check the parameters */
  assert_param(IS_RCC_PERIPHCLOCK(PeriphClkInit->PeriphClockSelection));
  
  /*---------------------------- RTC configuration -------------------------------*/
  if(((PeriphClkInit->PeriphClockSelection) & RCC_PERIPHCLK_RTC) == (RCC_PERIPHCLK_RTC))
 80046f4:	687b      	ldr	r3, [r7, #4]
 80046f6:	681a      	ldr	r2, [r3, #0]
 80046f8:	2380      	movs	r3, #128	; 0x80
 80046fa:	025b      	lsls	r3, r3, #9
 80046fc:	4013      	ands	r3, r2
 80046fe:	d100      	bne.n	8004702 <HAL_RCCEx_PeriphCLKConfig+0x1e>
 8004700:	e08e      	b.n	8004820 <HAL_RCCEx_PeriphCLKConfig+0x13c>
  {
    /* check for RTC Parameters used to output RTCCLK */
    assert_param(IS_RCC_RTCCLKSOURCE(PeriphClkInit->RTCClockSelection));
    
    FlagStatus       pwrclkchanged = RESET;
 8004702:	2017      	movs	r0, #23
 8004704:	183b      	adds	r3, r7, r0
 8004706:	2200      	movs	r2, #0
 8004708:	701a      	strb	r2, [r3, #0]

    /* As soon as function is called to change RTC clock source, activation of the 
       power domain is done. */
    /* Requires to enable write access to Backup Domain of necessary */
    if(__HAL_RCC_PWR_IS_CLK_DISABLED())
 800470a:	4b57      	ldr	r3, [pc, #348]	; (8004868 <HAL_RCCEx_PeriphCLKConfig+0x184>)
 800470c:	69da      	ldr	r2, [r3, #28]
 800470e:	2380      	movs	r3, #128	; 0x80
 8004710:	055b      	lsls	r3, r3, #21
 8004712:	4013      	ands	r3, r2
 8004714:	d110      	bne.n	8004738 <HAL_RCCEx_PeriphCLKConfig+0x54>
    {
    __HAL_RCC_PWR_CLK_ENABLE();
 8004716:	4b54      	ldr	r3, [pc, #336]	; (8004868 <HAL_RCCEx_PeriphCLKConfig+0x184>)
 8004718:	69da      	ldr	r2, [r3, #28]
 800471a:	4b53      	ldr	r3, [pc, #332]	; (8004868 <HAL_RCCEx_PeriphCLKConfig+0x184>)
 800471c:	2180      	movs	r1, #128	; 0x80
 800471e:	0549      	lsls	r1, r1, #21
 8004720:	430a      	orrs	r2, r1
 8004722:	61da      	str	r2, [r3, #28]
 8004724:	4b50      	ldr	r3, [pc, #320]	; (8004868 <HAL_RCCEx_PeriphCLKConfig+0x184>)
 8004726:	69da      	ldr	r2, [r3, #28]
 8004728:	2380      	movs	r3, #128	; 0x80
 800472a:	055b      	lsls	r3, r3, #21
 800472c:	4013      	ands	r3, r2
 800472e:	60bb      	str	r3, [r7, #8]
 8004730:	68bb      	ldr	r3, [r7, #8]
      pwrclkchanged = SET;
 8004732:	183b      	adds	r3, r7, r0
 8004734:	2201      	movs	r2, #1
 8004736:	701a      	strb	r2, [r3, #0]
    }
    
    if(HAL_IS_BIT_CLR(PWR->CR, PWR_CR_DBP))
 8004738:	4b4c      	ldr	r3, [pc, #304]	; (800486c <HAL_RCCEx_PeriphCLKConfig+0x188>)
 800473a:	681a      	ldr	r2, [r3, #0]
 800473c:	2380      	movs	r3, #128	; 0x80
 800473e:	005b      	lsls	r3, r3, #1
 8004740:	4013      	ands	r3, r2
 8004742:	d11a      	bne.n	800477a <HAL_RCCEx_PeriphCLKConfig+0x96>
    {
      /* Enable write access to Backup domain */
      SET_BIT(PWR->CR, PWR_CR_DBP);
 8004744:	4b49      	ldr	r3, [pc, #292]	; (800486c <HAL_RCCEx_PeriphCLKConfig+0x188>)
 8004746:	681a      	ldr	r2, [r3, #0]
 8004748:	4b48      	ldr	r3, [pc, #288]	; (800486c <HAL_RCCEx_PeriphCLKConfig+0x188>)
 800474a:	2180      	movs	r1, #128	; 0x80
 800474c:	0049      	lsls	r1, r1, #1
 800474e:	430a      	orrs	r2, r1
 8004750:	601a      	str	r2, [r3, #0]
      
      /* Wait for Backup domain Write protection disable */
      tickstart = HAL_GetTick();
 8004752:	f7fc fe8f 	bl	8001474 <HAL_GetTick>
 8004756:	0003      	movs	r3, r0
 8004758:	613b      	str	r3, [r7, #16]
      
      while(HAL_IS_BIT_CLR(PWR->CR, PWR_CR_DBP))
 800475a:	e008      	b.n	800476e <HAL_RCCEx_PeriphCLKConfig+0x8a>
      {
        if((HAL_GetTick() - tickstart) > RCC_DBP_TIMEOUT_VALUE)
 800475c:	f7fc fe8a 	bl	8001474 <HAL_GetTick>
 8004760:	0002      	movs	r2, r0
 8004762:	693b      	ldr	r3, [r7, #16]
 8004764:	1ad3      	subs	r3, r2, r3
 8004766:	2b64      	cmp	r3, #100	; 0x64
 8004768:	d901      	bls.n	800476e <HAL_RCCEx_PeriphCLKConfig+0x8a>
        {
          return HAL_TIMEOUT;
 800476a:	2303      	movs	r3, #3
 800476c:	e077      	b.n	800485e <HAL_RCCEx_PeriphCLKConfig+0x17a>
      while(HAL_IS_BIT_CLR(PWR->CR, PWR_CR_DBP))
 800476e:	4b3f      	ldr	r3, [pc, #252]	; (800486c <HAL_RCCEx_PeriphCLKConfig+0x188>)
 8004770:	681a      	ldr	r2, [r3, #0]
 8004772:	2380      	movs	r3, #128	; 0x80
 8004774:	005b      	lsls	r3, r3, #1
 8004776:	4013      	ands	r3, r2
 8004778:	d0f0      	beq.n	800475c <HAL_RCCEx_PeriphCLKConfig+0x78>
        }
      }
    }
    
    /* Reset the Backup domain only if the RTC Clock source selection is modified from reset value */ 
    temp_reg = (RCC->BDCR & RCC_BDCR_RTCSEL);
 800477a:	4b3b      	ldr	r3, [pc, #236]	; (8004868 <HAL_RCCEx_PeriphCLKConfig+0x184>)
 800477c:	6a1a      	ldr	r2, [r3, #32]
 800477e:	23c0      	movs	r3, #192	; 0xc0
 8004780:	009b      	lsls	r3, r3, #2
 8004782:	4013      	ands	r3, r2
 8004784:	60fb      	str	r3, [r7, #12]
    if((temp_reg != 0x00000000U) && (temp_reg != (PeriphClkInit->RTCClockSelection & RCC_BDCR_RTCSEL)))
 8004786:	68fb      	ldr	r3, [r7, #12]
 8004788:	2b00      	cmp	r3, #0
 800478a:	d034      	beq.n	80047f6 <HAL_RCCEx_PeriphCLKConfig+0x112>
 800478c:	687b      	ldr	r3, [r7, #4]
 800478e:	685a      	ldr	r2, [r3, #4]
 8004790:	23c0      	movs	r3, #192	; 0xc0
 8004792:	009b      	lsls	r3, r3, #2
 8004794:	4013      	ands	r3, r2
 8004796:	68fa      	ldr	r2, [r7, #12]
 8004798:	429a      	cmp	r2, r3
 800479a:	d02c      	beq.n	80047f6 <HAL_RCCEx_PeriphCLKConfig+0x112>
    {
      /* Store the content of BDCR register before the reset of Backup Domain */
      temp_reg = (RCC->BDCR & ~(RCC_BDCR_RTCSEL));
 800479c:	4b32      	ldr	r3, [pc, #200]	; (8004868 <HAL_RCCEx_PeriphCLKConfig+0x184>)
 800479e:	6a1b      	ldr	r3, [r3, #32]
 80047a0:	4a33      	ldr	r2, [pc, #204]	; (8004870 <HAL_RCCEx_PeriphCLKConfig+0x18c>)
 80047a2:	4013      	ands	r3, r2
 80047a4:	60fb      	str	r3, [r7, #12]
      /* RTC Clock selection can be changed only if the Backup Domain is reset */
      __HAL_RCC_BACKUPRESET_FORCE();
 80047a6:	4b30      	ldr	r3, [pc, #192]	; (8004868 <HAL_RCCEx_PeriphCLKConfig+0x184>)
 80047a8:	6a1a      	ldr	r2, [r3, #32]
 80047aa:	4b2f      	ldr	r3, [pc, #188]	; (8004868 <HAL_RCCEx_PeriphCLKConfig+0x184>)
 80047ac:	2180      	movs	r1, #128	; 0x80
 80047ae:	0249      	lsls	r1, r1, #9
 80047b0:	430a      	orrs	r2, r1
 80047b2:	621a      	str	r2, [r3, #32]
      __HAL_RCC_BACKUPRESET_RELEASE();
 80047b4:	4b2c      	ldr	r3, [pc, #176]	; (8004868 <HAL_RCCEx_PeriphCLKConfig+0x184>)
 80047b6:	6a1a      	ldr	r2, [r3, #32]
 80047b8:	4b2b      	ldr	r3, [pc, #172]	; (8004868 <HAL_RCCEx_PeriphCLKConfig+0x184>)
 80047ba:	492e      	ldr	r1, [pc, #184]	; (8004874 <HAL_RCCEx_PeriphCLKConfig+0x190>)
 80047bc:	400a      	ands	r2, r1
 80047be:	621a      	str	r2, [r3, #32]
      /* Restore the Content of BDCR register */
      RCC->BDCR = temp_reg;
 80047c0:	4b29      	ldr	r3, [pc, #164]	; (8004868 <HAL_RCCEx_PeriphCLKConfig+0x184>)
 80047c2:	68fa      	ldr	r2, [r7, #12]
 80047c4:	621a      	str	r2, [r3, #32]
      
      /* Wait for LSERDY if LSE was enabled */
      if (HAL_IS_BIT_SET(temp_reg, RCC_BDCR_LSEON))
 80047c6:	68fb      	ldr	r3, [r7, #12]
 80047c8:	2201      	movs	r2, #1
 80047ca:	4013      	ands	r3, r2
 80047cc:	d013      	beq.n	80047f6 <HAL_RCCEx_PeriphCLKConfig+0x112>
      {
        /* Get Start Tick */
        tickstart = HAL_GetTick();
 80047ce:	f7fc fe51 	bl	8001474 <HAL_GetTick>
 80047d2:	0003      	movs	r3, r0
 80047d4:	613b      	str	r3, [r7, #16]
        
        /* Wait till LSE is ready */  
        while(__HAL_RCC_GET_FLAG(RCC_FLAG_LSERDY) == RESET)
 80047d6:	e009      	b.n	80047ec <HAL_RCCEx_PeriphCLKConfig+0x108>
        {
          if((HAL_GetTick() - tickstart) > RCC_LSE_TIMEOUT_VALUE)
 80047d8:	f7fc fe4c 	bl	8001474 <HAL_GetTick>
 80047dc:	0002      	movs	r2, r0
 80047de:	693b      	ldr	r3, [r7, #16]
 80047e0:	1ad3      	subs	r3, r2, r3
 80047e2:	4a25      	ldr	r2, [pc, #148]	; (8004878 <HAL_RCCEx_PeriphCLKConfig+0x194>)
 80047e4:	4293      	cmp	r3, r2
 80047e6:	d901      	bls.n	80047ec <HAL_RCCEx_PeriphCLKConfig+0x108>
          {
            return HAL_TIMEOUT;
 80047e8:	2303      	movs	r3, #3
 80047ea:	e038      	b.n	800485e <HAL_RCCEx_PeriphCLKConfig+0x17a>
        while(__HAL_RCC_GET_FLAG(RCC_FLAG_LSERDY) == RESET)
 80047ec:	4b1e      	ldr	r3, [pc, #120]	; (8004868 <HAL_RCCEx_PeriphCLKConfig+0x184>)
 80047ee:	6a1b      	ldr	r3, [r3, #32]
 80047f0:	2202      	movs	r2, #2
 80047f2:	4013      	ands	r3, r2
 80047f4:	d0f0      	beq.n	80047d8 <HAL_RCCEx_PeriphCLKConfig+0xf4>
          }
        }
      }
    }
    __HAL_RCC_RTC_CONFIG(PeriphClkInit->RTCClockSelection);
 80047f6:	4b1c      	ldr	r3, [pc, #112]	; (8004868 <HAL_RCCEx_PeriphCLKConfig+0x184>)
 80047f8:	6a1b      	ldr	r3, [r3, #32]
 80047fa:	4a1d      	ldr	r2, [pc, #116]	; (8004870 <HAL_RCCEx_PeriphCLKConfig+0x18c>)
 80047fc:	4013      	ands	r3, r2
 80047fe:	0019      	movs	r1, r3
 8004800:	687b      	ldr	r3, [r7, #4]
 8004802:	685a      	ldr	r2, [r3, #4]
 8004804:	4b18      	ldr	r3, [pc, #96]	; (8004868 <HAL_RCCEx_PeriphCLKConfig+0x184>)
 8004806:	430a      	orrs	r2, r1
 8004808:	621a      	str	r2, [r3, #32]

    /* Require to disable power clock if necessary */
    if(pwrclkchanged == SET)
 800480a:	2317      	movs	r3, #23
 800480c:	18fb      	adds	r3, r7, r3
 800480e:	781b      	ldrb	r3, [r3, #0]
 8004810:	2b01      	cmp	r3, #1
 8004812:	d105      	bne.n	8004820 <HAL_RCCEx_PeriphCLKConfig+0x13c>
    {
      __HAL_RCC_PWR_CLK_DISABLE();
 8004814:	4b14      	ldr	r3, [pc, #80]	; (8004868 <HAL_RCCEx_PeriphCLKConfig+0x184>)
 8004816:	69da      	ldr	r2, [r3, #28]
 8004818:	4b13      	ldr	r3, [pc, #76]	; (8004868 <HAL_RCCEx_PeriphCLKConfig+0x184>)
 800481a:	4918      	ldr	r1, [pc, #96]	; (800487c <HAL_RCCEx_PeriphCLKConfig+0x198>)
 800481c:	400a      	ands	r2, r1
 800481e:	61da      	str	r2, [r3, #28]
    }
  }

  /*------------------------------- USART1 Configuration ------------------------*/ 
  if(((PeriphClkInit->PeriphClockSelection) & RCC_PERIPHCLK_USART1) == RCC_PERIPHCLK_USART1)
 8004820:	687b      	ldr	r3, [r7, #4]
 8004822:	681b      	ldr	r3, [r3, #0]
 8004824:	2201      	movs	r2, #1
 8004826:	4013      	ands	r3, r2
 8004828:	d009      	beq.n	800483e <HAL_RCCEx_PeriphCLKConfig+0x15a>
  {
    /* Check the parameters */
    assert_param(IS_RCC_USART1CLKSOURCE(PeriphClkInit->Usart1ClockSelection));
    
    /* Configure the USART1 clock source */
    __HAL_RCC_USART1_CONFIG(PeriphClkInit->Usart1ClockSelection);
 800482a:	4b0f      	ldr	r3, [pc, #60]	; (8004868 <HAL_RCCEx_PeriphCLKConfig+0x184>)
 800482c:	6b1b      	ldr	r3, [r3, #48]	; 0x30
 800482e:	2203      	movs	r2, #3
 8004830:	4393      	bics	r3, r2
 8004832:	0019      	movs	r1, r3
 8004834:	687b      	ldr	r3, [r7, #4]
 8004836:	689a      	ldr	r2, [r3, #8]
 8004838:	4b0b      	ldr	r3, [pc, #44]	; (8004868 <HAL_RCCEx_PeriphCLKConfig+0x184>)
 800483a:	430a      	orrs	r2, r1
 800483c:	631a      	str	r2, [r3, #48]	; 0x30
    __HAL_RCC_USART3_CONFIG(PeriphClkInit->Usart3ClockSelection);
  }
#endif /* STM32F091xC || STM32F098xx */  

  /*------------------------------ I2C1 Configuration ------------------------*/ 
  if(((PeriphClkInit->PeriphClockSelection) & RCC_PERIPHCLK_I2C1) == RCC_PERIPHCLK_I2C1)
 800483e:	687b      	ldr	r3, [r7, #4]
 8004840:	681b      	ldr	r3, [r3, #0]
 8004842:	2220      	movs	r2, #32
 8004844:	4013      	ands	r3, r2
 8004846:	d009      	beq.n	800485c <HAL_RCCEx_PeriphCLKConfig+0x178>
  {
    /* Check the parameters */
    assert_param(IS_RCC_I2C1CLKSOURCE(PeriphClkInit->I2c1ClockSelection));
    
    /* Configure the I2C1 clock source */
    __HAL_RCC_I2C1_CONFIG(PeriphClkInit->I2c1ClockSelection);
 8004848:	4b07      	ldr	r3, [pc, #28]	; (8004868 <HAL_RCCEx_PeriphCLKConfig+0x184>)
 800484a:	6b1b      	ldr	r3, [r3, #48]	; 0x30
 800484c:	2210      	movs	r2, #16
 800484e:	4393      	bics	r3, r2
 8004850:	0019      	movs	r1, r3
 8004852:	687b      	ldr	r3, [r7, #4]
 8004854:	68da      	ldr	r2, [r3, #12]
 8004856:	4b04      	ldr	r3, [pc, #16]	; (8004868 <HAL_RCCEx_PeriphCLKConfig+0x184>)
 8004858:	430a      	orrs	r2, r1
 800485a:	631a      	str	r2, [r3, #48]	; 0x30
#endif /* STM32F042x6 || STM32F048xx ||                */
       /* STM32F051x8 || STM32F058xx ||                */
       /* STM32F071xB || STM32F072xB || STM32F078xx || */
       /* STM32F091xC || STM32F098xx */
  
  return HAL_OK;
 800485c:	2300      	movs	r3, #0
}
 800485e:	0018      	movs	r0, r3
 8004860:	46bd      	mov	sp, r7
 8004862:	b006      	add	sp, #24
 8004864:	bd80      	pop	{r7, pc}
 8004866:	46c0      	nop			; (mov r8, r8)
 8004868:	40021000 	.word	0x40021000
 800486c:	40007000 	.word	0x40007000
 8004870:	fffffcff 	.word	0xfffffcff
 8004874:	fffeffff 	.word	0xfffeffff
 8004878:	00001388 	.word	0x00001388
 800487c:	efffffff 	.word	0xefffffff

08004880 <HAL_SPI_Init>:
  * @param  hspi pointer to a SPI_HandleTypeDef structure that contains
  *               the configuration information for SPI module.
  * @retval HAL status
  */
HAL_StatusTypeDef HAL_SPI_Init(SPI_HandleTypeDef *hspi)
{
 8004880:	b580      	push	{r7, lr}
 8004882:	b084      	sub	sp, #16
 8004884:	af00      	add	r7, sp, #0
 8004886:	6078      	str	r0, [r7, #4]
  uint32_t frxth;

  /* Check the SPI handle allocation */
  if (hspi == NULL)
 8004888:	687b      	ldr	r3, [r7, #4]
 800488a:	2b00      	cmp	r3, #0
 800488c:	d101      	bne.n	8004892 <HAL_SPI_Init+0x12>
  {
    return HAL_ERROR;
 800488e:	2301      	movs	r3, #1
 8004890:	e0a8      	b.n	80049e4 <HAL_SPI_Init+0x164>
  assert_param(IS_SPI_NSS(hspi->Init.NSS));
  assert_param(IS_SPI_NSSP(hspi->Init.NSSPMode));
  assert_param(IS_SPI_BAUDRATE_PRESCALER(hspi->Init.BaudRatePrescaler));
  assert_param(IS_SPI_FIRST_BIT(hspi->Init.FirstBit));
  assert_param(IS_SPI_TIMODE(hspi->Init.TIMode));
  if (hspi->Init.TIMode == SPI_TIMODE_DISABLE)
 8004892:	687b      	ldr	r3, [r7, #4]
 8004894:	6a5b      	ldr	r3, [r3, #36]	; 0x24
 8004896:	2b00      	cmp	r3, #0
 8004898:	d109      	bne.n	80048ae <HAL_SPI_Init+0x2e>
  {
    assert_param(IS_SPI_CPOL(hspi->Init.CLKPolarity));
    assert_param(IS_SPI_CPHA(hspi->Init.CLKPhase));

    if (hspi->Init.Mode == SPI_MODE_MASTER)
 800489a:	687b      	ldr	r3, [r7, #4]
 800489c:	685a      	ldr	r2, [r3, #4]
 800489e:	2382      	movs	r3, #130	; 0x82
 80048a0:	005b      	lsls	r3, r3, #1
 80048a2:	429a      	cmp	r2, r3
 80048a4:	d009      	beq.n	80048ba <HAL_SPI_Init+0x3a>
      assert_param(IS_SPI_BAUDRATE_PRESCALER(hspi->Init.BaudRatePrescaler));
    }
    else
    {
      /* Baudrate prescaler not use in Motoraola Slave mode. force to default value */
      hspi->Init.BaudRatePrescaler = SPI_BAUDRATEPRESCALER_2;
 80048a6:	687b      	ldr	r3, [r7, #4]
 80048a8:	2200      	movs	r2, #0
 80048aa:	61da      	str	r2, [r3, #28]
 80048ac:	e005      	b.n	80048ba <HAL_SPI_Init+0x3a>
  else
  {
    assert_param(IS_SPI_BAUDRATE_PRESCALER(hspi->Init.BaudRatePrescaler));

    /* Force polarity and phase to TI protocaol requirements */
    hspi->Init.CLKPolarity = SPI_POLARITY_LOW;
 80048ae:	687b      	ldr	r3, [r7, #4]
 80048b0:	2200      	movs	r2, #0
 80048b2:	611a      	str	r2, [r3, #16]
    hspi->Init.CLKPhase    = SPI_PHASE_1EDGE;
 80048b4:	687b      	ldr	r3, [r7, #4]
 80048b6:	2200      	movs	r2, #0
 80048b8:	615a      	str	r2, [r3, #20]
  {
    assert_param(IS_SPI_CRC_POLYNOMIAL(hspi->Init.CRCPolynomial));
    assert_param(IS_SPI_CRC_LENGTH(hspi->Init.CRCLength));
  }
#else
  hspi->Init.CRCCalculation = SPI_CRCCALCULATION_DISABLE;
 80048ba:	687b      	ldr	r3, [r7, #4]
 80048bc:	2200      	movs	r2, #0
 80048be:	629a      	str	r2, [r3, #40]	; 0x28
#endif /* USE_SPI_CRC */

  if (hspi->State == HAL_SPI_STATE_RESET)
 80048c0:	687b      	ldr	r3, [r7, #4]
 80048c2:	225d      	movs	r2, #93	; 0x5d
 80048c4:	5c9b      	ldrb	r3, [r3, r2]
 80048c6:	b2db      	uxtb	r3, r3
 80048c8:	2b00      	cmp	r3, #0
 80048ca:	d107      	bne.n	80048dc <HAL_SPI_Init+0x5c>
  {
    /* Allocate lock resource and initialize it */
    hspi->Lock = HAL_UNLOCKED;
 80048cc:	687b      	ldr	r3, [r7, #4]
 80048ce:	225c      	movs	r2, #92	; 0x5c
 80048d0:	2100      	movs	r1, #0
 80048d2:	5499      	strb	r1, [r3, r2]

    /* Init the low level hardware : GPIO, CLOCK, NVIC... */
    hspi->MspInitCallback(hspi);
#else
    /* Init the low level hardware : GPIO, CLOCK, NVIC... */
    HAL_SPI_MspInit(hspi);
 80048d4:	687b      	ldr	r3, [r7, #4]
 80048d6:	0018      	movs	r0, r3
 80048d8:	f7fc fb5c 	bl	8000f94 <HAL_SPI_MspInit>
#endif /* USE_HAL_SPI_REGISTER_CALLBACKS */
  }

  hspi->State = HAL_SPI_STATE_BUSY;
 80048dc:	687b      	ldr	r3, [r7, #4]
 80048de:	225d      	movs	r2, #93	; 0x5d
 80048e0:	2102      	movs	r1, #2
 80048e2:	5499      	strb	r1, [r3, r2]

  /* Disable the selected SPI peripheral */
  __HAL_SPI_DISABLE(hspi);
 80048e4:	687b      	ldr	r3, [r7, #4]
 80048e6:	681b      	ldr	r3, [r3, #0]
 80048e8:	681a      	ldr	r2, [r3, #0]
 80048ea:	687b      	ldr	r3, [r7, #4]
 80048ec:	681b      	ldr	r3, [r3, #0]
 80048ee:	2140      	movs	r1, #64	; 0x40
 80048f0:	438a      	bics	r2, r1
 80048f2:	601a      	str	r2, [r3, #0]

  /* Align by default the rs fifo threshold on the data size */
  if (hspi->Init.DataSize > SPI_DATASIZE_8BIT)
 80048f4:	687b      	ldr	r3, [r7, #4]
 80048f6:	68da      	ldr	r2, [r3, #12]
 80048f8:	23e0      	movs	r3, #224	; 0xe0
 80048fa:	00db      	lsls	r3, r3, #3
 80048fc:	429a      	cmp	r2, r3
 80048fe:	d902      	bls.n	8004906 <HAL_SPI_Init+0x86>
  {
    frxth = SPI_RXFIFO_THRESHOLD_HF;
 8004900:	2300      	movs	r3, #0
 8004902:	60fb      	str	r3, [r7, #12]
 8004904:	e002      	b.n	800490c <HAL_SPI_Init+0x8c>
  }
  else
  {
    frxth = SPI_RXFIFO_THRESHOLD_QF;
 8004906:	2380      	movs	r3, #128	; 0x80
 8004908:	015b      	lsls	r3, r3, #5
 800490a:	60fb      	str	r3, [r7, #12]
  }

  /* CRC calculation is valid only for 16Bit and 8 Bit */
  if ((hspi->Init.DataSize != SPI_DATASIZE_16BIT) && (hspi->Init.DataSize != SPI_DATASIZE_8BIT))
 800490c:	687b      	ldr	r3, [r7, #4]
 800490e:	68da      	ldr	r2, [r3, #12]
 8004910:	23f0      	movs	r3, #240	; 0xf0
 8004912:	011b      	lsls	r3, r3, #4
 8004914:	429a      	cmp	r2, r3
 8004916:	d008      	beq.n	800492a <HAL_SPI_Init+0xaa>
 8004918:	687b      	ldr	r3, [r7, #4]
 800491a:	68da      	ldr	r2, [r3, #12]
 800491c:	23e0      	movs	r3, #224	; 0xe0
 800491e:	00db      	lsls	r3, r3, #3
 8004920:	429a      	cmp	r2, r3
 8004922:	d002      	beq.n	800492a <HAL_SPI_Init+0xaa>
  {
    /* CRC must be disabled */
    hspi->Init.CRCCalculation = SPI_CRCCALCULATION_DISABLE;
 8004924:	687b      	ldr	r3, [r7, #4]
 8004926:	2200      	movs	r2, #0
 8004928:	629a      	str	r2, [r3, #40]	; 0x28
  }

  /*----------------------- SPIx CR1 & CR2 Configuration ---------------------*/
  /* Configure : SPI Mode, Communication Mode, Clock polarity and phase, NSS management,
  Communication speed, First bit and CRC calculation state */
  WRITE_REG(hspi->Instance->CR1, ((hspi->Init.Mode & (SPI_CR1_MSTR | SPI_CR1_SSI)) |
 800492a:	687b      	ldr	r3, [r7, #4]
 800492c:	685a      	ldr	r2, [r3, #4]
 800492e:	2382      	movs	r3, #130	; 0x82
 8004930:	005b      	lsls	r3, r3, #1
 8004932:	401a      	ands	r2, r3
 8004934:	687b      	ldr	r3, [r7, #4]
 8004936:	6899      	ldr	r1, [r3, #8]
 8004938:	2384      	movs	r3, #132	; 0x84
 800493a:	021b      	lsls	r3, r3, #8
 800493c:	400b      	ands	r3, r1
 800493e:	431a      	orrs	r2, r3
 8004940:	687b      	ldr	r3, [r7, #4]
 8004942:	691b      	ldr	r3, [r3, #16]
 8004944:	2102      	movs	r1, #2
 8004946:	400b      	ands	r3, r1
 8004948:	431a      	orrs	r2, r3
 800494a:	687b      	ldr	r3, [r7, #4]
 800494c:	695b      	ldr	r3, [r3, #20]
 800494e:	2101      	movs	r1, #1
 8004950:	400b      	ands	r3, r1
 8004952:	431a      	orrs	r2, r3
 8004954:	687b      	ldr	r3, [r7, #4]
 8004956:	6999      	ldr	r1, [r3, #24]
 8004958:	2380      	movs	r3, #128	; 0x80
 800495a:	009b      	lsls	r3, r3, #2
 800495c:	400b      	ands	r3, r1
 800495e:	431a      	orrs	r2, r3
 8004960:	687b      	ldr	r3, [r7, #4]
 8004962:	69db      	ldr	r3, [r3, #28]
 8004964:	2138      	movs	r1, #56	; 0x38
 8004966:	400b      	ands	r3, r1
 8004968:	431a      	orrs	r2, r3
 800496a:	687b      	ldr	r3, [r7, #4]
 800496c:	6a1b      	ldr	r3, [r3, #32]
 800496e:	2180      	movs	r1, #128	; 0x80
 8004970:	400b      	ands	r3, r1
 8004972:	431a      	orrs	r2, r3
 8004974:	0011      	movs	r1, r2
 8004976:	687b      	ldr	r3, [r7, #4]
 8004978:	6a9a      	ldr	r2, [r3, #40]	; 0x28
 800497a:	2380      	movs	r3, #128	; 0x80
 800497c:	019b      	lsls	r3, r3, #6
 800497e:	401a      	ands	r2, r3
 8004980:	687b      	ldr	r3, [r7, #4]
 8004982:	681b      	ldr	r3, [r3, #0]
 8004984:	430a      	orrs	r2, r1
 8004986:	601a      	str	r2, [r3, #0]
    }
  }
#endif /* USE_SPI_CRC */

  /* Configure : NSS management, TI Mode, NSS Pulse, Data size and Rx Fifo threshold */
  WRITE_REG(hspi->Instance->CR2, (((hspi->Init.NSS >> 16U) & SPI_CR2_SSOE) |
 8004988:	687b      	ldr	r3, [r7, #4]
 800498a:	699b      	ldr	r3, [r3, #24]
 800498c:	0c1b      	lsrs	r3, r3, #16
 800498e:	2204      	movs	r2, #4
 8004990:	401a      	ands	r2, r3
 8004992:	687b      	ldr	r3, [r7, #4]
 8004994:	6a5b      	ldr	r3, [r3, #36]	; 0x24
 8004996:	2110      	movs	r1, #16
 8004998:	400b      	ands	r3, r1
 800499a:	431a      	orrs	r2, r3
 800499c:	687b      	ldr	r3, [r7, #4]
 800499e:	6b5b      	ldr	r3, [r3, #52]	; 0x34
 80049a0:	2108      	movs	r1, #8
 80049a2:	400b      	ands	r3, r1
 80049a4:	431a      	orrs	r2, r3
 80049a6:	687b      	ldr	r3, [r7, #4]
 80049a8:	68d9      	ldr	r1, [r3, #12]
 80049aa:	23f0      	movs	r3, #240	; 0xf0
 80049ac:	011b      	lsls	r3, r3, #4
 80049ae:	400b      	ands	r3, r1
 80049b0:	431a      	orrs	r2, r3
 80049b2:	0011      	movs	r1, r2
 80049b4:	68fa      	ldr	r2, [r7, #12]
 80049b6:	2380      	movs	r3, #128	; 0x80
 80049b8:	015b      	lsls	r3, r3, #5
 80049ba:	401a      	ands	r2, r3
 80049bc:	687b      	ldr	r3, [r7, #4]
 80049be:	681b      	ldr	r3, [r3, #0]
 80049c0:	430a      	orrs	r2, r1
 80049c2:	605a      	str	r2, [r3, #4]
  }
#endif /* USE_SPI_CRC */

#if defined(SPI_I2SCFGR_I2SMOD)
  /* Activate the SPI mode (Make sure that I2SMOD bit in I2SCFGR register is reset) */
  CLEAR_BIT(hspi->Instance->I2SCFGR, SPI_I2SCFGR_I2SMOD);
 80049c4:	687b      	ldr	r3, [r7, #4]
 80049c6:	681b      	ldr	r3, [r3, #0]
 80049c8:	69da      	ldr	r2, [r3, #28]
 80049ca:	687b      	ldr	r3, [r7, #4]
 80049cc:	681b      	ldr	r3, [r3, #0]
 80049ce:	4907      	ldr	r1, [pc, #28]	; (80049ec <HAL_SPI_Init+0x16c>)
 80049d0:	400a      	ands	r2, r1
 80049d2:	61da      	str	r2, [r3, #28]
#endif /* SPI_I2SCFGR_I2SMOD */

  hspi->ErrorCode = HAL_SPI_ERROR_NONE;
 80049d4:	687b      	ldr	r3, [r7, #4]
 80049d6:	2200      	movs	r2, #0
 80049d8:	661a      	str	r2, [r3, #96]	; 0x60
  hspi->State     = HAL_SPI_STATE_READY;
 80049da:	687b      	ldr	r3, [r7, #4]
 80049dc:	225d      	movs	r2, #93	; 0x5d
 80049de:	2101      	movs	r1, #1
 80049e0:	5499      	strb	r1, [r3, r2]

  return HAL_OK;
 80049e2:	2300      	movs	r3, #0
}
 80049e4:	0018      	movs	r0, r3
 80049e6:	46bd      	mov	sp, r7
 80049e8:	b004      	add	sp, #16
 80049ea:	bd80      	pop	{r7, pc}
 80049ec:	fffff7ff 	.word	0xfffff7ff

080049f0 <HAL_TIM_Base_Init>:
  *         Ex: call @ref HAL_TIM_Base_DeInit() before HAL_TIM_Base_Init()
  * @param  htim TIM Base handle
  * @retval HAL status
  */
HAL_StatusTypeDef HAL_TIM_Base_Init(TIM_HandleTypeDef *htim)
{
 80049f0:	b580      	push	{r7, lr}
 80049f2:	b082      	sub	sp, #8
 80049f4:	af00      	add	r7, sp, #0
 80049f6:	6078      	str	r0, [r7, #4]
  /* Check the TIM handle allocation */
  if (htim == NULL)
 80049f8:	687b      	ldr	r3, [r7, #4]
 80049fa:	2b00      	cmp	r3, #0
 80049fc:	d101      	bne.n	8004a02 <HAL_TIM_Base_Init+0x12>
  {
    return HAL_ERROR;
 80049fe:	2301      	movs	r3, #1
 8004a00:	e042      	b.n	8004a88 <HAL_TIM_Base_Init+0x98>
  assert_param(IS_TIM_INSTANCE(htim->Instance));
  assert_param(IS_TIM_COUNTER_MODE(htim->Init.CounterMode));
  assert_param(IS_TIM_CLOCKDIVISION_DIV(htim->Init.ClockDivision));
  assert_param(IS_TIM_AUTORELOAD_PRELOAD(htim->Init.AutoReloadPreload));

  if (htim->State == HAL_TIM_STATE_RESET)
 8004a02:	687b      	ldr	r3, [r7, #4]
 8004a04:	223d      	movs	r2, #61	; 0x3d
 8004a06:	5c9b      	ldrb	r3, [r3, r2]
 8004a08:	b2db      	uxtb	r3, r3
 8004a0a:	2b00      	cmp	r3, #0
 8004a0c:	d107      	bne.n	8004a1e <HAL_TIM_Base_Init+0x2e>
  {
    /* Allocate lock resource and initialize it */
    htim->Lock = HAL_UNLOCKED;
 8004a0e:	687b      	ldr	r3, [r7, #4]
 8004a10:	223c      	movs	r2, #60	; 0x3c
 8004a12:	2100      	movs	r1, #0
 8004a14:	5499      	strb	r1, [r3, r2]
    }
    /* Init the low level hardware : GPIO, CLOCK, NVIC */
    htim->Base_MspInitCallback(htim);
#else
    /* Init the low level hardware : GPIO, CLOCK, NVIC */
    HAL_TIM_Base_MspInit(htim);
 8004a16:	687b      	ldr	r3, [r7, #4]
 8004a18:	0018      	movs	r0, r3
 8004a1a:	f7fc fb07 	bl	800102c <HAL_TIM_Base_MspInit>
#endif /* USE_HAL_TIM_REGISTER_CALLBACKS */
  }

  /* Set the TIM state */
  htim->State = HAL_TIM_STATE_BUSY;
 8004a1e:	687b      	ldr	r3, [r7, #4]
 8004a20:	223d      	movs	r2, #61	; 0x3d
 8004a22:	2102      	movs	r1, #2
 8004a24:	5499      	strb	r1, [r3, r2]

  /* Set the Time Base configuration */
  TIM_Base_SetConfig(htim->Instance, &htim->Init);
 8004a26:	687b      	ldr	r3, [r7, #4]
 8004a28:	681a      	ldr	r2, [r3, #0]
 8004a2a:	687b      	ldr	r3, [r7, #4]
 8004a2c:	3304      	adds	r3, #4
 8004a2e:	0019      	movs	r1, r3
 8004a30:	0010      	movs	r0, r2
 8004a32:	f000 fb11 	bl	8005058 <TIM_Base_SetConfig>

  /* Initialize the DMA burst operation state */
  htim->DMABurstState = HAL_DMA_BURST_STATE_READY;
 8004a36:	687b      	ldr	r3, [r7, #4]
 8004a38:	2246      	movs	r2, #70	; 0x46
 8004a3a:	2101      	movs	r1, #1
 8004a3c:	5499      	strb	r1, [r3, r2]

  /* Initialize the TIM channels state */
  TIM_CHANNEL_STATE_SET_ALL(htim, HAL_TIM_CHANNEL_STATE_READY);
 8004a3e:	687b      	ldr	r3, [r7, #4]
 8004a40:	223e      	movs	r2, #62	; 0x3e
 8004a42:	2101      	movs	r1, #1
 8004a44:	5499      	strb	r1, [r3, r2]
 8004a46:	687b      	ldr	r3, [r7, #4]
 8004a48:	223f      	movs	r2, #63	; 0x3f
 8004a4a:	2101      	movs	r1, #1
 8004a4c:	5499      	strb	r1, [r3, r2]
 8004a4e:	687b      	ldr	r3, [r7, #4]
 8004a50:	2240      	movs	r2, #64	; 0x40
 8004a52:	2101      	movs	r1, #1
 8004a54:	5499      	strb	r1, [r3, r2]
 8004a56:	687b      	ldr	r3, [r7, #4]
 8004a58:	2241      	movs	r2, #65	; 0x41
 8004a5a:	2101      	movs	r1, #1
 8004a5c:	5499      	strb	r1, [r3, r2]
  TIM_CHANNEL_N_STATE_SET_ALL(htim, HAL_TIM_CHANNEL_STATE_READY);
 8004a5e:	687b      	ldr	r3, [r7, #4]
 8004a60:	2242      	movs	r2, #66	; 0x42
 8004a62:	2101      	movs	r1, #1
 8004a64:	5499      	strb	r1, [r3, r2]
 8004a66:	687b      	ldr	r3, [r7, #4]
 8004a68:	2243      	movs	r2, #67	; 0x43
 8004a6a:	2101      	movs	r1, #1
 8004a6c:	5499      	strb	r1, [r3, r2]
 8004a6e:	687b      	ldr	r3, [r7, #4]
 8004a70:	2244      	movs	r2, #68	; 0x44
 8004a72:	2101      	movs	r1, #1
 8004a74:	5499      	strb	r1, [r3, r2]
 8004a76:	687b      	ldr	r3, [r7, #4]
 8004a78:	2245      	movs	r2, #69	; 0x45
 8004a7a:	2101      	movs	r1, #1
 8004a7c:	5499      	strb	r1, [r3, r2]

  /* Initialize the TIM state*/
  htim->State = HAL_TIM_STATE_READY;
 8004a7e:	687b      	ldr	r3, [r7, #4]
 8004a80:	223d      	movs	r2, #61	; 0x3d
 8004a82:	2101      	movs	r1, #1
 8004a84:	5499      	strb	r1, [r3, r2]

  return HAL_OK;
 8004a86:	2300      	movs	r3, #0
}
 8004a88:	0018      	movs	r0, r3
 8004a8a:	46bd      	mov	sp, r7
 8004a8c:	b002      	add	sp, #8
 8004a8e:	bd80      	pop	{r7, pc}

08004a90 <HAL_TIM_PWM_Init>:
  *         Ex: call @ref HAL_TIM_PWM_DeInit() before HAL_TIM_PWM_Init()
  * @param  htim TIM PWM handle
  * @retval HAL status
  */
HAL_StatusTypeDef HAL_TIM_PWM_Init(TIM_HandleTypeDef *htim)
{
 8004a90:	b580      	push	{r7, lr}
 8004a92:	b082      	sub	sp, #8
 8004a94:	af00      	add	r7, sp, #0
 8004a96:	6078      	str	r0, [r7, #4]
  /* Check the TIM handle allocation */
  if (htim == NULL)
 8004a98:	687b      	ldr	r3, [r7, #4]
 8004a9a:	2b00      	cmp	r3, #0
 8004a9c:	d101      	bne.n	8004aa2 <HAL_TIM_PWM_Init+0x12>
  {
    return HAL_ERROR;
 8004a9e:	2301      	movs	r3, #1
 8004aa0:	e042      	b.n	8004b28 <HAL_TIM_PWM_Init+0x98>
  assert_param(IS_TIM_INSTANCE(htim->Instance));
  assert_param(IS_TIM_COUNTER_MODE(htim->Init.CounterMode));
  assert_param(IS_TIM_CLOCKDIVISION_DIV(htim->Init.ClockDivision));
  assert_param(IS_TIM_AUTORELOAD_PRELOAD(htim->Init.AutoReloadPreload));

  if (htim->State == HAL_TIM_STATE_RESET)
 8004aa2:	687b      	ldr	r3, [r7, #4]
 8004aa4:	223d      	movs	r2, #61	; 0x3d
 8004aa6:	5c9b      	ldrb	r3, [r3, r2]
 8004aa8:	b2db      	uxtb	r3, r3
 8004aaa:	2b00      	cmp	r3, #0
 8004aac:	d107      	bne.n	8004abe <HAL_TIM_PWM_Init+0x2e>
  {
    /* Allocate lock resource and initialize it */
    htim->Lock = HAL_UNLOCKED;
 8004aae:	687b      	ldr	r3, [r7, #4]
 8004ab0:	223c      	movs	r2, #60	; 0x3c
 8004ab2:	2100      	movs	r1, #0
 8004ab4:	5499      	strb	r1, [r3, r2]
    }
    /* Init the low level hardware : GPIO, CLOCK, NVIC */
    htim->PWM_MspInitCallback(htim);
#else
    /* Init the low level hardware : GPIO, CLOCK, NVIC and DMA */
    HAL_TIM_PWM_MspInit(htim);
 8004ab6:	687b      	ldr	r3, [r7, #4]
 8004ab8:	0018      	movs	r0, r3
 8004aba:	f000 f839 	bl	8004b30 <HAL_TIM_PWM_MspInit>
#endif /* USE_HAL_TIM_REGISTER_CALLBACKS */
  }

  /* Set the TIM state */
  htim->State = HAL_TIM_STATE_BUSY;
 8004abe:	687b      	ldr	r3, [r7, #4]
 8004ac0:	223d      	movs	r2, #61	; 0x3d
 8004ac2:	2102      	movs	r1, #2
 8004ac4:	5499      	strb	r1, [r3, r2]

  /* Init the base time for the PWM */
  TIM_Base_SetConfig(htim->Instance, &htim->Init);
 8004ac6:	687b      	ldr	r3, [r7, #4]
 8004ac8:	681a      	ldr	r2, [r3, #0]
 8004aca:	687b      	ldr	r3, [r7, #4]
 8004acc:	3304      	adds	r3, #4
 8004ace:	0019      	movs	r1, r3
 8004ad0:	0010      	movs	r0, r2
 8004ad2:	f000 fac1 	bl	8005058 <TIM_Base_SetConfig>

  /* Initialize the DMA burst operation state */
  htim->DMABurstState = HAL_DMA_BURST_STATE_READY;
 8004ad6:	687b      	ldr	r3, [r7, #4]
 8004ad8:	2246      	movs	r2, #70	; 0x46
 8004ada:	2101      	movs	r1, #1
 8004adc:	5499      	strb	r1, [r3, r2]

  /* Initialize the TIM channels state */
  TIM_CHANNEL_STATE_SET_ALL(htim, HAL_TIM_CHANNEL_STATE_READY);
 8004ade:	687b      	ldr	r3, [r7, #4]
 8004ae0:	223e      	movs	r2, #62	; 0x3e
 8004ae2:	2101      	movs	r1, #1
 8004ae4:	5499      	strb	r1, [r3, r2]
 8004ae6:	687b      	ldr	r3, [r7, #4]
 8004ae8:	223f      	movs	r2, #63	; 0x3f
 8004aea:	2101      	movs	r1, #1
 8004aec:	5499      	strb	r1, [r3, r2]
 8004aee:	687b      	ldr	r3, [r7, #4]
 8004af0:	2240      	movs	r2, #64	; 0x40
 8004af2:	2101      	movs	r1, #1
 8004af4:	5499      	strb	r1, [r3, r2]
 8004af6:	687b      	ldr	r3, [r7, #4]
 8004af8:	2241      	movs	r2, #65	; 0x41
 8004afa:	2101      	movs	r1, #1
 8004afc:	5499      	strb	r1, [r3, r2]
  TIM_CHANNEL_N_STATE_SET_ALL(htim, HAL_TIM_CHANNEL_STATE_READY);
 8004afe:	687b      	ldr	r3, [r7, #4]
 8004b00:	2242      	movs	r2, #66	; 0x42
 8004b02:	2101      	movs	r1, #1
 8004b04:	5499      	strb	r1, [r3, r2]
 8004b06:	687b      	ldr	r3, [r7, #4]
 8004b08:	2243      	movs	r2, #67	; 0x43
 8004b0a:	2101      	movs	r1, #1
 8004b0c:	5499      	strb	r1, [r3, r2]
 8004b0e:	687b      	ldr	r3, [r7, #4]
 8004b10:	2244      	movs	r2, #68	; 0x44
 8004b12:	2101      	movs	r1, #1
 8004b14:	5499      	strb	r1, [r3, r2]
 8004b16:	687b      	ldr	r3, [r7, #4]
 8004b18:	2245      	movs	r2, #69	; 0x45
 8004b1a:	2101      	movs	r1, #1
 8004b1c:	5499      	strb	r1, [r3, r2]

  /* Initialize the TIM state*/
  htim->State = HAL_TIM_STATE_READY;
 8004b1e:	687b      	ldr	r3, [r7, #4]
 8004b20:	223d      	movs	r2, #61	; 0x3d
 8004b22:	2101      	movs	r1, #1
 8004b24:	5499      	strb	r1, [r3, r2]

  return HAL_OK;
 8004b26:	2300      	movs	r3, #0
}
 8004b28:	0018      	movs	r0, r3
 8004b2a:	46bd      	mov	sp, r7
 8004b2c:	b002      	add	sp, #8
 8004b2e:	bd80      	pop	{r7, pc}

08004b30 <HAL_TIM_PWM_MspInit>:
  * @brief  Initializes the TIM PWM MSP.
  * @param  htim TIM PWM handle
  * @retval None
  */
__weak void HAL_TIM_PWM_MspInit(TIM_HandleTypeDef *htim)
{
 8004b30:	b580      	push	{r7, lr}
 8004b32:	b082      	sub	sp, #8
 8004b34:	af00      	add	r7, sp, #0
 8004b36:	6078      	str	r0, [r7, #4]
  UNUSED(htim);

  /* NOTE : This function should not be modified, when the callback is needed,
            the HAL_TIM_PWM_MspInit could be implemented in the user file
   */
}
 8004b38:	46c0      	nop			; (mov r8, r8)
 8004b3a:	46bd      	mov	sp, r7
 8004b3c:	b002      	add	sp, #8
 8004b3e:	bd80      	pop	{r7, pc}

08004b40 <HAL_TIM_PWM_Start>:
  *            @arg TIM_CHANNEL_3: TIM Channel 3 selected
  *            @arg TIM_CHANNEL_4: TIM Channel 4 selected
  * @retval HAL status
  */
HAL_StatusTypeDef HAL_TIM_PWM_Start(TIM_HandleTypeDef *htim, uint32_t Channel)
{
 8004b40:	b580      	push	{r7, lr}
 8004b42:	b084      	sub	sp, #16
 8004b44:	af00      	add	r7, sp, #0
 8004b46:	6078      	str	r0, [r7, #4]
 8004b48:	6039      	str	r1, [r7, #0]

  /* Check the parameters */
  assert_param(IS_TIM_CCX_INSTANCE(htim->Instance, Channel));

  /* Check the TIM channel state */
  if (TIM_CHANNEL_STATE_GET(htim, Channel) != HAL_TIM_CHANNEL_STATE_READY)
 8004b4a:	683b      	ldr	r3, [r7, #0]
 8004b4c:	2b00      	cmp	r3, #0
 8004b4e:	d108      	bne.n	8004b62 <HAL_TIM_PWM_Start+0x22>
 8004b50:	687b      	ldr	r3, [r7, #4]
 8004b52:	223e      	movs	r2, #62	; 0x3e
 8004b54:	5c9b      	ldrb	r3, [r3, r2]
 8004b56:	b2db      	uxtb	r3, r3
 8004b58:	3b01      	subs	r3, #1
 8004b5a:	1e5a      	subs	r2, r3, #1
 8004b5c:	4193      	sbcs	r3, r2
 8004b5e:	b2db      	uxtb	r3, r3
 8004b60:	e01f      	b.n	8004ba2 <HAL_TIM_PWM_Start+0x62>
 8004b62:	683b      	ldr	r3, [r7, #0]
 8004b64:	2b04      	cmp	r3, #4
 8004b66:	d108      	bne.n	8004b7a <HAL_TIM_PWM_Start+0x3a>
 8004b68:	687b      	ldr	r3, [r7, #4]
 8004b6a:	223f      	movs	r2, #63	; 0x3f
 8004b6c:	5c9b      	ldrb	r3, [r3, r2]
 8004b6e:	b2db      	uxtb	r3, r3
 8004b70:	3b01      	subs	r3, #1
 8004b72:	1e5a      	subs	r2, r3, #1
 8004b74:	4193      	sbcs	r3, r2
 8004b76:	b2db      	uxtb	r3, r3
 8004b78:	e013      	b.n	8004ba2 <HAL_TIM_PWM_Start+0x62>
 8004b7a:	683b      	ldr	r3, [r7, #0]
 8004b7c:	2b08      	cmp	r3, #8
 8004b7e:	d108      	bne.n	8004b92 <HAL_TIM_PWM_Start+0x52>
 8004b80:	687b      	ldr	r3, [r7, #4]
 8004b82:	2240      	movs	r2, #64	; 0x40
 8004b84:	5c9b      	ldrb	r3, [r3, r2]
 8004b86:	b2db      	uxtb	r3, r3
 8004b88:	3b01      	subs	r3, #1
 8004b8a:	1e5a      	subs	r2, r3, #1
 8004b8c:	4193      	sbcs	r3, r2
 8004b8e:	b2db      	uxtb	r3, r3
 8004b90:	e007      	b.n	8004ba2 <HAL_TIM_PWM_Start+0x62>
 8004b92:	687b      	ldr	r3, [r7, #4]
 8004b94:	2241      	movs	r2, #65	; 0x41
 8004b96:	5c9b      	ldrb	r3, [r3, r2]
 8004b98:	b2db      	uxtb	r3, r3
 8004b9a:	3b01      	subs	r3, #1
 8004b9c:	1e5a      	subs	r2, r3, #1
 8004b9e:	4193      	sbcs	r3, r2
 8004ba0:	b2db      	uxtb	r3, r3
 8004ba2:	2b00      	cmp	r3, #0
 8004ba4:	d001      	beq.n	8004baa <HAL_TIM_PWM_Start+0x6a>
  {
    return HAL_ERROR;
 8004ba6:	2301      	movs	r3, #1
 8004ba8:	e06a      	b.n	8004c80 <HAL_TIM_PWM_Start+0x140>
  }

  /* Set the TIM channel state */
  TIM_CHANNEL_STATE_SET(htim, Channel, HAL_TIM_CHANNEL_STATE_BUSY);
 8004baa:	683b      	ldr	r3, [r7, #0]
 8004bac:	2b00      	cmp	r3, #0
 8004bae:	d104      	bne.n	8004bba <HAL_TIM_PWM_Start+0x7a>
 8004bb0:	687b      	ldr	r3, [r7, #4]
 8004bb2:	223e      	movs	r2, #62	; 0x3e
 8004bb4:	2102      	movs	r1, #2
 8004bb6:	5499      	strb	r1, [r3, r2]
 8004bb8:	e013      	b.n	8004be2 <HAL_TIM_PWM_Start+0xa2>
 8004bba:	683b      	ldr	r3, [r7, #0]
 8004bbc:	2b04      	cmp	r3, #4
 8004bbe:	d104      	bne.n	8004bca <HAL_TIM_PWM_Start+0x8a>
 8004bc0:	687b      	ldr	r3, [r7, #4]
 8004bc2:	223f      	movs	r2, #63	; 0x3f
 8004bc4:	2102      	movs	r1, #2
 8004bc6:	5499      	strb	r1, [r3, r2]
 8004bc8:	e00b      	b.n	8004be2 <HAL_TIM_PWM_Start+0xa2>
 8004bca:	683b      	ldr	r3, [r7, #0]
 8004bcc:	2b08      	cmp	r3, #8
 8004bce:	d104      	bne.n	8004bda <HAL_TIM_PWM_Start+0x9a>
 8004bd0:	687b      	ldr	r3, [r7, #4]
 8004bd2:	2240      	movs	r2, #64	; 0x40
 8004bd4:	2102      	movs	r1, #2
 8004bd6:	5499      	strb	r1, [r3, r2]
 8004bd8:	e003      	b.n	8004be2 <HAL_TIM_PWM_Start+0xa2>
 8004bda:	687b      	ldr	r3, [r7, #4]
 8004bdc:	2241      	movs	r2, #65	; 0x41
 8004bde:	2102      	movs	r1, #2
 8004be0:	5499      	strb	r1, [r3, r2]

  /* Enable the Capture compare channel */
  TIM_CCxChannelCmd(htim->Instance, Channel, TIM_CCx_ENABLE);
 8004be2:	687b      	ldr	r3, [r7, #4]
 8004be4:	681b      	ldr	r3, [r3, #0]
 8004be6:	6839      	ldr	r1, [r7, #0]
 8004be8:	2201      	movs	r2, #1
 8004bea:	0018      	movs	r0, r3
 8004bec:	f000 fdb6 	bl	800575c <TIM_CCxChannelCmd>

  if (IS_TIM_BREAK_INSTANCE(htim->Instance) != RESET)
 8004bf0:	687b      	ldr	r3, [r7, #4]
 8004bf2:	681b      	ldr	r3, [r3, #0]
 8004bf4:	4a24      	ldr	r2, [pc, #144]	; (8004c88 <HAL_TIM_PWM_Start+0x148>)
 8004bf6:	4293      	cmp	r3, r2
 8004bf8:	d009      	beq.n	8004c0e <HAL_TIM_PWM_Start+0xce>
 8004bfa:	687b      	ldr	r3, [r7, #4]
 8004bfc:	681b      	ldr	r3, [r3, #0]
 8004bfe:	4a23      	ldr	r2, [pc, #140]	; (8004c8c <HAL_TIM_PWM_Start+0x14c>)
 8004c00:	4293      	cmp	r3, r2
 8004c02:	d004      	beq.n	8004c0e <HAL_TIM_PWM_Start+0xce>
 8004c04:	687b      	ldr	r3, [r7, #4]
 8004c06:	681b      	ldr	r3, [r3, #0]
 8004c08:	4a21      	ldr	r2, [pc, #132]	; (8004c90 <HAL_TIM_PWM_Start+0x150>)
 8004c0a:	4293      	cmp	r3, r2
 8004c0c:	d101      	bne.n	8004c12 <HAL_TIM_PWM_Start+0xd2>
 8004c0e:	2301      	movs	r3, #1
 8004c10:	e000      	b.n	8004c14 <HAL_TIM_PWM_Start+0xd4>
 8004c12:	2300      	movs	r3, #0
 8004c14:	2b00      	cmp	r3, #0
 8004c16:	d008      	beq.n	8004c2a <HAL_TIM_PWM_Start+0xea>
  {
    /* Enable the main output */
    __HAL_TIM_MOE_ENABLE(htim);
 8004c18:	687b      	ldr	r3, [r7, #4]
 8004c1a:	681b      	ldr	r3, [r3, #0]
 8004c1c:	6c5a      	ldr	r2, [r3, #68]	; 0x44
 8004c1e:	687b      	ldr	r3, [r7, #4]
 8004c20:	681b      	ldr	r3, [r3, #0]
 8004c22:	2180      	movs	r1, #128	; 0x80
 8004c24:	0209      	lsls	r1, r1, #8
 8004c26:	430a      	orrs	r2, r1
 8004c28:	645a      	str	r2, [r3, #68]	; 0x44
  }

  /* Enable the Peripheral, except in trigger mode where enable is automatically done with trigger */
  if (IS_TIM_SLAVE_INSTANCE(htim->Instance))
 8004c2a:	687b      	ldr	r3, [r7, #4]
 8004c2c:	681b      	ldr	r3, [r3, #0]
 8004c2e:	4a16      	ldr	r2, [pc, #88]	; (8004c88 <HAL_TIM_PWM_Start+0x148>)
 8004c30:	4293      	cmp	r3, r2
 8004c32:	d00a      	beq.n	8004c4a <HAL_TIM_PWM_Start+0x10a>
 8004c34:	687b      	ldr	r3, [r7, #4]
 8004c36:	681a      	ldr	r2, [r3, #0]
 8004c38:	2380      	movs	r3, #128	; 0x80
 8004c3a:	05db      	lsls	r3, r3, #23
 8004c3c:	429a      	cmp	r2, r3
 8004c3e:	d004      	beq.n	8004c4a <HAL_TIM_PWM_Start+0x10a>
 8004c40:	687b      	ldr	r3, [r7, #4]
 8004c42:	681b      	ldr	r3, [r3, #0]
 8004c44:	4a13      	ldr	r2, [pc, #76]	; (8004c94 <HAL_TIM_PWM_Start+0x154>)
 8004c46:	4293      	cmp	r3, r2
 8004c48:	d111      	bne.n	8004c6e <HAL_TIM_PWM_Start+0x12e>
  {
    tmpsmcr = htim->Instance->SMCR & TIM_SMCR_SMS;
 8004c4a:	687b      	ldr	r3, [r7, #4]
 8004c4c:	681b      	ldr	r3, [r3, #0]
 8004c4e:	689b      	ldr	r3, [r3, #8]
 8004c50:	2207      	movs	r2, #7
 8004c52:	4013      	ands	r3, r2
 8004c54:	60fb      	str	r3, [r7, #12]
    if (!IS_TIM_SLAVEMODE_TRIGGER_ENABLED(tmpsmcr))
 8004c56:	68fb      	ldr	r3, [r7, #12]
 8004c58:	2b06      	cmp	r3, #6
 8004c5a:	d010      	beq.n	8004c7e <HAL_TIM_PWM_Start+0x13e>
    {
      __HAL_TIM_ENABLE(htim);
 8004c5c:	687b      	ldr	r3, [r7, #4]
 8004c5e:	681b      	ldr	r3, [r3, #0]
 8004c60:	681a      	ldr	r2, [r3, #0]
 8004c62:	687b      	ldr	r3, [r7, #4]
 8004c64:	681b      	ldr	r3, [r3, #0]
 8004c66:	2101      	movs	r1, #1
 8004c68:	430a      	orrs	r2, r1
 8004c6a:	601a      	str	r2, [r3, #0]
    if (!IS_TIM_SLAVEMODE_TRIGGER_ENABLED(tmpsmcr))
 8004c6c:	e007      	b.n	8004c7e <HAL_TIM_PWM_Start+0x13e>
    }
  }
  else
  {
    __HAL_TIM_ENABLE(htim);
 8004c6e:	687b      	ldr	r3, [r7, #4]
 8004c70:	681b      	ldr	r3, [r3, #0]
 8004c72:	681a      	ldr	r2, [r3, #0]
 8004c74:	687b      	ldr	r3, [r7, #4]
 8004c76:	681b      	ldr	r3, [r3, #0]
 8004c78:	2101      	movs	r1, #1
 8004c7a:	430a      	orrs	r2, r1
 8004c7c:	601a      	str	r2, [r3, #0]
  }

  /* Return function status */
  return HAL_OK;
 8004c7e:	2300      	movs	r3, #0
}
 8004c80:	0018      	movs	r0, r3
 8004c82:	46bd      	mov	sp, r7
 8004c84:	b004      	add	sp, #16
 8004c86:	bd80      	pop	{r7, pc}
 8004c88:	40012c00 	.word	0x40012c00
 8004c8c:	40014400 	.word	0x40014400
 8004c90:	40014800 	.word	0x40014800
 8004c94:	40000400 	.word	0x40000400

08004c98 <HAL_TIM_PWM_ConfigChannel>:
  * @retval HAL status
  */
HAL_StatusTypeDef HAL_TIM_PWM_ConfigChannel(TIM_HandleTypeDef *htim,
                                            TIM_OC_InitTypeDef *sConfig,
                                            uint32_t Channel)
{
 8004c98:	b580      	push	{r7, lr}
 8004c9a:	b086      	sub	sp, #24
 8004c9c:	af00      	add	r7, sp, #0
 8004c9e:	60f8      	str	r0, [r7, #12]
 8004ca0:	60b9      	str	r1, [r7, #8]
 8004ca2:	607a      	str	r2, [r7, #4]
  HAL_StatusTypeDef status = HAL_OK;
 8004ca4:	2317      	movs	r3, #23
 8004ca6:	18fb      	adds	r3, r7, r3
 8004ca8:	2200      	movs	r2, #0
 8004caa:	701a      	strb	r2, [r3, #0]
  assert_param(IS_TIM_PWM_MODE(sConfig->OCMode));
  assert_param(IS_TIM_OC_POLARITY(sConfig->OCPolarity));
  assert_param(IS_TIM_FAST_STATE(sConfig->OCFastMode));

  /* Process Locked */
  __HAL_LOCK(htim);
 8004cac:	68fb      	ldr	r3, [r7, #12]
 8004cae:	223c      	movs	r2, #60	; 0x3c
 8004cb0:	5c9b      	ldrb	r3, [r3, r2]
 8004cb2:	2b01      	cmp	r3, #1
 8004cb4:	d101      	bne.n	8004cba <HAL_TIM_PWM_ConfigChannel+0x22>
 8004cb6:	2302      	movs	r3, #2
 8004cb8:	e0ad      	b.n	8004e16 <HAL_TIM_PWM_ConfigChannel+0x17e>
 8004cba:	68fb      	ldr	r3, [r7, #12]
 8004cbc:	223c      	movs	r2, #60	; 0x3c
 8004cbe:	2101      	movs	r1, #1
 8004cc0:	5499      	strb	r1, [r3, r2]

  switch (Channel)
 8004cc2:	687b      	ldr	r3, [r7, #4]
 8004cc4:	2b0c      	cmp	r3, #12
 8004cc6:	d100      	bne.n	8004cca <HAL_TIM_PWM_ConfigChannel+0x32>
 8004cc8:	e076      	b.n	8004db8 <HAL_TIM_PWM_ConfigChannel+0x120>
 8004cca:	687b      	ldr	r3, [r7, #4]
 8004ccc:	2b0c      	cmp	r3, #12
 8004cce:	d900      	bls.n	8004cd2 <HAL_TIM_PWM_ConfigChannel+0x3a>
 8004cd0:	e095      	b.n	8004dfe <HAL_TIM_PWM_ConfigChannel+0x166>
 8004cd2:	687b      	ldr	r3, [r7, #4]
 8004cd4:	2b08      	cmp	r3, #8
 8004cd6:	d04e      	beq.n	8004d76 <HAL_TIM_PWM_ConfigChannel+0xde>
 8004cd8:	687b      	ldr	r3, [r7, #4]
 8004cda:	2b08      	cmp	r3, #8
 8004cdc:	d900      	bls.n	8004ce0 <HAL_TIM_PWM_ConfigChannel+0x48>
 8004cde:	e08e      	b.n	8004dfe <HAL_TIM_PWM_ConfigChannel+0x166>
 8004ce0:	687b      	ldr	r3, [r7, #4]
 8004ce2:	2b00      	cmp	r3, #0
 8004ce4:	d003      	beq.n	8004cee <HAL_TIM_PWM_ConfigChannel+0x56>
 8004ce6:	687b      	ldr	r3, [r7, #4]
 8004ce8:	2b04      	cmp	r3, #4
 8004cea:	d021      	beq.n	8004d30 <HAL_TIM_PWM_ConfigChannel+0x98>
 8004cec:	e087      	b.n	8004dfe <HAL_TIM_PWM_ConfigChannel+0x166>
    {
      /* Check the parameters */
      assert_param(IS_TIM_CC1_INSTANCE(htim->Instance));

      /* Configure the Channel 1 in PWM mode */
      TIM_OC1_SetConfig(htim->Instance, sConfig);
 8004cee:	68fb      	ldr	r3, [r7, #12]
 8004cf0:	681b      	ldr	r3, [r3, #0]
 8004cf2:	68ba      	ldr	r2, [r7, #8]
 8004cf4:	0011      	movs	r1, r2
 8004cf6:	0018      	movs	r0, r3
 8004cf8:	f000 fa24 	bl	8005144 <TIM_OC1_SetConfig>

      /* Set the Preload enable bit for channel1 */
      htim->Instance->CCMR1 |= TIM_CCMR1_OC1PE;
 8004cfc:	68fb      	ldr	r3, [r7, #12]
 8004cfe:	681b      	ldr	r3, [r3, #0]
 8004d00:	699a      	ldr	r2, [r3, #24]
 8004d02:	68fb      	ldr	r3, [r7, #12]
 8004d04:	681b      	ldr	r3, [r3, #0]
 8004d06:	2108      	movs	r1, #8
 8004d08:	430a      	orrs	r2, r1
 8004d0a:	619a      	str	r2, [r3, #24]

      /* Configure the Output Fast mode */
      htim->Instance->CCMR1 &= ~TIM_CCMR1_OC1FE;
 8004d0c:	68fb      	ldr	r3, [r7, #12]
 8004d0e:	681b      	ldr	r3, [r3, #0]
 8004d10:	699a      	ldr	r2, [r3, #24]
 8004d12:	68fb      	ldr	r3, [r7, #12]
 8004d14:	681b      	ldr	r3, [r3, #0]
 8004d16:	2104      	movs	r1, #4
 8004d18:	438a      	bics	r2, r1
 8004d1a:	619a      	str	r2, [r3, #24]
      htim->Instance->CCMR1 |= sConfig->OCFastMode;
 8004d1c:	68fb      	ldr	r3, [r7, #12]
 8004d1e:	681b      	ldr	r3, [r3, #0]
 8004d20:	6999      	ldr	r1, [r3, #24]
 8004d22:	68bb      	ldr	r3, [r7, #8]
 8004d24:	691a      	ldr	r2, [r3, #16]
 8004d26:	68fb      	ldr	r3, [r7, #12]
 8004d28:	681b      	ldr	r3, [r3, #0]
 8004d2a:	430a      	orrs	r2, r1
 8004d2c:	619a      	str	r2, [r3, #24]
      break;
 8004d2e:	e06b      	b.n	8004e08 <HAL_TIM_PWM_ConfigChannel+0x170>
    {
      /* Check the parameters */
      assert_param(IS_TIM_CC2_INSTANCE(htim->Instance));

      /* Configure the Channel 2 in PWM mode */
      TIM_OC2_SetConfig(htim->Instance, sConfig);
 8004d30:	68fb      	ldr	r3, [r7, #12]
 8004d32:	681b      	ldr	r3, [r3, #0]
 8004d34:	68ba      	ldr	r2, [r7, #8]
 8004d36:	0011      	movs	r1, r2
 8004d38:	0018      	movs	r0, r3
 8004d3a:	f000 fa81 	bl	8005240 <TIM_OC2_SetConfig>

      /* Set the Preload enable bit for channel2 */
      htim->Instance->CCMR1 |= TIM_CCMR1_OC2PE;
 8004d3e:	68fb      	ldr	r3, [r7, #12]
 8004d40:	681b      	ldr	r3, [r3, #0]
 8004d42:	699a      	ldr	r2, [r3, #24]
 8004d44:	68fb      	ldr	r3, [r7, #12]
 8004d46:	681b      	ldr	r3, [r3, #0]
 8004d48:	2180      	movs	r1, #128	; 0x80
 8004d4a:	0109      	lsls	r1, r1, #4
 8004d4c:	430a      	orrs	r2, r1
 8004d4e:	619a      	str	r2, [r3, #24]

      /* Configure the Output Fast mode */
      htim->Instance->CCMR1 &= ~TIM_CCMR1_OC2FE;
 8004d50:	68fb      	ldr	r3, [r7, #12]
 8004d52:	681b      	ldr	r3, [r3, #0]
 8004d54:	699a      	ldr	r2, [r3, #24]
 8004d56:	68fb      	ldr	r3, [r7, #12]
 8004d58:	681b      	ldr	r3, [r3, #0]
 8004d5a:	4931      	ldr	r1, [pc, #196]	; (8004e20 <HAL_TIM_PWM_ConfigChannel+0x188>)
 8004d5c:	400a      	ands	r2, r1
 8004d5e:	619a      	str	r2, [r3, #24]
      htim->Instance->CCMR1 |= sConfig->OCFastMode << 8U;
 8004d60:	68fb      	ldr	r3, [r7, #12]
 8004d62:	681b      	ldr	r3, [r3, #0]
 8004d64:	6999      	ldr	r1, [r3, #24]
 8004d66:	68bb      	ldr	r3, [r7, #8]
 8004d68:	691b      	ldr	r3, [r3, #16]
 8004d6a:	021a      	lsls	r2, r3, #8
 8004d6c:	68fb      	ldr	r3, [r7, #12]
 8004d6e:	681b      	ldr	r3, [r3, #0]
 8004d70:	430a      	orrs	r2, r1
 8004d72:	619a      	str	r2, [r3, #24]
      break;
 8004d74:	e048      	b.n	8004e08 <HAL_TIM_PWM_ConfigChannel+0x170>
    {
      /* Check the parameters */
      assert_param(IS_TIM_CC3_INSTANCE(htim->Instance));

      /* Configure the Channel 3 in PWM mode */
      TIM_OC3_SetConfig(htim->Instance, sConfig);
 8004d76:	68fb      	ldr	r3, [r7, #12]
 8004d78:	681b      	ldr	r3, [r3, #0]
 8004d7a:	68ba      	ldr	r2, [r7, #8]
 8004d7c:	0011      	movs	r1, r2
 8004d7e:	0018      	movs	r0, r3
 8004d80:	f000 fadc 	bl	800533c <TIM_OC3_SetConfig>

      /* Set the Preload enable bit for channel3 */
      htim->Instance->CCMR2 |= TIM_CCMR2_OC3PE;
 8004d84:	68fb      	ldr	r3, [r7, #12]
 8004d86:	681b      	ldr	r3, [r3, #0]
 8004d88:	69da      	ldr	r2, [r3, #28]
 8004d8a:	68fb      	ldr	r3, [r7, #12]
 8004d8c:	681b      	ldr	r3, [r3, #0]
 8004d8e:	2108      	movs	r1, #8
 8004d90:	430a      	orrs	r2, r1
 8004d92:	61da      	str	r2, [r3, #28]

      /* Configure the Output Fast mode */
      htim->Instance->CCMR2 &= ~TIM_CCMR2_OC3FE;
 8004d94:	68fb      	ldr	r3, [r7, #12]
 8004d96:	681b      	ldr	r3, [r3, #0]
 8004d98:	69da      	ldr	r2, [r3, #28]
 8004d9a:	68fb      	ldr	r3, [r7, #12]
 8004d9c:	681b      	ldr	r3, [r3, #0]
 8004d9e:	2104      	movs	r1, #4
 8004da0:	438a      	bics	r2, r1
 8004da2:	61da      	str	r2, [r3, #28]
      htim->Instance->CCMR2 |= sConfig->OCFastMode;
 8004da4:	68fb      	ldr	r3, [r7, #12]
 8004da6:	681b      	ldr	r3, [r3, #0]
 8004da8:	69d9      	ldr	r1, [r3, #28]
 8004daa:	68bb      	ldr	r3, [r7, #8]
 8004dac:	691a      	ldr	r2, [r3, #16]
 8004dae:	68fb      	ldr	r3, [r7, #12]
 8004db0:	681b      	ldr	r3, [r3, #0]
 8004db2:	430a      	orrs	r2, r1
 8004db4:	61da      	str	r2, [r3, #28]
      break;
 8004db6:	e027      	b.n	8004e08 <HAL_TIM_PWM_ConfigChannel+0x170>
    {
      /* Check the parameters */
      assert_param(IS_TIM_CC4_INSTANCE(htim->Instance));

      /* Configure the Channel 4 in PWM mode */
      TIM_OC4_SetConfig(htim->Instance, sConfig);
 8004db8:	68fb      	ldr	r3, [r7, #12]
 8004dba:	681b      	ldr	r3, [r3, #0]
 8004dbc:	68ba      	ldr	r2, [r7, #8]
 8004dbe:	0011      	movs	r1, r2
 8004dc0:	0018      	movs	r0, r3
 8004dc2:	f000 fb3b 	bl	800543c <TIM_OC4_SetConfig>

      /* Set the Preload enable bit for channel4 */
      htim->Instance->CCMR2 |= TIM_CCMR2_OC4PE;
 8004dc6:	68fb      	ldr	r3, [r7, #12]
 8004dc8:	681b      	ldr	r3, [r3, #0]
 8004dca:	69da      	ldr	r2, [r3, #28]
 8004dcc:	68fb      	ldr	r3, [r7, #12]
 8004dce:	681b      	ldr	r3, [r3, #0]
 8004dd0:	2180      	movs	r1, #128	; 0x80
 8004dd2:	0109      	lsls	r1, r1, #4
 8004dd4:	430a      	orrs	r2, r1
 8004dd6:	61da      	str	r2, [r3, #28]

      /* Configure the Output Fast mode */
      htim->Instance->CCMR2 &= ~TIM_CCMR2_OC4FE;
 8004dd8:	68fb      	ldr	r3, [r7, #12]
 8004dda:	681b      	ldr	r3, [r3, #0]
 8004ddc:	69da      	ldr	r2, [r3, #28]
 8004dde:	68fb      	ldr	r3, [r7, #12]
 8004de0:	681b      	ldr	r3, [r3, #0]
 8004de2:	490f      	ldr	r1, [pc, #60]	; (8004e20 <HAL_TIM_PWM_ConfigChannel+0x188>)
 8004de4:	400a      	ands	r2, r1
 8004de6:	61da      	str	r2, [r3, #28]
      htim->Instance->CCMR2 |= sConfig->OCFastMode << 8U;
 8004de8:	68fb      	ldr	r3, [r7, #12]
 8004dea:	681b      	ldr	r3, [r3, #0]
 8004dec:	69d9      	ldr	r1, [r3, #28]
 8004dee:	68bb      	ldr	r3, [r7, #8]
 8004df0:	691b      	ldr	r3, [r3, #16]
 8004df2:	021a      	lsls	r2, r3, #8
 8004df4:	68fb      	ldr	r3, [r7, #12]
 8004df6:	681b      	ldr	r3, [r3, #0]
 8004df8:	430a      	orrs	r2, r1
 8004dfa:	61da      	str	r2, [r3, #28]
      break;
 8004dfc:	e004      	b.n	8004e08 <HAL_TIM_PWM_ConfigChannel+0x170>
    }

    default:
      status = HAL_ERROR;
 8004dfe:	2317      	movs	r3, #23
 8004e00:	18fb      	adds	r3, r7, r3
 8004e02:	2201      	movs	r2, #1
 8004e04:	701a      	strb	r2, [r3, #0]
      break;
 8004e06:	46c0      	nop			; (mov r8, r8)
  }

  __HAL_UNLOCK(htim);
 8004e08:	68fb      	ldr	r3, [r7, #12]
 8004e0a:	223c      	movs	r2, #60	; 0x3c
 8004e0c:	2100      	movs	r1, #0
 8004e0e:	5499      	strb	r1, [r3, r2]

  return status;
 8004e10:	2317      	movs	r3, #23
 8004e12:	18fb      	adds	r3, r7, r3
 8004e14:	781b      	ldrb	r3, [r3, #0]
}
 8004e16:	0018      	movs	r0, r3
 8004e18:	46bd      	mov	sp, r7
 8004e1a:	b006      	add	sp, #24
 8004e1c:	bd80      	pop	{r7, pc}
 8004e1e:	46c0      	nop			; (mov r8, r8)
 8004e20:	fffffbff 	.word	0xfffffbff

08004e24 <HAL_TIM_ConfigClockSource>:
  * @param  sClockSourceConfig pointer to a TIM_ClockConfigTypeDef structure that
  *         contains the clock source information for the TIM peripheral.
  * @retval HAL status
  */
HAL_StatusTypeDef HAL_TIM_ConfigClockSource(TIM_HandleTypeDef *htim, TIM_ClockConfigTypeDef *sClockSourceConfig)
{
 8004e24:	b580      	push	{r7, lr}
 8004e26:	b084      	sub	sp, #16
 8004e28:	af00      	add	r7, sp, #0
 8004e2a:	6078      	str	r0, [r7, #4]
 8004e2c:	6039      	str	r1, [r7, #0]
  HAL_StatusTypeDef status = HAL_OK;
 8004e2e:	230f      	movs	r3, #15
 8004e30:	18fb      	adds	r3, r7, r3
 8004e32:	2200      	movs	r2, #0
 8004e34:	701a      	strb	r2, [r3, #0]
  uint32_t tmpsmcr;

  /* Process Locked */
  __HAL_LOCK(htim);
 8004e36:	687b      	ldr	r3, [r7, #4]
 8004e38:	223c      	movs	r2, #60	; 0x3c
 8004e3a:	5c9b      	ldrb	r3, [r3, r2]
 8004e3c:	2b01      	cmp	r3, #1
 8004e3e:	d101      	bne.n	8004e44 <HAL_TIM_ConfigClockSource+0x20>
 8004e40:	2302      	movs	r3, #2
 8004e42:	e0bc      	b.n	8004fbe <HAL_TIM_ConfigClockSource+0x19a>
 8004e44:	687b      	ldr	r3, [r7, #4]
 8004e46:	223c      	movs	r2, #60	; 0x3c
 8004e48:	2101      	movs	r1, #1
 8004e4a:	5499      	strb	r1, [r3, r2]

  htim->State = HAL_TIM_STATE_BUSY;
 8004e4c:	687b      	ldr	r3, [r7, #4]
 8004e4e:	223d      	movs	r2, #61	; 0x3d
 8004e50:	2102      	movs	r1, #2
 8004e52:	5499      	strb	r1, [r3, r2]

  /* Check the parameters */
  assert_param(IS_TIM_CLOCKSOURCE(sClockSourceConfig->ClockSource));

  /* Reset the SMS, TS, ECE, ETPS and ETRF bits */
  tmpsmcr = htim->Instance->SMCR;
 8004e54:	687b      	ldr	r3, [r7, #4]
 8004e56:	681b      	ldr	r3, [r3, #0]
 8004e58:	689b      	ldr	r3, [r3, #8]
 8004e5a:	60bb      	str	r3, [r7, #8]
  tmpsmcr &= ~(TIM_SMCR_SMS | TIM_SMCR_TS);
 8004e5c:	68bb      	ldr	r3, [r7, #8]
 8004e5e:	2277      	movs	r2, #119	; 0x77
 8004e60:	4393      	bics	r3, r2
 8004e62:	60bb      	str	r3, [r7, #8]
  tmpsmcr &= ~(TIM_SMCR_ETF | TIM_SMCR_ETPS | TIM_SMCR_ECE | TIM_SMCR_ETP);
 8004e64:	68bb      	ldr	r3, [r7, #8]
 8004e66:	4a58      	ldr	r2, [pc, #352]	; (8004fc8 <HAL_TIM_ConfigClockSource+0x1a4>)
 8004e68:	4013      	ands	r3, r2
 8004e6a:	60bb      	str	r3, [r7, #8]
  htim->Instance->SMCR = tmpsmcr;
 8004e6c:	687b      	ldr	r3, [r7, #4]
 8004e6e:	681b      	ldr	r3, [r3, #0]
 8004e70:	68ba      	ldr	r2, [r7, #8]
 8004e72:	609a      	str	r2, [r3, #8]

  switch (sClockSourceConfig->ClockSource)
 8004e74:	683b      	ldr	r3, [r7, #0]
 8004e76:	681b      	ldr	r3, [r3, #0]
 8004e78:	2280      	movs	r2, #128	; 0x80
 8004e7a:	0192      	lsls	r2, r2, #6
 8004e7c:	4293      	cmp	r3, r2
 8004e7e:	d040      	beq.n	8004f02 <HAL_TIM_ConfigClockSource+0xde>
 8004e80:	2280      	movs	r2, #128	; 0x80
 8004e82:	0192      	lsls	r2, r2, #6
 8004e84:	4293      	cmp	r3, r2
 8004e86:	d900      	bls.n	8004e8a <HAL_TIM_ConfigClockSource+0x66>
 8004e88:	e088      	b.n	8004f9c <HAL_TIM_ConfigClockSource+0x178>
 8004e8a:	2280      	movs	r2, #128	; 0x80
 8004e8c:	0152      	lsls	r2, r2, #5
 8004e8e:	4293      	cmp	r3, r2
 8004e90:	d100      	bne.n	8004e94 <HAL_TIM_ConfigClockSource+0x70>
 8004e92:	e088      	b.n	8004fa6 <HAL_TIM_ConfigClockSource+0x182>
 8004e94:	2280      	movs	r2, #128	; 0x80
 8004e96:	0152      	lsls	r2, r2, #5
 8004e98:	4293      	cmp	r3, r2
 8004e9a:	d900      	bls.n	8004e9e <HAL_TIM_ConfigClockSource+0x7a>
 8004e9c:	e07e      	b.n	8004f9c <HAL_TIM_ConfigClockSource+0x178>
 8004e9e:	2b70      	cmp	r3, #112	; 0x70
 8004ea0:	d018      	beq.n	8004ed4 <HAL_TIM_ConfigClockSource+0xb0>
 8004ea2:	d900      	bls.n	8004ea6 <HAL_TIM_ConfigClockSource+0x82>
 8004ea4:	e07a      	b.n	8004f9c <HAL_TIM_ConfigClockSource+0x178>
 8004ea6:	2b60      	cmp	r3, #96	; 0x60
 8004ea8:	d04f      	beq.n	8004f4a <HAL_TIM_ConfigClockSource+0x126>
 8004eaa:	d900      	bls.n	8004eae <HAL_TIM_ConfigClockSource+0x8a>
 8004eac:	e076      	b.n	8004f9c <HAL_TIM_ConfigClockSource+0x178>
 8004eae:	2b50      	cmp	r3, #80	; 0x50
 8004eb0:	d03b      	beq.n	8004f2a <HAL_TIM_ConfigClockSource+0x106>
 8004eb2:	d900      	bls.n	8004eb6 <HAL_TIM_ConfigClockSource+0x92>
 8004eb4:	e072      	b.n	8004f9c <HAL_TIM_ConfigClockSource+0x178>
 8004eb6:	2b40      	cmp	r3, #64	; 0x40
 8004eb8:	d057      	beq.n	8004f6a <HAL_TIM_ConfigClockSource+0x146>
 8004eba:	d900      	bls.n	8004ebe <HAL_TIM_ConfigClockSource+0x9a>
 8004ebc:	e06e      	b.n	8004f9c <HAL_TIM_ConfigClockSource+0x178>
 8004ebe:	2b30      	cmp	r3, #48	; 0x30
 8004ec0:	d063      	beq.n	8004f8a <HAL_TIM_ConfigClockSource+0x166>
 8004ec2:	d86b      	bhi.n	8004f9c <HAL_TIM_ConfigClockSource+0x178>
 8004ec4:	2b20      	cmp	r3, #32
 8004ec6:	d060      	beq.n	8004f8a <HAL_TIM_ConfigClockSource+0x166>
 8004ec8:	d868      	bhi.n	8004f9c <HAL_TIM_ConfigClockSource+0x178>
 8004eca:	2b00      	cmp	r3, #0
 8004ecc:	d05d      	beq.n	8004f8a <HAL_TIM_ConfigClockSource+0x166>
 8004ece:	2b10      	cmp	r3, #16
 8004ed0:	d05b      	beq.n	8004f8a <HAL_TIM_ConfigClockSource+0x166>
 8004ed2:	e063      	b.n	8004f9c <HAL_TIM_ConfigClockSource+0x178>
      assert_param(IS_TIM_CLOCKPRESCALER(sClockSourceConfig->ClockPrescaler));
      assert_param(IS_TIM_CLOCKPOLARITY(sClockSourceConfig->ClockPolarity));
      assert_param(IS_TIM_CLOCKFILTER(sClockSourceConfig->ClockFilter));

      /* Configure the ETR Clock source */
      TIM_ETR_SetConfig(htim->Instance,
 8004ed4:	687b      	ldr	r3, [r7, #4]
 8004ed6:	6818      	ldr	r0, [r3, #0]
 8004ed8:	683b      	ldr	r3, [r7, #0]
 8004eda:	6899      	ldr	r1, [r3, #8]
 8004edc:	683b      	ldr	r3, [r7, #0]
 8004ede:	685a      	ldr	r2, [r3, #4]
 8004ee0:	683b      	ldr	r3, [r7, #0]
 8004ee2:	68db      	ldr	r3, [r3, #12]
 8004ee4:	f000 fc1a 	bl	800571c <TIM_ETR_SetConfig>
                        sClockSourceConfig->ClockPrescaler,
                        sClockSourceConfig->ClockPolarity,
                        sClockSourceConfig->ClockFilter);

      /* Select the External clock mode1 and the ETRF trigger */
      tmpsmcr = htim->Instance->SMCR;
 8004ee8:	687b      	ldr	r3, [r7, #4]
 8004eea:	681b      	ldr	r3, [r3, #0]
 8004eec:	689b      	ldr	r3, [r3, #8]
 8004eee:	60bb      	str	r3, [r7, #8]
      tmpsmcr |= (TIM_SLAVEMODE_EXTERNAL1 | TIM_CLOCKSOURCE_ETRMODE1);
 8004ef0:	68bb      	ldr	r3, [r7, #8]
 8004ef2:	2277      	movs	r2, #119	; 0x77
 8004ef4:	4313      	orrs	r3, r2
 8004ef6:	60bb      	str	r3, [r7, #8]
      /* Write to TIMx SMCR */
      htim->Instance->SMCR = tmpsmcr;
 8004ef8:	687b      	ldr	r3, [r7, #4]
 8004efa:	681b      	ldr	r3, [r3, #0]
 8004efc:	68ba      	ldr	r2, [r7, #8]
 8004efe:	609a      	str	r2, [r3, #8]
      break;
 8004f00:	e052      	b.n	8004fa8 <HAL_TIM_ConfigClockSource+0x184>
      assert_param(IS_TIM_CLOCKPRESCALER(sClockSourceConfig->ClockPrescaler));
      assert_param(IS_TIM_CLOCKPOLARITY(sClockSourceConfig->ClockPolarity));
      assert_param(IS_TIM_CLOCKFILTER(sClockSourceConfig->ClockFilter));

      /* Configure the ETR Clock source */
      TIM_ETR_SetConfig(htim->Instance,
 8004f02:	687b      	ldr	r3, [r7, #4]
 8004f04:	6818      	ldr	r0, [r3, #0]
 8004f06:	683b      	ldr	r3, [r7, #0]
 8004f08:	6899      	ldr	r1, [r3, #8]
 8004f0a:	683b      	ldr	r3, [r7, #0]
 8004f0c:	685a      	ldr	r2, [r3, #4]
 8004f0e:	683b      	ldr	r3, [r7, #0]
 8004f10:	68db      	ldr	r3, [r3, #12]
 8004f12:	f000 fc03 	bl	800571c <TIM_ETR_SetConfig>
                        sClockSourceConfig->ClockPrescaler,
                        sClockSourceConfig->ClockPolarity,
                        sClockSourceConfig->ClockFilter);
      /* Enable the External clock mode2 */
      htim->Instance->SMCR |= TIM_SMCR_ECE;
 8004f16:	687b      	ldr	r3, [r7, #4]
 8004f18:	681b      	ldr	r3, [r3, #0]
 8004f1a:	689a      	ldr	r2, [r3, #8]
 8004f1c:	687b      	ldr	r3, [r7, #4]
 8004f1e:	681b      	ldr	r3, [r3, #0]
 8004f20:	2180      	movs	r1, #128	; 0x80
 8004f22:	01c9      	lsls	r1, r1, #7
 8004f24:	430a      	orrs	r2, r1
 8004f26:	609a      	str	r2, [r3, #8]
      break;
 8004f28:	e03e      	b.n	8004fa8 <HAL_TIM_ConfigClockSource+0x184>

      /* Check TI1 input conditioning related parameters */
      assert_param(IS_TIM_CLOCKPOLARITY(sClockSourceConfig->ClockPolarity));
      assert_param(IS_TIM_CLOCKFILTER(sClockSourceConfig->ClockFilter));

      TIM_TI1_ConfigInputStage(htim->Instance,
 8004f2a:	687b      	ldr	r3, [r7, #4]
 8004f2c:	6818      	ldr	r0, [r3, #0]
 8004f2e:	683b      	ldr	r3, [r7, #0]
 8004f30:	6859      	ldr	r1, [r3, #4]
 8004f32:	683b      	ldr	r3, [r7, #0]
 8004f34:	68db      	ldr	r3, [r3, #12]
 8004f36:	001a      	movs	r2, r3
 8004f38:	f000 fb76 	bl	8005628 <TIM_TI1_ConfigInputStage>
                               sClockSourceConfig->ClockPolarity,
                               sClockSourceConfig->ClockFilter);
      TIM_ITRx_SetConfig(htim->Instance, TIM_CLOCKSOURCE_TI1);
 8004f3c:	687b      	ldr	r3, [r7, #4]
 8004f3e:	681b      	ldr	r3, [r3, #0]
 8004f40:	2150      	movs	r1, #80	; 0x50
 8004f42:	0018      	movs	r0, r3
 8004f44:	f000 fbd0 	bl	80056e8 <TIM_ITRx_SetConfig>
      break;
 8004f48:	e02e      	b.n	8004fa8 <HAL_TIM_ConfigClockSource+0x184>

      /* Check TI2 input conditioning related parameters */
      assert_param(IS_TIM_CLOCKPOLARITY(sClockSourceConfig->ClockPolarity));
      assert_param(IS_TIM_CLOCKFILTER(sClockSourceConfig->ClockFilter));

      TIM_TI2_ConfigInputStage(htim->Instance,
 8004f4a:	687b      	ldr	r3, [r7, #4]
 8004f4c:	6818      	ldr	r0, [r3, #0]
 8004f4e:	683b      	ldr	r3, [r7, #0]
 8004f50:	6859      	ldr	r1, [r3, #4]
 8004f52:	683b      	ldr	r3, [r7, #0]
 8004f54:	68db      	ldr	r3, [r3, #12]
 8004f56:	001a      	movs	r2, r3
 8004f58:	f000 fb94 	bl	8005684 <TIM_TI2_ConfigInputStage>
                               sClockSourceConfig->ClockPolarity,
                               sClockSourceConfig->ClockFilter);
      TIM_ITRx_SetConfig(htim->Instance, TIM_CLOCKSOURCE_TI2);
 8004f5c:	687b      	ldr	r3, [r7, #4]
 8004f5e:	681b      	ldr	r3, [r3, #0]
 8004f60:	2160      	movs	r1, #96	; 0x60
 8004f62:	0018      	movs	r0, r3
 8004f64:	f000 fbc0 	bl	80056e8 <TIM_ITRx_SetConfig>
      break;
 8004f68:	e01e      	b.n	8004fa8 <HAL_TIM_ConfigClockSource+0x184>

      /* Check TI1 input conditioning related parameters */
      assert_param(IS_TIM_CLOCKPOLARITY(sClockSourceConfig->ClockPolarity));
      assert_param(IS_TIM_CLOCKFILTER(sClockSourceConfig->ClockFilter));

      TIM_TI1_ConfigInputStage(htim->Instance,
 8004f6a:	687b      	ldr	r3, [r7, #4]
 8004f6c:	6818      	ldr	r0, [r3, #0]
 8004f6e:	683b      	ldr	r3, [r7, #0]
 8004f70:	6859      	ldr	r1, [r3, #4]
 8004f72:	683b      	ldr	r3, [r7, #0]
 8004f74:	68db      	ldr	r3, [r3, #12]
 8004f76:	001a      	movs	r2, r3
 8004f78:	f000 fb56 	bl	8005628 <TIM_TI1_ConfigInputStage>
                               sClockSourceConfig->ClockPolarity,
                               sClockSourceConfig->ClockFilter);
      TIM_ITRx_SetConfig(htim->Instance, TIM_CLOCKSOURCE_TI1ED);
 8004f7c:	687b      	ldr	r3, [r7, #4]
 8004f7e:	681b      	ldr	r3, [r3, #0]
 8004f80:	2140      	movs	r1, #64	; 0x40
 8004f82:	0018      	movs	r0, r3
 8004f84:	f000 fbb0 	bl	80056e8 <TIM_ITRx_SetConfig>
      break;
 8004f88:	e00e      	b.n	8004fa8 <HAL_TIM_ConfigClockSource+0x184>
    case TIM_CLOCKSOURCE_ITR3:
    {
      /* Check whether or not the timer instance supports internal trigger input */
      assert_param(IS_TIM_CLOCKSOURCE_ITRX_INSTANCE(htim->Instance));

      TIM_ITRx_SetConfig(htim->Instance, sClockSourceConfig->ClockSource);
 8004f8a:	687b      	ldr	r3, [r7, #4]
 8004f8c:	681a      	ldr	r2, [r3, #0]
 8004f8e:	683b      	ldr	r3, [r7, #0]
 8004f90:	681b      	ldr	r3, [r3, #0]
 8004f92:	0019      	movs	r1, r3
 8004f94:	0010      	movs	r0, r2
 8004f96:	f000 fba7 	bl	80056e8 <TIM_ITRx_SetConfig>
      break;
 8004f9a:	e005      	b.n	8004fa8 <HAL_TIM_ConfigClockSource+0x184>
    }

    default:
      status = HAL_ERROR;
 8004f9c:	230f      	movs	r3, #15
 8004f9e:	18fb      	adds	r3, r7, r3
 8004fa0:	2201      	movs	r2, #1
 8004fa2:	701a      	strb	r2, [r3, #0]
      break;
 8004fa4:	e000      	b.n	8004fa8 <HAL_TIM_ConfigClockSource+0x184>
      break;
 8004fa6:	46c0      	nop			; (mov r8, r8)
  }
  htim->State = HAL_TIM_STATE_READY;
 8004fa8:	687b      	ldr	r3, [r7, #4]
 8004faa:	223d      	movs	r2, #61	; 0x3d
 8004fac:	2101      	movs	r1, #1
 8004fae:	5499      	strb	r1, [r3, r2]

  __HAL_UNLOCK(htim);
 8004fb0:	687b      	ldr	r3, [r7, #4]
 8004fb2:	223c      	movs	r2, #60	; 0x3c
 8004fb4:	2100      	movs	r1, #0
 8004fb6:	5499      	strb	r1, [r3, r2]

  return status;
 8004fb8:	230f      	movs	r3, #15
 8004fba:	18fb      	adds	r3, r7, r3
 8004fbc:	781b      	ldrb	r3, [r3, #0]
}
 8004fbe:	0018      	movs	r0, r3
 8004fc0:	46bd      	mov	sp, r7
 8004fc2:	b004      	add	sp, #16
 8004fc4:	bd80      	pop	{r7, pc}
 8004fc6:	46c0      	nop			; (mov r8, r8)
 8004fc8:	ffff00ff 	.word	0xffff00ff

08004fcc <HAL_TIM_SlaveConfigSynchro>:
  *         timer input or external trigger input) and the Slave mode
  *         (Disable, Reset, Gated, Trigger, External clock mode 1).
  * @retval HAL status
  */
HAL_StatusTypeDef HAL_TIM_SlaveConfigSynchro(TIM_HandleTypeDef *htim, TIM_SlaveConfigTypeDef *sSlaveConfig)
{
 8004fcc:	b580      	push	{r7, lr}
 8004fce:	b082      	sub	sp, #8
 8004fd0:	af00      	add	r7, sp, #0
 8004fd2:	6078      	str	r0, [r7, #4]
 8004fd4:	6039      	str	r1, [r7, #0]
  /* Check the parameters */
  assert_param(IS_TIM_SLAVE_INSTANCE(htim->Instance));
  assert_param(IS_TIM_SLAVE_MODE(sSlaveConfig->SlaveMode));
  assert_param(IS_TIM_TRIGGER_SELECTION(sSlaveConfig->InputTrigger));

  __HAL_LOCK(htim);
 8004fd6:	687b      	ldr	r3, [r7, #4]
 8004fd8:	223c      	movs	r2, #60	; 0x3c
 8004fda:	5c9b      	ldrb	r3, [r3, r2]
 8004fdc:	2b01      	cmp	r3, #1
 8004fde:	d101      	bne.n	8004fe4 <HAL_TIM_SlaveConfigSynchro+0x18>
 8004fe0:	2302      	movs	r3, #2
 8004fe2:	e032      	b.n	800504a <HAL_TIM_SlaveConfigSynchro+0x7e>
 8004fe4:	687b      	ldr	r3, [r7, #4]
 8004fe6:	223c      	movs	r2, #60	; 0x3c
 8004fe8:	2101      	movs	r1, #1
 8004fea:	5499      	strb	r1, [r3, r2]

  htim->State = HAL_TIM_STATE_BUSY;
 8004fec:	687b      	ldr	r3, [r7, #4]
 8004fee:	223d      	movs	r2, #61	; 0x3d
 8004ff0:	2102      	movs	r1, #2
 8004ff2:	5499      	strb	r1, [r3, r2]

  if (TIM_SlaveTimer_SetConfig(htim, sSlaveConfig) != HAL_OK)
 8004ff4:	683a      	ldr	r2, [r7, #0]
 8004ff6:	687b      	ldr	r3, [r7, #4]
 8004ff8:	0011      	movs	r1, r2
 8004ffa:	0018      	movs	r0, r3
 8004ffc:	f000 fa82 	bl	8005504 <TIM_SlaveTimer_SetConfig>
 8005000:	1e03      	subs	r3, r0, #0
 8005002:	d009      	beq.n	8005018 <HAL_TIM_SlaveConfigSynchro+0x4c>
  {
    htim->State = HAL_TIM_STATE_READY;
 8005004:	687b      	ldr	r3, [r7, #4]
 8005006:	223d      	movs	r2, #61	; 0x3d
 8005008:	2101      	movs	r1, #1
 800500a:	5499      	strb	r1, [r3, r2]
    __HAL_UNLOCK(htim);
 800500c:	687b      	ldr	r3, [r7, #4]
 800500e:	223c      	movs	r2, #60	; 0x3c
 8005010:	2100      	movs	r1, #0
 8005012:	5499      	strb	r1, [r3, r2]
    return HAL_ERROR;
 8005014:	2301      	movs	r3, #1
 8005016:	e018      	b.n	800504a <HAL_TIM_SlaveConfigSynchro+0x7e>
  }

  /* Disable Trigger Interrupt */
  __HAL_TIM_DISABLE_IT(htim, TIM_IT_TRIGGER);
 8005018:	687b      	ldr	r3, [r7, #4]
 800501a:	681b      	ldr	r3, [r3, #0]
 800501c:	68da      	ldr	r2, [r3, #12]
 800501e:	687b      	ldr	r3, [r7, #4]
 8005020:	681b      	ldr	r3, [r3, #0]
 8005022:	2140      	movs	r1, #64	; 0x40
 8005024:	438a      	bics	r2, r1
 8005026:	60da      	str	r2, [r3, #12]

  /* Disable Trigger DMA request */
  __HAL_TIM_DISABLE_DMA(htim, TIM_DMA_TRIGGER);
 8005028:	687b      	ldr	r3, [r7, #4]
 800502a:	681b      	ldr	r3, [r3, #0]
 800502c:	68da      	ldr	r2, [r3, #12]
 800502e:	687b      	ldr	r3, [r7, #4]
 8005030:	681b      	ldr	r3, [r3, #0]
 8005032:	4908      	ldr	r1, [pc, #32]	; (8005054 <HAL_TIM_SlaveConfigSynchro+0x88>)
 8005034:	400a      	ands	r2, r1
 8005036:	60da      	str	r2, [r3, #12]

  htim->State = HAL_TIM_STATE_READY;
 8005038:	687b      	ldr	r3, [r7, #4]
 800503a:	223d      	movs	r2, #61	; 0x3d
 800503c:	2101      	movs	r1, #1
 800503e:	5499      	strb	r1, [r3, r2]

  __HAL_UNLOCK(htim);
 8005040:	687b      	ldr	r3, [r7, #4]
 8005042:	223c      	movs	r2, #60	; 0x3c
 8005044:	2100      	movs	r1, #0
 8005046:	5499      	strb	r1, [r3, r2]

  return HAL_OK;
 8005048:	2300      	movs	r3, #0
}
 800504a:	0018      	movs	r0, r3
 800504c:	46bd      	mov	sp, r7
 800504e:	b002      	add	sp, #8
 8005050:	bd80      	pop	{r7, pc}
 8005052:	46c0      	nop			; (mov r8, r8)
 8005054:	ffffbfff 	.word	0xffffbfff

08005058 <TIM_Base_SetConfig>:
  * @param  TIMx TIM peripheral
  * @param  Structure TIM Base configuration structure
  * @retval None
  */
void TIM_Base_SetConfig(TIM_TypeDef *TIMx, TIM_Base_InitTypeDef *Structure)
{
 8005058:	b580      	push	{r7, lr}
 800505a:	b084      	sub	sp, #16
 800505c:	af00      	add	r7, sp, #0
 800505e:	6078      	str	r0, [r7, #4]
 8005060:	6039      	str	r1, [r7, #0]
  uint32_t tmpcr1;
  tmpcr1 = TIMx->CR1;
 8005062:	687b      	ldr	r3, [r7, #4]
 8005064:	681b      	ldr	r3, [r3, #0]
 8005066:	60fb      	str	r3, [r7, #12]

  /* Set TIM Time Base Unit parameters ---------------------------------------*/
  if (IS_TIM_COUNTER_MODE_SELECT_INSTANCE(TIMx))
 8005068:	687b      	ldr	r3, [r7, #4]
 800506a:	4a30      	ldr	r2, [pc, #192]	; (800512c <TIM_Base_SetConfig+0xd4>)
 800506c:	4293      	cmp	r3, r2
 800506e:	d008      	beq.n	8005082 <TIM_Base_SetConfig+0x2a>
 8005070:	687a      	ldr	r2, [r7, #4]
 8005072:	2380      	movs	r3, #128	; 0x80
 8005074:	05db      	lsls	r3, r3, #23
 8005076:	429a      	cmp	r2, r3
 8005078:	d003      	beq.n	8005082 <TIM_Base_SetConfig+0x2a>
 800507a:	687b      	ldr	r3, [r7, #4]
 800507c:	4a2c      	ldr	r2, [pc, #176]	; (8005130 <TIM_Base_SetConfig+0xd8>)
 800507e:	4293      	cmp	r3, r2
 8005080:	d108      	bne.n	8005094 <TIM_Base_SetConfig+0x3c>
  {
    /* Select the Counter Mode */
    tmpcr1 &= ~(TIM_CR1_DIR | TIM_CR1_CMS);
 8005082:	68fb      	ldr	r3, [r7, #12]
 8005084:	2270      	movs	r2, #112	; 0x70
 8005086:	4393      	bics	r3, r2
 8005088:	60fb      	str	r3, [r7, #12]
    tmpcr1 |= Structure->CounterMode;
 800508a:	683b      	ldr	r3, [r7, #0]
 800508c:	685b      	ldr	r3, [r3, #4]
 800508e:	68fa      	ldr	r2, [r7, #12]
 8005090:	4313      	orrs	r3, r2
 8005092:	60fb      	str	r3, [r7, #12]
  }

  if (IS_TIM_CLOCK_DIVISION_INSTANCE(TIMx))
 8005094:	687b      	ldr	r3, [r7, #4]
 8005096:	4a25      	ldr	r2, [pc, #148]	; (800512c <TIM_Base_SetConfig+0xd4>)
 8005098:	4293      	cmp	r3, r2
 800509a:	d014      	beq.n	80050c6 <TIM_Base_SetConfig+0x6e>
 800509c:	687a      	ldr	r2, [r7, #4]
 800509e:	2380      	movs	r3, #128	; 0x80
 80050a0:	05db      	lsls	r3, r3, #23
 80050a2:	429a      	cmp	r2, r3
 80050a4:	d00f      	beq.n	80050c6 <TIM_Base_SetConfig+0x6e>
 80050a6:	687b      	ldr	r3, [r7, #4]
 80050a8:	4a21      	ldr	r2, [pc, #132]	; (8005130 <TIM_Base_SetConfig+0xd8>)
 80050aa:	4293      	cmp	r3, r2
 80050ac:	d00b      	beq.n	80050c6 <TIM_Base_SetConfig+0x6e>
 80050ae:	687b      	ldr	r3, [r7, #4]
 80050b0:	4a20      	ldr	r2, [pc, #128]	; (8005134 <TIM_Base_SetConfig+0xdc>)
 80050b2:	4293      	cmp	r3, r2
 80050b4:	d007      	beq.n	80050c6 <TIM_Base_SetConfig+0x6e>
 80050b6:	687b      	ldr	r3, [r7, #4]
 80050b8:	4a1f      	ldr	r2, [pc, #124]	; (8005138 <TIM_Base_SetConfig+0xe0>)
 80050ba:	4293      	cmp	r3, r2
 80050bc:	d003      	beq.n	80050c6 <TIM_Base_SetConfig+0x6e>
 80050be:	687b      	ldr	r3, [r7, #4]
 80050c0:	4a1e      	ldr	r2, [pc, #120]	; (800513c <TIM_Base_SetConfig+0xe4>)
 80050c2:	4293      	cmp	r3, r2
 80050c4:	d108      	bne.n	80050d8 <TIM_Base_SetConfig+0x80>
  {
    /* Set the clock division */
    tmpcr1 &= ~TIM_CR1_CKD;
 80050c6:	68fb      	ldr	r3, [r7, #12]
 80050c8:	4a1d      	ldr	r2, [pc, #116]	; (8005140 <TIM_Base_SetConfig+0xe8>)
 80050ca:	4013      	ands	r3, r2
 80050cc:	60fb      	str	r3, [r7, #12]
    tmpcr1 |= (uint32_t)Structure->ClockDivision;
 80050ce:	683b      	ldr	r3, [r7, #0]
 80050d0:	68db      	ldr	r3, [r3, #12]
 80050d2:	68fa      	ldr	r2, [r7, #12]
 80050d4:	4313      	orrs	r3, r2
 80050d6:	60fb      	str	r3, [r7, #12]
  }

  /* Set the auto-reload preload */
  MODIFY_REG(tmpcr1, TIM_CR1_ARPE, Structure->AutoReloadPreload);
 80050d8:	68fb      	ldr	r3, [r7, #12]
 80050da:	2280      	movs	r2, #128	; 0x80
 80050dc:	4393      	bics	r3, r2
 80050de:	001a      	movs	r2, r3
 80050e0:	683b      	ldr	r3, [r7, #0]
 80050e2:	695b      	ldr	r3, [r3, #20]
 80050e4:	4313      	orrs	r3, r2
 80050e6:	60fb      	str	r3, [r7, #12]

  TIMx->CR1 = tmpcr1;
 80050e8:	687b      	ldr	r3, [r7, #4]
 80050ea:	68fa      	ldr	r2, [r7, #12]
 80050ec:	601a      	str	r2, [r3, #0]

  /* Set the Autoreload value */
  TIMx->ARR = (uint32_t)Structure->Period ;
 80050ee:	683b      	ldr	r3, [r7, #0]
 80050f0:	689a      	ldr	r2, [r3, #8]
 80050f2:	687b      	ldr	r3, [r7, #4]
 80050f4:	62da      	str	r2, [r3, #44]	; 0x2c

  /* Set the Prescaler value */
  TIMx->PSC = Structure->Prescaler;
 80050f6:	683b      	ldr	r3, [r7, #0]
 80050f8:	681a      	ldr	r2, [r3, #0]
 80050fa:	687b      	ldr	r3, [r7, #4]
 80050fc:	629a      	str	r2, [r3, #40]	; 0x28

  if (IS_TIM_REPETITION_COUNTER_INSTANCE(TIMx))
 80050fe:	687b      	ldr	r3, [r7, #4]
 8005100:	4a0a      	ldr	r2, [pc, #40]	; (800512c <TIM_Base_SetConfig+0xd4>)
 8005102:	4293      	cmp	r3, r2
 8005104:	d007      	beq.n	8005116 <TIM_Base_SetConfig+0xbe>
 8005106:	687b      	ldr	r3, [r7, #4]
 8005108:	4a0b      	ldr	r2, [pc, #44]	; (8005138 <TIM_Base_SetConfig+0xe0>)
 800510a:	4293      	cmp	r3, r2
 800510c:	d003      	beq.n	8005116 <TIM_Base_SetConfig+0xbe>
 800510e:	687b      	ldr	r3, [r7, #4]
 8005110:	4a0a      	ldr	r2, [pc, #40]	; (800513c <TIM_Base_SetConfig+0xe4>)
 8005112:	4293      	cmp	r3, r2
 8005114:	d103      	bne.n	800511e <TIM_Base_SetConfig+0xc6>
  {
    /* Set the Repetition Counter value */
    TIMx->RCR = Structure->RepetitionCounter;
 8005116:	683b      	ldr	r3, [r7, #0]
 8005118:	691a      	ldr	r2, [r3, #16]
 800511a:	687b      	ldr	r3, [r7, #4]
 800511c:	631a      	str	r2, [r3, #48]	; 0x30
  }

  /* Generate an update event to reload the Prescaler
     and the repetition counter (only for advanced timer) value immediately */
  TIMx->EGR = TIM_EGR_UG;
 800511e:	687b      	ldr	r3, [r7, #4]
 8005120:	2201      	movs	r2, #1
 8005122:	615a      	str	r2, [r3, #20]
}
 8005124:	46c0      	nop			; (mov r8, r8)
 8005126:	46bd      	mov	sp, r7
 8005128:	b004      	add	sp, #16
 800512a:	bd80      	pop	{r7, pc}
 800512c:	40012c00 	.word	0x40012c00
 8005130:	40000400 	.word	0x40000400
 8005134:	40002000 	.word	0x40002000
 8005138:	40014400 	.word	0x40014400
 800513c:	40014800 	.word	0x40014800
 8005140:	fffffcff 	.word	0xfffffcff

08005144 <TIM_OC1_SetConfig>:
  * @param  TIMx to select the TIM peripheral
  * @param  OC_Config The output configuration structure
  * @retval None
  */
static void TIM_OC1_SetConfig(TIM_TypeDef *TIMx, TIM_OC_InitTypeDef *OC_Config)
{
 8005144:	b580      	push	{r7, lr}
 8005146:	b086      	sub	sp, #24
 8005148:	af00      	add	r7, sp, #0
 800514a:	6078      	str	r0, [r7, #4]
 800514c:	6039      	str	r1, [r7, #0]
  uint32_t tmpccmrx;
  uint32_t tmpccer;
  uint32_t tmpcr2;

  /* Disable the Channel 1: Reset the CC1E Bit */
  TIMx->CCER &= ~TIM_CCER_CC1E;
 800514e:	687b      	ldr	r3, [r7, #4]
 8005150:	6a1b      	ldr	r3, [r3, #32]
 8005152:	2201      	movs	r2, #1
 8005154:	4393      	bics	r3, r2
 8005156:	001a      	movs	r2, r3
 8005158:	687b      	ldr	r3, [r7, #4]
 800515a:	621a      	str	r2, [r3, #32]

  /* Get the TIMx CCER register value */
  tmpccer = TIMx->CCER;
 800515c:	687b      	ldr	r3, [r7, #4]
 800515e:	6a1b      	ldr	r3, [r3, #32]
 8005160:	617b      	str	r3, [r7, #20]
  /* Get the TIMx CR2 register value */
  tmpcr2 =  TIMx->CR2;
 8005162:	687b      	ldr	r3, [r7, #4]
 8005164:	685b      	ldr	r3, [r3, #4]
 8005166:	613b      	str	r3, [r7, #16]

  /* Get the TIMx CCMR1 register value */
  tmpccmrx = TIMx->CCMR1;
 8005168:	687b      	ldr	r3, [r7, #4]
 800516a:	699b      	ldr	r3, [r3, #24]
 800516c:	60fb      	str	r3, [r7, #12]

  /* Reset the Output Compare Mode Bits */
  tmpccmrx &= ~TIM_CCMR1_OC1M;
 800516e:	68fb      	ldr	r3, [r7, #12]
 8005170:	2270      	movs	r2, #112	; 0x70
 8005172:	4393      	bics	r3, r2
 8005174:	60fb      	str	r3, [r7, #12]
  tmpccmrx &= ~TIM_CCMR1_CC1S;
 8005176:	68fb      	ldr	r3, [r7, #12]
 8005178:	2203      	movs	r2, #3
 800517a:	4393      	bics	r3, r2
 800517c:	60fb      	str	r3, [r7, #12]
  /* Select the Output Compare Mode */
  tmpccmrx |= OC_Config->OCMode;
 800517e:	683b      	ldr	r3, [r7, #0]
 8005180:	681b      	ldr	r3, [r3, #0]
 8005182:	68fa      	ldr	r2, [r7, #12]
 8005184:	4313      	orrs	r3, r2
 8005186:	60fb      	str	r3, [r7, #12]

  /* Reset the Output Polarity level */
  tmpccer &= ~TIM_CCER_CC1P;
 8005188:	697b      	ldr	r3, [r7, #20]
 800518a:	2202      	movs	r2, #2
 800518c:	4393      	bics	r3, r2
 800518e:	617b      	str	r3, [r7, #20]
  /* Set the Output Compare Polarity */
  tmpccer |= OC_Config->OCPolarity;
 8005190:	683b      	ldr	r3, [r7, #0]
 8005192:	689b      	ldr	r3, [r3, #8]
 8005194:	697a      	ldr	r2, [r7, #20]
 8005196:	4313      	orrs	r3, r2
 8005198:	617b      	str	r3, [r7, #20]

  if (IS_TIM_CCXN_INSTANCE(TIMx, TIM_CHANNEL_1))
 800519a:	687b      	ldr	r3, [r7, #4]
 800519c:	4a23      	ldr	r2, [pc, #140]	; (800522c <TIM_OC1_SetConfig+0xe8>)
 800519e:	4293      	cmp	r3, r2
 80051a0:	d007      	beq.n	80051b2 <TIM_OC1_SetConfig+0x6e>
 80051a2:	687b      	ldr	r3, [r7, #4]
 80051a4:	4a22      	ldr	r2, [pc, #136]	; (8005230 <TIM_OC1_SetConfig+0xec>)
 80051a6:	4293      	cmp	r3, r2
 80051a8:	d003      	beq.n	80051b2 <TIM_OC1_SetConfig+0x6e>
 80051aa:	687b      	ldr	r3, [r7, #4]
 80051ac:	4a21      	ldr	r2, [pc, #132]	; (8005234 <TIM_OC1_SetConfig+0xf0>)
 80051ae:	4293      	cmp	r3, r2
 80051b0:	d10c      	bne.n	80051cc <TIM_OC1_SetConfig+0x88>
  {
    /* Check parameters */
    assert_param(IS_TIM_OCN_POLARITY(OC_Config->OCNPolarity));

    /* Reset the Output N Polarity level */
    tmpccer &= ~TIM_CCER_CC1NP;
 80051b2:	697b      	ldr	r3, [r7, #20]
 80051b4:	2208      	movs	r2, #8
 80051b6:	4393      	bics	r3, r2
 80051b8:	617b      	str	r3, [r7, #20]
    /* Set the Output N Polarity */
    tmpccer |= OC_Config->OCNPolarity;
 80051ba:	683b      	ldr	r3, [r7, #0]
 80051bc:	68db      	ldr	r3, [r3, #12]
 80051be:	697a      	ldr	r2, [r7, #20]
 80051c0:	4313      	orrs	r3, r2
 80051c2:	617b      	str	r3, [r7, #20]
    /* Reset the Output N State */
    tmpccer &= ~TIM_CCER_CC1NE;
 80051c4:	697b      	ldr	r3, [r7, #20]
 80051c6:	2204      	movs	r2, #4
 80051c8:	4393      	bics	r3, r2
 80051ca:	617b      	str	r3, [r7, #20]
  }

  if (IS_TIM_BREAK_INSTANCE(TIMx))
 80051cc:	687b      	ldr	r3, [r7, #4]
 80051ce:	4a17      	ldr	r2, [pc, #92]	; (800522c <TIM_OC1_SetConfig+0xe8>)
 80051d0:	4293      	cmp	r3, r2
 80051d2:	d007      	beq.n	80051e4 <TIM_OC1_SetConfig+0xa0>
 80051d4:	687b      	ldr	r3, [r7, #4]
 80051d6:	4a16      	ldr	r2, [pc, #88]	; (8005230 <TIM_OC1_SetConfig+0xec>)
 80051d8:	4293      	cmp	r3, r2
 80051da:	d003      	beq.n	80051e4 <TIM_OC1_SetConfig+0xa0>
 80051dc:	687b      	ldr	r3, [r7, #4]
 80051de:	4a15      	ldr	r2, [pc, #84]	; (8005234 <TIM_OC1_SetConfig+0xf0>)
 80051e0:	4293      	cmp	r3, r2
 80051e2:	d111      	bne.n	8005208 <TIM_OC1_SetConfig+0xc4>
    /* Check parameters */
    assert_param(IS_TIM_OCNIDLE_STATE(OC_Config->OCNIdleState));
    assert_param(IS_TIM_OCIDLE_STATE(OC_Config->OCIdleState));

    /* Reset the Output Compare and Output Compare N IDLE State */
    tmpcr2 &= ~TIM_CR2_OIS1;
 80051e4:	693b      	ldr	r3, [r7, #16]
 80051e6:	4a14      	ldr	r2, [pc, #80]	; (8005238 <TIM_OC1_SetConfig+0xf4>)
 80051e8:	4013      	ands	r3, r2
 80051ea:	613b      	str	r3, [r7, #16]
    tmpcr2 &= ~TIM_CR2_OIS1N;
 80051ec:	693b      	ldr	r3, [r7, #16]
 80051ee:	4a13      	ldr	r2, [pc, #76]	; (800523c <TIM_OC1_SetConfig+0xf8>)
 80051f0:	4013      	ands	r3, r2
 80051f2:	613b      	str	r3, [r7, #16]
    /* Set the Output Idle state */
    tmpcr2 |= OC_Config->OCIdleState;
 80051f4:	683b      	ldr	r3, [r7, #0]
 80051f6:	695b      	ldr	r3, [r3, #20]
 80051f8:	693a      	ldr	r2, [r7, #16]
 80051fa:	4313      	orrs	r3, r2
 80051fc:	613b      	str	r3, [r7, #16]
    /* Set the Output N Idle state */
    tmpcr2 |= OC_Config->OCNIdleState;
 80051fe:	683b      	ldr	r3, [r7, #0]
 8005200:	699b      	ldr	r3, [r3, #24]
 8005202:	693a      	ldr	r2, [r7, #16]
 8005204:	4313      	orrs	r3, r2
 8005206:	613b      	str	r3, [r7, #16]
  }

  /* Write to TIMx CR2 */
  TIMx->CR2 = tmpcr2;
 8005208:	687b      	ldr	r3, [r7, #4]
 800520a:	693a      	ldr	r2, [r7, #16]
 800520c:	605a      	str	r2, [r3, #4]

  /* Write to TIMx CCMR1 */
  TIMx->CCMR1 = tmpccmrx;
 800520e:	687b      	ldr	r3, [r7, #4]
 8005210:	68fa      	ldr	r2, [r7, #12]
 8005212:	619a      	str	r2, [r3, #24]

  /* Set the Capture Compare Register value */
  TIMx->CCR1 = OC_Config->Pulse;
 8005214:	683b      	ldr	r3, [r7, #0]
 8005216:	685a      	ldr	r2, [r3, #4]
 8005218:	687b      	ldr	r3, [r7, #4]
 800521a:	635a      	str	r2, [r3, #52]	; 0x34

  /* Write to TIMx CCER */
  TIMx->CCER = tmpccer;
 800521c:	687b      	ldr	r3, [r7, #4]
 800521e:	697a      	ldr	r2, [r7, #20]
 8005220:	621a      	str	r2, [r3, #32]
}
 8005222:	46c0      	nop			; (mov r8, r8)
 8005224:	46bd      	mov	sp, r7
 8005226:	b006      	add	sp, #24
 8005228:	bd80      	pop	{r7, pc}
 800522a:	46c0      	nop			; (mov r8, r8)
 800522c:	40012c00 	.word	0x40012c00
 8005230:	40014400 	.word	0x40014400
 8005234:	40014800 	.word	0x40014800
 8005238:	fffffeff 	.word	0xfffffeff
 800523c:	fffffdff 	.word	0xfffffdff

08005240 <TIM_OC2_SetConfig>:
  * @param  TIMx to select the TIM peripheral
  * @param  OC_Config The output configuration structure
  * @retval None
  */
void TIM_OC2_SetConfig(TIM_TypeDef *TIMx, TIM_OC_InitTypeDef *OC_Config)
{
 8005240:	b580      	push	{r7, lr}
 8005242:	b086      	sub	sp, #24
 8005244:	af00      	add	r7, sp, #0
 8005246:	6078      	str	r0, [r7, #4]
 8005248:	6039      	str	r1, [r7, #0]
  uint32_t tmpccmrx;
  uint32_t tmpccer;
  uint32_t tmpcr2;

  /* Disable the Channel 2: Reset the CC2E Bit */
  TIMx->CCER &= ~TIM_CCER_CC2E;
 800524a:	687b      	ldr	r3, [r7, #4]
 800524c:	6a1b      	ldr	r3, [r3, #32]
 800524e:	2210      	movs	r2, #16
 8005250:	4393      	bics	r3, r2
 8005252:	001a      	movs	r2, r3
 8005254:	687b      	ldr	r3, [r7, #4]
 8005256:	621a      	str	r2, [r3, #32]

  /* Get the TIMx CCER register value */
  tmpccer = TIMx->CCER;
 8005258:	687b      	ldr	r3, [r7, #4]
 800525a:	6a1b      	ldr	r3, [r3, #32]
 800525c:	617b      	str	r3, [r7, #20]
  /* Get the TIMx CR2 register value */
  tmpcr2 =  TIMx->CR2;
 800525e:	687b      	ldr	r3, [r7, #4]
 8005260:	685b      	ldr	r3, [r3, #4]
 8005262:	613b      	str	r3, [r7, #16]

  /* Get the TIMx CCMR1 register value */
  tmpccmrx = TIMx->CCMR1;
 8005264:	687b      	ldr	r3, [r7, #4]
 8005266:	699b      	ldr	r3, [r3, #24]
 8005268:	60fb      	str	r3, [r7, #12]

  /* Reset the Output Compare mode and Capture/Compare selection Bits */
  tmpccmrx &= ~TIM_CCMR1_OC2M;
 800526a:	68fb      	ldr	r3, [r7, #12]
 800526c:	4a2c      	ldr	r2, [pc, #176]	; (8005320 <TIM_OC2_SetConfig+0xe0>)
 800526e:	4013      	ands	r3, r2
 8005270:	60fb      	str	r3, [r7, #12]
  tmpccmrx &= ~TIM_CCMR1_CC2S;
 8005272:	68fb      	ldr	r3, [r7, #12]
 8005274:	4a2b      	ldr	r2, [pc, #172]	; (8005324 <TIM_OC2_SetConfig+0xe4>)
 8005276:	4013      	ands	r3, r2
 8005278:	60fb      	str	r3, [r7, #12]

  /* Select the Output Compare Mode */
  tmpccmrx |= (OC_Config->OCMode << 8U);
 800527a:	683b      	ldr	r3, [r7, #0]
 800527c:	681b      	ldr	r3, [r3, #0]
 800527e:	021b      	lsls	r3, r3, #8
 8005280:	68fa      	ldr	r2, [r7, #12]
 8005282:	4313      	orrs	r3, r2
 8005284:	60fb      	str	r3, [r7, #12]

  /* Reset the Output Polarity level */
  tmpccer &= ~TIM_CCER_CC2P;
 8005286:	697b      	ldr	r3, [r7, #20]
 8005288:	2220      	movs	r2, #32
 800528a:	4393      	bics	r3, r2
 800528c:	617b      	str	r3, [r7, #20]
  /* Set the Output Compare Polarity */
  tmpccer |= (OC_Config->OCPolarity << 4U);
 800528e:	683b      	ldr	r3, [r7, #0]
 8005290:	689b      	ldr	r3, [r3, #8]
 8005292:	011b      	lsls	r3, r3, #4
 8005294:	697a      	ldr	r2, [r7, #20]
 8005296:	4313      	orrs	r3, r2
 8005298:	617b      	str	r3, [r7, #20]

  if (IS_TIM_CCXN_INSTANCE(TIMx, TIM_CHANNEL_2))
 800529a:	687b      	ldr	r3, [r7, #4]
 800529c:	4a22      	ldr	r2, [pc, #136]	; (8005328 <TIM_OC2_SetConfig+0xe8>)
 800529e:	4293      	cmp	r3, r2
 80052a0:	d10d      	bne.n	80052be <TIM_OC2_SetConfig+0x7e>
  {
    assert_param(IS_TIM_OCN_POLARITY(OC_Config->OCNPolarity));

    /* Reset the Output N Polarity level */
    tmpccer &= ~TIM_CCER_CC2NP;
 80052a2:	697b      	ldr	r3, [r7, #20]
 80052a4:	2280      	movs	r2, #128	; 0x80
 80052a6:	4393      	bics	r3, r2
 80052a8:	617b      	str	r3, [r7, #20]
    /* Set the Output N Polarity */
    tmpccer |= (OC_Config->OCNPolarity << 4U);
 80052aa:	683b      	ldr	r3, [r7, #0]
 80052ac:	68db      	ldr	r3, [r3, #12]
 80052ae:	011b      	lsls	r3, r3, #4
 80052b0:	697a      	ldr	r2, [r7, #20]
 80052b2:	4313      	orrs	r3, r2
 80052b4:	617b      	str	r3, [r7, #20]
    /* Reset the Output N State */
    tmpccer &= ~TIM_CCER_CC2NE;
 80052b6:	697b      	ldr	r3, [r7, #20]
 80052b8:	2240      	movs	r2, #64	; 0x40
 80052ba:	4393      	bics	r3, r2
 80052bc:	617b      	str	r3, [r7, #20]

  }

  if (IS_TIM_BREAK_INSTANCE(TIMx))
 80052be:	687b      	ldr	r3, [r7, #4]
 80052c0:	4a19      	ldr	r2, [pc, #100]	; (8005328 <TIM_OC2_SetConfig+0xe8>)
 80052c2:	4293      	cmp	r3, r2
 80052c4:	d007      	beq.n	80052d6 <TIM_OC2_SetConfig+0x96>
 80052c6:	687b      	ldr	r3, [r7, #4]
 80052c8:	4a18      	ldr	r2, [pc, #96]	; (800532c <TIM_OC2_SetConfig+0xec>)
 80052ca:	4293      	cmp	r3, r2
 80052cc:	d003      	beq.n	80052d6 <TIM_OC2_SetConfig+0x96>
 80052ce:	687b      	ldr	r3, [r7, #4]
 80052d0:	4a17      	ldr	r2, [pc, #92]	; (8005330 <TIM_OC2_SetConfig+0xf0>)
 80052d2:	4293      	cmp	r3, r2
 80052d4:	d113      	bne.n	80052fe <TIM_OC2_SetConfig+0xbe>
    /* Check parameters */
    assert_param(IS_TIM_OCNIDLE_STATE(OC_Config->OCNIdleState));
    assert_param(IS_TIM_OCIDLE_STATE(OC_Config->OCIdleState));

    /* Reset the Output Compare and Output Compare N IDLE State */
    tmpcr2 &= ~TIM_CR2_OIS2;
 80052d6:	693b      	ldr	r3, [r7, #16]
 80052d8:	4a16      	ldr	r2, [pc, #88]	; (8005334 <TIM_OC2_SetConfig+0xf4>)
 80052da:	4013      	ands	r3, r2
 80052dc:	613b      	str	r3, [r7, #16]
    tmpcr2 &= ~TIM_CR2_OIS2N;
 80052de:	693b      	ldr	r3, [r7, #16]
 80052e0:	4a15      	ldr	r2, [pc, #84]	; (8005338 <TIM_OC2_SetConfig+0xf8>)
 80052e2:	4013      	ands	r3, r2
 80052e4:	613b      	str	r3, [r7, #16]
    /* Set the Output Idle state */
    tmpcr2 |= (OC_Config->OCIdleState << 2U);
 80052e6:	683b      	ldr	r3, [r7, #0]
 80052e8:	695b      	ldr	r3, [r3, #20]
 80052ea:	009b      	lsls	r3, r3, #2
 80052ec:	693a      	ldr	r2, [r7, #16]
 80052ee:	4313      	orrs	r3, r2
 80052f0:	613b      	str	r3, [r7, #16]
    /* Set the Output N Idle state */
    tmpcr2 |= (OC_Config->OCNIdleState << 2U);
 80052f2:	683b      	ldr	r3, [r7, #0]
 80052f4:	699b      	ldr	r3, [r3, #24]
 80052f6:	009b      	lsls	r3, r3, #2
 80052f8:	693a      	ldr	r2, [r7, #16]
 80052fa:	4313      	orrs	r3, r2
 80052fc:	613b      	str	r3, [r7, #16]
  }

  /* Write to TIMx CR2 */
  TIMx->CR2 = tmpcr2;
 80052fe:	687b      	ldr	r3, [r7, #4]
 8005300:	693a      	ldr	r2, [r7, #16]
 8005302:	605a      	str	r2, [r3, #4]

  /* Write to TIMx CCMR1 */
  TIMx->CCMR1 = tmpccmrx;
 8005304:	687b      	ldr	r3, [r7, #4]
 8005306:	68fa      	ldr	r2, [r7, #12]
 8005308:	619a      	str	r2, [r3, #24]

  /* Set the Capture Compare Register value */
  TIMx->CCR2 = OC_Config->Pulse;
 800530a:	683b      	ldr	r3, [r7, #0]
 800530c:	685a      	ldr	r2, [r3, #4]
 800530e:	687b      	ldr	r3, [r7, #4]
 8005310:	639a      	str	r2, [r3, #56]	; 0x38

  /* Write to TIMx CCER */
  TIMx->CCER = tmpccer;
 8005312:	687b      	ldr	r3, [r7, #4]
 8005314:	697a      	ldr	r2, [r7, #20]
 8005316:	621a      	str	r2, [r3, #32]
}
 8005318:	46c0      	nop			; (mov r8, r8)
 800531a:	46bd      	mov	sp, r7
 800531c:	b006      	add	sp, #24
 800531e:	bd80      	pop	{r7, pc}
 8005320:	ffff8fff 	.word	0xffff8fff
 8005324:	fffffcff 	.word	0xfffffcff
 8005328:	40012c00 	.word	0x40012c00
 800532c:	40014400 	.word	0x40014400
 8005330:	40014800 	.word	0x40014800
 8005334:	fffffbff 	.word	0xfffffbff
 8005338:	fffff7ff 	.word	0xfffff7ff

0800533c <TIM_OC3_SetConfig>:
  * @param  TIMx to select the TIM peripheral
  * @param  OC_Config The output configuration structure
  * @retval None
  */
static void TIM_OC3_SetConfig(TIM_TypeDef *TIMx, TIM_OC_InitTypeDef *OC_Config)
{
 800533c:	b580      	push	{r7, lr}
 800533e:	b086      	sub	sp, #24
 8005340:	af00      	add	r7, sp, #0
 8005342:	6078      	str	r0, [r7, #4]
 8005344:	6039      	str	r1, [r7, #0]
  uint32_t tmpccmrx;
  uint32_t tmpccer;
  uint32_t tmpcr2;

  /* Disable the Channel 3: Reset the CC2E Bit */
  TIMx->CCER &= ~TIM_CCER_CC3E;
 8005346:	687b      	ldr	r3, [r7, #4]
 8005348:	6a1b      	ldr	r3, [r3, #32]
 800534a:	4a33      	ldr	r2, [pc, #204]	; (8005418 <TIM_OC3_SetConfig+0xdc>)
 800534c:	401a      	ands	r2, r3
 800534e:	687b      	ldr	r3, [r7, #4]
 8005350:	621a      	str	r2, [r3, #32]

  /* Get the TIMx CCER register value */
  tmpccer = TIMx->CCER;
 8005352:	687b      	ldr	r3, [r7, #4]
 8005354:	6a1b      	ldr	r3, [r3, #32]
 8005356:	617b      	str	r3, [r7, #20]
  /* Get the TIMx CR2 register value */
  tmpcr2 =  TIMx->CR2;
 8005358:	687b      	ldr	r3, [r7, #4]
 800535a:	685b      	ldr	r3, [r3, #4]
 800535c:	613b      	str	r3, [r7, #16]

  /* Get the TIMx CCMR2 register value */
  tmpccmrx = TIMx->CCMR2;
 800535e:	687b      	ldr	r3, [r7, #4]
 8005360:	69db      	ldr	r3, [r3, #28]
 8005362:	60fb      	str	r3, [r7, #12]

  /* Reset the Output Compare mode and Capture/Compare selection Bits */
  tmpccmrx &= ~TIM_CCMR2_OC3M;
 8005364:	68fb      	ldr	r3, [r7, #12]
 8005366:	2270      	movs	r2, #112	; 0x70
 8005368:	4393      	bics	r3, r2
 800536a:	60fb      	str	r3, [r7, #12]
  tmpccmrx &= ~TIM_CCMR2_CC3S;
 800536c:	68fb      	ldr	r3, [r7, #12]
 800536e:	2203      	movs	r2, #3
 8005370:	4393      	bics	r3, r2
 8005372:	60fb      	str	r3, [r7, #12]
  /* Select the Output Compare Mode */
  tmpccmrx |= OC_Config->OCMode;
 8005374:	683b      	ldr	r3, [r7, #0]
 8005376:	681b      	ldr	r3, [r3, #0]
 8005378:	68fa      	ldr	r2, [r7, #12]
 800537a:	4313      	orrs	r3, r2
 800537c:	60fb      	str	r3, [r7, #12]

  /* Reset the Output Polarity level */
  tmpccer &= ~TIM_CCER_CC3P;
 800537e:	697b      	ldr	r3, [r7, #20]
 8005380:	4a26      	ldr	r2, [pc, #152]	; (800541c <TIM_OC3_SetConfig+0xe0>)
 8005382:	4013      	ands	r3, r2
 8005384:	617b      	str	r3, [r7, #20]
  /* Set the Output Compare Polarity */
  tmpccer |= (OC_Config->OCPolarity << 8U);
 8005386:	683b      	ldr	r3, [r7, #0]
 8005388:	689b      	ldr	r3, [r3, #8]
 800538a:	021b      	lsls	r3, r3, #8
 800538c:	697a      	ldr	r2, [r7, #20]
 800538e:	4313      	orrs	r3, r2
 8005390:	617b      	str	r3, [r7, #20]

  if (IS_TIM_CCXN_INSTANCE(TIMx, TIM_CHANNEL_3))
 8005392:	687b      	ldr	r3, [r7, #4]
 8005394:	4a22      	ldr	r2, [pc, #136]	; (8005420 <TIM_OC3_SetConfig+0xe4>)
 8005396:	4293      	cmp	r3, r2
 8005398:	d10d      	bne.n	80053b6 <TIM_OC3_SetConfig+0x7a>
  {
    assert_param(IS_TIM_OCN_POLARITY(OC_Config->OCNPolarity));

    /* Reset the Output N Polarity level */
    tmpccer &= ~TIM_CCER_CC3NP;
 800539a:	697b      	ldr	r3, [r7, #20]
 800539c:	4a21      	ldr	r2, [pc, #132]	; (8005424 <TIM_OC3_SetConfig+0xe8>)
 800539e:	4013      	ands	r3, r2
 80053a0:	617b      	str	r3, [r7, #20]
    /* Set the Output N Polarity */
    tmpccer |= (OC_Config->OCNPolarity << 8U);
 80053a2:	683b      	ldr	r3, [r7, #0]
 80053a4:	68db      	ldr	r3, [r3, #12]
 80053a6:	021b      	lsls	r3, r3, #8
 80053a8:	697a      	ldr	r2, [r7, #20]
 80053aa:	4313      	orrs	r3, r2
 80053ac:	617b      	str	r3, [r7, #20]
    /* Reset the Output N State */
    tmpccer &= ~TIM_CCER_CC3NE;
 80053ae:	697b      	ldr	r3, [r7, #20]
 80053b0:	4a1d      	ldr	r2, [pc, #116]	; (8005428 <TIM_OC3_SetConfig+0xec>)
 80053b2:	4013      	ands	r3, r2
 80053b4:	617b      	str	r3, [r7, #20]
  }

  if (IS_TIM_BREAK_INSTANCE(TIMx))
 80053b6:	687b      	ldr	r3, [r7, #4]
 80053b8:	4a19      	ldr	r2, [pc, #100]	; (8005420 <TIM_OC3_SetConfig+0xe4>)
 80053ba:	4293      	cmp	r3, r2
 80053bc:	d007      	beq.n	80053ce <TIM_OC3_SetConfig+0x92>
 80053be:	687b      	ldr	r3, [r7, #4]
 80053c0:	4a1a      	ldr	r2, [pc, #104]	; (800542c <TIM_OC3_SetConfig+0xf0>)
 80053c2:	4293      	cmp	r3, r2
 80053c4:	d003      	beq.n	80053ce <TIM_OC3_SetConfig+0x92>
 80053c6:	687b      	ldr	r3, [r7, #4]
 80053c8:	4a19      	ldr	r2, [pc, #100]	; (8005430 <TIM_OC3_SetConfig+0xf4>)
 80053ca:	4293      	cmp	r3, r2
 80053cc:	d113      	bne.n	80053f6 <TIM_OC3_SetConfig+0xba>
    /* Check parameters */
    assert_param(IS_TIM_OCNIDLE_STATE(OC_Config->OCNIdleState));
    assert_param(IS_TIM_OCIDLE_STATE(OC_Config->OCIdleState));

    /* Reset the Output Compare and Output Compare N IDLE State */
    tmpcr2 &= ~TIM_CR2_OIS3;
 80053ce:	693b      	ldr	r3, [r7, #16]
 80053d0:	4a18      	ldr	r2, [pc, #96]	; (8005434 <TIM_OC3_SetConfig+0xf8>)
 80053d2:	4013      	ands	r3, r2
 80053d4:	613b      	str	r3, [r7, #16]
    tmpcr2 &= ~TIM_CR2_OIS3N;
 80053d6:	693b      	ldr	r3, [r7, #16]
 80053d8:	4a17      	ldr	r2, [pc, #92]	; (8005438 <TIM_OC3_SetConfig+0xfc>)
 80053da:	4013      	ands	r3, r2
 80053dc:	613b      	str	r3, [r7, #16]
    /* Set the Output Idle state */
    tmpcr2 |= (OC_Config->OCIdleState << 4U);
 80053de:	683b      	ldr	r3, [r7, #0]
 80053e0:	695b      	ldr	r3, [r3, #20]
 80053e2:	011b      	lsls	r3, r3, #4
 80053e4:	693a      	ldr	r2, [r7, #16]
 80053e6:	4313      	orrs	r3, r2
 80053e8:	613b      	str	r3, [r7, #16]
    /* Set the Output N Idle state */
    tmpcr2 |= (OC_Config->OCNIdleState << 4U);
 80053ea:	683b      	ldr	r3, [r7, #0]
 80053ec:	699b      	ldr	r3, [r3, #24]
 80053ee:	011b      	lsls	r3, r3, #4
 80053f0:	693a      	ldr	r2, [r7, #16]
 80053f2:	4313      	orrs	r3, r2
 80053f4:	613b      	str	r3, [r7, #16]
  }

  /* Write to TIMx CR2 */
  TIMx->CR2 = tmpcr2;
 80053f6:	687b      	ldr	r3, [r7, #4]
 80053f8:	693a      	ldr	r2, [r7, #16]
 80053fa:	605a      	str	r2, [r3, #4]

  /* Write to TIMx CCMR2 */
  TIMx->CCMR2 = tmpccmrx;
 80053fc:	687b      	ldr	r3, [r7, #4]
 80053fe:	68fa      	ldr	r2, [r7, #12]
 8005400:	61da      	str	r2, [r3, #28]

  /* Set the Capture Compare Register value */
  TIMx->CCR3 = OC_Config->Pulse;
 8005402:	683b      	ldr	r3, [r7, #0]
 8005404:	685a      	ldr	r2, [r3, #4]
 8005406:	687b      	ldr	r3, [r7, #4]
 8005408:	63da      	str	r2, [r3, #60]	; 0x3c

  /* Write to TIMx CCER */
  TIMx->CCER = tmpccer;
 800540a:	687b      	ldr	r3, [r7, #4]
 800540c:	697a      	ldr	r2, [r7, #20]
 800540e:	621a      	str	r2, [r3, #32]
}
 8005410:	46c0      	nop			; (mov r8, r8)
 8005412:	46bd      	mov	sp, r7
 8005414:	b006      	add	sp, #24
 8005416:	bd80      	pop	{r7, pc}
 8005418:	fffffeff 	.word	0xfffffeff
 800541c:	fffffdff 	.word	0xfffffdff
 8005420:	40012c00 	.word	0x40012c00
 8005424:	fffff7ff 	.word	0xfffff7ff
 8005428:	fffffbff 	.word	0xfffffbff
 800542c:	40014400 	.word	0x40014400
 8005430:	40014800 	.word	0x40014800
 8005434:	ffffefff 	.word	0xffffefff
 8005438:	ffffdfff 	.word	0xffffdfff

0800543c <TIM_OC4_SetConfig>:
  * @param  TIMx to select the TIM peripheral
  * @param  OC_Config The output configuration structure
  * @retval None
  */
static void TIM_OC4_SetConfig(TIM_TypeDef *TIMx, TIM_OC_InitTypeDef *OC_Config)
{
 800543c:	b580      	push	{r7, lr}
 800543e:	b086      	sub	sp, #24
 8005440:	af00      	add	r7, sp, #0
 8005442:	6078      	str	r0, [r7, #4]
 8005444:	6039      	str	r1, [r7, #0]
  uint32_t tmpccmrx;
  uint32_t tmpccer;
  uint32_t tmpcr2;

  /* Disable the Channel 4: Reset the CC4E Bit */
  TIMx->CCER &= ~TIM_CCER_CC4E;
 8005446:	687b      	ldr	r3, [r7, #4]
 8005448:	6a1b      	ldr	r3, [r3, #32]
 800544a:	4a26      	ldr	r2, [pc, #152]	; (80054e4 <TIM_OC4_SetConfig+0xa8>)
 800544c:	401a      	ands	r2, r3
 800544e:	687b      	ldr	r3, [r7, #4]
 8005450:	621a      	str	r2, [r3, #32]

  /* Get the TIMx CCER register value */
  tmpccer = TIMx->CCER;
 8005452:	687b      	ldr	r3, [r7, #4]
 8005454:	6a1b      	ldr	r3, [r3, #32]
 8005456:	613b      	str	r3, [r7, #16]
  /* Get the TIMx CR2 register value */
  tmpcr2 =  TIMx->CR2;
 8005458:	687b      	ldr	r3, [r7, #4]
 800545a:	685b      	ldr	r3, [r3, #4]
 800545c:	617b      	str	r3, [r7, #20]

  /* Get the TIMx CCMR2 register value */
  tmpccmrx = TIMx->CCMR2;
 800545e:	687b      	ldr	r3, [r7, #4]
 8005460:	69db      	ldr	r3, [r3, #28]
 8005462:	60fb      	str	r3, [r7, #12]

  /* Reset the Output Compare mode and Capture/Compare selection Bits */
  tmpccmrx &= ~TIM_CCMR2_OC4M;
 8005464:	68fb      	ldr	r3, [r7, #12]
 8005466:	4a20      	ldr	r2, [pc, #128]	; (80054e8 <TIM_OC4_SetConfig+0xac>)
 8005468:	4013      	ands	r3, r2
 800546a:	60fb      	str	r3, [r7, #12]
  tmpccmrx &= ~TIM_CCMR2_CC4S;
 800546c:	68fb      	ldr	r3, [r7, #12]
 800546e:	4a1f      	ldr	r2, [pc, #124]	; (80054ec <TIM_OC4_SetConfig+0xb0>)
 8005470:	4013      	ands	r3, r2
 8005472:	60fb      	str	r3, [r7, #12]

  /* Select the Output Compare Mode */
  tmpccmrx |= (OC_Config->OCMode << 8U);
 8005474:	683b      	ldr	r3, [r7, #0]
 8005476:	681b      	ldr	r3, [r3, #0]
 8005478:	021b      	lsls	r3, r3, #8
 800547a:	68fa      	ldr	r2, [r7, #12]
 800547c:	4313      	orrs	r3, r2
 800547e:	60fb      	str	r3, [r7, #12]

  /* Reset the Output Polarity level */
  tmpccer &= ~TIM_CCER_CC4P;
 8005480:	693b      	ldr	r3, [r7, #16]
 8005482:	4a1b      	ldr	r2, [pc, #108]	; (80054f0 <TIM_OC4_SetConfig+0xb4>)
 8005484:	4013      	ands	r3, r2
 8005486:	613b      	str	r3, [r7, #16]
  /* Set the Output Compare Polarity */
  tmpccer |= (OC_Config->OCPolarity << 12U);
 8005488:	683b      	ldr	r3, [r7, #0]
 800548a:	689b      	ldr	r3, [r3, #8]
 800548c:	031b      	lsls	r3, r3, #12
 800548e:	693a      	ldr	r2, [r7, #16]
 8005490:	4313      	orrs	r3, r2
 8005492:	613b      	str	r3, [r7, #16]

  if (IS_TIM_BREAK_INSTANCE(TIMx))
 8005494:	687b      	ldr	r3, [r7, #4]
 8005496:	4a17      	ldr	r2, [pc, #92]	; (80054f4 <TIM_OC4_SetConfig+0xb8>)
 8005498:	4293      	cmp	r3, r2
 800549a:	d007      	beq.n	80054ac <TIM_OC4_SetConfig+0x70>
 800549c:	687b      	ldr	r3, [r7, #4]
 800549e:	4a16      	ldr	r2, [pc, #88]	; (80054f8 <TIM_OC4_SetConfig+0xbc>)
 80054a0:	4293      	cmp	r3, r2
 80054a2:	d003      	beq.n	80054ac <TIM_OC4_SetConfig+0x70>
 80054a4:	687b      	ldr	r3, [r7, #4]
 80054a6:	4a15      	ldr	r2, [pc, #84]	; (80054fc <TIM_OC4_SetConfig+0xc0>)
 80054a8:	4293      	cmp	r3, r2
 80054aa:	d109      	bne.n	80054c0 <TIM_OC4_SetConfig+0x84>
  {
    /* Check parameters */
    assert_param(IS_TIM_OCIDLE_STATE(OC_Config->OCIdleState));

    /* Reset the Output Compare IDLE State */
    tmpcr2 &= ~TIM_CR2_OIS4;
 80054ac:	697b      	ldr	r3, [r7, #20]
 80054ae:	4a14      	ldr	r2, [pc, #80]	; (8005500 <TIM_OC4_SetConfig+0xc4>)
 80054b0:	4013      	ands	r3, r2
 80054b2:	617b      	str	r3, [r7, #20]

    /* Set the Output Idle state */
    tmpcr2 |= (OC_Config->OCIdleState << 6U);
 80054b4:	683b      	ldr	r3, [r7, #0]
 80054b6:	695b      	ldr	r3, [r3, #20]
 80054b8:	019b      	lsls	r3, r3, #6
 80054ba:	697a      	ldr	r2, [r7, #20]
 80054bc:	4313      	orrs	r3, r2
 80054be:	617b      	str	r3, [r7, #20]
  }

  /* Write to TIMx CR2 */
  TIMx->CR2 = tmpcr2;
 80054c0:	687b      	ldr	r3, [r7, #4]
 80054c2:	697a      	ldr	r2, [r7, #20]
 80054c4:	605a      	str	r2, [r3, #4]

  /* Write to TIMx CCMR2 */
  TIMx->CCMR2 = tmpccmrx;
 80054c6:	687b      	ldr	r3, [r7, #4]
 80054c8:	68fa      	ldr	r2, [r7, #12]
 80054ca:	61da      	str	r2, [r3, #28]

  /* Set the Capture Compare Register value */
  TIMx->CCR4 = OC_Config->Pulse;
 80054cc:	683b      	ldr	r3, [r7, #0]
 80054ce:	685a      	ldr	r2, [r3, #4]
 80054d0:	687b      	ldr	r3, [r7, #4]
 80054d2:	641a      	str	r2, [r3, #64]	; 0x40

  /* Write to TIMx CCER */
  TIMx->CCER = tmpccer;
 80054d4:	687b      	ldr	r3, [r7, #4]
 80054d6:	693a      	ldr	r2, [r7, #16]
 80054d8:	621a      	str	r2, [r3, #32]
}
 80054da:	46c0      	nop			; (mov r8, r8)
 80054dc:	46bd      	mov	sp, r7
 80054de:	b006      	add	sp, #24
 80054e0:	bd80      	pop	{r7, pc}
 80054e2:	46c0      	nop			; (mov r8, r8)
 80054e4:	ffffefff 	.word	0xffffefff
 80054e8:	ffff8fff 	.word	0xffff8fff
 80054ec:	fffffcff 	.word	0xfffffcff
 80054f0:	ffffdfff 	.word	0xffffdfff
 80054f4:	40012c00 	.word	0x40012c00
 80054f8:	40014400 	.word	0x40014400
 80054fc:	40014800 	.word	0x40014800
 8005500:	ffffbfff 	.word	0xffffbfff

08005504 <TIM_SlaveTimer_SetConfig>:
  * @param  sSlaveConfig Slave timer configuration
  * @retval None
  */
static HAL_StatusTypeDef TIM_SlaveTimer_SetConfig(TIM_HandleTypeDef *htim,
                                                  TIM_SlaveConfigTypeDef *sSlaveConfig)
{
 8005504:	b580      	push	{r7, lr}
 8005506:	b086      	sub	sp, #24
 8005508:	af00      	add	r7, sp, #0
 800550a:	6078      	str	r0, [r7, #4]
 800550c:	6039      	str	r1, [r7, #0]
  HAL_StatusTypeDef status = HAL_OK;
 800550e:	2317      	movs	r3, #23
 8005510:	18fb      	adds	r3, r7, r3
 8005512:	2200      	movs	r2, #0
 8005514:	701a      	strb	r2, [r3, #0]
  uint32_t tmpsmcr;
  uint32_t tmpccmr1;
  uint32_t tmpccer;

  /* Get the TIMx SMCR register value */
  tmpsmcr = htim->Instance->SMCR;
 8005516:	687b      	ldr	r3, [r7, #4]
 8005518:	681b      	ldr	r3, [r3, #0]
 800551a:	689b      	ldr	r3, [r3, #8]
 800551c:	613b      	str	r3, [r7, #16]

  /* Reset the Trigger Selection Bits */
  tmpsmcr &= ~TIM_SMCR_TS;
 800551e:	693b      	ldr	r3, [r7, #16]
 8005520:	2270      	movs	r2, #112	; 0x70
 8005522:	4393      	bics	r3, r2
 8005524:	613b      	str	r3, [r7, #16]
  /* Set the Input Trigger source */
  tmpsmcr |= sSlaveConfig->InputTrigger;
 8005526:	683b      	ldr	r3, [r7, #0]
 8005528:	685b      	ldr	r3, [r3, #4]
 800552a:	693a      	ldr	r2, [r7, #16]
 800552c:	4313      	orrs	r3, r2
 800552e:	613b      	str	r3, [r7, #16]

  /* Reset the slave mode Bits */
  tmpsmcr &= ~TIM_SMCR_SMS;
 8005530:	693b      	ldr	r3, [r7, #16]
 8005532:	2207      	movs	r2, #7
 8005534:	4393      	bics	r3, r2
 8005536:	613b      	str	r3, [r7, #16]
  /* Set the slave mode */
  tmpsmcr |= sSlaveConfig->SlaveMode;
 8005538:	683b      	ldr	r3, [r7, #0]
 800553a:	681b      	ldr	r3, [r3, #0]
 800553c:	693a      	ldr	r2, [r7, #16]
 800553e:	4313      	orrs	r3, r2
 8005540:	613b      	str	r3, [r7, #16]

  /* Write to TIMx SMCR */
  htim->Instance->SMCR = tmpsmcr;
 8005542:	687b      	ldr	r3, [r7, #4]
 8005544:	681b      	ldr	r3, [r3, #0]
 8005546:	693a      	ldr	r2, [r7, #16]
 8005548:	609a      	str	r2, [r3, #8]

  /* Configure the trigger prescaler, filter, and polarity */
  switch (sSlaveConfig->InputTrigger)
 800554a:	683b      	ldr	r3, [r7, #0]
 800554c:	685b      	ldr	r3, [r3, #4]
 800554e:	2b70      	cmp	r3, #112	; 0x70
 8005550:	d015      	beq.n	800557e <TIM_SlaveTimer_SetConfig+0x7a>
 8005552:	d900      	bls.n	8005556 <TIM_SlaveTimer_SetConfig+0x52>
 8005554:	e05b      	b.n	800560e <TIM_SlaveTimer_SetConfig+0x10a>
 8005556:	2b60      	cmp	r3, #96	; 0x60
 8005558:	d04f      	beq.n	80055fa <TIM_SlaveTimer_SetConfig+0xf6>
 800555a:	d858      	bhi.n	800560e <TIM_SlaveTimer_SetConfig+0x10a>
 800555c:	2b50      	cmp	r3, #80	; 0x50
 800555e:	d042      	beq.n	80055e6 <TIM_SlaveTimer_SetConfig+0xe2>
 8005560:	d855      	bhi.n	800560e <TIM_SlaveTimer_SetConfig+0x10a>
 8005562:	2b40      	cmp	r3, #64	; 0x40
 8005564:	d016      	beq.n	8005594 <TIM_SlaveTimer_SetConfig+0x90>
 8005566:	d852      	bhi.n	800560e <TIM_SlaveTimer_SetConfig+0x10a>
 8005568:	2b30      	cmp	r3, #48	; 0x30
 800556a:	d055      	beq.n	8005618 <TIM_SlaveTimer_SetConfig+0x114>
 800556c:	d84f      	bhi.n	800560e <TIM_SlaveTimer_SetConfig+0x10a>
 800556e:	2b20      	cmp	r3, #32
 8005570:	d052      	beq.n	8005618 <TIM_SlaveTimer_SetConfig+0x114>
 8005572:	d84c      	bhi.n	800560e <TIM_SlaveTimer_SetConfig+0x10a>
 8005574:	2b00      	cmp	r3, #0
 8005576:	d04f      	beq.n	8005618 <TIM_SlaveTimer_SetConfig+0x114>
 8005578:	2b10      	cmp	r3, #16
 800557a:	d04d      	beq.n	8005618 <TIM_SlaveTimer_SetConfig+0x114>
 800557c:	e047      	b.n	800560e <TIM_SlaveTimer_SetConfig+0x10a>
      assert_param(IS_TIM_CLOCKSOURCE_ETRMODE1_INSTANCE(htim->Instance));
      assert_param(IS_TIM_TRIGGERPRESCALER(sSlaveConfig->TriggerPrescaler));
      assert_param(IS_TIM_TRIGGERPOLARITY(sSlaveConfig->TriggerPolarity));
      assert_param(IS_TIM_TRIGGERFILTER(sSlaveConfig->TriggerFilter));
      /* Configure the ETR Trigger source */
      TIM_ETR_SetConfig(htim->Instance,
 800557e:	687b      	ldr	r3, [r7, #4]
 8005580:	6818      	ldr	r0, [r3, #0]
 8005582:	683b      	ldr	r3, [r7, #0]
 8005584:	68d9      	ldr	r1, [r3, #12]
 8005586:	683b      	ldr	r3, [r7, #0]
 8005588:	689a      	ldr	r2, [r3, #8]
 800558a:	683b      	ldr	r3, [r7, #0]
 800558c:	691b      	ldr	r3, [r3, #16]
 800558e:	f000 f8c5 	bl	800571c <TIM_ETR_SetConfig>
                        sSlaveConfig->TriggerPrescaler,
                        sSlaveConfig->TriggerPolarity,
                        sSlaveConfig->TriggerFilter);
      break;
 8005592:	e042      	b.n	800561a <TIM_SlaveTimer_SetConfig+0x116>
    {
      /* Check the parameters */
      assert_param(IS_TIM_CC1_INSTANCE(htim->Instance));
      assert_param(IS_TIM_TRIGGERFILTER(sSlaveConfig->TriggerFilter));

      if (sSlaveConfig->SlaveMode == TIM_SLAVEMODE_GATED)
 8005594:	683b      	ldr	r3, [r7, #0]
 8005596:	681b      	ldr	r3, [r3, #0]
 8005598:	2b05      	cmp	r3, #5
 800559a:	d101      	bne.n	80055a0 <TIM_SlaveTimer_SetConfig+0x9c>
      {
        return HAL_ERROR;
 800559c:	2301      	movs	r3, #1
 800559e:	e03f      	b.n	8005620 <TIM_SlaveTimer_SetConfig+0x11c>
      }

      /* Disable the Channel 1: Reset the CC1E Bit */
      tmpccer = htim->Instance->CCER;
 80055a0:	687b      	ldr	r3, [r7, #4]
 80055a2:	681b      	ldr	r3, [r3, #0]
 80055a4:	6a1b      	ldr	r3, [r3, #32]
 80055a6:	60fb      	str	r3, [r7, #12]
      htim->Instance->CCER &= ~TIM_CCER_CC1E;
 80055a8:	687b      	ldr	r3, [r7, #4]
 80055aa:	681b      	ldr	r3, [r3, #0]
 80055ac:	6a1a      	ldr	r2, [r3, #32]
 80055ae:	687b      	ldr	r3, [r7, #4]
 80055b0:	681b      	ldr	r3, [r3, #0]
 80055b2:	2101      	movs	r1, #1
 80055b4:	438a      	bics	r2, r1
 80055b6:	621a      	str	r2, [r3, #32]
      tmpccmr1 = htim->Instance->CCMR1;
 80055b8:	687b      	ldr	r3, [r7, #4]
 80055ba:	681b      	ldr	r3, [r3, #0]
 80055bc:	699b      	ldr	r3, [r3, #24]
 80055be:	60bb      	str	r3, [r7, #8]

      /* Set the filter */
      tmpccmr1 &= ~TIM_CCMR1_IC1F;
 80055c0:	68bb      	ldr	r3, [r7, #8]
 80055c2:	22f0      	movs	r2, #240	; 0xf0
 80055c4:	4393      	bics	r3, r2
 80055c6:	60bb      	str	r3, [r7, #8]
      tmpccmr1 |= ((sSlaveConfig->TriggerFilter) << 4U);
 80055c8:	683b      	ldr	r3, [r7, #0]
 80055ca:	691b      	ldr	r3, [r3, #16]
 80055cc:	011b      	lsls	r3, r3, #4
 80055ce:	68ba      	ldr	r2, [r7, #8]
 80055d0:	4313      	orrs	r3, r2
 80055d2:	60bb      	str	r3, [r7, #8]

      /* Write to TIMx CCMR1 and CCER registers */
      htim->Instance->CCMR1 = tmpccmr1;
 80055d4:	687b      	ldr	r3, [r7, #4]
 80055d6:	681b      	ldr	r3, [r3, #0]
 80055d8:	68ba      	ldr	r2, [r7, #8]
 80055da:	619a      	str	r2, [r3, #24]
      htim->Instance->CCER = tmpccer;
 80055dc:	687b      	ldr	r3, [r7, #4]
 80055de:	681b      	ldr	r3, [r3, #0]
 80055e0:	68fa      	ldr	r2, [r7, #12]
 80055e2:	621a      	str	r2, [r3, #32]
      break;
 80055e4:	e019      	b.n	800561a <TIM_SlaveTimer_SetConfig+0x116>
      assert_param(IS_TIM_CC1_INSTANCE(htim->Instance));
      assert_param(IS_TIM_TRIGGERPOLARITY(sSlaveConfig->TriggerPolarity));
      assert_param(IS_TIM_TRIGGERFILTER(sSlaveConfig->TriggerFilter));

      /* Configure TI1 Filter and Polarity */
      TIM_TI1_ConfigInputStage(htim->Instance,
 80055e6:	687b      	ldr	r3, [r7, #4]
 80055e8:	6818      	ldr	r0, [r3, #0]
 80055ea:	683b      	ldr	r3, [r7, #0]
 80055ec:	6899      	ldr	r1, [r3, #8]
 80055ee:	683b      	ldr	r3, [r7, #0]
 80055f0:	691b      	ldr	r3, [r3, #16]
 80055f2:	001a      	movs	r2, r3
 80055f4:	f000 f818 	bl	8005628 <TIM_TI1_ConfigInputStage>
                               sSlaveConfig->TriggerPolarity,
                               sSlaveConfig->TriggerFilter);
      break;
 80055f8:	e00f      	b.n	800561a <TIM_SlaveTimer_SetConfig+0x116>
      assert_param(IS_TIM_CC2_INSTANCE(htim->Instance));
      assert_param(IS_TIM_TRIGGERPOLARITY(sSlaveConfig->TriggerPolarity));
      assert_param(IS_TIM_TRIGGERFILTER(sSlaveConfig->TriggerFilter));

      /* Configure TI2 Filter and Polarity */
      TIM_TI2_ConfigInputStage(htim->Instance,
 80055fa:	687b      	ldr	r3, [r7, #4]
 80055fc:	6818      	ldr	r0, [r3, #0]
 80055fe:	683b      	ldr	r3, [r7, #0]
 8005600:	6899      	ldr	r1, [r3, #8]
 8005602:	683b      	ldr	r3, [r7, #0]
 8005604:	691b      	ldr	r3, [r3, #16]
 8005606:	001a      	movs	r2, r3
 8005608:	f000 f83c 	bl	8005684 <TIM_TI2_ConfigInputStage>
                               sSlaveConfig->TriggerPolarity,
                               sSlaveConfig->TriggerFilter);
      break;
 800560c:	e005      	b.n	800561a <TIM_SlaveTimer_SetConfig+0x116>
      assert_param(IS_TIM_CC2_INSTANCE(htim->Instance));
      break;
    }

    default:
      status = HAL_ERROR;
 800560e:	2317      	movs	r3, #23
 8005610:	18fb      	adds	r3, r7, r3
 8005612:	2201      	movs	r2, #1
 8005614:	701a      	strb	r2, [r3, #0]
      break;
 8005616:	e000      	b.n	800561a <TIM_SlaveTimer_SetConfig+0x116>
      break;
 8005618:	46c0      	nop			; (mov r8, r8)
  }

  return status;
 800561a:	2317      	movs	r3, #23
 800561c:	18fb      	adds	r3, r7, r3
 800561e:	781b      	ldrb	r3, [r3, #0]
}
 8005620:	0018      	movs	r0, r3
 8005622:	46bd      	mov	sp, r7
 8005624:	b006      	add	sp, #24
 8005626:	bd80      	pop	{r7, pc}

08005628 <TIM_TI1_ConfigInputStage>:
  * @param  TIM_ICFilter Specifies the Input Capture Filter.
  *          This parameter must be a value between 0x00 and 0x0F.
  * @retval None
  */
static void TIM_TI1_ConfigInputStage(TIM_TypeDef *TIMx, uint32_t TIM_ICPolarity, uint32_t TIM_ICFilter)
{
 8005628:	b580      	push	{r7, lr}
 800562a:	b086      	sub	sp, #24
 800562c:	af00      	add	r7, sp, #0
 800562e:	60f8      	str	r0, [r7, #12]
 8005630:	60b9      	str	r1, [r7, #8]
 8005632:	607a      	str	r2, [r7, #4]
  uint32_t tmpccmr1;
  uint32_t tmpccer;

  /* Disable the Channel 1: Reset the CC1E Bit */
  tmpccer = TIMx->CCER;
 8005634:	68fb      	ldr	r3, [r7, #12]
 8005636:	6a1b      	ldr	r3, [r3, #32]
 8005638:	617b      	str	r3, [r7, #20]
  TIMx->CCER &= ~TIM_CCER_CC1E;
 800563a:	68fb      	ldr	r3, [r7, #12]
 800563c:	6a1b      	ldr	r3, [r3, #32]
 800563e:	2201      	movs	r2, #1
 8005640:	4393      	bics	r3, r2
 8005642:	001a      	movs	r2, r3
 8005644:	68fb      	ldr	r3, [r7, #12]
 8005646:	621a      	str	r2, [r3, #32]
  tmpccmr1 = TIMx->CCMR1;
 8005648:	68fb      	ldr	r3, [r7, #12]
 800564a:	699b      	ldr	r3, [r3, #24]
 800564c:	613b      	str	r3, [r7, #16]

  /* Set the filter */
  tmpccmr1 &= ~TIM_CCMR1_IC1F;
 800564e:	693b      	ldr	r3, [r7, #16]
 8005650:	22f0      	movs	r2, #240	; 0xf0
 8005652:	4393      	bics	r3, r2
 8005654:	613b      	str	r3, [r7, #16]
  tmpccmr1 |= (TIM_ICFilter << 4U);
 8005656:	687b      	ldr	r3, [r7, #4]
 8005658:	011b      	lsls	r3, r3, #4
 800565a:	693a      	ldr	r2, [r7, #16]
 800565c:	4313      	orrs	r3, r2
 800565e:	613b      	str	r3, [r7, #16]

  /* Select the Polarity and set the CC1E Bit */
  tmpccer &= ~(TIM_CCER_CC1P | TIM_CCER_CC1NP);
 8005660:	697b      	ldr	r3, [r7, #20]
 8005662:	220a      	movs	r2, #10
 8005664:	4393      	bics	r3, r2
 8005666:	617b      	str	r3, [r7, #20]
  tmpccer |= TIM_ICPolarity;
 8005668:	697a      	ldr	r2, [r7, #20]
 800566a:	68bb      	ldr	r3, [r7, #8]
 800566c:	4313      	orrs	r3, r2
 800566e:	617b      	str	r3, [r7, #20]

  /* Write to TIMx CCMR1 and CCER registers */
  TIMx->CCMR1 = tmpccmr1;
 8005670:	68fb      	ldr	r3, [r7, #12]
 8005672:	693a      	ldr	r2, [r7, #16]
 8005674:	619a      	str	r2, [r3, #24]
  TIMx->CCER = tmpccer;
 8005676:	68fb      	ldr	r3, [r7, #12]
 8005678:	697a      	ldr	r2, [r7, #20]
 800567a:	621a      	str	r2, [r3, #32]
}
 800567c:	46c0      	nop			; (mov r8, r8)
 800567e:	46bd      	mov	sp, r7
 8005680:	b006      	add	sp, #24
 8005682:	bd80      	pop	{r7, pc}

08005684 <TIM_TI2_ConfigInputStage>:
  * @param  TIM_ICFilter Specifies the Input Capture Filter.
  *          This parameter must be a value between 0x00 and 0x0F.
  * @retval None
  */
static void TIM_TI2_ConfigInputStage(TIM_TypeDef *TIMx, uint32_t TIM_ICPolarity, uint32_t TIM_ICFilter)
{
 8005684:	b580      	push	{r7, lr}
 8005686:	b086      	sub	sp, #24
 8005688:	af00      	add	r7, sp, #0
 800568a:	60f8      	str	r0, [r7, #12]
 800568c:	60b9      	str	r1, [r7, #8]
 800568e:	607a      	str	r2, [r7, #4]
  uint32_t tmpccmr1;
  uint32_t tmpccer;

  /* Disable the Channel 2: Reset the CC2E Bit */
  TIMx->CCER &= ~TIM_CCER_CC2E;
 8005690:	68fb      	ldr	r3, [r7, #12]
 8005692:	6a1b      	ldr	r3, [r3, #32]
 8005694:	2210      	movs	r2, #16
 8005696:	4393      	bics	r3, r2
 8005698:	001a      	movs	r2, r3
 800569a:	68fb      	ldr	r3, [r7, #12]
 800569c:	621a      	str	r2, [r3, #32]
  tmpccmr1 = TIMx->CCMR1;
 800569e:	68fb      	ldr	r3, [r7, #12]
 80056a0:	699b      	ldr	r3, [r3, #24]
 80056a2:	617b      	str	r3, [r7, #20]
  tmpccer = TIMx->CCER;
 80056a4:	68fb      	ldr	r3, [r7, #12]
 80056a6:	6a1b      	ldr	r3, [r3, #32]
 80056a8:	613b      	str	r3, [r7, #16]

  /* Set the filter */
  tmpccmr1 &= ~TIM_CCMR1_IC2F;
 80056aa:	697b      	ldr	r3, [r7, #20]
 80056ac:	4a0d      	ldr	r2, [pc, #52]	; (80056e4 <TIM_TI2_ConfigInputStage+0x60>)
 80056ae:	4013      	ands	r3, r2
 80056b0:	617b      	str	r3, [r7, #20]
  tmpccmr1 |= (TIM_ICFilter << 12U);
 80056b2:	687b      	ldr	r3, [r7, #4]
 80056b4:	031b      	lsls	r3, r3, #12
 80056b6:	697a      	ldr	r2, [r7, #20]
 80056b8:	4313      	orrs	r3, r2
 80056ba:	617b      	str	r3, [r7, #20]

  /* Select the Polarity and set the CC2E Bit */
  tmpccer &= ~(TIM_CCER_CC2P | TIM_CCER_CC2NP);
 80056bc:	693b      	ldr	r3, [r7, #16]
 80056be:	22a0      	movs	r2, #160	; 0xa0
 80056c0:	4393      	bics	r3, r2
 80056c2:	613b      	str	r3, [r7, #16]
  tmpccer |= (TIM_ICPolarity << 4U);
 80056c4:	68bb      	ldr	r3, [r7, #8]
 80056c6:	011b      	lsls	r3, r3, #4
 80056c8:	693a      	ldr	r2, [r7, #16]
 80056ca:	4313      	orrs	r3, r2
 80056cc:	613b      	str	r3, [r7, #16]

  /* Write to TIMx CCMR1 and CCER registers */
  TIMx->CCMR1 = tmpccmr1 ;
 80056ce:	68fb      	ldr	r3, [r7, #12]
 80056d0:	697a      	ldr	r2, [r7, #20]
 80056d2:	619a      	str	r2, [r3, #24]
  TIMx->CCER = tmpccer;
 80056d4:	68fb      	ldr	r3, [r7, #12]
 80056d6:	693a      	ldr	r2, [r7, #16]
 80056d8:	621a      	str	r2, [r3, #32]
}
 80056da:	46c0      	nop			; (mov r8, r8)
 80056dc:	46bd      	mov	sp, r7
 80056de:	b006      	add	sp, #24
 80056e0:	bd80      	pop	{r7, pc}
 80056e2:	46c0      	nop			; (mov r8, r8)
 80056e4:	ffff0fff 	.word	0xffff0fff

080056e8 <TIM_ITRx_SetConfig>:
  *            @arg TIM_TS_TI2FP2: Filtered Timer Input 2
  *            @arg TIM_TS_ETRF: External Trigger input
  * @retval None
  */
static void TIM_ITRx_SetConfig(TIM_TypeDef *TIMx, uint32_t InputTriggerSource)
{
 80056e8:	b580      	push	{r7, lr}
 80056ea:	b084      	sub	sp, #16
 80056ec:	af00      	add	r7, sp, #0
 80056ee:	6078      	str	r0, [r7, #4]
 80056f0:	6039      	str	r1, [r7, #0]
  uint32_t tmpsmcr;

  /* Get the TIMx SMCR register value */
  tmpsmcr = TIMx->SMCR;
 80056f2:	687b      	ldr	r3, [r7, #4]
 80056f4:	689b      	ldr	r3, [r3, #8]
 80056f6:	60fb      	str	r3, [r7, #12]
  /* Reset the TS Bits */
  tmpsmcr &= ~TIM_SMCR_TS;
 80056f8:	68fb      	ldr	r3, [r7, #12]
 80056fa:	2270      	movs	r2, #112	; 0x70
 80056fc:	4393      	bics	r3, r2
 80056fe:	60fb      	str	r3, [r7, #12]
  /* Set the Input Trigger source and the slave mode*/
  tmpsmcr |= (InputTriggerSource | TIM_SLAVEMODE_EXTERNAL1);
 8005700:	683a      	ldr	r2, [r7, #0]
 8005702:	68fb      	ldr	r3, [r7, #12]
 8005704:	4313      	orrs	r3, r2
 8005706:	2207      	movs	r2, #7
 8005708:	4313      	orrs	r3, r2
 800570a:	60fb      	str	r3, [r7, #12]
  /* Write to TIMx SMCR */
  TIMx->SMCR = tmpsmcr;
 800570c:	687b      	ldr	r3, [r7, #4]
 800570e:	68fa      	ldr	r2, [r7, #12]
 8005710:	609a      	str	r2, [r3, #8]
}
 8005712:	46c0      	nop			; (mov r8, r8)
 8005714:	46bd      	mov	sp, r7
 8005716:	b004      	add	sp, #16
 8005718:	bd80      	pop	{r7, pc}
	...

0800571c <TIM_ETR_SetConfig>:
  *          This parameter must be a value between 0x00 and 0x0F
  * @retval None
  */
void TIM_ETR_SetConfig(TIM_TypeDef *TIMx, uint32_t TIM_ExtTRGPrescaler,
                       uint32_t TIM_ExtTRGPolarity, uint32_t ExtTRGFilter)
{
 800571c:	b580      	push	{r7, lr}
 800571e:	b086      	sub	sp, #24
 8005720:	af00      	add	r7, sp, #0
 8005722:	60f8      	str	r0, [r7, #12]
 8005724:	60b9      	str	r1, [r7, #8]
 8005726:	607a      	str	r2, [r7, #4]
 8005728:	603b      	str	r3, [r7, #0]
  uint32_t tmpsmcr;

  tmpsmcr = TIMx->SMCR;
 800572a:	68fb      	ldr	r3, [r7, #12]
 800572c:	689b      	ldr	r3, [r3, #8]
 800572e:	617b      	str	r3, [r7, #20]

  /* Reset the ETR Bits */
  tmpsmcr &= ~(TIM_SMCR_ETF | TIM_SMCR_ETPS | TIM_SMCR_ECE | TIM_SMCR_ETP);
 8005730:	697b      	ldr	r3, [r7, #20]
 8005732:	4a09      	ldr	r2, [pc, #36]	; (8005758 <TIM_ETR_SetConfig+0x3c>)
 8005734:	4013      	ands	r3, r2
 8005736:	617b      	str	r3, [r7, #20]

  /* Set the Prescaler, the Filter value and the Polarity */
  tmpsmcr |= (uint32_t)(TIM_ExtTRGPrescaler | (TIM_ExtTRGPolarity | (ExtTRGFilter << 8U)));
 8005738:	683b      	ldr	r3, [r7, #0]
 800573a:	021a      	lsls	r2, r3, #8
 800573c:	687b      	ldr	r3, [r7, #4]
 800573e:	431a      	orrs	r2, r3
 8005740:	68bb      	ldr	r3, [r7, #8]
 8005742:	4313      	orrs	r3, r2
 8005744:	697a      	ldr	r2, [r7, #20]
 8005746:	4313      	orrs	r3, r2
 8005748:	617b      	str	r3, [r7, #20]

  /* Write to TIMx SMCR */
  TIMx->SMCR = tmpsmcr;
 800574a:	68fb      	ldr	r3, [r7, #12]
 800574c:	697a      	ldr	r2, [r7, #20]
 800574e:	609a      	str	r2, [r3, #8]
}
 8005750:	46c0      	nop			; (mov r8, r8)
 8005752:	46bd      	mov	sp, r7
 8005754:	b006      	add	sp, #24
 8005756:	bd80      	pop	{r7, pc}
 8005758:	ffff00ff 	.word	0xffff00ff

0800575c <TIM_CCxChannelCmd>:
  * @param  ChannelState specifies the TIM Channel CCxE bit new state.
  *          This parameter can be: TIM_CCx_ENABLE or TIM_CCx_DISABLE.
  * @retval None
  */
void TIM_CCxChannelCmd(TIM_TypeDef *TIMx, uint32_t Channel, uint32_t ChannelState)
{
 800575c:	b580      	push	{r7, lr}
 800575e:	b086      	sub	sp, #24
 8005760:	af00      	add	r7, sp, #0
 8005762:	60f8      	str	r0, [r7, #12]
 8005764:	60b9      	str	r1, [r7, #8]
 8005766:	607a      	str	r2, [r7, #4]

  /* Check the parameters */
  assert_param(IS_TIM_CC1_INSTANCE(TIMx));
  assert_param(IS_TIM_CHANNELS(Channel));

  tmp = TIM_CCER_CC1E << (Channel & 0x1FU); /* 0x1FU = 31 bits max shift */
 8005768:	68bb      	ldr	r3, [r7, #8]
 800576a:	221f      	movs	r2, #31
 800576c:	4013      	ands	r3, r2
 800576e:	2201      	movs	r2, #1
 8005770:	409a      	lsls	r2, r3
 8005772:	0013      	movs	r3, r2
 8005774:	617b      	str	r3, [r7, #20]

  /* Reset the CCxE Bit */
  TIMx->CCER &= ~tmp;
 8005776:	68fb      	ldr	r3, [r7, #12]
 8005778:	6a1b      	ldr	r3, [r3, #32]
 800577a:	697a      	ldr	r2, [r7, #20]
 800577c:	43d2      	mvns	r2, r2
 800577e:	401a      	ands	r2, r3
 8005780:	68fb      	ldr	r3, [r7, #12]
 8005782:	621a      	str	r2, [r3, #32]

  /* Set or reset the CCxE Bit */
  TIMx->CCER |= (uint32_t)(ChannelState << (Channel & 0x1FU)); /* 0x1FU = 31 bits max shift */
 8005784:	68fb      	ldr	r3, [r7, #12]
 8005786:	6a1a      	ldr	r2, [r3, #32]
 8005788:	68bb      	ldr	r3, [r7, #8]
 800578a:	211f      	movs	r1, #31
 800578c:	400b      	ands	r3, r1
 800578e:	6879      	ldr	r1, [r7, #4]
 8005790:	4099      	lsls	r1, r3
 8005792:	000b      	movs	r3, r1
 8005794:	431a      	orrs	r2, r3
 8005796:	68fb      	ldr	r3, [r7, #12]
 8005798:	621a      	str	r2, [r3, #32]
}
 800579a:	46c0      	nop			; (mov r8, r8)
 800579c:	46bd      	mov	sp, r7
 800579e:	b006      	add	sp, #24
 80057a0:	bd80      	pop	{r7, pc}
	...

080057a4 <HAL_TIMEx_PWMN_Start>:
  *            @arg TIM_CHANNEL_2: TIM Channel 2 selected
  *            @arg TIM_CHANNEL_3: TIM Channel 3 selected
  * @retval HAL status
  */
HAL_StatusTypeDef HAL_TIMEx_PWMN_Start(TIM_HandleTypeDef *htim, uint32_t Channel)
{
 80057a4:	b580      	push	{r7, lr}
 80057a6:	b084      	sub	sp, #16
 80057a8:	af00      	add	r7, sp, #0
 80057aa:	6078      	str	r0, [r7, #4]
 80057ac:	6039      	str	r1, [r7, #0]

  /* Check the parameters */
  assert_param(IS_TIM_CCXN_INSTANCE(htim->Instance, Channel));

  /* Check the TIM complementary channel state */
  if (TIM_CHANNEL_N_STATE_GET(htim, Channel) != HAL_TIM_CHANNEL_STATE_READY)
 80057ae:	683b      	ldr	r3, [r7, #0]
 80057b0:	2b00      	cmp	r3, #0
 80057b2:	d108      	bne.n	80057c6 <HAL_TIMEx_PWMN_Start+0x22>
 80057b4:	687b      	ldr	r3, [r7, #4]
 80057b6:	2242      	movs	r2, #66	; 0x42
 80057b8:	5c9b      	ldrb	r3, [r3, r2]
 80057ba:	b2db      	uxtb	r3, r3
 80057bc:	3b01      	subs	r3, #1
 80057be:	1e5a      	subs	r2, r3, #1
 80057c0:	4193      	sbcs	r3, r2
 80057c2:	b2db      	uxtb	r3, r3
 80057c4:	e01f      	b.n	8005806 <HAL_TIMEx_PWMN_Start+0x62>
 80057c6:	683b      	ldr	r3, [r7, #0]
 80057c8:	2b04      	cmp	r3, #4
 80057ca:	d108      	bne.n	80057de <HAL_TIMEx_PWMN_Start+0x3a>
 80057cc:	687b      	ldr	r3, [r7, #4]
 80057ce:	2243      	movs	r2, #67	; 0x43
 80057d0:	5c9b      	ldrb	r3, [r3, r2]
 80057d2:	b2db      	uxtb	r3, r3
 80057d4:	3b01      	subs	r3, #1
 80057d6:	1e5a      	subs	r2, r3, #1
 80057d8:	4193      	sbcs	r3, r2
 80057da:	b2db      	uxtb	r3, r3
 80057dc:	e013      	b.n	8005806 <HAL_TIMEx_PWMN_Start+0x62>
 80057de:	683b      	ldr	r3, [r7, #0]
 80057e0:	2b08      	cmp	r3, #8
 80057e2:	d108      	bne.n	80057f6 <HAL_TIMEx_PWMN_Start+0x52>
 80057e4:	687b      	ldr	r3, [r7, #4]
 80057e6:	2244      	movs	r2, #68	; 0x44
 80057e8:	5c9b      	ldrb	r3, [r3, r2]
 80057ea:	b2db      	uxtb	r3, r3
 80057ec:	3b01      	subs	r3, #1
 80057ee:	1e5a      	subs	r2, r3, #1
 80057f0:	4193      	sbcs	r3, r2
 80057f2:	b2db      	uxtb	r3, r3
 80057f4:	e007      	b.n	8005806 <HAL_TIMEx_PWMN_Start+0x62>
 80057f6:	687b      	ldr	r3, [r7, #4]
 80057f8:	2245      	movs	r2, #69	; 0x45
 80057fa:	5c9b      	ldrb	r3, [r3, r2]
 80057fc:	b2db      	uxtb	r3, r3
 80057fe:	3b01      	subs	r3, #1
 8005800:	1e5a      	subs	r2, r3, #1
 8005802:	4193      	sbcs	r3, r2
 8005804:	b2db      	uxtb	r3, r3
 8005806:	2b00      	cmp	r3, #0
 8005808:	d001      	beq.n	800580e <HAL_TIMEx_PWMN_Start+0x6a>
  {
    return HAL_ERROR;
 800580a:	2301      	movs	r3, #1
 800580c:	e056      	b.n	80058bc <HAL_TIMEx_PWMN_Start+0x118>
  }

  /* Set the TIM complementary channel state */
  TIM_CHANNEL_N_STATE_SET(htim, Channel, HAL_TIM_CHANNEL_STATE_BUSY);
 800580e:	683b      	ldr	r3, [r7, #0]
 8005810:	2b00      	cmp	r3, #0
 8005812:	d104      	bne.n	800581e <HAL_TIMEx_PWMN_Start+0x7a>
 8005814:	687b      	ldr	r3, [r7, #4]
 8005816:	2242      	movs	r2, #66	; 0x42
 8005818:	2102      	movs	r1, #2
 800581a:	5499      	strb	r1, [r3, r2]
 800581c:	e013      	b.n	8005846 <HAL_TIMEx_PWMN_Start+0xa2>
 800581e:	683b      	ldr	r3, [r7, #0]
 8005820:	2b04      	cmp	r3, #4
 8005822:	d104      	bne.n	800582e <HAL_TIMEx_PWMN_Start+0x8a>
 8005824:	687b      	ldr	r3, [r7, #4]
 8005826:	2243      	movs	r2, #67	; 0x43
 8005828:	2102      	movs	r1, #2
 800582a:	5499      	strb	r1, [r3, r2]
 800582c:	e00b      	b.n	8005846 <HAL_TIMEx_PWMN_Start+0xa2>
 800582e:	683b      	ldr	r3, [r7, #0]
 8005830:	2b08      	cmp	r3, #8
 8005832:	d104      	bne.n	800583e <HAL_TIMEx_PWMN_Start+0x9a>
 8005834:	687b      	ldr	r3, [r7, #4]
 8005836:	2244      	movs	r2, #68	; 0x44
 8005838:	2102      	movs	r1, #2
 800583a:	5499      	strb	r1, [r3, r2]
 800583c:	e003      	b.n	8005846 <HAL_TIMEx_PWMN_Start+0xa2>
 800583e:	687b      	ldr	r3, [r7, #4]
 8005840:	2245      	movs	r2, #69	; 0x45
 8005842:	2102      	movs	r1, #2
 8005844:	5499      	strb	r1, [r3, r2]

  /* Enable the complementary PWM output  */
  TIM_CCxNChannelCmd(htim->Instance, Channel, TIM_CCxN_ENABLE);
 8005846:	687b      	ldr	r3, [r7, #4]
 8005848:	681b      	ldr	r3, [r3, #0]
 800584a:	6839      	ldr	r1, [r7, #0]
 800584c:	2204      	movs	r2, #4
 800584e:	0018      	movs	r0, r3
 8005850:	f000 f8f2 	bl	8005a38 <TIM_CCxNChannelCmd>

  /* Enable the Main Output */
  __HAL_TIM_MOE_ENABLE(htim);
 8005854:	687b      	ldr	r3, [r7, #4]
 8005856:	681b      	ldr	r3, [r3, #0]
 8005858:	6c5a      	ldr	r2, [r3, #68]	; 0x44
 800585a:	687b      	ldr	r3, [r7, #4]
 800585c:	681b      	ldr	r3, [r3, #0]
 800585e:	2180      	movs	r1, #128	; 0x80
 8005860:	0209      	lsls	r1, r1, #8
 8005862:	430a      	orrs	r2, r1
 8005864:	645a      	str	r2, [r3, #68]	; 0x44

  /* Enable the Peripheral, except in trigger mode where enable is automatically done with trigger */
  if (IS_TIM_SLAVE_INSTANCE(htim->Instance))
 8005866:	687b      	ldr	r3, [r7, #4]
 8005868:	681b      	ldr	r3, [r3, #0]
 800586a:	4a16      	ldr	r2, [pc, #88]	; (80058c4 <HAL_TIMEx_PWMN_Start+0x120>)
 800586c:	4293      	cmp	r3, r2
 800586e:	d00a      	beq.n	8005886 <HAL_TIMEx_PWMN_Start+0xe2>
 8005870:	687b      	ldr	r3, [r7, #4]
 8005872:	681a      	ldr	r2, [r3, #0]
 8005874:	2380      	movs	r3, #128	; 0x80
 8005876:	05db      	lsls	r3, r3, #23
 8005878:	429a      	cmp	r2, r3
 800587a:	d004      	beq.n	8005886 <HAL_TIMEx_PWMN_Start+0xe2>
 800587c:	687b      	ldr	r3, [r7, #4]
 800587e:	681b      	ldr	r3, [r3, #0]
 8005880:	4a11      	ldr	r2, [pc, #68]	; (80058c8 <HAL_TIMEx_PWMN_Start+0x124>)
 8005882:	4293      	cmp	r3, r2
 8005884:	d111      	bne.n	80058aa <HAL_TIMEx_PWMN_Start+0x106>
  {
    tmpsmcr = htim->Instance->SMCR & TIM_SMCR_SMS;
 8005886:	687b      	ldr	r3, [r7, #4]
 8005888:	681b      	ldr	r3, [r3, #0]
 800588a:	689b      	ldr	r3, [r3, #8]
 800588c:	2207      	movs	r2, #7
 800588e:	4013      	ands	r3, r2
 8005890:	60fb      	str	r3, [r7, #12]
    if (!IS_TIM_SLAVEMODE_TRIGGER_ENABLED(tmpsmcr))
 8005892:	68fb      	ldr	r3, [r7, #12]
 8005894:	2b06      	cmp	r3, #6
 8005896:	d010      	beq.n	80058ba <HAL_TIMEx_PWMN_Start+0x116>
    {
      __HAL_TIM_ENABLE(htim);
 8005898:	687b      	ldr	r3, [r7, #4]
 800589a:	681b      	ldr	r3, [r3, #0]
 800589c:	681a      	ldr	r2, [r3, #0]
 800589e:	687b      	ldr	r3, [r7, #4]
 80058a0:	681b      	ldr	r3, [r3, #0]
 80058a2:	2101      	movs	r1, #1
 80058a4:	430a      	orrs	r2, r1
 80058a6:	601a      	str	r2, [r3, #0]
    if (!IS_TIM_SLAVEMODE_TRIGGER_ENABLED(tmpsmcr))
 80058a8:	e007      	b.n	80058ba <HAL_TIMEx_PWMN_Start+0x116>
    }
  }
  else
  {
    __HAL_TIM_ENABLE(htim);
 80058aa:	687b      	ldr	r3, [r7, #4]
 80058ac:	681b      	ldr	r3, [r3, #0]
 80058ae:	681a      	ldr	r2, [r3, #0]
 80058b0:	687b      	ldr	r3, [r7, #4]
 80058b2:	681b      	ldr	r3, [r3, #0]
 80058b4:	2101      	movs	r1, #1
 80058b6:	430a      	orrs	r2, r1
 80058b8:	601a      	str	r2, [r3, #0]
  }

  /* Return function status */
  return HAL_OK;
 80058ba:	2300      	movs	r3, #0
}
 80058bc:	0018      	movs	r0, r3
 80058be:	46bd      	mov	sp, r7
 80058c0:	b004      	add	sp, #16
 80058c2:	bd80      	pop	{r7, pc}
 80058c4:	40012c00 	.word	0x40012c00
 80058c8:	40000400 	.word	0x40000400

080058cc <HAL_TIMEx_MasterConfigSynchronization>:
  *         mode.
  * @retval HAL status
  */
HAL_StatusTypeDef HAL_TIMEx_MasterConfigSynchronization(TIM_HandleTypeDef *htim,
                                                        TIM_MasterConfigTypeDef *sMasterConfig)
{
 80058cc:	b580      	push	{r7, lr}
 80058ce:	b084      	sub	sp, #16
 80058d0:	af00      	add	r7, sp, #0
 80058d2:	6078      	str	r0, [r7, #4]
 80058d4:	6039      	str	r1, [r7, #0]
  assert_param(IS_TIM_MASTER_INSTANCE(htim->Instance));
  assert_param(IS_TIM_TRGO_SOURCE(sMasterConfig->MasterOutputTrigger));
  assert_param(IS_TIM_MSM_STATE(sMasterConfig->MasterSlaveMode));

  /* Check input state */
  __HAL_LOCK(htim);
 80058d6:	687b      	ldr	r3, [r7, #4]
 80058d8:	223c      	movs	r2, #60	; 0x3c
 80058da:	5c9b      	ldrb	r3, [r3, r2]
 80058dc:	2b01      	cmp	r3, #1
 80058de:	d101      	bne.n	80058e4 <HAL_TIMEx_MasterConfigSynchronization+0x18>
 80058e0:	2302      	movs	r3, #2
 80058e2:	e042      	b.n	800596a <HAL_TIMEx_MasterConfigSynchronization+0x9e>
 80058e4:	687b      	ldr	r3, [r7, #4]
 80058e6:	223c      	movs	r2, #60	; 0x3c
 80058e8:	2101      	movs	r1, #1
 80058ea:	5499      	strb	r1, [r3, r2]

  /* Change the handler state */
  htim->State = HAL_TIM_STATE_BUSY;
 80058ec:	687b      	ldr	r3, [r7, #4]
 80058ee:	223d      	movs	r2, #61	; 0x3d
 80058f0:	2102      	movs	r1, #2
 80058f2:	5499      	strb	r1, [r3, r2]

  /* Get the TIMx CR2 register value */
  tmpcr2 = htim->Instance->CR2;
 80058f4:	687b      	ldr	r3, [r7, #4]
 80058f6:	681b      	ldr	r3, [r3, #0]
 80058f8:	685b      	ldr	r3, [r3, #4]
 80058fa:	60fb      	str	r3, [r7, #12]

  /* Get the TIMx SMCR register value */
  tmpsmcr = htim->Instance->SMCR;
 80058fc:	687b      	ldr	r3, [r7, #4]
 80058fe:	681b      	ldr	r3, [r3, #0]
 8005900:	689b      	ldr	r3, [r3, #8]
 8005902:	60bb      	str	r3, [r7, #8]

  /* Reset the MMS Bits */
  tmpcr2 &= ~TIM_CR2_MMS;
 8005904:	68fb      	ldr	r3, [r7, #12]
 8005906:	2270      	movs	r2, #112	; 0x70
 8005908:	4393      	bics	r3, r2
 800590a:	60fb      	str	r3, [r7, #12]
  /* Select the TRGO source */
  tmpcr2 |=  sMasterConfig->MasterOutputTrigger;
 800590c:	683b      	ldr	r3, [r7, #0]
 800590e:	681b      	ldr	r3, [r3, #0]
 8005910:	68fa      	ldr	r2, [r7, #12]
 8005912:	4313      	orrs	r3, r2
 8005914:	60fb      	str	r3, [r7, #12]

  /* Update TIMx CR2 */
  htim->Instance->CR2 = tmpcr2;
 8005916:	687b      	ldr	r3, [r7, #4]
 8005918:	681b      	ldr	r3, [r3, #0]
 800591a:	68fa      	ldr	r2, [r7, #12]
 800591c:	605a      	str	r2, [r3, #4]

  if (IS_TIM_SLAVE_INSTANCE(htim->Instance))
 800591e:	687b      	ldr	r3, [r7, #4]
 8005920:	681b      	ldr	r3, [r3, #0]
 8005922:	4a14      	ldr	r2, [pc, #80]	; (8005974 <HAL_TIMEx_MasterConfigSynchronization+0xa8>)
 8005924:	4293      	cmp	r3, r2
 8005926:	d00a      	beq.n	800593e <HAL_TIMEx_MasterConfigSynchronization+0x72>
 8005928:	687b      	ldr	r3, [r7, #4]
 800592a:	681a      	ldr	r2, [r3, #0]
 800592c:	2380      	movs	r3, #128	; 0x80
 800592e:	05db      	lsls	r3, r3, #23
 8005930:	429a      	cmp	r2, r3
 8005932:	d004      	beq.n	800593e <HAL_TIMEx_MasterConfigSynchronization+0x72>
 8005934:	687b      	ldr	r3, [r7, #4]
 8005936:	681b      	ldr	r3, [r3, #0]
 8005938:	4a0f      	ldr	r2, [pc, #60]	; (8005978 <HAL_TIMEx_MasterConfigSynchronization+0xac>)
 800593a:	4293      	cmp	r3, r2
 800593c:	d10c      	bne.n	8005958 <HAL_TIMEx_MasterConfigSynchronization+0x8c>
  {
    /* Reset the MSM Bit */
    tmpsmcr &= ~TIM_SMCR_MSM;
 800593e:	68bb      	ldr	r3, [r7, #8]
 8005940:	2280      	movs	r2, #128	; 0x80
 8005942:	4393      	bics	r3, r2
 8005944:	60bb      	str	r3, [r7, #8]
    /* Set master mode */
    tmpsmcr |= sMasterConfig->MasterSlaveMode;
 8005946:	683b      	ldr	r3, [r7, #0]
 8005948:	685b      	ldr	r3, [r3, #4]
 800594a:	68ba      	ldr	r2, [r7, #8]
 800594c:	4313      	orrs	r3, r2
 800594e:	60bb      	str	r3, [r7, #8]

    /* Update TIMx SMCR */
    htim->Instance->SMCR = tmpsmcr;
 8005950:	687b      	ldr	r3, [r7, #4]
 8005952:	681b      	ldr	r3, [r3, #0]
 8005954:	68ba      	ldr	r2, [r7, #8]
 8005956:	609a      	str	r2, [r3, #8]
  }

  /* Change the htim state */
  htim->State = HAL_TIM_STATE_READY;
 8005958:	687b      	ldr	r3, [r7, #4]
 800595a:	223d      	movs	r2, #61	; 0x3d
 800595c:	2101      	movs	r1, #1
 800595e:	5499      	strb	r1, [r3, r2]

  __HAL_UNLOCK(htim);
 8005960:	687b      	ldr	r3, [r7, #4]
 8005962:	223c      	movs	r2, #60	; 0x3c
 8005964:	2100      	movs	r1, #0
 8005966:	5499      	strb	r1, [r3, r2]

  return HAL_OK;
 8005968:	2300      	movs	r3, #0
}
 800596a:	0018      	movs	r0, r3
 800596c:	46bd      	mov	sp, r7
 800596e:	b004      	add	sp, #16
 8005970:	bd80      	pop	{r7, pc}
 8005972:	46c0      	nop			; (mov r8, r8)
 8005974:	40012c00 	.word	0x40012c00
 8005978:	40000400 	.word	0x40000400

0800597c <HAL_TIMEx_ConfigBreakDeadTime>:
  *         interrupt can be enabled by calling the @ref __HAL_TIM_ENABLE_IT macro.
  * @retval HAL status
  */
HAL_StatusTypeDef HAL_TIMEx_ConfigBreakDeadTime(TIM_HandleTypeDef *htim,
                                                TIM_BreakDeadTimeConfigTypeDef *sBreakDeadTimeConfig)
{
 800597c:	b580      	push	{r7, lr}
 800597e:	b084      	sub	sp, #16
 8005980:	af00      	add	r7, sp, #0
 8005982:	6078      	str	r0, [r7, #4]
 8005984:	6039      	str	r1, [r7, #0]
  /* Keep this variable initialized to 0 as it is used to configure BDTR register */
  uint32_t tmpbdtr = 0U;
 8005986:	2300      	movs	r3, #0
 8005988:	60fb      	str	r3, [r7, #12]
  assert_param(IS_TIM_BREAK_STATE(sBreakDeadTimeConfig->BreakState));
  assert_param(IS_TIM_BREAK_POLARITY(sBreakDeadTimeConfig->BreakPolarity));
  assert_param(IS_TIM_AUTOMATIC_OUTPUT_STATE(sBreakDeadTimeConfig->AutomaticOutput));

  /* Check input state */
  __HAL_LOCK(htim);
 800598a:	687b      	ldr	r3, [r7, #4]
 800598c:	223c      	movs	r2, #60	; 0x3c
 800598e:	5c9b      	ldrb	r3, [r3, r2]
 8005990:	2b01      	cmp	r3, #1
 8005992:	d101      	bne.n	8005998 <HAL_TIMEx_ConfigBreakDeadTime+0x1c>
 8005994:	2302      	movs	r3, #2
 8005996:	e03e      	b.n	8005a16 <HAL_TIMEx_ConfigBreakDeadTime+0x9a>
 8005998:	687b      	ldr	r3, [r7, #4]
 800599a:	223c      	movs	r2, #60	; 0x3c
 800599c:	2101      	movs	r1, #1
 800599e:	5499      	strb	r1, [r3, r2]

  /* Set the Lock level, the Break enable Bit and the Polarity, the OSSR State,
     the OSSI State, the dead time value and the Automatic Output Enable Bit */

  /* Set the BDTR bits */
  MODIFY_REG(tmpbdtr, TIM_BDTR_DTG, sBreakDeadTimeConfig->DeadTime);
 80059a0:	68fb      	ldr	r3, [r7, #12]
 80059a2:	22ff      	movs	r2, #255	; 0xff
 80059a4:	4393      	bics	r3, r2
 80059a6:	001a      	movs	r2, r3
 80059a8:	683b      	ldr	r3, [r7, #0]
 80059aa:	68db      	ldr	r3, [r3, #12]
 80059ac:	4313      	orrs	r3, r2
 80059ae:	60fb      	str	r3, [r7, #12]
  MODIFY_REG(tmpbdtr, TIM_BDTR_LOCK, sBreakDeadTimeConfig->LockLevel);
 80059b0:	68fb      	ldr	r3, [r7, #12]
 80059b2:	4a1b      	ldr	r2, [pc, #108]	; (8005a20 <HAL_TIMEx_ConfigBreakDeadTime+0xa4>)
 80059b4:	401a      	ands	r2, r3
 80059b6:	683b      	ldr	r3, [r7, #0]
 80059b8:	689b      	ldr	r3, [r3, #8]
 80059ba:	4313      	orrs	r3, r2
 80059bc:	60fb      	str	r3, [r7, #12]
  MODIFY_REG(tmpbdtr, TIM_BDTR_OSSI, sBreakDeadTimeConfig->OffStateIDLEMode);
 80059be:	68fb      	ldr	r3, [r7, #12]
 80059c0:	4a18      	ldr	r2, [pc, #96]	; (8005a24 <HAL_TIMEx_ConfigBreakDeadTime+0xa8>)
 80059c2:	401a      	ands	r2, r3
 80059c4:	683b      	ldr	r3, [r7, #0]
 80059c6:	685b      	ldr	r3, [r3, #4]
 80059c8:	4313      	orrs	r3, r2
 80059ca:	60fb      	str	r3, [r7, #12]
  MODIFY_REG(tmpbdtr, TIM_BDTR_OSSR, sBreakDeadTimeConfig->OffStateRunMode);
 80059cc:	68fb      	ldr	r3, [r7, #12]
 80059ce:	4a16      	ldr	r2, [pc, #88]	; (8005a28 <HAL_TIMEx_ConfigBreakDeadTime+0xac>)
 80059d0:	401a      	ands	r2, r3
 80059d2:	683b      	ldr	r3, [r7, #0]
 80059d4:	681b      	ldr	r3, [r3, #0]
 80059d6:	4313      	orrs	r3, r2
 80059d8:	60fb      	str	r3, [r7, #12]
  MODIFY_REG(tmpbdtr, TIM_BDTR_BKE, sBreakDeadTimeConfig->BreakState);
 80059da:	68fb      	ldr	r3, [r7, #12]
 80059dc:	4a13      	ldr	r2, [pc, #76]	; (8005a2c <HAL_TIMEx_ConfigBreakDeadTime+0xb0>)
 80059de:	401a      	ands	r2, r3
 80059e0:	683b      	ldr	r3, [r7, #0]
 80059e2:	691b      	ldr	r3, [r3, #16]
 80059e4:	4313      	orrs	r3, r2
 80059e6:	60fb      	str	r3, [r7, #12]
  MODIFY_REG(tmpbdtr, TIM_BDTR_BKP, sBreakDeadTimeConfig->BreakPolarity);
 80059e8:	68fb      	ldr	r3, [r7, #12]
 80059ea:	4a11      	ldr	r2, [pc, #68]	; (8005a30 <HAL_TIMEx_ConfigBreakDeadTime+0xb4>)
 80059ec:	401a      	ands	r2, r3
 80059ee:	683b      	ldr	r3, [r7, #0]
 80059f0:	695b      	ldr	r3, [r3, #20]
 80059f2:	4313      	orrs	r3, r2
 80059f4:	60fb      	str	r3, [r7, #12]
  MODIFY_REG(tmpbdtr, TIM_BDTR_AOE, sBreakDeadTimeConfig->AutomaticOutput);
 80059f6:	68fb      	ldr	r3, [r7, #12]
 80059f8:	4a0e      	ldr	r2, [pc, #56]	; (8005a34 <HAL_TIMEx_ConfigBreakDeadTime+0xb8>)
 80059fa:	401a      	ands	r2, r3
 80059fc:	683b      	ldr	r3, [r7, #0]
 80059fe:	69db      	ldr	r3, [r3, #28]
 8005a00:	4313      	orrs	r3, r2
 8005a02:	60fb      	str	r3, [r7, #12]


  /* Set TIMx_BDTR */
  htim->Instance->BDTR = tmpbdtr;
 8005a04:	687b      	ldr	r3, [r7, #4]
 8005a06:	681b      	ldr	r3, [r3, #0]
 8005a08:	68fa      	ldr	r2, [r7, #12]
 8005a0a:	645a      	str	r2, [r3, #68]	; 0x44

  __HAL_UNLOCK(htim);
 8005a0c:	687b      	ldr	r3, [r7, #4]
 8005a0e:	223c      	movs	r2, #60	; 0x3c
 8005a10:	2100      	movs	r1, #0
 8005a12:	5499      	strb	r1, [r3, r2]

  return HAL_OK;
 8005a14:	2300      	movs	r3, #0
}
 8005a16:	0018      	movs	r0, r3
 8005a18:	46bd      	mov	sp, r7
 8005a1a:	b004      	add	sp, #16
 8005a1c:	bd80      	pop	{r7, pc}
 8005a1e:	46c0      	nop			; (mov r8, r8)
 8005a20:	fffffcff 	.word	0xfffffcff
 8005a24:	fffffbff 	.word	0xfffffbff
 8005a28:	fffff7ff 	.word	0xfffff7ff
 8005a2c:	ffffefff 	.word	0xffffefff
 8005a30:	ffffdfff 	.word	0xffffdfff
 8005a34:	ffffbfff 	.word	0xffffbfff

08005a38 <TIM_CCxNChannelCmd>:
  * @param  ChannelNState specifies the TIM Channel CCxNE bit new state.
  *          This parameter can be: TIM_CCxN_ENABLE or TIM_CCxN_Disable.
  * @retval None
  */
static void TIM_CCxNChannelCmd(TIM_TypeDef *TIMx, uint32_t Channel, uint32_t ChannelNState)
{
 8005a38:	b580      	push	{r7, lr}
 8005a3a:	b086      	sub	sp, #24
 8005a3c:	af00      	add	r7, sp, #0
 8005a3e:	60f8      	str	r0, [r7, #12]
 8005a40:	60b9      	str	r1, [r7, #8]
 8005a42:	607a      	str	r2, [r7, #4]
  uint32_t tmp;

  tmp = TIM_CCER_CC1NE << (Channel & 0x1FU); /* 0x1FU = 31 bits max shift */
 8005a44:	68bb      	ldr	r3, [r7, #8]
 8005a46:	221f      	movs	r2, #31
 8005a48:	4013      	ands	r3, r2
 8005a4a:	2204      	movs	r2, #4
 8005a4c:	409a      	lsls	r2, r3
 8005a4e:	0013      	movs	r3, r2
 8005a50:	617b      	str	r3, [r7, #20]

  /* Reset the CCxNE Bit */
  TIMx->CCER &=  ~tmp;
 8005a52:	68fb      	ldr	r3, [r7, #12]
 8005a54:	6a1b      	ldr	r3, [r3, #32]
 8005a56:	697a      	ldr	r2, [r7, #20]
 8005a58:	43d2      	mvns	r2, r2
 8005a5a:	401a      	ands	r2, r3
 8005a5c:	68fb      	ldr	r3, [r7, #12]
 8005a5e:	621a      	str	r2, [r3, #32]

  /* Set or reset the CCxNE Bit */
  TIMx->CCER |= (uint32_t)(ChannelNState << (Channel & 0x1FU)); /* 0x1FU = 31 bits max shift */
 8005a60:	68fb      	ldr	r3, [r7, #12]
 8005a62:	6a1a      	ldr	r2, [r3, #32]
 8005a64:	68bb      	ldr	r3, [r7, #8]
 8005a66:	211f      	movs	r1, #31
 8005a68:	400b      	ands	r3, r1
 8005a6a:	6879      	ldr	r1, [r7, #4]
 8005a6c:	4099      	lsls	r1, r3
 8005a6e:	000b      	movs	r3, r1
 8005a70:	431a      	orrs	r2, r3
 8005a72:	68fb      	ldr	r3, [r7, #12]
 8005a74:	621a      	str	r2, [r3, #32]
}
 8005a76:	46c0      	nop			; (mov r8, r8)
 8005a78:	46bd      	mov	sp, r7
 8005a7a:	b006      	add	sp, #24
 8005a7c:	bd80      	pop	{r7, pc}

08005a7e <HAL_UART_Transmit>:
  * @param Size    Amount of data elements (u8 or u16) to be sent.
  * @param Timeout Timeout duration.
  * @retval HAL status
  */
HAL_StatusTypeDef HAL_UART_Transmit(UART_HandleTypeDef *huart, uint8_t *pData, uint16_t Size, uint32_t Timeout)
{
 8005a7e:	b580      	push	{r7, lr}
 8005a80:	b08a      	sub	sp, #40	; 0x28
 8005a82:	af02      	add	r7, sp, #8
 8005a84:	60f8      	str	r0, [r7, #12]
 8005a86:	60b9      	str	r1, [r7, #8]
 8005a88:	603b      	str	r3, [r7, #0]
 8005a8a:	1dbb      	adds	r3, r7, #6
 8005a8c:	801a      	strh	r2, [r3, #0]
  uint8_t  *pdata8bits;
  uint16_t *pdata16bits;
  uint32_t tickstart;

  /* Check that a Tx process is not already ongoing */
  if (huart->gState == HAL_UART_STATE_READY)
 8005a8e:	68fb      	ldr	r3, [r7, #12]
 8005a90:	6f9b      	ldr	r3, [r3, #120]	; 0x78
 8005a92:	2b20      	cmp	r3, #32
 8005a94:	d000      	beq.n	8005a98 <HAL_UART_Transmit+0x1a>
 8005a96:	e096      	b.n	8005bc6 <HAL_UART_Transmit+0x148>
  {
    if ((pData == NULL) || (Size == 0U))
 8005a98:	68bb      	ldr	r3, [r7, #8]
 8005a9a:	2b00      	cmp	r3, #0
 8005a9c:	d003      	beq.n	8005aa6 <HAL_UART_Transmit+0x28>
 8005a9e:	1dbb      	adds	r3, r7, #6
 8005aa0:	881b      	ldrh	r3, [r3, #0]
 8005aa2:	2b00      	cmp	r3, #0
 8005aa4:	d101      	bne.n	8005aaa <HAL_UART_Transmit+0x2c>
    {
      return  HAL_ERROR;
 8005aa6:	2301      	movs	r3, #1
 8005aa8:	e08e      	b.n	8005bc8 <HAL_UART_Transmit+0x14a>
    }

    /* In case of 9bits/No Parity transfer, pData buffer provided as input parameter
       should be aligned on a u16 frontier, as data to be filled into TDR will be
       handled through a u16 cast. */
    if ((huart->Init.WordLength == UART_WORDLENGTH_9B) && (huart->Init.Parity == UART_PARITY_NONE))
 8005aaa:	68fb      	ldr	r3, [r7, #12]
 8005aac:	689a      	ldr	r2, [r3, #8]
 8005aae:	2380      	movs	r3, #128	; 0x80
 8005ab0:	015b      	lsls	r3, r3, #5
 8005ab2:	429a      	cmp	r2, r3
 8005ab4:	d109      	bne.n	8005aca <HAL_UART_Transmit+0x4c>
 8005ab6:	68fb      	ldr	r3, [r7, #12]
 8005ab8:	691b      	ldr	r3, [r3, #16]
 8005aba:	2b00      	cmp	r3, #0
 8005abc:	d105      	bne.n	8005aca <HAL_UART_Transmit+0x4c>
    {
      if ((((uint32_t)pData) & 1U) != 0U)
 8005abe:	68bb      	ldr	r3, [r7, #8]
 8005ac0:	2201      	movs	r2, #1
 8005ac2:	4013      	ands	r3, r2
 8005ac4:	d001      	beq.n	8005aca <HAL_UART_Transmit+0x4c>
      {
        return  HAL_ERROR;
 8005ac6:	2301      	movs	r3, #1
 8005ac8:	e07e      	b.n	8005bc8 <HAL_UART_Transmit+0x14a>
      }
    }

    __HAL_LOCK(huart);
 8005aca:	68fb      	ldr	r3, [r7, #12]
 8005acc:	2274      	movs	r2, #116	; 0x74
 8005ace:	5c9b      	ldrb	r3, [r3, r2]
 8005ad0:	2b01      	cmp	r3, #1
 8005ad2:	d101      	bne.n	8005ad8 <HAL_UART_Transmit+0x5a>
 8005ad4:	2302      	movs	r3, #2
 8005ad6:	e077      	b.n	8005bc8 <HAL_UART_Transmit+0x14a>
 8005ad8:	68fb      	ldr	r3, [r7, #12]
 8005ada:	2274      	movs	r2, #116	; 0x74
 8005adc:	2101      	movs	r1, #1
 8005ade:	5499      	strb	r1, [r3, r2]

    huart->ErrorCode = HAL_UART_ERROR_NONE;
 8005ae0:	68fb      	ldr	r3, [r7, #12]
 8005ae2:	2280      	movs	r2, #128	; 0x80
 8005ae4:	2100      	movs	r1, #0
 8005ae6:	5099      	str	r1, [r3, r2]
    huart->gState = HAL_UART_STATE_BUSY_TX;
 8005ae8:	68fb      	ldr	r3, [r7, #12]
 8005aea:	2221      	movs	r2, #33	; 0x21
 8005aec:	679a      	str	r2, [r3, #120]	; 0x78

    /* Init tickstart for timeout management */
    tickstart = HAL_GetTick();
 8005aee:	f7fb fcc1 	bl	8001474 <HAL_GetTick>
 8005af2:	0003      	movs	r3, r0
 8005af4:	617b      	str	r3, [r7, #20]

    huart->TxXferSize  = Size;
 8005af6:	68fb      	ldr	r3, [r7, #12]
 8005af8:	1dba      	adds	r2, r7, #6
 8005afa:	2150      	movs	r1, #80	; 0x50
 8005afc:	8812      	ldrh	r2, [r2, #0]
 8005afe:	525a      	strh	r2, [r3, r1]
    huart->TxXferCount = Size;
 8005b00:	68fb      	ldr	r3, [r7, #12]
 8005b02:	1dba      	adds	r2, r7, #6
 8005b04:	2152      	movs	r1, #82	; 0x52
 8005b06:	8812      	ldrh	r2, [r2, #0]
 8005b08:	525a      	strh	r2, [r3, r1]

    /* In case of 9bits/No Parity transfer, pData needs to be handled as a uint16_t pointer */
    if ((huart->Init.WordLength == UART_WORDLENGTH_9B) && (huart->Init.Parity == UART_PARITY_NONE))
 8005b0a:	68fb      	ldr	r3, [r7, #12]
 8005b0c:	689a      	ldr	r2, [r3, #8]
 8005b0e:	2380      	movs	r3, #128	; 0x80
 8005b10:	015b      	lsls	r3, r3, #5
 8005b12:	429a      	cmp	r2, r3
 8005b14:	d108      	bne.n	8005b28 <HAL_UART_Transmit+0xaa>
 8005b16:	68fb      	ldr	r3, [r7, #12]
 8005b18:	691b      	ldr	r3, [r3, #16]
 8005b1a:	2b00      	cmp	r3, #0
 8005b1c:	d104      	bne.n	8005b28 <HAL_UART_Transmit+0xaa>
    {
      pdata8bits  = NULL;
 8005b1e:	2300      	movs	r3, #0
 8005b20:	61fb      	str	r3, [r7, #28]
      pdata16bits = (uint16_t *) pData;
 8005b22:	68bb      	ldr	r3, [r7, #8]
 8005b24:	61bb      	str	r3, [r7, #24]
 8005b26:	e003      	b.n	8005b30 <HAL_UART_Transmit+0xb2>
    }
    else
    {
      pdata8bits  = pData;
 8005b28:	68bb      	ldr	r3, [r7, #8]
 8005b2a:	61fb      	str	r3, [r7, #28]
      pdata16bits = NULL;
 8005b2c:	2300      	movs	r3, #0
 8005b2e:	61bb      	str	r3, [r7, #24]
    }

    __HAL_UNLOCK(huart);
 8005b30:	68fb      	ldr	r3, [r7, #12]
 8005b32:	2274      	movs	r2, #116	; 0x74
 8005b34:	2100      	movs	r1, #0
 8005b36:	5499      	strb	r1, [r3, r2]

    while (huart->TxXferCount > 0U)
 8005b38:	e02d      	b.n	8005b96 <HAL_UART_Transmit+0x118>
    {
      if (UART_WaitOnFlagUntilTimeout(huart, UART_FLAG_TXE, RESET, tickstart, Timeout) != HAL_OK)
 8005b3a:	697a      	ldr	r2, [r7, #20]
 8005b3c:	68f8      	ldr	r0, [r7, #12]
 8005b3e:	683b      	ldr	r3, [r7, #0]
 8005b40:	9300      	str	r3, [sp, #0]
 8005b42:	0013      	movs	r3, r2
 8005b44:	2200      	movs	r2, #0
 8005b46:	2180      	movs	r1, #128	; 0x80
 8005b48:	f000 fa68 	bl	800601c <UART_WaitOnFlagUntilTimeout>
 8005b4c:	1e03      	subs	r3, r0, #0
 8005b4e:	d001      	beq.n	8005b54 <HAL_UART_Transmit+0xd6>
      {
        return HAL_TIMEOUT;
 8005b50:	2303      	movs	r3, #3
 8005b52:	e039      	b.n	8005bc8 <HAL_UART_Transmit+0x14a>
      }
      if (pdata8bits == NULL)
 8005b54:	69fb      	ldr	r3, [r7, #28]
 8005b56:	2b00      	cmp	r3, #0
 8005b58:	d10b      	bne.n	8005b72 <HAL_UART_Transmit+0xf4>
      {
        huart->Instance->TDR = (uint16_t)(*pdata16bits & 0x01FFU);
 8005b5a:	69bb      	ldr	r3, [r7, #24]
 8005b5c:	881a      	ldrh	r2, [r3, #0]
 8005b5e:	68fb      	ldr	r3, [r7, #12]
 8005b60:	681b      	ldr	r3, [r3, #0]
 8005b62:	05d2      	lsls	r2, r2, #23
 8005b64:	0dd2      	lsrs	r2, r2, #23
 8005b66:	b292      	uxth	r2, r2
 8005b68:	851a      	strh	r2, [r3, #40]	; 0x28
        pdata16bits++;
 8005b6a:	69bb      	ldr	r3, [r7, #24]
 8005b6c:	3302      	adds	r3, #2
 8005b6e:	61bb      	str	r3, [r7, #24]
 8005b70:	e008      	b.n	8005b84 <HAL_UART_Transmit+0x106>
      }
      else
      {
        huart->Instance->TDR = (uint8_t)(*pdata8bits & 0xFFU);
 8005b72:	69fb      	ldr	r3, [r7, #28]
 8005b74:	781a      	ldrb	r2, [r3, #0]
 8005b76:	68fb      	ldr	r3, [r7, #12]
 8005b78:	681b      	ldr	r3, [r3, #0]
 8005b7a:	b292      	uxth	r2, r2
 8005b7c:	851a      	strh	r2, [r3, #40]	; 0x28
        pdata8bits++;
 8005b7e:	69fb      	ldr	r3, [r7, #28]
 8005b80:	3301      	adds	r3, #1
 8005b82:	61fb      	str	r3, [r7, #28]
      }
      huart->TxXferCount--;
 8005b84:	68fb      	ldr	r3, [r7, #12]
 8005b86:	2252      	movs	r2, #82	; 0x52
 8005b88:	5a9b      	ldrh	r3, [r3, r2]
 8005b8a:	b29b      	uxth	r3, r3
 8005b8c:	3b01      	subs	r3, #1
 8005b8e:	b299      	uxth	r1, r3
 8005b90:	68fb      	ldr	r3, [r7, #12]
 8005b92:	2252      	movs	r2, #82	; 0x52
 8005b94:	5299      	strh	r1, [r3, r2]
    while (huart->TxXferCount > 0U)
 8005b96:	68fb      	ldr	r3, [r7, #12]
 8005b98:	2252      	movs	r2, #82	; 0x52
 8005b9a:	5a9b      	ldrh	r3, [r3, r2]
 8005b9c:	b29b      	uxth	r3, r3
 8005b9e:	2b00      	cmp	r3, #0
 8005ba0:	d1cb      	bne.n	8005b3a <HAL_UART_Transmit+0xbc>
    }

    if (UART_WaitOnFlagUntilTimeout(huart, UART_FLAG_TC, RESET, tickstart, Timeout) != HAL_OK)
 8005ba2:	697a      	ldr	r2, [r7, #20]
 8005ba4:	68f8      	ldr	r0, [r7, #12]
 8005ba6:	683b      	ldr	r3, [r7, #0]
 8005ba8:	9300      	str	r3, [sp, #0]
 8005baa:	0013      	movs	r3, r2
 8005bac:	2200      	movs	r2, #0
 8005bae:	2140      	movs	r1, #64	; 0x40
 8005bb0:	f000 fa34 	bl	800601c <UART_WaitOnFlagUntilTimeout>
 8005bb4:	1e03      	subs	r3, r0, #0
 8005bb6:	d001      	beq.n	8005bbc <HAL_UART_Transmit+0x13e>
    {
      return HAL_TIMEOUT;
 8005bb8:	2303      	movs	r3, #3
 8005bba:	e005      	b.n	8005bc8 <HAL_UART_Transmit+0x14a>
    }

    /* At end of Tx process, restore huart->gState to Ready */
    huart->gState = HAL_UART_STATE_READY;
 8005bbc:	68fb      	ldr	r3, [r7, #12]
 8005bbe:	2220      	movs	r2, #32
 8005bc0:	679a      	str	r2, [r3, #120]	; 0x78

    return HAL_OK;
 8005bc2:	2300      	movs	r3, #0
 8005bc4:	e000      	b.n	8005bc8 <HAL_UART_Transmit+0x14a>
  }
  else
  {
    return HAL_BUSY;
 8005bc6:	2302      	movs	r3, #2
  }
}
 8005bc8:	0018      	movs	r0, r3
 8005bca:	46bd      	mov	sp, r7
 8005bcc:	b008      	add	sp, #32
 8005bce:	bd80      	pop	{r7, pc}

08005bd0 <UART_SetConfig>:
  * @brief Configure the UART peripheral.
  * @param huart UART handle.
  * @retval HAL status
  */
HAL_StatusTypeDef UART_SetConfig(UART_HandleTypeDef *huart)
{
 8005bd0:	b580      	push	{r7, lr}
 8005bd2:	b088      	sub	sp, #32
 8005bd4:	af00      	add	r7, sp, #0
 8005bd6:	6078      	str	r0, [r7, #4]
  uint32_t tmpreg;
  uint16_t brrtemp;
  UART_ClockSourceTypeDef clocksource;
  uint32_t usartdiv;
  HAL_StatusTypeDef ret               = HAL_OK;
 8005bd8:	231e      	movs	r3, #30
 8005bda:	18fb      	adds	r3, r7, r3
 8005bdc:	2200      	movs	r2, #0
 8005bde:	701a      	strb	r2, [r3, #0]
  *  the UART Word Length, Parity, Mode and oversampling:
  *  set the M bits according to huart->Init.WordLength value
  *  set PCE and PS bits according to huart->Init.Parity value
  *  set TE and RE bits according to huart->Init.Mode value
  *  set OVER8 bit according to huart->Init.OverSampling value */
  tmpreg = (uint32_t)huart->Init.WordLength | huart->Init.Parity | huart->Init.Mode | huart->Init.OverSampling ;
 8005be0:	687b      	ldr	r3, [r7, #4]
 8005be2:	689a      	ldr	r2, [r3, #8]
 8005be4:	687b      	ldr	r3, [r7, #4]
 8005be6:	691b      	ldr	r3, [r3, #16]
 8005be8:	431a      	orrs	r2, r3
 8005bea:	687b      	ldr	r3, [r7, #4]
 8005bec:	695b      	ldr	r3, [r3, #20]
 8005bee:	431a      	orrs	r2, r3
 8005bf0:	687b      	ldr	r3, [r7, #4]
 8005bf2:	69db      	ldr	r3, [r3, #28]
 8005bf4:	4313      	orrs	r3, r2
 8005bf6:	617b      	str	r3, [r7, #20]
  MODIFY_REG(huart->Instance->CR1, USART_CR1_FIELDS, tmpreg);
 8005bf8:	687b      	ldr	r3, [r7, #4]
 8005bfa:	681b      	ldr	r3, [r3, #0]
 8005bfc:	681b      	ldr	r3, [r3, #0]
 8005bfe:	4a84      	ldr	r2, [pc, #528]	; (8005e10 <UART_SetConfig+0x240>)
 8005c00:	4013      	ands	r3, r2
 8005c02:	0019      	movs	r1, r3
 8005c04:	687b      	ldr	r3, [r7, #4]
 8005c06:	681b      	ldr	r3, [r3, #0]
 8005c08:	697a      	ldr	r2, [r7, #20]
 8005c0a:	430a      	orrs	r2, r1
 8005c0c:	601a      	str	r2, [r3, #0]

  /*-------------------------- USART CR2 Configuration -----------------------*/
  /* Configure the UART Stop Bits: Set STOP[13:12] bits according
  * to huart->Init.StopBits value */
  MODIFY_REG(huart->Instance->CR2, USART_CR2_STOP, huart->Init.StopBits);
 8005c0e:	687b      	ldr	r3, [r7, #4]
 8005c10:	681b      	ldr	r3, [r3, #0]
 8005c12:	685b      	ldr	r3, [r3, #4]
 8005c14:	4a7f      	ldr	r2, [pc, #508]	; (8005e14 <UART_SetConfig+0x244>)
 8005c16:	4013      	ands	r3, r2
 8005c18:	0019      	movs	r1, r3
 8005c1a:	687b      	ldr	r3, [r7, #4]
 8005c1c:	68da      	ldr	r2, [r3, #12]
 8005c1e:	687b      	ldr	r3, [r7, #4]
 8005c20:	681b      	ldr	r3, [r3, #0]
 8005c22:	430a      	orrs	r2, r1
 8005c24:	605a      	str	r2, [r3, #4]
  /* Configure
  * - UART HardWare Flow Control: set CTSE and RTSE bits according
  *   to huart->Init.HwFlowCtl value
  * - one-bit sampling method versus three samples' majority rule according
  *   to huart->Init.OneBitSampling (not applicable to LPUART) */
  tmpreg = (uint32_t)huart->Init.HwFlowCtl;
 8005c26:	687b      	ldr	r3, [r7, #4]
 8005c28:	699b      	ldr	r3, [r3, #24]
 8005c2a:	617b      	str	r3, [r7, #20]

  tmpreg |= huart->Init.OneBitSampling;
 8005c2c:	687b      	ldr	r3, [r7, #4]
 8005c2e:	6a1b      	ldr	r3, [r3, #32]
 8005c30:	697a      	ldr	r2, [r7, #20]
 8005c32:	4313      	orrs	r3, r2
 8005c34:	617b      	str	r3, [r7, #20]
  MODIFY_REG(huart->Instance->CR3, USART_CR3_FIELDS, tmpreg);
 8005c36:	687b      	ldr	r3, [r7, #4]
 8005c38:	681b      	ldr	r3, [r3, #0]
 8005c3a:	689b      	ldr	r3, [r3, #8]
 8005c3c:	4a76      	ldr	r2, [pc, #472]	; (8005e18 <UART_SetConfig+0x248>)
 8005c3e:	4013      	ands	r3, r2
 8005c40:	0019      	movs	r1, r3
 8005c42:	687b      	ldr	r3, [r7, #4]
 8005c44:	681b      	ldr	r3, [r3, #0]
 8005c46:	697a      	ldr	r2, [r7, #20]
 8005c48:	430a      	orrs	r2, r1
 8005c4a:	609a      	str	r2, [r3, #8]


  /*-------------------------- USART BRR Configuration -----------------------*/
  UART_GETCLOCKSOURCE(huart, clocksource);
 8005c4c:	4b73      	ldr	r3, [pc, #460]	; (8005e1c <UART_SetConfig+0x24c>)
 8005c4e:	6b1b      	ldr	r3, [r3, #48]	; 0x30
 8005c50:	2203      	movs	r2, #3
 8005c52:	4013      	ands	r3, r2
 8005c54:	2b03      	cmp	r3, #3
 8005c56:	d00d      	beq.n	8005c74 <UART_SetConfig+0xa4>
 8005c58:	d81b      	bhi.n	8005c92 <UART_SetConfig+0xc2>
 8005c5a:	2b02      	cmp	r3, #2
 8005c5c:	d014      	beq.n	8005c88 <UART_SetConfig+0xb8>
 8005c5e:	d818      	bhi.n	8005c92 <UART_SetConfig+0xc2>
 8005c60:	2b00      	cmp	r3, #0
 8005c62:	d002      	beq.n	8005c6a <UART_SetConfig+0x9a>
 8005c64:	2b01      	cmp	r3, #1
 8005c66:	d00a      	beq.n	8005c7e <UART_SetConfig+0xae>
 8005c68:	e013      	b.n	8005c92 <UART_SetConfig+0xc2>
 8005c6a:	231f      	movs	r3, #31
 8005c6c:	18fb      	adds	r3, r7, r3
 8005c6e:	2200      	movs	r2, #0
 8005c70:	701a      	strb	r2, [r3, #0]
 8005c72:	e012      	b.n	8005c9a <UART_SetConfig+0xca>
 8005c74:	231f      	movs	r3, #31
 8005c76:	18fb      	adds	r3, r7, r3
 8005c78:	2202      	movs	r2, #2
 8005c7a:	701a      	strb	r2, [r3, #0]
 8005c7c:	e00d      	b.n	8005c9a <UART_SetConfig+0xca>
 8005c7e:	231f      	movs	r3, #31
 8005c80:	18fb      	adds	r3, r7, r3
 8005c82:	2204      	movs	r2, #4
 8005c84:	701a      	strb	r2, [r3, #0]
 8005c86:	e008      	b.n	8005c9a <UART_SetConfig+0xca>
 8005c88:	231f      	movs	r3, #31
 8005c8a:	18fb      	adds	r3, r7, r3
 8005c8c:	2208      	movs	r2, #8
 8005c8e:	701a      	strb	r2, [r3, #0]
 8005c90:	e003      	b.n	8005c9a <UART_SetConfig+0xca>
 8005c92:	231f      	movs	r3, #31
 8005c94:	18fb      	adds	r3, r7, r3
 8005c96:	2210      	movs	r2, #16
 8005c98:	701a      	strb	r2, [r3, #0]
 8005c9a:	46c0      	nop			; (mov r8, r8)

  if (huart->Init.OverSampling == UART_OVERSAMPLING_8)
 8005c9c:	687b      	ldr	r3, [r7, #4]
 8005c9e:	69da      	ldr	r2, [r3, #28]
 8005ca0:	2380      	movs	r3, #128	; 0x80
 8005ca2:	021b      	lsls	r3, r3, #8
 8005ca4:	429a      	cmp	r2, r3
 8005ca6:	d15d      	bne.n	8005d64 <UART_SetConfig+0x194>
  {
    switch (clocksource)
 8005ca8:	231f      	movs	r3, #31
 8005caa:	18fb      	adds	r3, r7, r3
 8005cac:	781b      	ldrb	r3, [r3, #0]
 8005cae:	2b08      	cmp	r3, #8
 8005cb0:	d015      	beq.n	8005cde <UART_SetConfig+0x10e>
 8005cb2:	dc18      	bgt.n	8005ce6 <UART_SetConfig+0x116>
 8005cb4:	2b04      	cmp	r3, #4
 8005cb6:	d00d      	beq.n	8005cd4 <UART_SetConfig+0x104>
 8005cb8:	dc15      	bgt.n	8005ce6 <UART_SetConfig+0x116>
 8005cba:	2b00      	cmp	r3, #0
 8005cbc:	d002      	beq.n	8005cc4 <UART_SetConfig+0xf4>
 8005cbe:	2b02      	cmp	r3, #2
 8005cc0:	d005      	beq.n	8005cce <UART_SetConfig+0xfe>
 8005cc2:	e010      	b.n	8005ce6 <UART_SetConfig+0x116>
    {
      case UART_CLOCKSOURCE_PCLK1:
        pclk = HAL_RCC_GetPCLK1Freq();
 8005cc4:	f7fe fcf8 	bl	80046b8 <HAL_RCC_GetPCLK1Freq>
 8005cc8:	0003      	movs	r3, r0
 8005cca:	61bb      	str	r3, [r7, #24]
        break;
 8005ccc:	e012      	b.n	8005cf4 <UART_SetConfig+0x124>
      case UART_CLOCKSOURCE_HSI:
        pclk = (uint32_t) HSI_VALUE;
 8005cce:	4b54      	ldr	r3, [pc, #336]	; (8005e20 <UART_SetConfig+0x250>)
 8005cd0:	61bb      	str	r3, [r7, #24]
        break;
 8005cd2:	e00f      	b.n	8005cf4 <UART_SetConfig+0x124>
      case UART_CLOCKSOURCE_SYSCLK:
        pclk = HAL_RCC_GetSysClockFreq();
 8005cd4:	f7fe fc82 	bl	80045dc <HAL_RCC_GetSysClockFreq>
 8005cd8:	0003      	movs	r3, r0
 8005cda:	61bb      	str	r3, [r7, #24]
        break;
 8005cdc:	e00a      	b.n	8005cf4 <UART_SetConfig+0x124>
      case UART_CLOCKSOURCE_LSE:
        pclk = (uint32_t) LSE_VALUE;
 8005cde:	2380      	movs	r3, #128	; 0x80
 8005ce0:	021b      	lsls	r3, r3, #8
 8005ce2:	61bb      	str	r3, [r7, #24]
        break;
 8005ce4:	e006      	b.n	8005cf4 <UART_SetConfig+0x124>
      default:
        pclk = 0U;
 8005ce6:	2300      	movs	r3, #0
 8005ce8:	61bb      	str	r3, [r7, #24]
        ret = HAL_ERROR;
 8005cea:	231e      	movs	r3, #30
 8005cec:	18fb      	adds	r3, r7, r3
 8005cee:	2201      	movs	r2, #1
 8005cf0:	701a      	strb	r2, [r3, #0]
        break;
 8005cf2:	46c0      	nop			; (mov r8, r8)
    }

    /* USARTDIV must be greater than or equal to 0d16 */
    if (pclk != 0U)
 8005cf4:	69bb      	ldr	r3, [r7, #24]
 8005cf6:	2b00      	cmp	r3, #0
 8005cf8:	d100      	bne.n	8005cfc <UART_SetConfig+0x12c>
 8005cfa:	e07b      	b.n	8005df4 <UART_SetConfig+0x224>
    {
      usartdiv = (uint16_t)(UART_DIV_SAMPLING8(pclk, huart->Init.BaudRate));
 8005cfc:	69bb      	ldr	r3, [r7, #24]
 8005cfe:	005a      	lsls	r2, r3, #1
 8005d00:	687b      	ldr	r3, [r7, #4]
 8005d02:	685b      	ldr	r3, [r3, #4]
 8005d04:	085b      	lsrs	r3, r3, #1
 8005d06:	18d2      	adds	r2, r2, r3
 8005d08:	687b      	ldr	r3, [r7, #4]
 8005d0a:	685b      	ldr	r3, [r3, #4]
 8005d0c:	0019      	movs	r1, r3
 8005d0e:	0010      	movs	r0, r2
 8005d10:	f7fa fa0c 	bl	800012c <__udivsi3>
 8005d14:	0003      	movs	r3, r0
 8005d16:	b29b      	uxth	r3, r3
 8005d18:	613b      	str	r3, [r7, #16]
      if ((usartdiv >= UART_BRR_MIN) && (usartdiv <= UART_BRR_MAX))
 8005d1a:	693b      	ldr	r3, [r7, #16]
 8005d1c:	2b0f      	cmp	r3, #15
 8005d1e:	d91c      	bls.n	8005d5a <UART_SetConfig+0x18a>
 8005d20:	693a      	ldr	r2, [r7, #16]
 8005d22:	2380      	movs	r3, #128	; 0x80
 8005d24:	025b      	lsls	r3, r3, #9
 8005d26:	429a      	cmp	r2, r3
 8005d28:	d217      	bcs.n	8005d5a <UART_SetConfig+0x18a>
      {
        brrtemp = (uint16_t)(usartdiv & 0xFFF0U);
 8005d2a:	693b      	ldr	r3, [r7, #16]
 8005d2c:	b29a      	uxth	r2, r3
 8005d2e:	200e      	movs	r0, #14
 8005d30:	183b      	adds	r3, r7, r0
 8005d32:	210f      	movs	r1, #15
 8005d34:	438a      	bics	r2, r1
 8005d36:	801a      	strh	r2, [r3, #0]
        brrtemp |= (uint16_t)((usartdiv & (uint16_t)0x000FU) >> 1U);
 8005d38:	693b      	ldr	r3, [r7, #16]
 8005d3a:	085b      	lsrs	r3, r3, #1
 8005d3c:	b29b      	uxth	r3, r3
 8005d3e:	2207      	movs	r2, #7
 8005d40:	4013      	ands	r3, r2
 8005d42:	b299      	uxth	r1, r3
 8005d44:	183b      	adds	r3, r7, r0
 8005d46:	183a      	adds	r2, r7, r0
 8005d48:	8812      	ldrh	r2, [r2, #0]
 8005d4a:	430a      	orrs	r2, r1
 8005d4c:	801a      	strh	r2, [r3, #0]
        huart->Instance->BRR = brrtemp;
 8005d4e:	687b      	ldr	r3, [r7, #4]
 8005d50:	681b      	ldr	r3, [r3, #0]
 8005d52:	183a      	adds	r2, r7, r0
 8005d54:	8812      	ldrh	r2, [r2, #0]
 8005d56:	60da      	str	r2, [r3, #12]
 8005d58:	e04c      	b.n	8005df4 <UART_SetConfig+0x224>
      }
      else
      {
        ret = HAL_ERROR;
 8005d5a:	231e      	movs	r3, #30
 8005d5c:	18fb      	adds	r3, r7, r3
 8005d5e:	2201      	movs	r2, #1
 8005d60:	701a      	strb	r2, [r3, #0]
 8005d62:	e047      	b.n	8005df4 <UART_SetConfig+0x224>
      }
    }
  }
  else
  {
    switch (clocksource)
 8005d64:	231f      	movs	r3, #31
 8005d66:	18fb      	adds	r3, r7, r3
 8005d68:	781b      	ldrb	r3, [r3, #0]
 8005d6a:	2b08      	cmp	r3, #8
 8005d6c:	d015      	beq.n	8005d9a <UART_SetConfig+0x1ca>
 8005d6e:	dc18      	bgt.n	8005da2 <UART_SetConfig+0x1d2>
 8005d70:	2b04      	cmp	r3, #4
 8005d72:	d00d      	beq.n	8005d90 <UART_SetConfig+0x1c0>
 8005d74:	dc15      	bgt.n	8005da2 <UART_SetConfig+0x1d2>
 8005d76:	2b00      	cmp	r3, #0
 8005d78:	d002      	beq.n	8005d80 <UART_SetConfig+0x1b0>
 8005d7a:	2b02      	cmp	r3, #2
 8005d7c:	d005      	beq.n	8005d8a <UART_SetConfig+0x1ba>
 8005d7e:	e010      	b.n	8005da2 <UART_SetConfig+0x1d2>
    {
      case UART_CLOCKSOURCE_PCLK1:
        pclk = HAL_RCC_GetPCLK1Freq();
 8005d80:	f7fe fc9a 	bl	80046b8 <HAL_RCC_GetPCLK1Freq>
 8005d84:	0003      	movs	r3, r0
 8005d86:	61bb      	str	r3, [r7, #24]
        break;
 8005d88:	e012      	b.n	8005db0 <UART_SetConfig+0x1e0>
      case UART_CLOCKSOURCE_HSI:
        pclk = (uint32_t) HSI_VALUE;
 8005d8a:	4b25      	ldr	r3, [pc, #148]	; (8005e20 <UART_SetConfig+0x250>)
 8005d8c:	61bb      	str	r3, [r7, #24]
        break;
 8005d8e:	e00f      	b.n	8005db0 <UART_SetConfig+0x1e0>
      case UART_CLOCKSOURCE_SYSCLK:
        pclk = HAL_RCC_GetSysClockFreq();
 8005d90:	f7fe fc24 	bl	80045dc <HAL_RCC_GetSysClockFreq>
 8005d94:	0003      	movs	r3, r0
 8005d96:	61bb      	str	r3, [r7, #24]
        break;
 8005d98:	e00a      	b.n	8005db0 <UART_SetConfig+0x1e0>
      case UART_CLOCKSOURCE_LSE:
        pclk = (uint32_t) LSE_VALUE;
 8005d9a:	2380      	movs	r3, #128	; 0x80
 8005d9c:	021b      	lsls	r3, r3, #8
 8005d9e:	61bb      	str	r3, [r7, #24]
        break;
 8005da0:	e006      	b.n	8005db0 <UART_SetConfig+0x1e0>
      default:
        pclk = 0U;
 8005da2:	2300      	movs	r3, #0
 8005da4:	61bb      	str	r3, [r7, #24]
        ret = HAL_ERROR;
 8005da6:	231e      	movs	r3, #30
 8005da8:	18fb      	adds	r3, r7, r3
 8005daa:	2201      	movs	r2, #1
 8005dac:	701a      	strb	r2, [r3, #0]
        break;
 8005dae:	46c0      	nop			; (mov r8, r8)
    }

    if (pclk != 0U)
 8005db0:	69bb      	ldr	r3, [r7, #24]
 8005db2:	2b00      	cmp	r3, #0
 8005db4:	d01e      	beq.n	8005df4 <UART_SetConfig+0x224>
    {
      /* USARTDIV must be greater than or equal to 0d16 */
      usartdiv = (uint16_t)(UART_DIV_SAMPLING16(pclk, huart->Init.BaudRate));
 8005db6:	687b      	ldr	r3, [r7, #4]
 8005db8:	685b      	ldr	r3, [r3, #4]
 8005dba:	085a      	lsrs	r2, r3, #1
 8005dbc:	69bb      	ldr	r3, [r7, #24]
 8005dbe:	18d2      	adds	r2, r2, r3
 8005dc0:	687b      	ldr	r3, [r7, #4]
 8005dc2:	685b      	ldr	r3, [r3, #4]
 8005dc4:	0019      	movs	r1, r3
 8005dc6:	0010      	movs	r0, r2
 8005dc8:	f7fa f9b0 	bl	800012c <__udivsi3>
 8005dcc:	0003      	movs	r3, r0
 8005dce:	b29b      	uxth	r3, r3
 8005dd0:	613b      	str	r3, [r7, #16]
      if ((usartdiv >= UART_BRR_MIN) && (usartdiv <= UART_BRR_MAX))
 8005dd2:	693b      	ldr	r3, [r7, #16]
 8005dd4:	2b0f      	cmp	r3, #15
 8005dd6:	d909      	bls.n	8005dec <UART_SetConfig+0x21c>
 8005dd8:	693a      	ldr	r2, [r7, #16]
 8005dda:	2380      	movs	r3, #128	; 0x80
 8005ddc:	025b      	lsls	r3, r3, #9
 8005dde:	429a      	cmp	r2, r3
 8005de0:	d204      	bcs.n	8005dec <UART_SetConfig+0x21c>
      {
        huart->Instance->BRR = usartdiv;
 8005de2:	687b      	ldr	r3, [r7, #4]
 8005de4:	681b      	ldr	r3, [r3, #0]
 8005de6:	693a      	ldr	r2, [r7, #16]
 8005de8:	60da      	str	r2, [r3, #12]
 8005dea:	e003      	b.n	8005df4 <UART_SetConfig+0x224>
      }
      else
      {
        ret = HAL_ERROR;
 8005dec:	231e      	movs	r3, #30
 8005dee:	18fb      	adds	r3, r7, r3
 8005df0:	2201      	movs	r2, #1
 8005df2:	701a      	strb	r2, [r3, #0]
    }
  }


  /* Clear ISR function pointers */
  huart->RxISR = NULL;
 8005df4:	687b      	ldr	r3, [r7, #4]
 8005df6:	2200      	movs	r2, #0
 8005df8:	665a      	str	r2, [r3, #100]	; 0x64
  huart->TxISR = NULL;
 8005dfa:	687b      	ldr	r3, [r7, #4]
 8005dfc:	2200      	movs	r2, #0
 8005dfe:	669a      	str	r2, [r3, #104]	; 0x68

  return ret;
 8005e00:	231e      	movs	r3, #30
 8005e02:	18fb      	adds	r3, r7, r3
 8005e04:	781b      	ldrb	r3, [r3, #0]
}
 8005e06:	0018      	movs	r0, r3
 8005e08:	46bd      	mov	sp, r7
 8005e0a:	b008      	add	sp, #32
 8005e0c:	bd80      	pop	{r7, pc}
 8005e0e:	46c0      	nop			; (mov r8, r8)
 8005e10:	ffff69f3 	.word	0xffff69f3
 8005e14:	ffffcfff 	.word	0xffffcfff
 8005e18:	fffff4ff 	.word	0xfffff4ff
 8005e1c:	40021000 	.word	0x40021000
 8005e20:	007a1200 	.word	0x007a1200

08005e24 <UART_AdvFeatureConfig>:
  * @brief Configure the UART peripheral advanced features.
  * @param huart UART handle.
  * @retval None
  */
void UART_AdvFeatureConfig(UART_HandleTypeDef *huart)
{
 8005e24:	b580      	push	{r7, lr}
 8005e26:	b082      	sub	sp, #8
 8005e28:	af00      	add	r7, sp, #0
 8005e2a:	6078      	str	r0, [r7, #4]
  /* Check whether the set of advanced features to configure is properly set */
  assert_param(IS_UART_ADVFEATURE_INIT(huart->AdvancedInit.AdvFeatureInit));

  /* if required, configure TX pin active level inversion */
  if (HAL_IS_BIT_SET(huart->AdvancedInit.AdvFeatureInit, UART_ADVFEATURE_TXINVERT_INIT))
 8005e2c:	687b      	ldr	r3, [r7, #4]
 8005e2e:	6a5b      	ldr	r3, [r3, #36]	; 0x24
 8005e30:	2201      	movs	r2, #1
 8005e32:	4013      	ands	r3, r2
 8005e34:	d00b      	beq.n	8005e4e <UART_AdvFeatureConfig+0x2a>
  {
    assert_param(IS_UART_ADVFEATURE_TXINV(huart->AdvancedInit.TxPinLevelInvert));
    MODIFY_REG(huart->Instance->CR2, USART_CR2_TXINV, huart->AdvancedInit.TxPinLevelInvert);
 8005e36:	687b      	ldr	r3, [r7, #4]
 8005e38:	681b      	ldr	r3, [r3, #0]
 8005e3a:	685b      	ldr	r3, [r3, #4]
 8005e3c:	4a4a      	ldr	r2, [pc, #296]	; (8005f68 <UART_AdvFeatureConfig+0x144>)
 8005e3e:	4013      	ands	r3, r2
 8005e40:	0019      	movs	r1, r3
 8005e42:	687b      	ldr	r3, [r7, #4]
 8005e44:	6a9a      	ldr	r2, [r3, #40]	; 0x28
 8005e46:	687b      	ldr	r3, [r7, #4]
 8005e48:	681b      	ldr	r3, [r3, #0]
 8005e4a:	430a      	orrs	r2, r1
 8005e4c:	605a      	str	r2, [r3, #4]
  }

  /* if required, configure RX pin active level inversion */
  if (HAL_IS_BIT_SET(huart->AdvancedInit.AdvFeatureInit, UART_ADVFEATURE_RXINVERT_INIT))
 8005e4e:	687b      	ldr	r3, [r7, #4]
 8005e50:	6a5b      	ldr	r3, [r3, #36]	; 0x24
 8005e52:	2202      	movs	r2, #2
 8005e54:	4013      	ands	r3, r2
 8005e56:	d00b      	beq.n	8005e70 <UART_AdvFeatureConfig+0x4c>
  {
    assert_param(IS_UART_ADVFEATURE_RXINV(huart->AdvancedInit.RxPinLevelInvert));
    MODIFY_REG(huart->Instance->CR2, USART_CR2_RXINV, huart->AdvancedInit.RxPinLevelInvert);
 8005e58:	687b      	ldr	r3, [r7, #4]
 8005e5a:	681b      	ldr	r3, [r3, #0]
 8005e5c:	685b      	ldr	r3, [r3, #4]
 8005e5e:	4a43      	ldr	r2, [pc, #268]	; (8005f6c <UART_AdvFeatureConfig+0x148>)
 8005e60:	4013      	ands	r3, r2
 8005e62:	0019      	movs	r1, r3
 8005e64:	687b      	ldr	r3, [r7, #4]
 8005e66:	6ada      	ldr	r2, [r3, #44]	; 0x2c
 8005e68:	687b      	ldr	r3, [r7, #4]
 8005e6a:	681b      	ldr	r3, [r3, #0]
 8005e6c:	430a      	orrs	r2, r1
 8005e6e:	605a      	str	r2, [r3, #4]
  }

  /* if required, configure data inversion */
  if (HAL_IS_BIT_SET(huart->AdvancedInit.AdvFeatureInit, UART_ADVFEATURE_DATAINVERT_INIT))
 8005e70:	687b      	ldr	r3, [r7, #4]
 8005e72:	6a5b      	ldr	r3, [r3, #36]	; 0x24
 8005e74:	2204      	movs	r2, #4
 8005e76:	4013      	ands	r3, r2
 8005e78:	d00b      	beq.n	8005e92 <UART_AdvFeatureConfig+0x6e>
  {
    assert_param(IS_UART_ADVFEATURE_DATAINV(huart->AdvancedInit.DataInvert));
    MODIFY_REG(huart->Instance->CR2, USART_CR2_DATAINV, huart->AdvancedInit.DataInvert);
 8005e7a:	687b      	ldr	r3, [r7, #4]
 8005e7c:	681b      	ldr	r3, [r3, #0]
 8005e7e:	685b      	ldr	r3, [r3, #4]
 8005e80:	4a3b      	ldr	r2, [pc, #236]	; (8005f70 <UART_AdvFeatureConfig+0x14c>)
 8005e82:	4013      	ands	r3, r2
 8005e84:	0019      	movs	r1, r3
 8005e86:	687b      	ldr	r3, [r7, #4]
 8005e88:	6b1a      	ldr	r2, [r3, #48]	; 0x30
 8005e8a:	687b      	ldr	r3, [r7, #4]
 8005e8c:	681b      	ldr	r3, [r3, #0]
 8005e8e:	430a      	orrs	r2, r1
 8005e90:	605a      	str	r2, [r3, #4]
  }

  /* if required, configure RX/TX pins swap */
  if (HAL_IS_BIT_SET(huart->AdvancedInit.AdvFeatureInit, UART_ADVFEATURE_SWAP_INIT))
 8005e92:	687b      	ldr	r3, [r7, #4]
 8005e94:	6a5b      	ldr	r3, [r3, #36]	; 0x24
 8005e96:	2208      	movs	r2, #8
 8005e98:	4013      	ands	r3, r2
 8005e9a:	d00b      	beq.n	8005eb4 <UART_AdvFeatureConfig+0x90>
  {
    assert_param(IS_UART_ADVFEATURE_SWAP(huart->AdvancedInit.Swap));
    MODIFY_REG(huart->Instance->CR2, USART_CR2_SWAP, huart->AdvancedInit.Swap);
 8005e9c:	687b      	ldr	r3, [r7, #4]
 8005e9e:	681b      	ldr	r3, [r3, #0]
 8005ea0:	685b      	ldr	r3, [r3, #4]
 8005ea2:	4a34      	ldr	r2, [pc, #208]	; (8005f74 <UART_AdvFeatureConfig+0x150>)
 8005ea4:	4013      	ands	r3, r2
 8005ea6:	0019      	movs	r1, r3
 8005ea8:	687b      	ldr	r3, [r7, #4]
 8005eaa:	6b5a      	ldr	r2, [r3, #52]	; 0x34
 8005eac:	687b      	ldr	r3, [r7, #4]
 8005eae:	681b      	ldr	r3, [r3, #0]
 8005eb0:	430a      	orrs	r2, r1
 8005eb2:	605a      	str	r2, [r3, #4]
  }

  /* if required, configure RX overrun detection disabling */
  if (HAL_IS_BIT_SET(huart->AdvancedInit.AdvFeatureInit, UART_ADVFEATURE_RXOVERRUNDISABLE_INIT))
 8005eb4:	687b      	ldr	r3, [r7, #4]
 8005eb6:	6a5b      	ldr	r3, [r3, #36]	; 0x24
 8005eb8:	2210      	movs	r2, #16
 8005eba:	4013      	ands	r3, r2
 8005ebc:	d00b      	beq.n	8005ed6 <UART_AdvFeatureConfig+0xb2>
  {
    assert_param(IS_UART_OVERRUN(huart->AdvancedInit.OverrunDisable));
    MODIFY_REG(huart->Instance->CR3, USART_CR3_OVRDIS, huart->AdvancedInit.OverrunDisable);
 8005ebe:	687b      	ldr	r3, [r7, #4]
 8005ec0:	681b      	ldr	r3, [r3, #0]
 8005ec2:	689b      	ldr	r3, [r3, #8]
 8005ec4:	4a2c      	ldr	r2, [pc, #176]	; (8005f78 <UART_AdvFeatureConfig+0x154>)
 8005ec6:	4013      	ands	r3, r2
 8005ec8:	0019      	movs	r1, r3
 8005eca:	687b      	ldr	r3, [r7, #4]
 8005ecc:	6b9a      	ldr	r2, [r3, #56]	; 0x38
 8005ece:	687b      	ldr	r3, [r7, #4]
 8005ed0:	681b      	ldr	r3, [r3, #0]
 8005ed2:	430a      	orrs	r2, r1
 8005ed4:	609a      	str	r2, [r3, #8]
  }

  /* if required, configure DMA disabling on reception error */
  if (HAL_IS_BIT_SET(huart->AdvancedInit.AdvFeatureInit, UART_ADVFEATURE_DMADISABLEONERROR_INIT))
 8005ed6:	687b      	ldr	r3, [r7, #4]
 8005ed8:	6a5b      	ldr	r3, [r3, #36]	; 0x24
 8005eda:	2220      	movs	r2, #32
 8005edc:	4013      	ands	r3, r2
 8005ede:	d00b      	beq.n	8005ef8 <UART_AdvFeatureConfig+0xd4>
  {
    assert_param(IS_UART_ADVFEATURE_DMAONRXERROR(huart->AdvancedInit.DMADisableonRxError));
    MODIFY_REG(huart->Instance->CR3, USART_CR3_DDRE, huart->AdvancedInit.DMADisableonRxError);
 8005ee0:	687b      	ldr	r3, [r7, #4]
 8005ee2:	681b      	ldr	r3, [r3, #0]
 8005ee4:	689b      	ldr	r3, [r3, #8]
 8005ee6:	4a25      	ldr	r2, [pc, #148]	; (8005f7c <UART_AdvFeatureConfig+0x158>)
 8005ee8:	4013      	ands	r3, r2
 8005eea:	0019      	movs	r1, r3
 8005eec:	687b      	ldr	r3, [r7, #4]
 8005eee:	6bda      	ldr	r2, [r3, #60]	; 0x3c
 8005ef0:	687b      	ldr	r3, [r7, #4]
 8005ef2:	681b      	ldr	r3, [r3, #0]
 8005ef4:	430a      	orrs	r2, r1
 8005ef6:	609a      	str	r2, [r3, #8]
  }

  /* if required, configure auto Baud rate detection scheme */
  if (HAL_IS_BIT_SET(huart->AdvancedInit.AdvFeatureInit, UART_ADVFEATURE_AUTOBAUDRATE_INIT))
 8005ef8:	687b      	ldr	r3, [r7, #4]
 8005efa:	6a5b      	ldr	r3, [r3, #36]	; 0x24
 8005efc:	2240      	movs	r2, #64	; 0x40
 8005efe:	4013      	ands	r3, r2
 8005f00:	d01d      	beq.n	8005f3e <UART_AdvFeatureConfig+0x11a>
  {
    assert_param(IS_USART_AUTOBAUDRATE_DETECTION_INSTANCE(huart->Instance));
    assert_param(IS_UART_ADVFEATURE_AUTOBAUDRATE(huart->AdvancedInit.AutoBaudRateEnable));
    MODIFY_REG(huart->Instance->CR2, USART_CR2_ABREN, huart->AdvancedInit.AutoBaudRateEnable);
 8005f02:	687b      	ldr	r3, [r7, #4]
 8005f04:	681b      	ldr	r3, [r3, #0]
 8005f06:	685b      	ldr	r3, [r3, #4]
 8005f08:	4a1d      	ldr	r2, [pc, #116]	; (8005f80 <UART_AdvFeatureConfig+0x15c>)
 8005f0a:	4013      	ands	r3, r2
 8005f0c:	0019      	movs	r1, r3
 8005f0e:	687b      	ldr	r3, [r7, #4]
 8005f10:	6c1a      	ldr	r2, [r3, #64]	; 0x40
 8005f12:	687b      	ldr	r3, [r7, #4]
 8005f14:	681b      	ldr	r3, [r3, #0]
 8005f16:	430a      	orrs	r2, r1
 8005f18:	605a      	str	r2, [r3, #4]
    /* set auto Baudrate detection parameters if detection is enabled */
    if (huart->AdvancedInit.AutoBaudRateEnable == UART_ADVFEATURE_AUTOBAUDRATE_ENABLE)
 8005f1a:	687b      	ldr	r3, [r7, #4]
 8005f1c:	6c1a      	ldr	r2, [r3, #64]	; 0x40
 8005f1e:	2380      	movs	r3, #128	; 0x80
 8005f20:	035b      	lsls	r3, r3, #13
 8005f22:	429a      	cmp	r2, r3
 8005f24:	d10b      	bne.n	8005f3e <UART_AdvFeatureConfig+0x11a>
    {
      assert_param(IS_UART_ADVFEATURE_AUTOBAUDRATEMODE(huart->AdvancedInit.AutoBaudRateMode));
      MODIFY_REG(huart->Instance->CR2, USART_CR2_ABRMODE, huart->AdvancedInit.AutoBaudRateMode);
 8005f26:	687b      	ldr	r3, [r7, #4]
 8005f28:	681b      	ldr	r3, [r3, #0]
 8005f2a:	685b      	ldr	r3, [r3, #4]
 8005f2c:	4a15      	ldr	r2, [pc, #84]	; (8005f84 <UART_AdvFeatureConfig+0x160>)
 8005f2e:	4013      	ands	r3, r2
 8005f30:	0019      	movs	r1, r3
 8005f32:	687b      	ldr	r3, [r7, #4]
 8005f34:	6c5a      	ldr	r2, [r3, #68]	; 0x44
 8005f36:	687b      	ldr	r3, [r7, #4]
 8005f38:	681b      	ldr	r3, [r3, #0]
 8005f3a:	430a      	orrs	r2, r1
 8005f3c:	605a      	str	r2, [r3, #4]
    }
  }

  /* if required, configure MSB first on communication line */
  if (HAL_IS_BIT_SET(huart->AdvancedInit.AdvFeatureInit, UART_ADVFEATURE_MSBFIRST_INIT))
 8005f3e:	687b      	ldr	r3, [r7, #4]
 8005f40:	6a5b      	ldr	r3, [r3, #36]	; 0x24
 8005f42:	2280      	movs	r2, #128	; 0x80
 8005f44:	4013      	ands	r3, r2
 8005f46:	d00b      	beq.n	8005f60 <UART_AdvFeatureConfig+0x13c>
  {
    assert_param(IS_UART_ADVFEATURE_MSBFIRST(huart->AdvancedInit.MSBFirst));
    MODIFY_REG(huart->Instance->CR2, USART_CR2_MSBFIRST, huart->AdvancedInit.MSBFirst);
 8005f48:	687b      	ldr	r3, [r7, #4]
 8005f4a:	681b      	ldr	r3, [r3, #0]
 8005f4c:	685b      	ldr	r3, [r3, #4]
 8005f4e:	4a0e      	ldr	r2, [pc, #56]	; (8005f88 <UART_AdvFeatureConfig+0x164>)
 8005f50:	4013      	ands	r3, r2
 8005f52:	0019      	movs	r1, r3
 8005f54:	687b      	ldr	r3, [r7, #4]
 8005f56:	6c9a      	ldr	r2, [r3, #72]	; 0x48
 8005f58:	687b      	ldr	r3, [r7, #4]
 8005f5a:	681b      	ldr	r3, [r3, #0]
 8005f5c:	430a      	orrs	r2, r1
 8005f5e:	605a      	str	r2, [r3, #4]
  }
}
 8005f60:	46c0      	nop			; (mov r8, r8)
 8005f62:	46bd      	mov	sp, r7
 8005f64:	b002      	add	sp, #8
 8005f66:	bd80      	pop	{r7, pc}
 8005f68:	fffdffff 	.word	0xfffdffff
 8005f6c:	fffeffff 	.word	0xfffeffff
 8005f70:	fffbffff 	.word	0xfffbffff
 8005f74:	ffff7fff 	.word	0xffff7fff
 8005f78:	ffffefff 	.word	0xffffefff
 8005f7c:	ffffdfff 	.word	0xffffdfff
 8005f80:	ffefffff 	.word	0xffefffff
 8005f84:	ff9fffff 	.word	0xff9fffff
 8005f88:	fff7ffff 	.word	0xfff7ffff

08005f8c <UART_CheckIdleState>:
  * @brief Check the UART Idle State.
  * @param huart UART handle.
  * @retval HAL status
  */
HAL_StatusTypeDef UART_CheckIdleState(UART_HandleTypeDef *huart)
{
 8005f8c:	b580      	push	{r7, lr}
 8005f8e:	b086      	sub	sp, #24
 8005f90:	af02      	add	r7, sp, #8
 8005f92:	6078      	str	r0, [r7, #4]
  uint32_t tickstart;

  /* Initialize the UART ErrorCode */
  huart->ErrorCode = HAL_UART_ERROR_NONE;
 8005f94:	687b      	ldr	r3, [r7, #4]
 8005f96:	2280      	movs	r2, #128	; 0x80
 8005f98:	2100      	movs	r1, #0
 8005f9a:	5099      	str	r1, [r3, r2]

  /* Init tickstart for timeout management */
  tickstart = HAL_GetTick();
 8005f9c:	f7fb fa6a 	bl	8001474 <HAL_GetTick>
 8005fa0:	0003      	movs	r3, r0
 8005fa2:	60fb      	str	r3, [r7, #12]

  /* Check if the Transmitter is enabled */
  if ((huart->Instance->CR1 & USART_CR1_TE) == USART_CR1_TE)
 8005fa4:	687b      	ldr	r3, [r7, #4]
 8005fa6:	681b      	ldr	r3, [r3, #0]
 8005fa8:	681b      	ldr	r3, [r3, #0]
 8005faa:	2208      	movs	r2, #8
 8005fac:	4013      	ands	r3, r2
 8005fae:	2b08      	cmp	r3, #8
 8005fb0:	d10c      	bne.n	8005fcc <UART_CheckIdleState+0x40>
  {
    /* Wait until TEACK flag is set */
    if (UART_WaitOnFlagUntilTimeout(huart, USART_ISR_TEACK, RESET, tickstart, HAL_UART_TIMEOUT_VALUE) != HAL_OK)
 8005fb2:	68fb      	ldr	r3, [r7, #12]
 8005fb4:	2280      	movs	r2, #128	; 0x80
 8005fb6:	0391      	lsls	r1, r2, #14
 8005fb8:	6878      	ldr	r0, [r7, #4]
 8005fba:	4a17      	ldr	r2, [pc, #92]	; (8006018 <UART_CheckIdleState+0x8c>)
 8005fbc:	9200      	str	r2, [sp, #0]
 8005fbe:	2200      	movs	r2, #0
 8005fc0:	f000 f82c 	bl	800601c <UART_WaitOnFlagUntilTimeout>
 8005fc4:	1e03      	subs	r3, r0, #0
 8005fc6:	d001      	beq.n	8005fcc <UART_CheckIdleState+0x40>
    {
      /* Timeout occurred */
      return HAL_TIMEOUT;
 8005fc8:	2303      	movs	r3, #3
 8005fca:	e021      	b.n	8006010 <UART_CheckIdleState+0x84>
    }
  }

  /* Check if the Receiver is enabled */
  if ((huart->Instance->CR1 & USART_CR1_RE) == USART_CR1_RE)
 8005fcc:	687b      	ldr	r3, [r7, #4]
 8005fce:	681b      	ldr	r3, [r3, #0]
 8005fd0:	681b      	ldr	r3, [r3, #0]
 8005fd2:	2204      	movs	r2, #4
 8005fd4:	4013      	ands	r3, r2
 8005fd6:	2b04      	cmp	r3, #4
 8005fd8:	d10c      	bne.n	8005ff4 <UART_CheckIdleState+0x68>
  {
    /* Wait until REACK flag is set */
    if (UART_WaitOnFlagUntilTimeout(huart, USART_ISR_REACK, RESET, tickstart, HAL_UART_TIMEOUT_VALUE) != HAL_OK)
 8005fda:	68fb      	ldr	r3, [r7, #12]
 8005fdc:	2280      	movs	r2, #128	; 0x80
 8005fde:	03d1      	lsls	r1, r2, #15
 8005fe0:	6878      	ldr	r0, [r7, #4]
 8005fe2:	4a0d      	ldr	r2, [pc, #52]	; (8006018 <UART_CheckIdleState+0x8c>)
 8005fe4:	9200      	str	r2, [sp, #0]
 8005fe6:	2200      	movs	r2, #0
 8005fe8:	f000 f818 	bl	800601c <UART_WaitOnFlagUntilTimeout>
 8005fec:	1e03      	subs	r3, r0, #0
 8005fee:	d001      	beq.n	8005ff4 <UART_CheckIdleState+0x68>
    {
      /* Timeout occurred */
      return HAL_TIMEOUT;
 8005ff0:	2303      	movs	r3, #3
 8005ff2:	e00d      	b.n	8006010 <UART_CheckIdleState+0x84>
    }
  }

  /* Initialize the UART State */
  huart->gState = HAL_UART_STATE_READY;
 8005ff4:	687b      	ldr	r3, [r7, #4]
 8005ff6:	2220      	movs	r2, #32
 8005ff8:	679a      	str	r2, [r3, #120]	; 0x78
  huart->RxState = HAL_UART_STATE_READY;
 8005ffa:	687b      	ldr	r3, [r7, #4]
 8005ffc:	2220      	movs	r2, #32
 8005ffe:	67da      	str	r2, [r3, #124]	; 0x7c
  huart->ReceptionType = HAL_UART_RECEPTION_STANDARD;
 8006000:	687b      	ldr	r3, [r7, #4]
 8006002:	2200      	movs	r2, #0
 8006004:	661a      	str	r2, [r3, #96]	; 0x60

  __HAL_UNLOCK(huart);
 8006006:	687b      	ldr	r3, [r7, #4]
 8006008:	2274      	movs	r2, #116	; 0x74
 800600a:	2100      	movs	r1, #0
 800600c:	5499      	strb	r1, [r3, r2]

  return HAL_OK;
 800600e:	2300      	movs	r3, #0
}
 8006010:	0018      	movs	r0, r3
 8006012:	46bd      	mov	sp, r7
 8006014:	b004      	add	sp, #16
 8006016:	bd80      	pop	{r7, pc}
 8006018:	01ffffff 	.word	0x01ffffff

0800601c <UART_WaitOnFlagUntilTimeout>:
  * @param Timeout   Timeout duration
  * @retval HAL status
  */
HAL_StatusTypeDef UART_WaitOnFlagUntilTimeout(UART_HandleTypeDef *huart, uint32_t Flag, FlagStatus Status,
                                              uint32_t Tickstart, uint32_t Timeout)
{
 800601c:	b580      	push	{r7, lr}
 800601e:	b094      	sub	sp, #80	; 0x50
 8006020:	af00      	add	r7, sp, #0
 8006022:	60f8      	str	r0, [r7, #12]
 8006024:	60b9      	str	r1, [r7, #8]
 8006026:	603b      	str	r3, [r7, #0]
 8006028:	1dfb      	adds	r3, r7, #7
 800602a:	701a      	strb	r2, [r3, #0]
  /* Wait until flag is set */
  while ((__HAL_UART_GET_FLAG(huart, Flag) ? SET : RESET) == Status)
 800602c:	e0a3      	b.n	8006176 <UART_WaitOnFlagUntilTimeout+0x15a>
  {
    /* Check for the Timeout */
    if (Timeout != HAL_MAX_DELAY)
 800602e:	6dbb      	ldr	r3, [r7, #88]	; 0x58
 8006030:	3301      	adds	r3, #1
 8006032:	d100      	bne.n	8006036 <UART_WaitOnFlagUntilTimeout+0x1a>
 8006034:	e09f      	b.n	8006176 <UART_WaitOnFlagUntilTimeout+0x15a>
    {
      if (((HAL_GetTick() - Tickstart) > Timeout) || (Timeout == 0U))
 8006036:	f7fb fa1d 	bl	8001474 <HAL_GetTick>
 800603a:	0002      	movs	r2, r0
 800603c:	683b      	ldr	r3, [r7, #0]
 800603e:	1ad3      	subs	r3, r2, r3
 8006040:	6dba      	ldr	r2, [r7, #88]	; 0x58
 8006042:	429a      	cmp	r2, r3
 8006044:	d302      	bcc.n	800604c <UART_WaitOnFlagUntilTimeout+0x30>
 8006046:	6dbb      	ldr	r3, [r7, #88]	; 0x58
 8006048:	2b00      	cmp	r3, #0
 800604a:	d13d      	bne.n	80060c8 <UART_WaitOnFlagUntilTimeout+0xac>
  __ASM volatile ("MRS %0, primask" : "=r" (result) :: "memory");
 800604c:	f3ef 8310 	mrs	r3, PRIMASK
 8006050:	62bb      	str	r3, [r7, #40]	; 0x28
  return(result);
 8006052:	6abb      	ldr	r3, [r7, #40]	; 0x28
      {
        /* Disable TXE, RXNE, PE and ERR (Frame error, noise error, overrun error)
           interrupts for the interrupt process */
        ATOMIC_CLEAR_BIT(huart->Instance->CR1, (USART_CR1_RXNEIE | USART_CR1_PEIE | USART_CR1_TXEIE));
 8006054:	647b      	str	r3, [r7, #68]	; 0x44
 8006056:	2301      	movs	r3, #1
 8006058:	62fb      	str	r3, [r7, #44]	; 0x2c
  __ASM volatile ("MSR primask, %0" : : "r" (priMask) : "memory");
 800605a:	6afb      	ldr	r3, [r7, #44]	; 0x2c
 800605c:	f383 8810 	msr	PRIMASK, r3
}
 8006060:	46c0      	nop			; (mov r8, r8)
 8006062:	68fb      	ldr	r3, [r7, #12]
 8006064:	681b      	ldr	r3, [r3, #0]
 8006066:	681a      	ldr	r2, [r3, #0]
 8006068:	68fb      	ldr	r3, [r7, #12]
 800606a:	681b      	ldr	r3, [r3, #0]
 800606c:	494c      	ldr	r1, [pc, #304]	; (80061a0 <UART_WaitOnFlagUntilTimeout+0x184>)
 800606e:	400a      	ands	r2, r1
 8006070:	601a      	str	r2, [r3, #0]
 8006072:	6c7b      	ldr	r3, [r7, #68]	; 0x44
 8006074:	633b      	str	r3, [r7, #48]	; 0x30
  __ASM volatile ("MSR primask, %0" : : "r" (priMask) : "memory");
 8006076:	6b3b      	ldr	r3, [r7, #48]	; 0x30
 8006078:	f383 8810 	msr	PRIMASK, r3
}
 800607c:	46c0      	nop			; (mov r8, r8)
  __ASM volatile ("MRS %0, primask" : "=r" (result) :: "memory");
 800607e:	f3ef 8310 	mrs	r3, PRIMASK
 8006082:	637b      	str	r3, [r7, #52]	; 0x34
  return(result);
 8006084:	6b7b      	ldr	r3, [r7, #52]	; 0x34
        ATOMIC_CLEAR_BIT(huart->Instance->CR3, USART_CR3_EIE);
 8006086:	643b      	str	r3, [r7, #64]	; 0x40
 8006088:	2301      	movs	r3, #1
 800608a:	63bb      	str	r3, [r7, #56]	; 0x38
  __ASM volatile ("MSR primask, %0" : : "r" (priMask) : "memory");
 800608c:	6bbb      	ldr	r3, [r7, #56]	; 0x38
 800608e:	f383 8810 	msr	PRIMASK, r3
}
 8006092:	46c0      	nop			; (mov r8, r8)
 8006094:	68fb      	ldr	r3, [r7, #12]
 8006096:	681b      	ldr	r3, [r3, #0]
 8006098:	689a      	ldr	r2, [r3, #8]
 800609a:	68fb      	ldr	r3, [r7, #12]
 800609c:	681b      	ldr	r3, [r3, #0]
 800609e:	2101      	movs	r1, #1
 80060a0:	438a      	bics	r2, r1
 80060a2:	609a      	str	r2, [r3, #8]
 80060a4:	6c3b      	ldr	r3, [r7, #64]	; 0x40
 80060a6:	63fb      	str	r3, [r7, #60]	; 0x3c
  __ASM volatile ("MSR primask, %0" : : "r" (priMask) : "memory");
 80060a8:	6bfb      	ldr	r3, [r7, #60]	; 0x3c
 80060aa:	f383 8810 	msr	PRIMASK, r3
}
 80060ae:	46c0      	nop			; (mov r8, r8)

        huart->gState = HAL_UART_STATE_READY;
 80060b0:	68fb      	ldr	r3, [r7, #12]
 80060b2:	2220      	movs	r2, #32
 80060b4:	679a      	str	r2, [r3, #120]	; 0x78
        huart->RxState = HAL_UART_STATE_READY;
 80060b6:	68fb      	ldr	r3, [r7, #12]
 80060b8:	2220      	movs	r2, #32
 80060ba:	67da      	str	r2, [r3, #124]	; 0x7c

        __HAL_UNLOCK(huart);
 80060bc:	68fb      	ldr	r3, [r7, #12]
 80060be:	2274      	movs	r2, #116	; 0x74
 80060c0:	2100      	movs	r1, #0
 80060c2:	5499      	strb	r1, [r3, r2]

        return HAL_TIMEOUT;
 80060c4:	2303      	movs	r3, #3
 80060c6:	e067      	b.n	8006198 <UART_WaitOnFlagUntilTimeout+0x17c>
      }

      if (READ_BIT(huart->Instance->CR1, USART_CR1_RE) != 0U)
 80060c8:	68fb      	ldr	r3, [r7, #12]
 80060ca:	681b      	ldr	r3, [r3, #0]
 80060cc:	681b      	ldr	r3, [r3, #0]
 80060ce:	2204      	movs	r2, #4
 80060d0:	4013      	ands	r3, r2
 80060d2:	d050      	beq.n	8006176 <UART_WaitOnFlagUntilTimeout+0x15a>
      {
        if (__HAL_UART_GET_FLAG(huart, UART_FLAG_RTOF) == SET)
 80060d4:	68fb      	ldr	r3, [r7, #12]
 80060d6:	681b      	ldr	r3, [r3, #0]
 80060d8:	69da      	ldr	r2, [r3, #28]
 80060da:	2380      	movs	r3, #128	; 0x80
 80060dc:	011b      	lsls	r3, r3, #4
 80060de:	401a      	ands	r2, r3
 80060e0:	2380      	movs	r3, #128	; 0x80
 80060e2:	011b      	lsls	r3, r3, #4
 80060e4:	429a      	cmp	r2, r3
 80060e6:	d146      	bne.n	8006176 <UART_WaitOnFlagUntilTimeout+0x15a>
        {
          /* Clear Receiver Timeout flag*/
          __HAL_UART_CLEAR_FLAG(huart, UART_CLEAR_RTOF);
 80060e8:	68fb      	ldr	r3, [r7, #12]
 80060ea:	681b      	ldr	r3, [r3, #0]
 80060ec:	2280      	movs	r2, #128	; 0x80
 80060ee:	0112      	lsls	r2, r2, #4
 80060f0:	621a      	str	r2, [r3, #32]
  __ASM volatile ("MRS %0, primask" : "=r" (result) :: "memory");
 80060f2:	f3ef 8310 	mrs	r3, PRIMASK
 80060f6:	613b      	str	r3, [r7, #16]
  return(result);
 80060f8:	693b      	ldr	r3, [r7, #16]

          /* Disable TXE, RXNE, PE and ERR (Frame error, noise error, overrun error)
             interrupts for the interrupt process */
          ATOMIC_CLEAR_BIT(huart->Instance->CR1, (USART_CR1_RXNEIE | USART_CR1_PEIE | USART_CR1_TXEIE));
 80060fa:	64fb      	str	r3, [r7, #76]	; 0x4c
 80060fc:	2301      	movs	r3, #1
 80060fe:	617b      	str	r3, [r7, #20]
  __ASM volatile ("MSR primask, %0" : : "r" (priMask) : "memory");
 8006100:	697b      	ldr	r3, [r7, #20]
 8006102:	f383 8810 	msr	PRIMASK, r3
}
 8006106:	46c0      	nop			; (mov r8, r8)
 8006108:	68fb      	ldr	r3, [r7, #12]
 800610a:	681b      	ldr	r3, [r3, #0]
 800610c:	681a      	ldr	r2, [r3, #0]
 800610e:	68fb      	ldr	r3, [r7, #12]
 8006110:	681b      	ldr	r3, [r3, #0]
 8006112:	4923      	ldr	r1, [pc, #140]	; (80061a0 <UART_WaitOnFlagUntilTimeout+0x184>)
 8006114:	400a      	ands	r2, r1
 8006116:	601a      	str	r2, [r3, #0]
 8006118:	6cfb      	ldr	r3, [r7, #76]	; 0x4c
 800611a:	61bb      	str	r3, [r7, #24]
  __ASM volatile ("MSR primask, %0" : : "r" (priMask) : "memory");
 800611c:	69bb      	ldr	r3, [r7, #24]
 800611e:	f383 8810 	msr	PRIMASK, r3
}
 8006122:	46c0      	nop			; (mov r8, r8)
  __ASM volatile ("MRS %0, primask" : "=r" (result) :: "memory");
 8006124:	f3ef 8310 	mrs	r3, PRIMASK
 8006128:	61fb      	str	r3, [r7, #28]
  return(result);
 800612a:	69fb      	ldr	r3, [r7, #28]
          ATOMIC_CLEAR_BIT(huart->Instance->CR3, USART_CR3_EIE);
 800612c:	64bb      	str	r3, [r7, #72]	; 0x48
 800612e:	2301      	movs	r3, #1
 8006130:	623b      	str	r3, [r7, #32]
  __ASM volatile ("MSR primask, %0" : : "r" (priMask) : "memory");
 8006132:	6a3b      	ldr	r3, [r7, #32]
 8006134:	f383 8810 	msr	PRIMASK, r3
}
 8006138:	46c0      	nop			; (mov r8, r8)
 800613a:	68fb      	ldr	r3, [r7, #12]
 800613c:	681b      	ldr	r3, [r3, #0]
 800613e:	689a      	ldr	r2, [r3, #8]
 8006140:	68fb      	ldr	r3, [r7, #12]
 8006142:	681b      	ldr	r3, [r3, #0]
 8006144:	2101      	movs	r1, #1
 8006146:	438a      	bics	r2, r1
 8006148:	609a      	str	r2, [r3, #8]
 800614a:	6cbb      	ldr	r3, [r7, #72]	; 0x48
 800614c:	627b      	str	r3, [r7, #36]	; 0x24
  __ASM volatile ("MSR primask, %0" : : "r" (priMask) : "memory");
 800614e:	6a7b      	ldr	r3, [r7, #36]	; 0x24
 8006150:	f383 8810 	msr	PRIMASK, r3
}
 8006154:	46c0      	nop			; (mov r8, r8)

          huart->gState = HAL_UART_STATE_READY;
 8006156:	68fb      	ldr	r3, [r7, #12]
 8006158:	2220      	movs	r2, #32
 800615a:	679a      	str	r2, [r3, #120]	; 0x78
          huart->RxState = HAL_UART_STATE_READY;
 800615c:	68fb      	ldr	r3, [r7, #12]
 800615e:	2220      	movs	r2, #32
 8006160:	67da      	str	r2, [r3, #124]	; 0x7c
          huart->ErrorCode = HAL_UART_ERROR_RTO;
 8006162:	68fb      	ldr	r3, [r7, #12]
 8006164:	2280      	movs	r2, #128	; 0x80
 8006166:	2120      	movs	r1, #32
 8006168:	5099      	str	r1, [r3, r2]

          /* Process Unlocked */
          __HAL_UNLOCK(huart);
 800616a:	68fb      	ldr	r3, [r7, #12]
 800616c:	2274      	movs	r2, #116	; 0x74
 800616e:	2100      	movs	r1, #0
 8006170:	5499      	strb	r1, [r3, r2]

          return HAL_TIMEOUT;
 8006172:	2303      	movs	r3, #3
 8006174:	e010      	b.n	8006198 <UART_WaitOnFlagUntilTimeout+0x17c>
  while ((__HAL_UART_GET_FLAG(huart, Flag) ? SET : RESET) == Status)
 8006176:	68fb      	ldr	r3, [r7, #12]
 8006178:	681b      	ldr	r3, [r3, #0]
 800617a:	69db      	ldr	r3, [r3, #28]
 800617c:	68ba      	ldr	r2, [r7, #8]
 800617e:	4013      	ands	r3, r2
 8006180:	68ba      	ldr	r2, [r7, #8]
 8006182:	1ad3      	subs	r3, r2, r3
 8006184:	425a      	negs	r2, r3
 8006186:	4153      	adcs	r3, r2
 8006188:	b2db      	uxtb	r3, r3
 800618a:	001a      	movs	r2, r3
 800618c:	1dfb      	adds	r3, r7, #7
 800618e:	781b      	ldrb	r3, [r3, #0]
 8006190:	429a      	cmp	r2, r3
 8006192:	d100      	bne.n	8006196 <UART_WaitOnFlagUntilTimeout+0x17a>
 8006194:	e74b      	b.n	800602e <UART_WaitOnFlagUntilTimeout+0x12>
        }
      }
    }
  }
  return HAL_OK;
 8006196:	2300      	movs	r3, #0
}
 8006198:	0018      	movs	r0, r3
 800619a:	46bd      	mov	sp, r7
 800619c:	b014      	add	sp, #80	; 0x50
 800619e:	bd80      	pop	{r7, pc}
 80061a0:	fffffe5f 	.word	0xfffffe5f

080061a4 <HAL_RS485Ex_Init>:
  *       oversampling rate).
  * @retval HAL status
  */
HAL_StatusTypeDef HAL_RS485Ex_Init(UART_HandleTypeDef *huart, uint32_t Polarity, uint32_t AssertionTime,
                                   uint32_t DeassertionTime)
{
 80061a4:	b580      	push	{r7, lr}
 80061a6:	b086      	sub	sp, #24
 80061a8:	af00      	add	r7, sp, #0
 80061aa:	60f8      	str	r0, [r7, #12]
 80061ac:	60b9      	str	r1, [r7, #8]
 80061ae:	607a      	str	r2, [r7, #4]
 80061b0:	603b      	str	r3, [r7, #0]
  uint32_t temp;

  /* Check the UART handle allocation */
  if (huart == NULL)
 80061b2:	68fb      	ldr	r3, [r7, #12]
 80061b4:	2b00      	cmp	r3, #0
 80061b6:	d101      	bne.n	80061bc <HAL_RS485Ex_Init+0x18>
  {
    return HAL_ERROR;
 80061b8:	2301      	movs	r3, #1
 80061ba:	e05b      	b.n	8006274 <HAL_RS485Ex_Init+0xd0>
  assert_param(IS_UART_ASSERTIONTIME(AssertionTime));

  /* Check the Driver Enable deassertion time */
  assert_param(IS_UART_DEASSERTIONTIME(DeassertionTime));

  if (huart->gState == HAL_UART_STATE_RESET)
 80061bc:	68fb      	ldr	r3, [r7, #12]
 80061be:	6f9b      	ldr	r3, [r3, #120]	; 0x78
 80061c0:	2b00      	cmp	r3, #0
 80061c2:	d107      	bne.n	80061d4 <HAL_RS485Ex_Init+0x30>
  {
    /* Allocate lock resource and initialize it */
    huart->Lock = HAL_UNLOCKED;
 80061c4:	68fb      	ldr	r3, [r7, #12]
 80061c6:	2274      	movs	r2, #116	; 0x74
 80061c8:	2100      	movs	r1, #0
 80061ca:	5499      	strb	r1, [r3, r2]

    /* Init the low level hardware */
    huart->MspInitCallback(huart);
#else
    /* Init the low level hardware : GPIO, CLOCK, CORTEX */
    HAL_UART_MspInit(huart);
 80061cc:	68fb      	ldr	r3, [r7, #12]
 80061ce:	0018      	movs	r0, r3
 80061d0:	f7fb f806 	bl	80011e0 <HAL_UART_MspInit>
#endif /* (USE_HAL_UART_REGISTER_CALLBACKS) */
  }

  huart->gState = HAL_UART_STATE_BUSY;
 80061d4:	68fb      	ldr	r3, [r7, #12]
 80061d6:	2224      	movs	r2, #36	; 0x24
 80061d8:	679a      	str	r2, [r3, #120]	; 0x78

  /* Disable the Peripheral */
  __HAL_UART_DISABLE(huart);
 80061da:	68fb      	ldr	r3, [r7, #12]
 80061dc:	681b      	ldr	r3, [r3, #0]
 80061de:	681a      	ldr	r2, [r3, #0]
 80061e0:	68fb      	ldr	r3, [r7, #12]
 80061e2:	681b      	ldr	r3, [r3, #0]
 80061e4:	2101      	movs	r1, #1
 80061e6:	438a      	bics	r2, r1
 80061e8:	601a      	str	r2, [r3, #0]

  /* Set the UART Communication parameters */
  if (UART_SetConfig(huart) == HAL_ERROR)
 80061ea:	68fb      	ldr	r3, [r7, #12]
 80061ec:	0018      	movs	r0, r3
 80061ee:	f7ff fcef 	bl	8005bd0 <UART_SetConfig>
 80061f2:	0003      	movs	r3, r0
 80061f4:	2b01      	cmp	r3, #1
 80061f6:	d101      	bne.n	80061fc <HAL_RS485Ex_Init+0x58>
  {
    return HAL_ERROR;
 80061f8:	2301      	movs	r3, #1
 80061fa:	e03b      	b.n	8006274 <HAL_RS485Ex_Init+0xd0>
  }

  if (huart->AdvancedInit.AdvFeatureInit != UART_ADVFEATURE_NO_INIT)
 80061fc:	68fb      	ldr	r3, [r7, #12]
 80061fe:	6a5b      	ldr	r3, [r3, #36]	; 0x24
 8006200:	2b00      	cmp	r3, #0
 8006202:	d003      	beq.n	800620c <HAL_RS485Ex_Init+0x68>
  {
    UART_AdvFeatureConfig(huart);
 8006204:	68fb      	ldr	r3, [r7, #12]
 8006206:	0018      	movs	r0, r3
 8006208:	f7ff fe0c 	bl	8005e24 <UART_AdvFeatureConfig>
  }

  /* Enable the Driver Enable mode by setting the DEM bit in the CR3 register */
  SET_BIT(huart->Instance->CR3, USART_CR3_DEM);
 800620c:	68fb      	ldr	r3, [r7, #12]
 800620e:	681b      	ldr	r3, [r3, #0]
 8006210:	689a      	ldr	r2, [r3, #8]
 8006212:	68fb      	ldr	r3, [r7, #12]
 8006214:	681b      	ldr	r3, [r3, #0]
 8006216:	2180      	movs	r1, #128	; 0x80
 8006218:	01c9      	lsls	r1, r1, #7
 800621a:	430a      	orrs	r2, r1
 800621c:	609a      	str	r2, [r3, #8]

  /* Set the Driver Enable polarity */
  MODIFY_REG(huart->Instance->CR3, USART_CR3_DEP, Polarity);
 800621e:	68fb      	ldr	r3, [r7, #12]
 8006220:	681b      	ldr	r3, [r3, #0]
 8006222:	689b      	ldr	r3, [r3, #8]
 8006224:	4a15      	ldr	r2, [pc, #84]	; (800627c <HAL_RS485Ex_Init+0xd8>)
 8006226:	4013      	ands	r3, r2
 8006228:	0019      	movs	r1, r3
 800622a:	68fb      	ldr	r3, [r7, #12]
 800622c:	681b      	ldr	r3, [r3, #0]
 800622e:	68ba      	ldr	r2, [r7, #8]
 8006230:	430a      	orrs	r2, r1
 8006232:	609a      	str	r2, [r3, #8]

  /* Set the Driver Enable assertion and deassertion times */
  temp = (AssertionTime << UART_CR1_DEAT_ADDRESS_LSB_POS);
 8006234:	687b      	ldr	r3, [r7, #4]
 8006236:	055b      	lsls	r3, r3, #21
 8006238:	617b      	str	r3, [r7, #20]
  temp |= (DeassertionTime << UART_CR1_DEDT_ADDRESS_LSB_POS);
 800623a:	683b      	ldr	r3, [r7, #0]
 800623c:	041b      	lsls	r3, r3, #16
 800623e:	697a      	ldr	r2, [r7, #20]
 8006240:	4313      	orrs	r3, r2
 8006242:	617b      	str	r3, [r7, #20]
  MODIFY_REG(huart->Instance->CR1, (USART_CR1_DEDT | USART_CR1_DEAT), temp);
 8006244:	68fb      	ldr	r3, [r7, #12]
 8006246:	681b      	ldr	r3, [r3, #0]
 8006248:	681b      	ldr	r3, [r3, #0]
 800624a:	4a0d      	ldr	r2, [pc, #52]	; (8006280 <HAL_RS485Ex_Init+0xdc>)
 800624c:	4013      	ands	r3, r2
 800624e:	0019      	movs	r1, r3
 8006250:	68fb      	ldr	r3, [r7, #12]
 8006252:	681b      	ldr	r3, [r3, #0]
 8006254:	697a      	ldr	r2, [r7, #20]
 8006256:	430a      	orrs	r2, r1
 8006258:	601a      	str	r2, [r3, #0]

  /* Enable the Peripheral */
  __HAL_UART_ENABLE(huart);
 800625a:	68fb      	ldr	r3, [r7, #12]
 800625c:	681b      	ldr	r3, [r3, #0]
 800625e:	681a      	ldr	r2, [r3, #0]
 8006260:	68fb      	ldr	r3, [r7, #12]
 8006262:	681b      	ldr	r3, [r3, #0]
 8006264:	2101      	movs	r1, #1
 8006266:	430a      	orrs	r2, r1
 8006268:	601a      	str	r2, [r3, #0]

  /* TEACK and/or REACK to check before moving huart->gState and huart->RxState to Ready */
  return (UART_CheckIdleState(huart));
 800626a:	68fb      	ldr	r3, [r7, #12]
 800626c:	0018      	movs	r0, r3
 800626e:	f7ff fe8d 	bl	8005f8c <UART_CheckIdleState>
 8006272:	0003      	movs	r3, r0
}
 8006274:	0018      	movs	r0, r3
 8006276:	46bd      	mov	sp, r7
 8006278:	b006      	add	sp, #24
 800627a:	bd80      	pop	{r7, pc}
 800627c:	ffff7fff 	.word	0xffff7fff
 8006280:	fc00ffff 	.word	0xfc00ffff

08006284 <__errno>:
 8006284:	4b01      	ldr	r3, [pc, #4]	; (800628c <__errno+0x8>)
 8006286:	6818      	ldr	r0, [r3, #0]
 8006288:	4770      	bx	lr
 800628a:	46c0      	nop			; (mov r8, r8)
 800628c:	2000000c 	.word	0x2000000c

08006290 <__libc_init_array>:
 8006290:	b570      	push	{r4, r5, r6, lr}
 8006292:	2600      	movs	r6, #0
 8006294:	4d0c      	ldr	r5, [pc, #48]	; (80062c8 <__libc_init_array+0x38>)
 8006296:	4c0d      	ldr	r4, [pc, #52]	; (80062cc <__libc_init_array+0x3c>)
 8006298:	1b64      	subs	r4, r4, r5
 800629a:	10a4      	asrs	r4, r4, #2
 800629c:	42a6      	cmp	r6, r4
 800629e:	d109      	bne.n	80062b4 <__libc_init_array+0x24>
 80062a0:	2600      	movs	r6, #0
 80062a2:	f000 fc8b 	bl	8006bbc <_init>
 80062a6:	4d0a      	ldr	r5, [pc, #40]	; (80062d0 <__libc_init_array+0x40>)
 80062a8:	4c0a      	ldr	r4, [pc, #40]	; (80062d4 <__libc_init_array+0x44>)
 80062aa:	1b64      	subs	r4, r4, r5
 80062ac:	10a4      	asrs	r4, r4, #2
 80062ae:	42a6      	cmp	r6, r4
 80062b0:	d105      	bne.n	80062be <__libc_init_array+0x2e>
 80062b2:	bd70      	pop	{r4, r5, r6, pc}
 80062b4:	00b3      	lsls	r3, r6, #2
 80062b6:	58eb      	ldr	r3, [r5, r3]
 80062b8:	4798      	blx	r3
 80062ba:	3601      	adds	r6, #1
 80062bc:	e7ee      	b.n	800629c <__libc_init_array+0xc>
 80062be:	00b3      	lsls	r3, r6, #2
 80062c0:	58eb      	ldr	r3, [r5, r3]
 80062c2:	4798      	blx	r3
 80062c4:	3601      	adds	r6, #1
 80062c6:	e7f2      	b.n	80062ae <__libc_init_array+0x1e>
 80062c8:	08006c50 	.word	0x08006c50
 80062cc:	08006c50 	.word	0x08006c50
 80062d0:	08006c50 	.word	0x08006c50
 80062d4:	08006c54 	.word	0x08006c54

080062d8 <memset>:
 80062d8:	0003      	movs	r3, r0
 80062da:	1882      	adds	r2, r0, r2
 80062dc:	4293      	cmp	r3, r2
 80062de:	d100      	bne.n	80062e2 <memset+0xa>
 80062e0:	4770      	bx	lr
 80062e2:	7019      	strb	r1, [r3, #0]
 80062e4:	3301      	adds	r3, #1
 80062e6:	e7f9      	b.n	80062dc <memset+0x4>

080062e8 <siprintf>:
 80062e8:	b40e      	push	{r1, r2, r3}
 80062ea:	b500      	push	{lr}
 80062ec:	490b      	ldr	r1, [pc, #44]	; (800631c <siprintf+0x34>)
 80062ee:	b09c      	sub	sp, #112	; 0x70
 80062f0:	ab1d      	add	r3, sp, #116	; 0x74
 80062f2:	9002      	str	r0, [sp, #8]
 80062f4:	9006      	str	r0, [sp, #24]
 80062f6:	9107      	str	r1, [sp, #28]
 80062f8:	9104      	str	r1, [sp, #16]
 80062fa:	4809      	ldr	r0, [pc, #36]	; (8006320 <siprintf+0x38>)
 80062fc:	4909      	ldr	r1, [pc, #36]	; (8006324 <siprintf+0x3c>)
 80062fe:	cb04      	ldmia	r3!, {r2}
 8006300:	9105      	str	r1, [sp, #20]
 8006302:	6800      	ldr	r0, [r0, #0]
 8006304:	a902      	add	r1, sp, #8
 8006306:	9301      	str	r3, [sp, #4]
 8006308:	f000 f870 	bl	80063ec <_svfiprintf_r>
 800630c:	2300      	movs	r3, #0
 800630e:	9a02      	ldr	r2, [sp, #8]
 8006310:	7013      	strb	r3, [r2, #0]
 8006312:	b01c      	add	sp, #112	; 0x70
 8006314:	bc08      	pop	{r3}
 8006316:	b003      	add	sp, #12
 8006318:	4718      	bx	r3
 800631a:	46c0      	nop			; (mov r8, r8)
 800631c:	7fffffff 	.word	0x7fffffff
 8006320:	2000000c 	.word	0x2000000c
 8006324:	ffff0208 	.word	0xffff0208

08006328 <__ssputs_r>:
 8006328:	b5f0      	push	{r4, r5, r6, r7, lr}
 800632a:	688e      	ldr	r6, [r1, #8]
 800632c:	b085      	sub	sp, #20
 800632e:	0007      	movs	r7, r0
 8006330:	000c      	movs	r4, r1
 8006332:	9203      	str	r2, [sp, #12]
 8006334:	9301      	str	r3, [sp, #4]
 8006336:	429e      	cmp	r6, r3
 8006338:	d83c      	bhi.n	80063b4 <__ssputs_r+0x8c>
 800633a:	2390      	movs	r3, #144	; 0x90
 800633c:	898a      	ldrh	r2, [r1, #12]
 800633e:	00db      	lsls	r3, r3, #3
 8006340:	421a      	tst	r2, r3
 8006342:	d034      	beq.n	80063ae <__ssputs_r+0x86>
 8006344:	6909      	ldr	r1, [r1, #16]
 8006346:	6823      	ldr	r3, [r4, #0]
 8006348:	6960      	ldr	r0, [r4, #20]
 800634a:	1a5b      	subs	r3, r3, r1
 800634c:	9302      	str	r3, [sp, #8]
 800634e:	2303      	movs	r3, #3
 8006350:	4343      	muls	r3, r0
 8006352:	0fdd      	lsrs	r5, r3, #31
 8006354:	18ed      	adds	r5, r5, r3
 8006356:	9b01      	ldr	r3, [sp, #4]
 8006358:	9802      	ldr	r0, [sp, #8]
 800635a:	3301      	adds	r3, #1
 800635c:	181b      	adds	r3, r3, r0
 800635e:	106d      	asrs	r5, r5, #1
 8006360:	42ab      	cmp	r3, r5
 8006362:	d900      	bls.n	8006366 <__ssputs_r+0x3e>
 8006364:	001d      	movs	r5, r3
 8006366:	0553      	lsls	r3, r2, #21
 8006368:	d532      	bpl.n	80063d0 <__ssputs_r+0xa8>
 800636a:	0029      	movs	r1, r5
 800636c:	0038      	movs	r0, r7
 800636e:	f000 fb53 	bl	8006a18 <_malloc_r>
 8006372:	1e06      	subs	r6, r0, #0
 8006374:	d109      	bne.n	800638a <__ssputs_r+0x62>
 8006376:	230c      	movs	r3, #12
 8006378:	603b      	str	r3, [r7, #0]
 800637a:	2340      	movs	r3, #64	; 0x40
 800637c:	2001      	movs	r0, #1
 800637e:	89a2      	ldrh	r2, [r4, #12]
 8006380:	4240      	negs	r0, r0
 8006382:	4313      	orrs	r3, r2
 8006384:	81a3      	strh	r3, [r4, #12]
 8006386:	b005      	add	sp, #20
 8006388:	bdf0      	pop	{r4, r5, r6, r7, pc}
 800638a:	9a02      	ldr	r2, [sp, #8]
 800638c:	6921      	ldr	r1, [r4, #16]
 800638e:	f000 faba 	bl	8006906 <memcpy>
 8006392:	89a3      	ldrh	r3, [r4, #12]
 8006394:	4a14      	ldr	r2, [pc, #80]	; (80063e8 <__ssputs_r+0xc0>)
 8006396:	401a      	ands	r2, r3
 8006398:	2380      	movs	r3, #128	; 0x80
 800639a:	4313      	orrs	r3, r2
 800639c:	81a3      	strh	r3, [r4, #12]
 800639e:	9b02      	ldr	r3, [sp, #8]
 80063a0:	6126      	str	r6, [r4, #16]
 80063a2:	18f6      	adds	r6, r6, r3
 80063a4:	6026      	str	r6, [r4, #0]
 80063a6:	6165      	str	r5, [r4, #20]
 80063a8:	9e01      	ldr	r6, [sp, #4]
 80063aa:	1aed      	subs	r5, r5, r3
 80063ac:	60a5      	str	r5, [r4, #8]
 80063ae:	9b01      	ldr	r3, [sp, #4]
 80063b0:	429e      	cmp	r6, r3
 80063b2:	d900      	bls.n	80063b6 <__ssputs_r+0x8e>
 80063b4:	9e01      	ldr	r6, [sp, #4]
 80063b6:	0032      	movs	r2, r6
 80063b8:	9903      	ldr	r1, [sp, #12]
 80063ba:	6820      	ldr	r0, [r4, #0]
 80063bc:	f000 faac 	bl	8006918 <memmove>
 80063c0:	68a3      	ldr	r3, [r4, #8]
 80063c2:	2000      	movs	r0, #0
 80063c4:	1b9b      	subs	r3, r3, r6
 80063c6:	60a3      	str	r3, [r4, #8]
 80063c8:	6823      	ldr	r3, [r4, #0]
 80063ca:	199e      	adds	r6, r3, r6
 80063cc:	6026      	str	r6, [r4, #0]
 80063ce:	e7da      	b.n	8006386 <__ssputs_r+0x5e>
 80063d0:	002a      	movs	r2, r5
 80063d2:	0038      	movs	r0, r7
 80063d4:	f000 fb96 	bl	8006b04 <_realloc_r>
 80063d8:	1e06      	subs	r6, r0, #0
 80063da:	d1e0      	bne.n	800639e <__ssputs_r+0x76>
 80063dc:	0038      	movs	r0, r7
 80063de:	6921      	ldr	r1, [r4, #16]
 80063e0:	f000 faae 	bl	8006940 <_free_r>
 80063e4:	e7c7      	b.n	8006376 <__ssputs_r+0x4e>
 80063e6:	46c0      	nop			; (mov r8, r8)
 80063e8:	fffffb7f 	.word	0xfffffb7f

080063ec <_svfiprintf_r>:
 80063ec:	b5f0      	push	{r4, r5, r6, r7, lr}
 80063ee:	b0a1      	sub	sp, #132	; 0x84
 80063f0:	9003      	str	r0, [sp, #12]
 80063f2:	001d      	movs	r5, r3
 80063f4:	898b      	ldrh	r3, [r1, #12]
 80063f6:	000f      	movs	r7, r1
 80063f8:	0016      	movs	r6, r2
 80063fa:	061b      	lsls	r3, r3, #24
 80063fc:	d511      	bpl.n	8006422 <_svfiprintf_r+0x36>
 80063fe:	690b      	ldr	r3, [r1, #16]
 8006400:	2b00      	cmp	r3, #0
 8006402:	d10e      	bne.n	8006422 <_svfiprintf_r+0x36>
 8006404:	2140      	movs	r1, #64	; 0x40
 8006406:	f000 fb07 	bl	8006a18 <_malloc_r>
 800640a:	6038      	str	r0, [r7, #0]
 800640c:	6138      	str	r0, [r7, #16]
 800640e:	2800      	cmp	r0, #0
 8006410:	d105      	bne.n	800641e <_svfiprintf_r+0x32>
 8006412:	230c      	movs	r3, #12
 8006414:	9a03      	ldr	r2, [sp, #12]
 8006416:	3801      	subs	r0, #1
 8006418:	6013      	str	r3, [r2, #0]
 800641a:	b021      	add	sp, #132	; 0x84
 800641c:	bdf0      	pop	{r4, r5, r6, r7, pc}
 800641e:	2340      	movs	r3, #64	; 0x40
 8006420:	617b      	str	r3, [r7, #20]
 8006422:	2300      	movs	r3, #0
 8006424:	ac08      	add	r4, sp, #32
 8006426:	6163      	str	r3, [r4, #20]
 8006428:	3320      	adds	r3, #32
 800642a:	7663      	strb	r3, [r4, #25]
 800642c:	3310      	adds	r3, #16
 800642e:	76a3      	strb	r3, [r4, #26]
 8006430:	9507      	str	r5, [sp, #28]
 8006432:	0035      	movs	r5, r6
 8006434:	782b      	ldrb	r3, [r5, #0]
 8006436:	2b00      	cmp	r3, #0
 8006438:	d001      	beq.n	800643e <_svfiprintf_r+0x52>
 800643a:	2b25      	cmp	r3, #37	; 0x25
 800643c:	d147      	bne.n	80064ce <_svfiprintf_r+0xe2>
 800643e:	1bab      	subs	r3, r5, r6
 8006440:	9305      	str	r3, [sp, #20]
 8006442:	42b5      	cmp	r5, r6
 8006444:	d00c      	beq.n	8006460 <_svfiprintf_r+0x74>
 8006446:	0032      	movs	r2, r6
 8006448:	0039      	movs	r1, r7
 800644a:	9803      	ldr	r0, [sp, #12]
 800644c:	f7ff ff6c 	bl	8006328 <__ssputs_r>
 8006450:	1c43      	adds	r3, r0, #1
 8006452:	d100      	bne.n	8006456 <_svfiprintf_r+0x6a>
 8006454:	e0ae      	b.n	80065b4 <_svfiprintf_r+0x1c8>
 8006456:	6962      	ldr	r2, [r4, #20]
 8006458:	9b05      	ldr	r3, [sp, #20]
 800645a:	4694      	mov	ip, r2
 800645c:	4463      	add	r3, ip
 800645e:	6163      	str	r3, [r4, #20]
 8006460:	782b      	ldrb	r3, [r5, #0]
 8006462:	2b00      	cmp	r3, #0
 8006464:	d100      	bne.n	8006468 <_svfiprintf_r+0x7c>
 8006466:	e0a5      	b.n	80065b4 <_svfiprintf_r+0x1c8>
 8006468:	2201      	movs	r2, #1
 800646a:	2300      	movs	r3, #0
 800646c:	4252      	negs	r2, r2
 800646e:	6062      	str	r2, [r4, #4]
 8006470:	a904      	add	r1, sp, #16
 8006472:	3254      	adds	r2, #84	; 0x54
 8006474:	1852      	adds	r2, r2, r1
 8006476:	1c6e      	adds	r6, r5, #1
 8006478:	6023      	str	r3, [r4, #0]
 800647a:	60e3      	str	r3, [r4, #12]
 800647c:	60a3      	str	r3, [r4, #8]
 800647e:	7013      	strb	r3, [r2, #0]
 8006480:	65a3      	str	r3, [r4, #88]	; 0x58
 8006482:	2205      	movs	r2, #5
 8006484:	7831      	ldrb	r1, [r6, #0]
 8006486:	4854      	ldr	r0, [pc, #336]	; (80065d8 <_svfiprintf_r+0x1ec>)
 8006488:	f000 fa32 	bl	80068f0 <memchr>
 800648c:	1c75      	adds	r5, r6, #1
 800648e:	2800      	cmp	r0, #0
 8006490:	d11f      	bne.n	80064d2 <_svfiprintf_r+0xe6>
 8006492:	6822      	ldr	r2, [r4, #0]
 8006494:	06d3      	lsls	r3, r2, #27
 8006496:	d504      	bpl.n	80064a2 <_svfiprintf_r+0xb6>
 8006498:	2353      	movs	r3, #83	; 0x53
 800649a:	a904      	add	r1, sp, #16
 800649c:	185b      	adds	r3, r3, r1
 800649e:	2120      	movs	r1, #32
 80064a0:	7019      	strb	r1, [r3, #0]
 80064a2:	0713      	lsls	r3, r2, #28
 80064a4:	d504      	bpl.n	80064b0 <_svfiprintf_r+0xc4>
 80064a6:	2353      	movs	r3, #83	; 0x53
 80064a8:	a904      	add	r1, sp, #16
 80064aa:	185b      	adds	r3, r3, r1
 80064ac:	212b      	movs	r1, #43	; 0x2b
 80064ae:	7019      	strb	r1, [r3, #0]
 80064b0:	7833      	ldrb	r3, [r6, #0]
 80064b2:	2b2a      	cmp	r3, #42	; 0x2a
 80064b4:	d016      	beq.n	80064e4 <_svfiprintf_r+0xf8>
 80064b6:	0035      	movs	r5, r6
 80064b8:	2100      	movs	r1, #0
 80064ba:	200a      	movs	r0, #10
 80064bc:	68e3      	ldr	r3, [r4, #12]
 80064be:	782a      	ldrb	r2, [r5, #0]
 80064c0:	1c6e      	adds	r6, r5, #1
 80064c2:	3a30      	subs	r2, #48	; 0x30
 80064c4:	2a09      	cmp	r2, #9
 80064c6:	d94e      	bls.n	8006566 <_svfiprintf_r+0x17a>
 80064c8:	2900      	cmp	r1, #0
 80064ca:	d111      	bne.n	80064f0 <_svfiprintf_r+0x104>
 80064cc:	e017      	b.n	80064fe <_svfiprintf_r+0x112>
 80064ce:	3501      	adds	r5, #1
 80064d0:	e7b0      	b.n	8006434 <_svfiprintf_r+0x48>
 80064d2:	4b41      	ldr	r3, [pc, #260]	; (80065d8 <_svfiprintf_r+0x1ec>)
 80064d4:	6822      	ldr	r2, [r4, #0]
 80064d6:	1ac0      	subs	r0, r0, r3
 80064d8:	2301      	movs	r3, #1
 80064da:	4083      	lsls	r3, r0
 80064dc:	4313      	orrs	r3, r2
 80064de:	002e      	movs	r6, r5
 80064e0:	6023      	str	r3, [r4, #0]
 80064e2:	e7ce      	b.n	8006482 <_svfiprintf_r+0x96>
 80064e4:	9b07      	ldr	r3, [sp, #28]
 80064e6:	1d19      	adds	r1, r3, #4
 80064e8:	681b      	ldr	r3, [r3, #0]
 80064ea:	9107      	str	r1, [sp, #28]
 80064ec:	2b00      	cmp	r3, #0
 80064ee:	db01      	blt.n	80064f4 <_svfiprintf_r+0x108>
 80064f0:	930b      	str	r3, [sp, #44]	; 0x2c
 80064f2:	e004      	b.n	80064fe <_svfiprintf_r+0x112>
 80064f4:	425b      	negs	r3, r3
 80064f6:	60e3      	str	r3, [r4, #12]
 80064f8:	2302      	movs	r3, #2
 80064fa:	4313      	orrs	r3, r2
 80064fc:	6023      	str	r3, [r4, #0]
 80064fe:	782b      	ldrb	r3, [r5, #0]
 8006500:	2b2e      	cmp	r3, #46	; 0x2e
 8006502:	d10a      	bne.n	800651a <_svfiprintf_r+0x12e>
 8006504:	786b      	ldrb	r3, [r5, #1]
 8006506:	2b2a      	cmp	r3, #42	; 0x2a
 8006508:	d135      	bne.n	8006576 <_svfiprintf_r+0x18a>
 800650a:	9b07      	ldr	r3, [sp, #28]
 800650c:	3502      	adds	r5, #2
 800650e:	1d1a      	adds	r2, r3, #4
 8006510:	681b      	ldr	r3, [r3, #0]
 8006512:	9207      	str	r2, [sp, #28]
 8006514:	2b00      	cmp	r3, #0
 8006516:	db2b      	blt.n	8006570 <_svfiprintf_r+0x184>
 8006518:	9309      	str	r3, [sp, #36]	; 0x24
 800651a:	4e30      	ldr	r6, [pc, #192]	; (80065dc <_svfiprintf_r+0x1f0>)
 800651c:	2203      	movs	r2, #3
 800651e:	0030      	movs	r0, r6
 8006520:	7829      	ldrb	r1, [r5, #0]
 8006522:	f000 f9e5 	bl	80068f0 <memchr>
 8006526:	2800      	cmp	r0, #0
 8006528:	d006      	beq.n	8006538 <_svfiprintf_r+0x14c>
 800652a:	2340      	movs	r3, #64	; 0x40
 800652c:	1b80      	subs	r0, r0, r6
 800652e:	4083      	lsls	r3, r0
 8006530:	6822      	ldr	r2, [r4, #0]
 8006532:	3501      	adds	r5, #1
 8006534:	4313      	orrs	r3, r2
 8006536:	6023      	str	r3, [r4, #0]
 8006538:	7829      	ldrb	r1, [r5, #0]
 800653a:	2206      	movs	r2, #6
 800653c:	4828      	ldr	r0, [pc, #160]	; (80065e0 <_svfiprintf_r+0x1f4>)
 800653e:	1c6e      	adds	r6, r5, #1
 8006540:	7621      	strb	r1, [r4, #24]
 8006542:	f000 f9d5 	bl	80068f0 <memchr>
 8006546:	2800      	cmp	r0, #0
 8006548:	d03c      	beq.n	80065c4 <_svfiprintf_r+0x1d8>
 800654a:	4b26      	ldr	r3, [pc, #152]	; (80065e4 <_svfiprintf_r+0x1f8>)
 800654c:	2b00      	cmp	r3, #0
 800654e:	d125      	bne.n	800659c <_svfiprintf_r+0x1b0>
 8006550:	2207      	movs	r2, #7
 8006552:	9b07      	ldr	r3, [sp, #28]
 8006554:	3307      	adds	r3, #7
 8006556:	4393      	bics	r3, r2
 8006558:	3308      	adds	r3, #8
 800655a:	9307      	str	r3, [sp, #28]
 800655c:	6963      	ldr	r3, [r4, #20]
 800655e:	9a04      	ldr	r2, [sp, #16]
 8006560:	189b      	adds	r3, r3, r2
 8006562:	6163      	str	r3, [r4, #20]
 8006564:	e765      	b.n	8006432 <_svfiprintf_r+0x46>
 8006566:	4343      	muls	r3, r0
 8006568:	0035      	movs	r5, r6
 800656a:	2101      	movs	r1, #1
 800656c:	189b      	adds	r3, r3, r2
 800656e:	e7a6      	b.n	80064be <_svfiprintf_r+0xd2>
 8006570:	2301      	movs	r3, #1
 8006572:	425b      	negs	r3, r3
 8006574:	e7d0      	b.n	8006518 <_svfiprintf_r+0x12c>
 8006576:	2300      	movs	r3, #0
 8006578:	200a      	movs	r0, #10
 800657a:	001a      	movs	r2, r3
 800657c:	3501      	adds	r5, #1
 800657e:	6063      	str	r3, [r4, #4]
 8006580:	7829      	ldrb	r1, [r5, #0]
 8006582:	1c6e      	adds	r6, r5, #1
 8006584:	3930      	subs	r1, #48	; 0x30
 8006586:	2909      	cmp	r1, #9
 8006588:	d903      	bls.n	8006592 <_svfiprintf_r+0x1a6>
 800658a:	2b00      	cmp	r3, #0
 800658c:	d0c5      	beq.n	800651a <_svfiprintf_r+0x12e>
 800658e:	9209      	str	r2, [sp, #36]	; 0x24
 8006590:	e7c3      	b.n	800651a <_svfiprintf_r+0x12e>
 8006592:	4342      	muls	r2, r0
 8006594:	0035      	movs	r5, r6
 8006596:	2301      	movs	r3, #1
 8006598:	1852      	adds	r2, r2, r1
 800659a:	e7f1      	b.n	8006580 <_svfiprintf_r+0x194>
 800659c:	ab07      	add	r3, sp, #28
 800659e:	9300      	str	r3, [sp, #0]
 80065a0:	003a      	movs	r2, r7
 80065a2:	0021      	movs	r1, r4
 80065a4:	4b10      	ldr	r3, [pc, #64]	; (80065e8 <_svfiprintf_r+0x1fc>)
 80065a6:	9803      	ldr	r0, [sp, #12]
 80065a8:	e000      	b.n	80065ac <_svfiprintf_r+0x1c0>
 80065aa:	bf00      	nop
 80065ac:	9004      	str	r0, [sp, #16]
 80065ae:	9b04      	ldr	r3, [sp, #16]
 80065b0:	3301      	adds	r3, #1
 80065b2:	d1d3      	bne.n	800655c <_svfiprintf_r+0x170>
 80065b4:	89bb      	ldrh	r3, [r7, #12]
 80065b6:	980d      	ldr	r0, [sp, #52]	; 0x34
 80065b8:	065b      	lsls	r3, r3, #25
 80065ba:	d400      	bmi.n	80065be <_svfiprintf_r+0x1d2>
 80065bc:	e72d      	b.n	800641a <_svfiprintf_r+0x2e>
 80065be:	2001      	movs	r0, #1
 80065c0:	4240      	negs	r0, r0
 80065c2:	e72a      	b.n	800641a <_svfiprintf_r+0x2e>
 80065c4:	ab07      	add	r3, sp, #28
 80065c6:	9300      	str	r3, [sp, #0]
 80065c8:	003a      	movs	r2, r7
 80065ca:	0021      	movs	r1, r4
 80065cc:	4b06      	ldr	r3, [pc, #24]	; (80065e8 <_svfiprintf_r+0x1fc>)
 80065ce:	9803      	ldr	r0, [sp, #12]
 80065d0:	f000 f87c 	bl	80066cc <_printf_i>
 80065d4:	e7ea      	b.n	80065ac <_svfiprintf_r+0x1c0>
 80065d6:	46c0      	nop			; (mov r8, r8)
 80065d8:	08006c1c 	.word	0x08006c1c
 80065dc:	08006c22 	.word	0x08006c22
 80065e0:	08006c26 	.word	0x08006c26
 80065e4:	00000000 	.word	0x00000000
 80065e8:	08006329 	.word	0x08006329

080065ec <_printf_common>:
 80065ec:	b5f7      	push	{r0, r1, r2, r4, r5, r6, r7, lr}
 80065ee:	0015      	movs	r5, r2
 80065f0:	9301      	str	r3, [sp, #4]
 80065f2:	688a      	ldr	r2, [r1, #8]
 80065f4:	690b      	ldr	r3, [r1, #16]
 80065f6:	000c      	movs	r4, r1
 80065f8:	9000      	str	r0, [sp, #0]
 80065fa:	4293      	cmp	r3, r2
 80065fc:	da00      	bge.n	8006600 <_printf_common+0x14>
 80065fe:	0013      	movs	r3, r2
 8006600:	0022      	movs	r2, r4
 8006602:	602b      	str	r3, [r5, #0]
 8006604:	3243      	adds	r2, #67	; 0x43
 8006606:	7812      	ldrb	r2, [r2, #0]
 8006608:	2a00      	cmp	r2, #0
 800660a:	d001      	beq.n	8006610 <_printf_common+0x24>
 800660c:	3301      	adds	r3, #1
 800660e:	602b      	str	r3, [r5, #0]
 8006610:	6823      	ldr	r3, [r4, #0]
 8006612:	069b      	lsls	r3, r3, #26
 8006614:	d502      	bpl.n	800661c <_printf_common+0x30>
 8006616:	682b      	ldr	r3, [r5, #0]
 8006618:	3302      	adds	r3, #2
 800661a:	602b      	str	r3, [r5, #0]
 800661c:	6822      	ldr	r2, [r4, #0]
 800661e:	2306      	movs	r3, #6
 8006620:	0017      	movs	r7, r2
 8006622:	401f      	ands	r7, r3
 8006624:	421a      	tst	r2, r3
 8006626:	d027      	beq.n	8006678 <_printf_common+0x8c>
 8006628:	0023      	movs	r3, r4
 800662a:	3343      	adds	r3, #67	; 0x43
 800662c:	781b      	ldrb	r3, [r3, #0]
 800662e:	1e5a      	subs	r2, r3, #1
 8006630:	4193      	sbcs	r3, r2
 8006632:	6822      	ldr	r2, [r4, #0]
 8006634:	0692      	lsls	r2, r2, #26
 8006636:	d430      	bmi.n	800669a <_printf_common+0xae>
 8006638:	0022      	movs	r2, r4
 800663a:	9901      	ldr	r1, [sp, #4]
 800663c:	9800      	ldr	r0, [sp, #0]
 800663e:	9e08      	ldr	r6, [sp, #32]
 8006640:	3243      	adds	r2, #67	; 0x43
 8006642:	47b0      	blx	r6
 8006644:	1c43      	adds	r3, r0, #1
 8006646:	d025      	beq.n	8006694 <_printf_common+0xa8>
 8006648:	2306      	movs	r3, #6
 800664a:	6820      	ldr	r0, [r4, #0]
 800664c:	682a      	ldr	r2, [r5, #0]
 800664e:	68e1      	ldr	r1, [r4, #12]
 8006650:	2500      	movs	r5, #0
 8006652:	4003      	ands	r3, r0
 8006654:	2b04      	cmp	r3, #4
 8006656:	d103      	bne.n	8006660 <_printf_common+0x74>
 8006658:	1a8d      	subs	r5, r1, r2
 800665a:	43eb      	mvns	r3, r5
 800665c:	17db      	asrs	r3, r3, #31
 800665e:	401d      	ands	r5, r3
 8006660:	68a3      	ldr	r3, [r4, #8]
 8006662:	6922      	ldr	r2, [r4, #16]
 8006664:	4293      	cmp	r3, r2
 8006666:	dd01      	ble.n	800666c <_printf_common+0x80>
 8006668:	1a9b      	subs	r3, r3, r2
 800666a:	18ed      	adds	r5, r5, r3
 800666c:	2700      	movs	r7, #0
 800666e:	42bd      	cmp	r5, r7
 8006670:	d120      	bne.n	80066b4 <_printf_common+0xc8>
 8006672:	2000      	movs	r0, #0
 8006674:	e010      	b.n	8006698 <_printf_common+0xac>
 8006676:	3701      	adds	r7, #1
 8006678:	68e3      	ldr	r3, [r4, #12]
 800667a:	682a      	ldr	r2, [r5, #0]
 800667c:	1a9b      	subs	r3, r3, r2
 800667e:	42bb      	cmp	r3, r7
 8006680:	ddd2      	ble.n	8006628 <_printf_common+0x3c>
 8006682:	0022      	movs	r2, r4
 8006684:	2301      	movs	r3, #1
 8006686:	9901      	ldr	r1, [sp, #4]
 8006688:	9800      	ldr	r0, [sp, #0]
 800668a:	9e08      	ldr	r6, [sp, #32]
 800668c:	3219      	adds	r2, #25
 800668e:	47b0      	blx	r6
 8006690:	1c43      	adds	r3, r0, #1
 8006692:	d1f0      	bne.n	8006676 <_printf_common+0x8a>
 8006694:	2001      	movs	r0, #1
 8006696:	4240      	negs	r0, r0
 8006698:	bdfe      	pop	{r1, r2, r3, r4, r5, r6, r7, pc}
 800669a:	2030      	movs	r0, #48	; 0x30
 800669c:	18e1      	adds	r1, r4, r3
 800669e:	3143      	adds	r1, #67	; 0x43
 80066a0:	7008      	strb	r0, [r1, #0]
 80066a2:	0021      	movs	r1, r4
 80066a4:	1c5a      	adds	r2, r3, #1
 80066a6:	3145      	adds	r1, #69	; 0x45
 80066a8:	7809      	ldrb	r1, [r1, #0]
 80066aa:	18a2      	adds	r2, r4, r2
 80066ac:	3243      	adds	r2, #67	; 0x43
 80066ae:	3302      	adds	r3, #2
 80066b0:	7011      	strb	r1, [r2, #0]
 80066b2:	e7c1      	b.n	8006638 <_printf_common+0x4c>
 80066b4:	0022      	movs	r2, r4
 80066b6:	2301      	movs	r3, #1
 80066b8:	9901      	ldr	r1, [sp, #4]
 80066ba:	9800      	ldr	r0, [sp, #0]
 80066bc:	9e08      	ldr	r6, [sp, #32]
 80066be:	321a      	adds	r2, #26
 80066c0:	47b0      	blx	r6
 80066c2:	1c43      	adds	r3, r0, #1
 80066c4:	d0e6      	beq.n	8006694 <_printf_common+0xa8>
 80066c6:	3701      	adds	r7, #1
 80066c8:	e7d1      	b.n	800666e <_printf_common+0x82>
	...

080066cc <_printf_i>:
 80066cc:	b5f0      	push	{r4, r5, r6, r7, lr}
 80066ce:	b08b      	sub	sp, #44	; 0x2c
 80066d0:	9206      	str	r2, [sp, #24]
 80066d2:	000a      	movs	r2, r1
 80066d4:	3243      	adds	r2, #67	; 0x43
 80066d6:	9307      	str	r3, [sp, #28]
 80066d8:	9005      	str	r0, [sp, #20]
 80066da:	9204      	str	r2, [sp, #16]
 80066dc:	7e0a      	ldrb	r2, [r1, #24]
 80066de:	000c      	movs	r4, r1
 80066e0:	9b10      	ldr	r3, [sp, #64]	; 0x40
 80066e2:	2a78      	cmp	r2, #120	; 0x78
 80066e4:	d807      	bhi.n	80066f6 <_printf_i+0x2a>
 80066e6:	2a62      	cmp	r2, #98	; 0x62
 80066e8:	d809      	bhi.n	80066fe <_printf_i+0x32>
 80066ea:	2a00      	cmp	r2, #0
 80066ec:	d100      	bne.n	80066f0 <_printf_i+0x24>
 80066ee:	e0c1      	b.n	8006874 <_printf_i+0x1a8>
 80066f0:	2a58      	cmp	r2, #88	; 0x58
 80066f2:	d100      	bne.n	80066f6 <_printf_i+0x2a>
 80066f4:	e08c      	b.n	8006810 <_printf_i+0x144>
 80066f6:	0026      	movs	r6, r4
 80066f8:	3642      	adds	r6, #66	; 0x42
 80066fa:	7032      	strb	r2, [r6, #0]
 80066fc:	e022      	b.n	8006744 <_printf_i+0x78>
 80066fe:	0010      	movs	r0, r2
 8006700:	3863      	subs	r0, #99	; 0x63
 8006702:	2815      	cmp	r0, #21
 8006704:	d8f7      	bhi.n	80066f6 <_printf_i+0x2a>
 8006706:	f7f9 fd07 	bl	8000118 <__gnu_thumb1_case_shi>
 800670a:	0016      	.short	0x0016
 800670c:	fff6001f 	.word	0xfff6001f
 8006710:	fff6fff6 	.word	0xfff6fff6
 8006714:	001ffff6 	.word	0x001ffff6
 8006718:	fff6fff6 	.word	0xfff6fff6
 800671c:	fff6fff6 	.word	0xfff6fff6
 8006720:	003600a8 	.word	0x003600a8
 8006724:	fff6009a 	.word	0xfff6009a
 8006728:	00b9fff6 	.word	0x00b9fff6
 800672c:	0036fff6 	.word	0x0036fff6
 8006730:	fff6fff6 	.word	0xfff6fff6
 8006734:	009e      	.short	0x009e
 8006736:	0026      	movs	r6, r4
 8006738:	681a      	ldr	r2, [r3, #0]
 800673a:	3642      	adds	r6, #66	; 0x42
 800673c:	1d11      	adds	r1, r2, #4
 800673e:	6019      	str	r1, [r3, #0]
 8006740:	6813      	ldr	r3, [r2, #0]
 8006742:	7033      	strb	r3, [r6, #0]
 8006744:	2301      	movs	r3, #1
 8006746:	e0a7      	b.n	8006898 <_printf_i+0x1cc>
 8006748:	6808      	ldr	r0, [r1, #0]
 800674a:	6819      	ldr	r1, [r3, #0]
 800674c:	1d0a      	adds	r2, r1, #4
 800674e:	0605      	lsls	r5, r0, #24
 8006750:	d50b      	bpl.n	800676a <_printf_i+0x9e>
 8006752:	680d      	ldr	r5, [r1, #0]
 8006754:	601a      	str	r2, [r3, #0]
 8006756:	2d00      	cmp	r5, #0
 8006758:	da03      	bge.n	8006762 <_printf_i+0x96>
 800675a:	232d      	movs	r3, #45	; 0x2d
 800675c:	9a04      	ldr	r2, [sp, #16]
 800675e:	426d      	negs	r5, r5
 8006760:	7013      	strb	r3, [r2, #0]
 8006762:	4b61      	ldr	r3, [pc, #388]	; (80068e8 <_printf_i+0x21c>)
 8006764:	270a      	movs	r7, #10
 8006766:	9303      	str	r3, [sp, #12]
 8006768:	e01b      	b.n	80067a2 <_printf_i+0xd6>
 800676a:	680d      	ldr	r5, [r1, #0]
 800676c:	601a      	str	r2, [r3, #0]
 800676e:	0641      	lsls	r1, r0, #25
 8006770:	d5f1      	bpl.n	8006756 <_printf_i+0x8a>
 8006772:	b22d      	sxth	r5, r5
 8006774:	e7ef      	b.n	8006756 <_printf_i+0x8a>
 8006776:	680d      	ldr	r5, [r1, #0]
 8006778:	6819      	ldr	r1, [r3, #0]
 800677a:	1d08      	adds	r0, r1, #4
 800677c:	6018      	str	r0, [r3, #0]
 800677e:	062e      	lsls	r6, r5, #24
 8006780:	d501      	bpl.n	8006786 <_printf_i+0xba>
 8006782:	680d      	ldr	r5, [r1, #0]
 8006784:	e003      	b.n	800678e <_printf_i+0xc2>
 8006786:	066d      	lsls	r5, r5, #25
 8006788:	d5fb      	bpl.n	8006782 <_printf_i+0xb6>
 800678a:	680d      	ldr	r5, [r1, #0]
 800678c:	b2ad      	uxth	r5, r5
 800678e:	4b56      	ldr	r3, [pc, #344]	; (80068e8 <_printf_i+0x21c>)
 8006790:	2708      	movs	r7, #8
 8006792:	9303      	str	r3, [sp, #12]
 8006794:	2a6f      	cmp	r2, #111	; 0x6f
 8006796:	d000      	beq.n	800679a <_printf_i+0xce>
 8006798:	3702      	adds	r7, #2
 800679a:	0023      	movs	r3, r4
 800679c:	2200      	movs	r2, #0
 800679e:	3343      	adds	r3, #67	; 0x43
 80067a0:	701a      	strb	r2, [r3, #0]
 80067a2:	6863      	ldr	r3, [r4, #4]
 80067a4:	60a3      	str	r3, [r4, #8]
 80067a6:	2b00      	cmp	r3, #0
 80067a8:	db03      	blt.n	80067b2 <_printf_i+0xe6>
 80067aa:	2204      	movs	r2, #4
 80067ac:	6821      	ldr	r1, [r4, #0]
 80067ae:	4391      	bics	r1, r2
 80067b0:	6021      	str	r1, [r4, #0]
 80067b2:	2d00      	cmp	r5, #0
 80067b4:	d102      	bne.n	80067bc <_printf_i+0xf0>
 80067b6:	9e04      	ldr	r6, [sp, #16]
 80067b8:	2b00      	cmp	r3, #0
 80067ba:	d00c      	beq.n	80067d6 <_printf_i+0x10a>
 80067bc:	9e04      	ldr	r6, [sp, #16]
 80067be:	0028      	movs	r0, r5
 80067c0:	0039      	movs	r1, r7
 80067c2:	f7f9 fd39 	bl	8000238 <__aeabi_uidivmod>
 80067c6:	9b03      	ldr	r3, [sp, #12]
 80067c8:	3e01      	subs	r6, #1
 80067ca:	5c5b      	ldrb	r3, [r3, r1]
 80067cc:	7033      	strb	r3, [r6, #0]
 80067ce:	002b      	movs	r3, r5
 80067d0:	0005      	movs	r5, r0
 80067d2:	429f      	cmp	r7, r3
 80067d4:	d9f3      	bls.n	80067be <_printf_i+0xf2>
 80067d6:	2f08      	cmp	r7, #8
 80067d8:	d109      	bne.n	80067ee <_printf_i+0x122>
 80067da:	6823      	ldr	r3, [r4, #0]
 80067dc:	07db      	lsls	r3, r3, #31
 80067de:	d506      	bpl.n	80067ee <_printf_i+0x122>
 80067e0:	6863      	ldr	r3, [r4, #4]
 80067e2:	6922      	ldr	r2, [r4, #16]
 80067e4:	4293      	cmp	r3, r2
 80067e6:	dc02      	bgt.n	80067ee <_printf_i+0x122>
 80067e8:	2330      	movs	r3, #48	; 0x30
 80067ea:	3e01      	subs	r6, #1
 80067ec:	7033      	strb	r3, [r6, #0]
 80067ee:	9b04      	ldr	r3, [sp, #16]
 80067f0:	1b9b      	subs	r3, r3, r6
 80067f2:	6123      	str	r3, [r4, #16]
 80067f4:	9b07      	ldr	r3, [sp, #28]
 80067f6:	0021      	movs	r1, r4
 80067f8:	9300      	str	r3, [sp, #0]
 80067fa:	9805      	ldr	r0, [sp, #20]
 80067fc:	9b06      	ldr	r3, [sp, #24]
 80067fe:	aa09      	add	r2, sp, #36	; 0x24
 8006800:	f7ff fef4 	bl	80065ec <_printf_common>
 8006804:	1c43      	adds	r3, r0, #1
 8006806:	d14c      	bne.n	80068a2 <_printf_i+0x1d6>
 8006808:	2001      	movs	r0, #1
 800680a:	4240      	negs	r0, r0
 800680c:	b00b      	add	sp, #44	; 0x2c
 800680e:	bdf0      	pop	{r4, r5, r6, r7, pc}
 8006810:	3145      	adds	r1, #69	; 0x45
 8006812:	700a      	strb	r2, [r1, #0]
 8006814:	4a34      	ldr	r2, [pc, #208]	; (80068e8 <_printf_i+0x21c>)
 8006816:	9203      	str	r2, [sp, #12]
 8006818:	681a      	ldr	r2, [r3, #0]
 800681a:	6821      	ldr	r1, [r4, #0]
 800681c:	ca20      	ldmia	r2!, {r5}
 800681e:	601a      	str	r2, [r3, #0]
 8006820:	0608      	lsls	r0, r1, #24
 8006822:	d516      	bpl.n	8006852 <_printf_i+0x186>
 8006824:	07cb      	lsls	r3, r1, #31
 8006826:	d502      	bpl.n	800682e <_printf_i+0x162>
 8006828:	2320      	movs	r3, #32
 800682a:	4319      	orrs	r1, r3
 800682c:	6021      	str	r1, [r4, #0]
 800682e:	2710      	movs	r7, #16
 8006830:	2d00      	cmp	r5, #0
 8006832:	d1b2      	bne.n	800679a <_printf_i+0xce>
 8006834:	2320      	movs	r3, #32
 8006836:	6822      	ldr	r2, [r4, #0]
 8006838:	439a      	bics	r2, r3
 800683a:	6022      	str	r2, [r4, #0]
 800683c:	e7ad      	b.n	800679a <_printf_i+0xce>
 800683e:	2220      	movs	r2, #32
 8006840:	6809      	ldr	r1, [r1, #0]
 8006842:	430a      	orrs	r2, r1
 8006844:	6022      	str	r2, [r4, #0]
 8006846:	0022      	movs	r2, r4
 8006848:	2178      	movs	r1, #120	; 0x78
 800684a:	3245      	adds	r2, #69	; 0x45
 800684c:	7011      	strb	r1, [r2, #0]
 800684e:	4a27      	ldr	r2, [pc, #156]	; (80068ec <_printf_i+0x220>)
 8006850:	e7e1      	b.n	8006816 <_printf_i+0x14a>
 8006852:	0648      	lsls	r0, r1, #25
 8006854:	d5e6      	bpl.n	8006824 <_printf_i+0x158>
 8006856:	b2ad      	uxth	r5, r5
 8006858:	e7e4      	b.n	8006824 <_printf_i+0x158>
 800685a:	681a      	ldr	r2, [r3, #0]
 800685c:	680d      	ldr	r5, [r1, #0]
 800685e:	1d10      	adds	r0, r2, #4
 8006860:	6949      	ldr	r1, [r1, #20]
 8006862:	6018      	str	r0, [r3, #0]
 8006864:	6813      	ldr	r3, [r2, #0]
 8006866:	062e      	lsls	r6, r5, #24
 8006868:	d501      	bpl.n	800686e <_printf_i+0x1a2>
 800686a:	6019      	str	r1, [r3, #0]
 800686c:	e002      	b.n	8006874 <_printf_i+0x1a8>
 800686e:	066d      	lsls	r5, r5, #25
 8006870:	d5fb      	bpl.n	800686a <_printf_i+0x19e>
 8006872:	8019      	strh	r1, [r3, #0]
 8006874:	2300      	movs	r3, #0
 8006876:	9e04      	ldr	r6, [sp, #16]
 8006878:	6123      	str	r3, [r4, #16]
 800687a:	e7bb      	b.n	80067f4 <_printf_i+0x128>
 800687c:	681a      	ldr	r2, [r3, #0]
 800687e:	1d11      	adds	r1, r2, #4
 8006880:	6019      	str	r1, [r3, #0]
 8006882:	6816      	ldr	r6, [r2, #0]
 8006884:	2100      	movs	r1, #0
 8006886:	0030      	movs	r0, r6
 8006888:	6862      	ldr	r2, [r4, #4]
 800688a:	f000 f831 	bl	80068f0 <memchr>
 800688e:	2800      	cmp	r0, #0
 8006890:	d001      	beq.n	8006896 <_printf_i+0x1ca>
 8006892:	1b80      	subs	r0, r0, r6
 8006894:	6060      	str	r0, [r4, #4]
 8006896:	6863      	ldr	r3, [r4, #4]
 8006898:	6123      	str	r3, [r4, #16]
 800689a:	2300      	movs	r3, #0
 800689c:	9a04      	ldr	r2, [sp, #16]
 800689e:	7013      	strb	r3, [r2, #0]
 80068a0:	e7a8      	b.n	80067f4 <_printf_i+0x128>
 80068a2:	6923      	ldr	r3, [r4, #16]
 80068a4:	0032      	movs	r2, r6
 80068a6:	9906      	ldr	r1, [sp, #24]
 80068a8:	9805      	ldr	r0, [sp, #20]
 80068aa:	9d07      	ldr	r5, [sp, #28]
 80068ac:	47a8      	blx	r5
 80068ae:	1c43      	adds	r3, r0, #1
 80068b0:	d0aa      	beq.n	8006808 <_printf_i+0x13c>
 80068b2:	6823      	ldr	r3, [r4, #0]
 80068b4:	079b      	lsls	r3, r3, #30
 80068b6:	d415      	bmi.n	80068e4 <_printf_i+0x218>
 80068b8:	9b09      	ldr	r3, [sp, #36]	; 0x24
 80068ba:	68e0      	ldr	r0, [r4, #12]
 80068bc:	4298      	cmp	r0, r3
 80068be:	daa5      	bge.n	800680c <_printf_i+0x140>
 80068c0:	0018      	movs	r0, r3
 80068c2:	e7a3      	b.n	800680c <_printf_i+0x140>
 80068c4:	0022      	movs	r2, r4
 80068c6:	2301      	movs	r3, #1
 80068c8:	9906      	ldr	r1, [sp, #24]
 80068ca:	9805      	ldr	r0, [sp, #20]
 80068cc:	9e07      	ldr	r6, [sp, #28]
 80068ce:	3219      	adds	r2, #25
 80068d0:	47b0      	blx	r6
 80068d2:	1c43      	adds	r3, r0, #1
 80068d4:	d098      	beq.n	8006808 <_printf_i+0x13c>
 80068d6:	3501      	adds	r5, #1
 80068d8:	68e3      	ldr	r3, [r4, #12]
 80068da:	9a09      	ldr	r2, [sp, #36]	; 0x24
 80068dc:	1a9b      	subs	r3, r3, r2
 80068de:	42ab      	cmp	r3, r5
 80068e0:	dcf0      	bgt.n	80068c4 <_printf_i+0x1f8>
 80068e2:	e7e9      	b.n	80068b8 <_printf_i+0x1ec>
 80068e4:	2500      	movs	r5, #0
 80068e6:	e7f7      	b.n	80068d8 <_printf_i+0x20c>
 80068e8:	08006c2d 	.word	0x08006c2d
 80068ec:	08006c3e 	.word	0x08006c3e

080068f0 <memchr>:
 80068f0:	b2c9      	uxtb	r1, r1
 80068f2:	1882      	adds	r2, r0, r2
 80068f4:	4290      	cmp	r0, r2
 80068f6:	d101      	bne.n	80068fc <memchr+0xc>
 80068f8:	2000      	movs	r0, #0
 80068fa:	4770      	bx	lr
 80068fc:	7803      	ldrb	r3, [r0, #0]
 80068fe:	428b      	cmp	r3, r1
 8006900:	d0fb      	beq.n	80068fa <memchr+0xa>
 8006902:	3001      	adds	r0, #1
 8006904:	e7f6      	b.n	80068f4 <memchr+0x4>

08006906 <memcpy>:
 8006906:	2300      	movs	r3, #0
 8006908:	b510      	push	{r4, lr}
 800690a:	429a      	cmp	r2, r3
 800690c:	d100      	bne.n	8006910 <memcpy+0xa>
 800690e:	bd10      	pop	{r4, pc}
 8006910:	5ccc      	ldrb	r4, [r1, r3]
 8006912:	54c4      	strb	r4, [r0, r3]
 8006914:	3301      	adds	r3, #1
 8006916:	e7f8      	b.n	800690a <memcpy+0x4>

08006918 <memmove>:
 8006918:	b510      	push	{r4, lr}
 800691a:	4288      	cmp	r0, r1
 800691c:	d902      	bls.n	8006924 <memmove+0xc>
 800691e:	188b      	adds	r3, r1, r2
 8006920:	4298      	cmp	r0, r3
 8006922:	d303      	bcc.n	800692c <memmove+0x14>
 8006924:	2300      	movs	r3, #0
 8006926:	e007      	b.n	8006938 <memmove+0x20>
 8006928:	5c8b      	ldrb	r3, [r1, r2]
 800692a:	5483      	strb	r3, [r0, r2]
 800692c:	3a01      	subs	r2, #1
 800692e:	d2fb      	bcs.n	8006928 <memmove+0x10>
 8006930:	bd10      	pop	{r4, pc}
 8006932:	5ccc      	ldrb	r4, [r1, r3]
 8006934:	54c4      	strb	r4, [r0, r3]
 8006936:	3301      	adds	r3, #1
 8006938:	429a      	cmp	r2, r3
 800693a:	d1fa      	bne.n	8006932 <memmove+0x1a>
 800693c:	e7f8      	b.n	8006930 <memmove+0x18>
	...

08006940 <_free_r>:
 8006940:	b570      	push	{r4, r5, r6, lr}
 8006942:	0005      	movs	r5, r0
 8006944:	2900      	cmp	r1, #0
 8006946:	d010      	beq.n	800696a <_free_r+0x2a>
 8006948:	1f0c      	subs	r4, r1, #4
 800694a:	6823      	ldr	r3, [r4, #0]
 800694c:	2b00      	cmp	r3, #0
 800694e:	da00      	bge.n	8006952 <_free_r+0x12>
 8006950:	18e4      	adds	r4, r4, r3
 8006952:	0028      	movs	r0, r5
 8006954:	f000 f918 	bl	8006b88 <__malloc_lock>
 8006958:	4a1d      	ldr	r2, [pc, #116]	; (80069d0 <_free_r+0x90>)
 800695a:	6813      	ldr	r3, [r2, #0]
 800695c:	2b00      	cmp	r3, #0
 800695e:	d105      	bne.n	800696c <_free_r+0x2c>
 8006960:	6063      	str	r3, [r4, #4]
 8006962:	6014      	str	r4, [r2, #0]
 8006964:	0028      	movs	r0, r5
 8006966:	f000 f917 	bl	8006b98 <__malloc_unlock>
 800696a:	bd70      	pop	{r4, r5, r6, pc}
 800696c:	42a3      	cmp	r3, r4
 800696e:	d908      	bls.n	8006982 <_free_r+0x42>
 8006970:	6821      	ldr	r1, [r4, #0]
 8006972:	1860      	adds	r0, r4, r1
 8006974:	4283      	cmp	r3, r0
 8006976:	d1f3      	bne.n	8006960 <_free_r+0x20>
 8006978:	6818      	ldr	r0, [r3, #0]
 800697a:	685b      	ldr	r3, [r3, #4]
 800697c:	1841      	adds	r1, r0, r1
 800697e:	6021      	str	r1, [r4, #0]
 8006980:	e7ee      	b.n	8006960 <_free_r+0x20>
 8006982:	001a      	movs	r2, r3
 8006984:	685b      	ldr	r3, [r3, #4]
 8006986:	2b00      	cmp	r3, #0
 8006988:	d001      	beq.n	800698e <_free_r+0x4e>
 800698a:	42a3      	cmp	r3, r4
 800698c:	d9f9      	bls.n	8006982 <_free_r+0x42>
 800698e:	6811      	ldr	r1, [r2, #0]
 8006990:	1850      	adds	r0, r2, r1
 8006992:	42a0      	cmp	r0, r4
 8006994:	d10b      	bne.n	80069ae <_free_r+0x6e>
 8006996:	6820      	ldr	r0, [r4, #0]
 8006998:	1809      	adds	r1, r1, r0
 800699a:	1850      	adds	r0, r2, r1
 800699c:	6011      	str	r1, [r2, #0]
 800699e:	4283      	cmp	r3, r0
 80069a0:	d1e0      	bne.n	8006964 <_free_r+0x24>
 80069a2:	6818      	ldr	r0, [r3, #0]
 80069a4:	685b      	ldr	r3, [r3, #4]
 80069a6:	1841      	adds	r1, r0, r1
 80069a8:	6011      	str	r1, [r2, #0]
 80069aa:	6053      	str	r3, [r2, #4]
 80069ac:	e7da      	b.n	8006964 <_free_r+0x24>
 80069ae:	42a0      	cmp	r0, r4
 80069b0:	d902      	bls.n	80069b8 <_free_r+0x78>
 80069b2:	230c      	movs	r3, #12
 80069b4:	602b      	str	r3, [r5, #0]
 80069b6:	e7d5      	b.n	8006964 <_free_r+0x24>
 80069b8:	6821      	ldr	r1, [r4, #0]
 80069ba:	1860      	adds	r0, r4, r1
 80069bc:	4283      	cmp	r3, r0
 80069be:	d103      	bne.n	80069c8 <_free_r+0x88>
 80069c0:	6818      	ldr	r0, [r3, #0]
 80069c2:	685b      	ldr	r3, [r3, #4]
 80069c4:	1841      	adds	r1, r0, r1
 80069c6:	6021      	str	r1, [r4, #0]
 80069c8:	6063      	str	r3, [r4, #4]
 80069ca:	6054      	str	r4, [r2, #4]
 80069cc:	e7ca      	b.n	8006964 <_free_r+0x24>
 80069ce:	46c0      	nop			; (mov r8, r8)
 80069d0:	200002b0 	.word	0x200002b0

080069d4 <sbrk_aligned>:
 80069d4:	b570      	push	{r4, r5, r6, lr}
 80069d6:	4e0f      	ldr	r6, [pc, #60]	; (8006a14 <sbrk_aligned+0x40>)
 80069d8:	000d      	movs	r5, r1
 80069da:	6831      	ldr	r1, [r6, #0]
 80069dc:	0004      	movs	r4, r0
 80069de:	2900      	cmp	r1, #0
 80069e0:	d102      	bne.n	80069e8 <sbrk_aligned+0x14>
 80069e2:	f000 f8bf 	bl	8006b64 <_sbrk_r>
 80069e6:	6030      	str	r0, [r6, #0]
 80069e8:	0029      	movs	r1, r5
 80069ea:	0020      	movs	r0, r4
 80069ec:	f000 f8ba 	bl	8006b64 <_sbrk_r>
 80069f0:	1c43      	adds	r3, r0, #1
 80069f2:	d00a      	beq.n	8006a0a <sbrk_aligned+0x36>
 80069f4:	2303      	movs	r3, #3
 80069f6:	1cc5      	adds	r5, r0, #3
 80069f8:	439d      	bics	r5, r3
 80069fa:	42a8      	cmp	r0, r5
 80069fc:	d007      	beq.n	8006a0e <sbrk_aligned+0x3a>
 80069fe:	1a29      	subs	r1, r5, r0
 8006a00:	0020      	movs	r0, r4
 8006a02:	f000 f8af 	bl	8006b64 <_sbrk_r>
 8006a06:	1c43      	adds	r3, r0, #1
 8006a08:	d101      	bne.n	8006a0e <sbrk_aligned+0x3a>
 8006a0a:	2501      	movs	r5, #1
 8006a0c:	426d      	negs	r5, r5
 8006a0e:	0028      	movs	r0, r5
 8006a10:	bd70      	pop	{r4, r5, r6, pc}
 8006a12:	46c0      	nop			; (mov r8, r8)
 8006a14:	200002b4 	.word	0x200002b4

08006a18 <_malloc_r>:
 8006a18:	b5f7      	push	{r0, r1, r2, r4, r5, r6, r7, lr}
 8006a1a:	2203      	movs	r2, #3
 8006a1c:	1ccb      	adds	r3, r1, #3
 8006a1e:	4393      	bics	r3, r2
 8006a20:	3308      	adds	r3, #8
 8006a22:	0006      	movs	r6, r0
 8006a24:	001f      	movs	r7, r3
 8006a26:	2b0c      	cmp	r3, #12
 8006a28:	d232      	bcs.n	8006a90 <_malloc_r+0x78>
 8006a2a:	270c      	movs	r7, #12
 8006a2c:	42b9      	cmp	r1, r7
 8006a2e:	d831      	bhi.n	8006a94 <_malloc_r+0x7c>
 8006a30:	0030      	movs	r0, r6
 8006a32:	f000 f8a9 	bl	8006b88 <__malloc_lock>
 8006a36:	4d32      	ldr	r5, [pc, #200]	; (8006b00 <_malloc_r+0xe8>)
 8006a38:	682b      	ldr	r3, [r5, #0]
 8006a3a:	001c      	movs	r4, r3
 8006a3c:	2c00      	cmp	r4, #0
 8006a3e:	d12e      	bne.n	8006a9e <_malloc_r+0x86>
 8006a40:	0039      	movs	r1, r7
 8006a42:	0030      	movs	r0, r6
 8006a44:	f7ff ffc6 	bl	80069d4 <sbrk_aligned>
 8006a48:	0004      	movs	r4, r0
 8006a4a:	1c43      	adds	r3, r0, #1
 8006a4c:	d11e      	bne.n	8006a8c <_malloc_r+0x74>
 8006a4e:	682c      	ldr	r4, [r5, #0]
 8006a50:	0025      	movs	r5, r4
 8006a52:	2d00      	cmp	r5, #0
 8006a54:	d14a      	bne.n	8006aec <_malloc_r+0xd4>
 8006a56:	6823      	ldr	r3, [r4, #0]
 8006a58:	0029      	movs	r1, r5
 8006a5a:	18e3      	adds	r3, r4, r3
 8006a5c:	0030      	movs	r0, r6
 8006a5e:	9301      	str	r3, [sp, #4]
 8006a60:	f000 f880 	bl	8006b64 <_sbrk_r>
 8006a64:	9b01      	ldr	r3, [sp, #4]
 8006a66:	4283      	cmp	r3, r0
 8006a68:	d143      	bne.n	8006af2 <_malloc_r+0xda>
 8006a6a:	6823      	ldr	r3, [r4, #0]
 8006a6c:	3703      	adds	r7, #3
 8006a6e:	1aff      	subs	r7, r7, r3
 8006a70:	2303      	movs	r3, #3
 8006a72:	439f      	bics	r7, r3
 8006a74:	3708      	adds	r7, #8
 8006a76:	2f0c      	cmp	r7, #12
 8006a78:	d200      	bcs.n	8006a7c <_malloc_r+0x64>
 8006a7a:	270c      	movs	r7, #12
 8006a7c:	0039      	movs	r1, r7
 8006a7e:	0030      	movs	r0, r6
 8006a80:	f7ff ffa8 	bl	80069d4 <sbrk_aligned>
 8006a84:	1c43      	adds	r3, r0, #1
 8006a86:	d034      	beq.n	8006af2 <_malloc_r+0xda>
 8006a88:	6823      	ldr	r3, [r4, #0]
 8006a8a:	19df      	adds	r7, r3, r7
 8006a8c:	6027      	str	r7, [r4, #0]
 8006a8e:	e013      	b.n	8006ab8 <_malloc_r+0xa0>
 8006a90:	2b00      	cmp	r3, #0
 8006a92:	dacb      	bge.n	8006a2c <_malloc_r+0x14>
 8006a94:	230c      	movs	r3, #12
 8006a96:	2500      	movs	r5, #0
 8006a98:	6033      	str	r3, [r6, #0]
 8006a9a:	0028      	movs	r0, r5
 8006a9c:	bdfe      	pop	{r1, r2, r3, r4, r5, r6, r7, pc}
 8006a9e:	6822      	ldr	r2, [r4, #0]
 8006aa0:	1bd1      	subs	r1, r2, r7
 8006aa2:	d420      	bmi.n	8006ae6 <_malloc_r+0xce>
 8006aa4:	290b      	cmp	r1, #11
 8006aa6:	d917      	bls.n	8006ad8 <_malloc_r+0xc0>
 8006aa8:	19e2      	adds	r2, r4, r7
 8006aaa:	6027      	str	r7, [r4, #0]
 8006aac:	42a3      	cmp	r3, r4
 8006aae:	d111      	bne.n	8006ad4 <_malloc_r+0xbc>
 8006ab0:	602a      	str	r2, [r5, #0]
 8006ab2:	6863      	ldr	r3, [r4, #4]
 8006ab4:	6011      	str	r1, [r2, #0]
 8006ab6:	6053      	str	r3, [r2, #4]
 8006ab8:	0030      	movs	r0, r6
 8006aba:	0025      	movs	r5, r4
 8006abc:	f000 f86c 	bl	8006b98 <__malloc_unlock>
 8006ac0:	2207      	movs	r2, #7
 8006ac2:	350b      	adds	r5, #11
 8006ac4:	1d23      	adds	r3, r4, #4
 8006ac6:	4395      	bics	r5, r2
 8006ac8:	1aea      	subs	r2, r5, r3
 8006aca:	429d      	cmp	r5, r3
 8006acc:	d0e5      	beq.n	8006a9a <_malloc_r+0x82>
 8006ace:	1b5b      	subs	r3, r3, r5
 8006ad0:	50a3      	str	r3, [r4, r2]
 8006ad2:	e7e2      	b.n	8006a9a <_malloc_r+0x82>
 8006ad4:	605a      	str	r2, [r3, #4]
 8006ad6:	e7ec      	b.n	8006ab2 <_malloc_r+0x9a>
 8006ad8:	6862      	ldr	r2, [r4, #4]
 8006ada:	42a3      	cmp	r3, r4
 8006adc:	d101      	bne.n	8006ae2 <_malloc_r+0xca>
 8006ade:	602a      	str	r2, [r5, #0]
 8006ae0:	e7ea      	b.n	8006ab8 <_malloc_r+0xa0>
 8006ae2:	605a      	str	r2, [r3, #4]
 8006ae4:	e7e8      	b.n	8006ab8 <_malloc_r+0xa0>
 8006ae6:	0023      	movs	r3, r4
 8006ae8:	6864      	ldr	r4, [r4, #4]
 8006aea:	e7a7      	b.n	8006a3c <_malloc_r+0x24>
 8006aec:	002c      	movs	r4, r5
 8006aee:	686d      	ldr	r5, [r5, #4]
 8006af0:	e7af      	b.n	8006a52 <_malloc_r+0x3a>
 8006af2:	230c      	movs	r3, #12
 8006af4:	0030      	movs	r0, r6
 8006af6:	6033      	str	r3, [r6, #0]
 8006af8:	f000 f84e 	bl	8006b98 <__malloc_unlock>
 8006afc:	e7cd      	b.n	8006a9a <_malloc_r+0x82>
 8006afe:	46c0      	nop			; (mov r8, r8)
 8006b00:	200002b0 	.word	0x200002b0

08006b04 <_realloc_r>:
 8006b04:	b5f7      	push	{r0, r1, r2, r4, r5, r6, r7, lr}
 8006b06:	0007      	movs	r7, r0
 8006b08:	000e      	movs	r6, r1
 8006b0a:	0014      	movs	r4, r2
 8006b0c:	2900      	cmp	r1, #0
 8006b0e:	d105      	bne.n	8006b1c <_realloc_r+0x18>
 8006b10:	0011      	movs	r1, r2
 8006b12:	f7ff ff81 	bl	8006a18 <_malloc_r>
 8006b16:	0005      	movs	r5, r0
 8006b18:	0028      	movs	r0, r5
 8006b1a:	bdfe      	pop	{r1, r2, r3, r4, r5, r6, r7, pc}
 8006b1c:	2a00      	cmp	r2, #0
 8006b1e:	d103      	bne.n	8006b28 <_realloc_r+0x24>
 8006b20:	f7ff ff0e 	bl	8006940 <_free_r>
 8006b24:	0025      	movs	r5, r4
 8006b26:	e7f7      	b.n	8006b18 <_realloc_r+0x14>
 8006b28:	f000 f83e 	bl	8006ba8 <_malloc_usable_size_r>
 8006b2c:	9001      	str	r0, [sp, #4]
 8006b2e:	4284      	cmp	r4, r0
 8006b30:	d803      	bhi.n	8006b3a <_realloc_r+0x36>
 8006b32:	0035      	movs	r5, r6
 8006b34:	0843      	lsrs	r3, r0, #1
 8006b36:	42a3      	cmp	r3, r4
 8006b38:	d3ee      	bcc.n	8006b18 <_realloc_r+0x14>
 8006b3a:	0021      	movs	r1, r4
 8006b3c:	0038      	movs	r0, r7
 8006b3e:	f7ff ff6b 	bl	8006a18 <_malloc_r>
 8006b42:	1e05      	subs	r5, r0, #0
 8006b44:	d0e8      	beq.n	8006b18 <_realloc_r+0x14>
 8006b46:	9b01      	ldr	r3, [sp, #4]
 8006b48:	0022      	movs	r2, r4
 8006b4a:	429c      	cmp	r4, r3
 8006b4c:	d900      	bls.n	8006b50 <_realloc_r+0x4c>
 8006b4e:	001a      	movs	r2, r3
 8006b50:	0031      	movs	r1, r6
 8006b52:	0028      	movs	r0, r5
 8006b54:	f7ff fed7 	bl	8006906 <memcpy>
 8006b58:	0031      	movs	r1, r6
 8006b5a:	0038      	movs	r0, r7
 8006b5c:	f7ff fef0 	bl	8006940 <_free_r>
 8006b60:	e7da      	b.n	8006b18 <_realloc_r+0x14>
	...

08006b64 <_sbrk_r>:
 8006b64:	2300      	movs	r3, #0
 8006b66:	b570      	push	{r4, r5, r6, lr}
 8006b68:	4d06      	ldr	r5, [pc, #24]	; (8006b84 <_sbrk_r+0x20>)
 8006b6a:	0004      	movs	r4, r0
 8006b6c:	0008      	movs	r0, r1
 8006b6e:	602b      	str	r3, [r5, #0]
 8006b70:	f7fa fbc0 	bl	80012f4 <_sbrk>
 8006b74:	1c43      	adds	r3, r0, #1
 8006b76:	d103      	bne.n	8006b80 <_sbrk_r+0x1c>
 8006b78:	682b      	ldr	r3, [r5, #0]
 8006b7a:	2b00      	cmp	r3, #0
 8006b7c:	d000      	beq.n	8006b80 <_sbrk_r+0x1c>
 8006b7e:	6023      	str	r3, [r4, #0]
 8006b80:	bd70      	pop	{r4, r5, r6, pc}
 8006b82:	46c0      	nop			; (mov r8, r8)
 8006b84:	200002b8 	.word	0x200002b8

08006b88 <__malloc_lock>:
 8006b88:	b510      	push	{r4, lr}
 8006b8a:	4802      	ldr	r0, [pc, #8]	; (8006b94 <__malloc_lock+0xc>)
 8006b8c:	f000 f814 	bl	8006bb8 <__retarget_lock_acquire_recursive>
 8006b90:	bd10      	pop	{r4, pc}
 8006b92:	46c0      	nop			; (mov r8, r8)
 8006b94:	200002bc 	.word	0x200002bc

08006b98 <__malloc_unlock>:
 8006b98:	b510      	push	{r4, lr}
 8006b9a:	4802      	ldr	r0, [pc, #8]	; (8006ba4 <__malloc_unlock+0xc>)
 8006b9c:	f000 f80d 	bl	8006bba <__retarget_lock_release_recursive>
 8006ba0:	bd10      	pop	{r4, pc}
 8006ba2:	46c0      	nop			; (mov r8, r8)
 8006ba4:	200002bc 	.word	0x200002bc

08006ba8 <_malloc_usable_size_r>:
 8006ba8:	1f0b      	subs	r3, r1, #4
 8006baa:	681b      	ldr	r3, [r3, #0]
 8006bac:	1f18      	subs	r0, r3, #4
 8006bae:	2b00      	cmp	r3, #0
 8006bb0:	da01      	bge.n	8006bb6 <_malloc_usable_size_r+0xe>
 8006bb2:	580b      	ldr	r3, [r1, r0]
 8006bb4:	18c0      	adds	r0, r0, r3
 8006bb6:	4770      	bx	lr

08006bb8 <__retarget_lock_acquire_recursive>:
 8006bb8:	4770      	bx	lr

08006bba <__retarget_lock_release_recursive>:
 8006bba:	4770      	bx	lr

08006bbc <_init>:
 8006bbc:	b5f8      	push	{r3, r4, r5, r6, r7, lr}
 8006bbe:	46c0      	nop			; (mov r8, r8)
 8006bc0:	bcf8      	pop	{r3, r4, r5, r6, r7}
 8006bc2:	bc08      	pop	{r3}
 8006bc4:	469e      	mov	lr, r3
 8006bc6:	4770      	bx	lr

08006bc8 <_fini>:
 8006bc8:	b5f8      	push	{r3, r4, r5, r6, r7, lr}
 8006bca:	46c0      	nop			; (mov r8, r8)
 8006bcc:	bcf8      	pop	{r3, r4, r5, r6, r7}
 8006bce:	bc08      	pop	{r3}
 8006bd0:	469e      	mov	lr, r3
 8006bd2:	4770      	bx	lr
