
O32controller_FW.elf:     file format elf32-littlearm

Sections:
Idx Name          Size      VMA       LMA       File off  Algn
  0 .isr_vector   000000c0  08000000  08000000  00010000  2**0
                  CONTENTS, ALLOC, LOAD, READONLY, DATA
  1 .text         0000556c  080000c0  080000c0  000100c0  2**2
                  CONTENTS, ALLOC, LOAD, READONLY, CODE
  2 .rodata       0000010c  0800562c  0800562c  0001562c  2**2
                  CONTENTS, ALLOC, LOAD, READONLY, DATA
  3 .ARM.extab    00000000  08005738  08005738  00020070  2**0
                  CONTENTS
  4 .ARM          00000000  08005738  08005738  00020070  2**0
                  CONTENTS
  5 .preinit_array 00000000  08005738  08005738  00020070  2**0
                  CONTENTS, ALLOC, LOAD, DATA
  6 .init_array   00000004  08005738  08005738  00015738  2**2
                  CONTENTS, ALLOC, LOAD, DATA
  7 .fini_array   00000004  0800573c  0800573c  0001573c  2**2
                  CONTENTS, ALLOC, LOAD, DATA
  8 .data         00000070  20000000  08005740  00020000  2**2
                  CONTENTS, ALLOC, LOAD, DATA
  9 .bss          000002e8  20000070  080057b0  00020070  2**2
                  ALLOC
 10 ._user_heap_stack 00000600  20000358  080057b0  00020358  2**0
                  ALLOC
 11 .ARM.attributes 00000028  00000000  00000000  00020070  2**0
                  CONTENTS, READONLY
 12 .comment      00000050  00000000  00000000  00020098  2**0
                  CONTENTS, READONLY
 13 .debug_frame  0000094c  00000000  00000000  000200e8  2**2
                  CONTENTS, READONLY, DEBUGGING, OCTETS

Disassembly of section .text:

080000c0 <__do_global_dtors_aux>:
 80000c0:	b510      	push	{r4, lr}
 80000c2:	4c06      	ldr	r4, [pc, #24]	; (80000dc <__do_global_dtors_aux+0x1c>)
 80000c4:	7823      	ldrb	r3, [r4, #0]
 80000c6:	2b00      	cmp	r3, #0
 80000c8:	d107      	bne.n	80000da <__do_global_dtors_aux+0x1a>
 80000ca:	4b05      	ldr	r3, [pc, #20]	; (80000e0 <__do_global_dtors_aux+0x20>)
 80000cc:	2b00      	cmp	r3, #0
 80000ce:	d002      	beq.n	80000d6 <__do_global_dtors_aux+0x16>
 80000d0:	4804      	ldr	r0, [pc, #16]	; (80000e4 <__do_global_dtors_aux+0x24>)
 80000d2:	e000      	b.n	80000d6 <__do_global_dtors_aux+0x16>
 80000d4:	bf00      	nop
 80000d6:	2301      	movs	r3, #1
 80000d8:	7023      	strb	r3, [r4, #0]
 80000da:	bd10      	pop	{r4, pc}
 80000dc:	20000070 	.word	0x20000070
 80000e0:	00000000 	.word	0x00000000
 80000e4:	08005614 	.word	0x08005614

080000e8 <frame_dummy>:
 80000e8:	4b04      	ldr	r3, [pc, #16]	; (80000fc <frame_dummy+0x14>)
 80000ea:	b510      	push	{r4, lr}
 80000ec:	2b00      	cmp	r3, #0
 80000ee:	d003      	beq.n	80000f8 <frame_dummy+0x10>
 80000f0:	4903      	ldr	r1, [pc, #12]	; (8000100 <frame_dummy+0x18>)
 80000f2:	4804      	ldr	r0, [pc, #16]	; (8000104 <frame_dummy+0x1c>)
 80000f4:	e000      	b.n	80000f8 <frame_dummy+0x10>
 80000f6:	bf00      	nop
 80000f8:	bd10      	pop	{r4, pc}
 80000fa:	46c0      	nop			; (mov r8, r8)
 80000fc:	00000000 	.word	0x00000000
 8000100:	20000074 	.word	0x20000074
 8000104:	08005614 	.word	0x08005614

08000108 <__gnu_thumb1_case_sqi>:
 8000108:	b402      	push	{r1}
 800010a:	4671      	mov	r1, lr
 800010c:	0849      	lsrs	r1, r1, #1
 800010e:	0049      	lsls	r1, r1, #1
 8000110:	5609      	ldrsb	r1, [r1, r0]
 8000112:	0049      	lsls	r1, r1, #1
 8000114:	448e      	add	lr, r1
 8000116:	bc02      	pop	{r1}
 8000118:	4770      	bx	lr
 800011a:	46c0      	nop			; (mov r8, r8)

0800011c <__gnu_thumb1_case_uqi>:
 800011c:	b402      	push	{r1}
 800011e:	4671      	mov	r1, lr
 8000120:	0849      	lsrs	r1, r1, #1
 8000122:	0049      	lsls	r1, r1, #1
 8000124:	5c09      	ldrb	r1, [r1, r0]
 8000126:	0049      	lsls	r1, r1, #1
 8000128:	448e      	add	lr, r1
 800012a:	bc02      	pop	{r1}
 800012c:	4770      	bx	lr
 800012e:	46c0      	nop			; (mov r8, r8)

08000130 <__gnu_thumb1_case_shi>:
 8000130:	b403      	push	{r0, r1}
 8000132:	4671      	mov	r1, lr
 8000134:	0849      	lsrs	r1, r1, #1
 8000136:	0040      	lsls	r0, r0, #1
 8000138:	0049      	lsls	r1, r1, #1
 800013a:	5e09      	ldrsh	r1, [r1, r0]
 800013c:	0049      	lsls	r1, r1, #1
 800013e:	448e      	add	lr, r1
 8000140:	bc03      	pop	{r0, r1}
 8000142:	4770      	bx	lr

08000144 <__udivsi3>:
 8000144:	2200      	movs	r2, #0
 8000146:	0843      	lsrs	r3, r0, #1
 8000148:	428b      	cmp	r3, r1
 800014a:	d374      	bcc.n	8000236 <__udivsi3+0xf2>
 800014c:	0903      	lsrs	r3, r0, #4
 800014e:	428b      	cmp	r3, r1
 8000150:	d35f      	bcc.n	8000212 <__udivsi3+0xce>
 8000152:	0a03      	lsrs	r3, r0, #8
 8000154:	428b      	cmp	r3, r1
 8000156:	d344      	bcc.n	80001e2 <__udivsi3+0x9e>
 8000158:	0b03      	lsrs	r3, r0, #12
 800015a:	428b      	cmp	r3, r1
 800015c:	d328      	bcc.n	80001b0 <__udivsi3+0x6c>
 800015e:	0c03      	lsrs	r3, r0, #16
 8000160:	428b      	cmp	r3, r1
 8000162:	d30d      	bcc.n	8000180 <__udivsi3+0x3c>
 8000164:	22ff      	movs	r2, #255	; 0xff
 8000166:	0209      	lsls	r1, r1, #8
 8000168:	ba12      	rev	r2, r2
 800016a:	0c03      	lsrs	r3, r0, #16
 800016c:	428b      	cmp	r3, r1
 800016e:	d302      	bcc.n	8000176 <__udivsi3+0x32>
 8000170:	1212      	asrs	r2, r2, #8
 8000172:	0209      	lsls	r1, r1, #8
 8000174:	d065      	beq.n	8000242 <__udivsi3+0xfe>
 8000176:	0b03      	lsrs	r3, r0, #12
 8000178:	428b      	cmp	r3, r1
 800017a:	d319      	bcc.n	80001b0 <__udivsi3+0x6c>
 800017c:	e000      	b.n	8000180 <__udivsi3+0x3c>
 800017e:	0a09      	lsrs	r1, r1, #8
 8000180:	0bc3      	lsrs	r3, r0, #15
 8000182:	428b      	cmp	r3, r1
 8000184:	d301      	bcc.n	800018a <__udivsi3+0x46>
 8000186:	03cb      	lsls	r3, r1, #15
 8000188:	1ac0      	subs	r0, r0, r3
 800018a:	4152      	adcs	r2, r2
 800018c:	0b83      	lsrs	r3, r0, #14
 800018e:	428b      	cmp	r3, r1
 8000190:	d301      	bcc.n	8000196 <__udivsi3+0x52>
 8000192:	038b      	lsls	r3, r1, #14
 8000194:	1ac0      	subs	r0, r0, r3
 8000196:	4152      	adcs	r2, r2
 8000198:	0b43      	lsrs	r3, r0, #13
 800019a:	428b      	cmp	r3, r1
 800019c:	d301      	bcc.n	80001a2 <__udivsi3+0x5e>
 800019e:	034b      	lsls	r3, r1, #13
 80001a0:	1ac0      	subs	r0, r0, r3
 80001a2:	4152      	adcs	r2, r2
 80001a4:	0b03      	lsrs	r3, r0, #12
 80001a6:	428b      	cmp	r3, r1
 80001a8:	d301      	bcc.n	80001ae <__udivsi3+0x6a>
 80001aa:	030b      	lsls	r3, r1, #12
 80001ac:	1ac0      	subs	r0, r0, r3
 80001ae:	4152      	adcs	r2, r2
 80001b0:	0ac3      	lsrs	r3, r0, #11
 80001b2:	428b      	cmp	r3, r1
 80001b4:	d301      	bcc.n	80001ba <__udivsi3+0x76>
 80001b6:	02cb      	lsls	r3, r1, #11
 80001b8:	1ac0      	subs	r0, r0, r3
 80001ba:	4152      	adcs	r2, r2
 80001bc:	0a83      	lsrs	r3, r0, #10
 80001be:	428b      	cmp	r3, r1
 80001c0:	d301      	bcc.n	80001c6 <__udivsi3+0x82>
 80001c2:	028b      	lsls	r3, r1, #10
 80001c4:	1ac0      	subs	r0, r0, r3
 80001c6:	4152      	adcs	r2, r2
 80001c8:	0a43      	lsrs	r3, r0, #9
 80001ca:	428b      	cmp	r3, r1
 80001cc:	d301      	bcc.n	80001d2 <__udivsi3+0x8e>
 80001ce:	024b      	lsls	r3, r1, #9
 80001d0:	1ac0      	subs	r0, r0, r3
 80001d2:	4152      	adcs	r2, r2
 80001d4:	0a03      	lsrs	r3, r0, #8
 80001d6:	428b      	cmp	r3, r1
 80001d8:	d301      	bcc.n	80001de <__udivsi3+0x9a>
 80001da:	020b      	lsls	r3, r1, #8
 80001dc:	1ac0      	subs	r0, r0, r3
 80001de:	4152      	adcs	r2, r2
 80001e0:	d2cd      	bcs.n	800017e <__udivsi3+0x3a>
 80001e2:	09c3      	lsrs	r3, r0, #7
 80001e4:	428b      	cmp	r3, r1
 80001e6:	d301      	bcc.n	80001ec <__udivsi3+0xa8>
 80001e8:	01cb      	lsls	r3, r1, #7
 80001ea:	1ac0      	subs	r0, r0, r3
 80001ec:	4152      	adcs	r2, r2
 80001ee:	0983      	lsrs	r3, r0, #6
 80001f0:	428b      	cmp	r3, r1
 80001f2:	d301      	bcc.n	80001f8 <__udivsi3+0xb4>
 80001f4:	018b      	lsls	r3, r1, #6
 80001f6:	1ac0      	subs	r0, r0, r3
 80001f8:	4152      	adcs	r2, r2
 80001fa:	0943      	lsrs	r3, r0, #5
 80001fc:	428b      	cmp	r3, r1
 80001fe:	d301      	bcc.n	8000204 <__udivsi3+0xc0>
 8000200:	014b      	lsls	r3, r1, #5
 8000202:	1ac0      	subs	r0, r0, r3
 8000204:	4152      	adcs	r2, r2
 8000206:	0903      	lsrs	r3, r0, #4
 8000208:	428b      	cmp	r3, r1
 800020a:	d301      	bcc.n	8000210 <__udivsi3+0xcc>
 800020c:	010b      	lsls	r3, r1, #4
 800020e:	1ac0      	subs	r0, r0, r3
 8000210:	4152      	adcs	r2, r2
 8000212:	08c3      	lsrs	r3, r0, #3
 8000214:	428b      	cmp	r3, r1
 8000216:	d301      	bcc.n	800021c <__udivsi3+0xd8>
 8000218:	00cb      	lsls	r3, r1, #3
 800021a:	1ac0      	subs	r0, r0, r3
 800021c:	4152      	adcs	r2, r2
 800021e:	0883      	lsrs	r3, r0, #2
 8000220:	428b      	cmp	r3, r1
 8000222:	d301      	bcc.n	8000228 <__udivsi3+0xe4>
 8000224:	008b      	lsls	r3, r1, #2
 8000226:	1ac0      	subs	r0, r0, r3
 8000228:	4152      	adcs	r2, r2
 800022a:	0843      	lsrs	r3, r0, #1
 800022c:	428b      	cmp	r3, r1
 800022e:	d301      	bcc.n	8000234 <__udivsi3+0xf0>
 8000230:	004b      	lsls	r3, r1, #1
 8000232:	1ac0      	subs	r0, r0, r3
 8000234:	4152      	adcs	r2, r2
 8000236:	1a41      	subs	r1, r0, r1
 8000238:	d200      	bcs.n	800023c <__udivsi3+0xf8>
 800023a:	4601      	mov	r1, r0
 800023c:	4152      	adcs	r2, r2
 800023e:	4610      	mov	r0, r2
 8000240:	4770      	bx	lr
 8000242:	e7ff      	b.n	8000244 <__udivsi3+0x100>
 8000244:	b501      	push	{r0, lr}
 8000246:	2000      	movs	r0, #0
 8000248:	f000 f8f0 	bl	800042c <__aeabi_idiv0>
 800024c:	bd02      	pop	{r1, pc}
 800024e:	46c0      	nop			; (mov r8, r8)

08000250 <__aeabi_uidivmod>:
 8000250:	2900      	cmp	r1, #0
 8000252:	d0f7      	beq.n	8000244 <__udivsi3+0x100>
 8000254:	e776      	b.n	8000144 <__udivsi3>
 8000256:	4770      	bx	lr

08000258 <__divsi3>:
 8000258:	4603      	mov	r3, r0
 800025a:	430b      	orrs	r3, r1
 800025c:	d47f      	bmi.n	800035e <__divsi3+0x106>
 800025e:	2200      	movs	r2, #0
 8000260:	0843      	lsrs	r3, r0, #1
 8000262:	428b      	cmp	r3, r1
 8000264:	d374      	bcc.n	8000350 <__divsi3+0xf8>
 8000266:	0903      	lsrs	r3, r0, #4
 8000268:	428b      	cmp	r3, r1
 800026a:	d35f      	bcc.n	800032c <__divsi3+0xd4>
 800026c:	0a03      	lsrs	r3, r0, #8
 800026e:	428b      	cmp	r3, r1
 8000270:	d344      	bcc.n	80002fc <__divsi3+0xa4>
 8000272:	0b03      	lsrs	r3, r0, #12
 8000274:	428b      	cmp	r3, r1
 8000276:	d328      	bcc.n	80002ca <__divsi3+0x72>
 8000278:	0c03      	lsrs	r3, r0, #16
 800027a:	428b      	cmp	r3, r1
 800027c:	d30d      	bcc.n	800029a <__divsi3+0x42>
 800027e:	22ff      	movs	r2, #255	; 0xff
 8000280:	0209      	lsls	r1, r1, #8
 8000282:	ba12      	rev	r2, r2
 8000284:	0c03      	lsrs	r3, r0, #16
 8000286:	428b      	cmp	r3, r1
 8000288:	d302      	bcc.n	8000290 <__divsi3+0x38>
 800028a:	1212      	asrs	r2, r2, #8
 800028c:	0209      	lsls	r1, r1, #8
 800028e:	d065      	beq.n	800035c <__divsi3+0x104>
 8000290:	0b03      	lsrs	r3, r0, #12
 8000292:	428b      	cmp	r3, r1
 8000294:	d319      	bcc.n	80002ca <__divsi3+0x72>
 8000296:	e000      	b.n	800029a <__divsi3+0x42>
 8000298:	0a09      	lsrs	r1, r1, #8
 800029a:	0bc3      	lsrs	r3, r0, #15
 800029c:	428b      	cmp	r3, r1
 800029e:	d301      	bcc.n	80002a4 <__divsi3+0x4c>
 80002a0:	03cb      	lsls	r3, r1, #15
 80002a2:	1ac0      	subs	r0, r0, r3
 80002a4:	4152      	adcs	r2, r2
 80002a6:	0b83      	lsrs	r3, r0, #14
 80002a8:	428b      	cmp	r3, r1
 80002aa:	d301      	bcc.n	80002b0 <__divsi3+0x58>
 80002ac:	038b      	lsls	r3, r1, #14
 80002ae:	1ac0      	subs	r0, r0, r3
 80002b0:	4152      	adcs	r2, r2
 80002b2:	0b43      	lsrs	r3, r0, #13
 80002b4:	428b      	cmp	r3, r1
 80002b6:	d301      	bcc.n	80002bc <__divsi3+0x64>
 80002b8:	034b      	lsls	r3, r1, #13
 80002ba:	1ac0      	subs	r0, r0, r3
 80002bc:	4152      	adcs	r2, r2
 80002be:	0b03      	lsrs	r3, r0, #12
 80002c0:	428b      	cmp	r3, r1
 80002c2:	d301      	bcc.n	80002c8 <__divsi3+0x70>
 80002c4:	030b      	lsls	r3, r1, #12
 80002c6:	1ac0      	subs	r0, r0, r3
 80002c8:	4152      	adcs	r2, r2
 80002ca:	0ac3      	lsrs	r3, r0, #11
 80002cc:	428b      	cmp	r3, r1
 80002ce:	d301      	bcc.n	80002d4 <__divsi3+0x7c>
 80002d0:	02cb      	lsls	r3, r1, #11
 80002d2:	1ac0      	subs	r0, r0, r3
 80002d4:	4152      	adcs	r2, r2
 80002d6:	0a83      	lsrs	r3, r0, #10
 80002d8:	428b      	cmp	r3, r1
 80002da:	d301      	bcc.n	80002e0 <__divsi3+0x88>
 80002dc:	028b      	lsls	r3, r1, #10
 80002de:	1ac0      	subs	r0, r0, r3
 80002e0:	4152      	adcs	r2, r2
 80002e2:	0a43      	lsrs	r3, r0, #9
 80002e4:	428b      	cmp	r3, r1
 80002e6:	d301      	bcc.n	80002ec <__divsi3+0x94>
 80002e8:	024b      	lsls	r3, r1, #9
 80002ea:	1ac0      	subs	r0, r0, r3
 80002ec:	4152      	adcs	r2, r2
 80002ee:	0a03      	lsrs	r3, r0, #8
 80002f0:	428b      	cmp	r3, r1
 80002f2:	d301      	bcc.n	80002f8 <__divsi3+0xa0>
 80002f4:	020b      	lsls	r3, r1, #8
 80002f6:	1ac0      	subs	r0, r0, r3
 80002f8:	4152      	adcs	r2, r2
 80002fa:	d2cd      	bcs.n	8000298 <__divsi3+0x40>
 80002fc:	09c3      	lsrs	r3, r0, #7
 80002fe:	428b      	cmp	r3, r1
 8000300:	d301      	bcc.n	8000306 <__divsi3+0xae>
 8000302:	01cb      	lsls	r3, r1, #7
 8000304:	1ac0      	subs	r0, r0, r3
 8000306:	4152      	adcs	r2, r2
 8000308:	0983      	lsrs	r3, r0, #6
 800030a:	428b      	cmp	r3, r1
 800030c:	d301      	bcc.n	8000312 <__divsi3+0xba>
 800030e:	018b      	lsls	r3, r1, #6
 8000310:	1ac0      	subs	r0, r0, r3
 8000312:	4152      	adcs	r2, r2
 8000314:	0943      	lsrs	r3, r0, #5
 8000316:	428b      	cmp	r3, r1
 8000318:	d301      	bcc.n	800031e <__divsi3+0xc6>
 800031a:	014b      	lsls	r3, r1, #5
 800031c:	1ac0      	subs	r0, r0, r3
 800031e:	4152      	adcs	r2, r2
 8000320:	0903      	lsrs	r3, r0, #4
 8000322:	428b      	cmp	r3, r1
 8000324:	d301      	bcc.n	800032a <__divsi3+0xd2>
 8000326:	010b      	lsls	r3, r1, #4
 8000328:	1ac0      	subs	r0, r0, r3
 800032a:	4152      	adcs	r2, r2
 800032c:	08c3      	lsrs	r3, r0, #3
 800032e:	428b      	cmp	r3, r1
 8000330:	d301      	bcc.n	8000336 <__divsi3+0xde>
 8000332:	00cb      	lsls	r3, r1, #3
 8000334:	1ac0      	subs	r0, r0, r3
 8000336:	4152      	adcs	r2, r2
 8000338:	0883      	lsrs	r3, r0, #2
 800033a:	428b      	cmp	r3, r1
 800033c:	d301      	bcc.n	8000342 <__divsi3+0xea>
 800033e:	008b      	lsls	r3, r1, #2
 8000340:	1ac0      	subs	r0, r0, r3
 8000342:	4152      	adcs	r2, r2
 8000344:	0843      	lsrs	r3, r0, #1
 8000346:	428b      	cmp	r3, r1
 8000348:	d301      	bcc.n	800034e <__divsi3+0xf6>
 800034a:	004b      	lsls	r3, r1, #1
 800034c:	1ac0      	subs	r0, r0, r3
 800034e:	4152      	adcs	r2, r2
 8000350:	1a41      	subs	r1, r0, r1
 8000352:	d200      	bcs.n	8000356 <__divsi3+0xfe>
 8000354:	4601      	mov	r1, r0
 8000356:	4152      	adcs	r2, r2
 8000358:	4610      	mov	r0, r2
 800035a:	4770      	bx	lr
 800035c:	e05d      	b.n	800041a <__divsi3+0x1c2>
 800035e:	0fca      	lsrs	r2, r1, #31
 8000360:	d000      	beq.n	8000364 <__divsi3+0x10c>
 8000362:	4249      	negs	r1, r1
 8000364:	1003      	asrs	r3, r0, #32
 8000366:	d300      	bcc.n	800036a <__divsi3+0x112>
 8000368:	4240      	negs	r0, r0
 800036a:	4053      	eors	r3, r2
 800036c:	2200      	movs	r2, #0
 800036e:	469c      	mov	ip, r3
 8000370:	0903      	lsrs	r3, r0, #4
 8000372:	428b      	cmp	r3, r1
 8000374:	d32d      	bcc.n	80003d2 <__divsi3+0x17a>
 8000376:	0a03      	lsrs	r3, r0, #8
 8000378:	428b      	cmp	r3, r1
 800037a:	d312      	bcc.n	80003a2 <__divsi3+0x14a>
 800037c:	22fc      	movs	r2, #252	; 0xfc
 800037e:	0189      	lsls	r1, r1, #6
 8000380:	ba12      	rev	r2, r2
 8000382:	0a03      	lsrs	r3, r0, #8
 8000384:	428b      	cmp	r3, r1
 8000386:	d30c      	bcc.n	80003a2 <__divsi3+0x14a>
 8000388:	0189      	lsls	r1, r1, #6
 800038a:	1192      	asrs	r2, r2, #6
 800038c:	428b      	cmp	r3, r1
 800038e:	d308      	bcc.n	80003a2 <__divsi3+0x14a>
 8000390:	0189      	lsls	r1, r1, #6
 8000392:	1192      	asrs	r2, r2, #6
 8000394:	428b      	cmp	r3, r1
 8000396:	d304      	bcc.n	80003a2 <__divsi3+0x14a>
 8000398:	0189      	lsls	r1, r1, #6
 800039a:	d03a      	beq.n	8000412 <__divsi3+0x1ba>
 800039c:	1192      	asrs	r2, r2, #6
 800039e:	e000      	b.n	80003a2 <__divsi3+0x14a>
 80003a0:	0989      	lsrs	r1, r1, #6
 80003a2:	09c3      	lsrs	r3, r0, #7
 80003a4:	428b      	cmp	r3, r1
 80003a6:	d301      	bcc.n	80003ac <__divsi3+0x154>
 80003a8:	01cb      	lsls	r3, r1, #7
 80003aa:	1ac0      	subs	r0, r0, r3
 80003ac:	4152      	adcs	r2, r2
 80003ae:	0983      	lsrs	r3, r0, #6
 80003b0:	428b      	cmp	r3, r1
 80003b2:	d301      	bcc.n	80003b8 <__divsi3+0x160>
 80003b4:	018b      	lsls	r3, r1, #6
 80003b6:	1ac0      	subs	r0, r0, r3
 80003b8:	4152      	adcs	r2, r2
 80003ba:	0943      	lsrs	r3, r0, #5
 80003bc:	428b      	cmp	r3, r1
 80003be:	d301      	bcc.n	80003c4 <__divsi3+0x16c>
 80003c0:	014b      	lsls	r3, r1, #5
 80003c2:	1ac0      	subs	r0, r0, r3
 80003c4:	4152      	adcs	r2, r2
 80003c6:	0903      	lsrs	r3, r0, #4
 80003c8:	428b      	cmp	r3, r1
 80003ca:	d301      	bcc.n	80003d0 <__divsi3+0x178>
 80003cc:	010b      	lsls	r3, r1, #4
 80003ce:	1ac0      	subs	r0, r0, r3
 80003d0:	4152      	adcs	r2, r2
 80003d2:	08c3      	lsrs	r3, r0, #3
 80003d4:	428b      	cmp	r3, r1
 80003d6:	d301      	bcc.n	80003dc <__divsi3+0x184>
 80003d8:	00cb      	lsls	r3, r1, #3
 80003da:	1ac0      	subs	r0, r0, r3
 80003dc:	4152      	adcs	r2, r2
 80003de:	0883      	lsrs	r3, r0, #2
 80003e0:	428b      	cmp	r3, r1
 80003e2:	d301      	bcc.n	80003e8 <__divsi3+0x190>
 80003e4:	008b      	lsls	r3, r1, #2
 80003e6:	1ac0      	subs	r0, r0, r3
 80003e8:	4152      	adcs	r2, r2
 80003ea:	d2d9      	bcs.n	80003a0 <__divsi3+0x148>
 80003ec:	0843      	lsrs	r3, r0, #1
 80003ee:	428b      	cmp	r3, r1
 80003f0:	d301      	bcc.n	80003f6 <__divsi3+0x19e>
 80003f2:	004b      	lsls	r3, r1, #1
 80003f4:	1ac0      	subs	r0, r0, r3
 80003f6:	4152      	adcs	r2, r2
 80003f8:	1a41      	subs	r1, r0, r1
 80003fa:	d200      	bcs.n	80003fe <__divsi3+0x1a6>
 80003fc:	4601      	mov	r1, r0
 80003fe:	4663      	mov	r3, ip
 8000400:	4152      	adcs	r2, r2
 8000402:	105b      	asrs	r3, r3, #1
 8000404:	4610      	mov	r0, r2
 8000406:	d301      	bcc.n	800040c <__divsi3+0x1b4>
 8000408:	4240      	negs	r0, r0
 800040a:	2b00      	cmp	r3, #0
 800040c:	d500      	bpl.n	8000410 <__divsi3+0x1b8>
 800040e:	4249      	negs	r1, r1
 8000410:	4770      	bx	lr
 8000412:	4663      	mov	r3, ip
 8000414:	105b      	asrs	r3, r3, #1
 8000416:	d300      	bcc.n	800041a <__divsi3+0x1c2>
 8000418:	4240      	negs	r0, r0
 800041a:	b501      	push	{r0, lr}
 800041c:	2000      	movs	r0, #0
 800041e:	f000 f805 	bl	800042c <__aeabi_idiv0>
 8000422:	bd02      	pop	{r1, pc}

08000424 <__aeabi_idivmod>:
 8000424:	2900      	cmp	r1, #0
 8000426:	d0f8      	beq.n	800041a <__divsi3+0x1c2>
 8000428:	e716      	b.n	8000258 <__divsi3>
 800042a:	4770      	bx	lr

0800042c <__aeabi_idiv0>:
 800042c:	4770      	bx	lr
 800042e:	46c0      	nop			; (mov r8, r8)

08000430 <__io_putchar>:
 8000430:	2301      	movs	r3, #1
 8000432:	b507      	push	{r0, r1, r2, lr}
 8000434:	425b      	negs	r3, r3
 8000436:	9001      	str	r0, [sp, #4]
 8000438:	2201      	movs	r2, #1
 800043a:	4803      	ldr	r0, [pc, #12]	; (8000448 <__io_putchar+0x18>)
 800043c:	a901      	add	r1, sp, #4
 800043e:	f003 ff0a 	bl	8004256 <HAL_UART_Transmit>
 8000442:	9801      	ldr	r0, [sp, #4]
 8000444:	bd0e      	pop	{r1, r2, r3, pc}
 8000446:	46c0      	nop			; (mov r8, r8)
 8000448:	200002ac 	.word	0x200002ac

0800044c <HAL_TIM_PeriodElapsedCallback>:
 800044c:	4b03      	ldr	r3, [pc, #12]	; (800045c <HAL_TIM_PeriodElapsedCallback+0x10>)
 800044e:	4283      	cmp	r3, r0
 8000450:	d102      	bne.n	8000458 <HAL_TIM_PeriodElapsedCallback+0xc>
 8000452:	2201      	movs	r2, #1
 8000454:	4b02      	ldr	r3, [pc, #8]	; (8000460 <HAL_TIM_PeriodElapsedCallback+0x14>)
 8000456:	701a      	strb	r2, [r3, #0]
 8000458:	4770      	bx	lr
 800045a:	46c0      	nop			; (mov r8, r8)
 800045c:	20000264 	.word	0x20000264
 8000460:	20000098 	.word	0x20000098

08000464 <HAL_I2C_SlaveTxCpltCallback>:
 8000464:	2201      	movs	r2, #1
 8000466:	4b01      	ldr	r3, [pc, #4]	; (800046c <HAL_I2C_SlaveTxCpltCallback+0x8>)
 8000468:	701a      	strb	r2, [r3, #0]
 800046a:	4770      	bx	lr
 800046c:	20000338 	.word	0x20000338

08000470 <HAL_I2C_SlaveRxCpltCallback>:
 8000470:	4770      	bx	lr
	...

08000474 <Error_Handler>:
 8000474:	2201      	movs	r2, #1
 8000476:	b510      	push	{r4, lr}
 8000478:	0011      	movs	r1, r2
 800047a:	4808      	ldr	r0, [pc, #32]	; (800049c <Error_Handler+0x28>)
 800047c:	f001 fb48 	bl	8001b10 <HAL_GPIO_WritePin>
 8000480:	4807      	ldr	r0, [pc, #28]	; (80004a0 <Error_Handler+0x2c>)
 8000482:	f004 f8b5 	bl	80045f0 <puts>
 8000486:	b672      	cpsid	i
 8000488:	f3bf 8f4f 	dsb	sy
 800048c:	4b05      	ldr	r3, [pc, #20]	; (80004a4 <Error_Handler+0x30>)
 800048e:	4a06      	ldr	r2, [pc, #24]	; (80004a8 <Error_Handler+0x34>)
 8000490:	60da      	str	r2, [r3, #12]
 8000492:	f3bf 8f4f 	dsb	sy
 8000496:	46c0      	nop			; (mov r8, r8)
 8000498:	e7fd      	b.n	8000496 <Error_Handler+0x22>
 800049a:	46c0      	nop			; (mov r8, r8)
 800049c:	48001400 	.word	0x48001400
 80004a0:	0800562c 	.word	0x0800562c
 80004a4:	e000ed00 	.word	0xe000ed00
 80004a8:	05fa0004 	.word	0x05fa0004

080004ac <SystemClock_Config>:
 80004ac:	b530      	push	{r4, r5, lr}
 80004ae:	2410      	movs	r4, #16
 80004b0:	b095      	sub	sp, #84	; 0x54
 80004b2:	222c      	movs	r2, #44	; 0x2c
 80004b4:	2100      	movs	r1, #0
 80004b6:	a809      	add	r0, sp, #36	; 0x24
 80004b8:	f003 fff2 	bl	80044a0 <memset>
 80004bc:	0022      	movs	r2, r4
 80004be:	2100      	movs	r1, #0
 80004c0:	4668      	mov	r0, sp
 80004c2:	f003 ffed 	bl	80044a0 <memset>
 80004c6:	0022      	movs	r2, r4
 80004c8:	2100      	movs	r1, #0
 80004ca:	a804      	add	r0, sp, #16
 80004cc:	f003 ffe8 	bl	80044a0 <memset>
 80004d0:	2312      	movs	r3, #18
 80004d2:	9308      	str	r3, [sp, #32]
 80004d4:	23a0      	movs	r3, #160	; 0xa0
 80004d6:	2501      	movs	r5, #1
 80004d8:	940c      	str	r4, [sp, #48]	; 0x30
 80004da:	940e      	str	r4, [sp, #56]	; 0x38
 80004dc:	039b      	lsls	r3, r3, #14
 80004de:	3c0e      	subs	r4, #14
 80004e0:	a808      	add	r0, sp, #32
 80004e2:	950b      	str	r5, [sp, #44]	; 0x2c
 80004e4:	950d      	str	r5, [sp, #52]	; 0x34
 80004e6:	9410      	str	r4, [sp, #64]	; 0x40
 80004e8:	9312      	str	r3, [sp, #72]	; 0x48
 80004ea:	f002 fa81 	bl	80029f0 <HAL_RCC_OscConfig>
 80004ee:	2800      	cmp	r0, #0
 80004f0:	d001      	beq.n	80004f6 <SystemClock_Config+0x4a>
 80004f2:	f7ff ffbf 	bl	8000474 <Error_Handler>
 80004f6:	2307      	movs	r3, #7
 80004f8:	9002      	str	r0, [sp, #8]
 80004fa:	9003      	str	r0, [sp, #12]
 80004fc:	0029      	movs	r1, r5
 80004fe:	4668      	mov	r0, sp
 8000500:	9300      	str	r3, [sp, #0]
 8000502:	9401      	str	r4, [sp, #4]
 8000504:	f002 fc9a 	bl	8002e3c <HAL_RCC_ClockConfig>
 8000508:	2800      	cmp	r0, #0
 800050a:	d1f2      	bne.n	80004f2 <SystemClock_Config+0x46>
 800050c:	2321      	movs	r3, #33	; 0x21
 800050e:	9006      	str	r0, [sp, #24]
 8000510:	9007      	str	r0, [sp, #28]
 8000512:	a804      	add	r0, sp, #16
 8000514:	9304      	str	r3, [sp, #16]
 8000516:	f002 fd25 	bl	8002f64 <HAL_RCCEx_PeriphCLKConfig>
 800051a:	2800      	cmp	r0, #0
 800051c:	d1e9      	bne.n	80004f2 <SystemClock_Config+0x46>
 800051e:	b015      	add	sp, #84	; 0x54
 8000520:	bd30      	pop	{r4, r5, pc}
	...

08000524 <main>:
 8000524:	b5f0      	push	{r4, r5, r6, r7, lr}
 8000526:	b0b3      	sub	sp, #204	; 0xcc
 8000528:	f000 fe70 	bl	800120c <HAL_Init>
 800052c:	f7ff ffbe 	bl	80004ac <SystemClock_Config>
 8000530:	2214      	movs	r2, #20
 8000532:	2100      	movs	r1, #0
 8000534:	a82a      	add	r0, sp, #168	; 0xa8
 8000536:	f003 ffb3 	bl	80044a0 <memset>
 800053a:	2180      	movs	r1, #128	; 0x80
 800053c:	4d38      	ldr	r5, [pc, #224]	; (8000620 <main+0xfc>)
 800053e:	03c9      	lsls	r1, r1, #15
 8000540:	696a      	ldr	r2, [r5, #20]
 8000542:	4838      	ldr	r0, [pc, #224]	; (8000624 <main+0x100>)
 8000544:	430a      	orrs	r2, r1
 8000546:	616a      	str	r2, [r5, #20]
 8000548:	696b      	ldr	r3, [r5, #20]
 800054a:	2400      	movs	r4, #0
 800054c:	400b      	ands	r3, r1
 800054e:	2180      	movs	r1, #128	; 0x80
 8000550:	930c      	str	r3, [sp, #48]	; 0x30
 8000552:	9b0c      	ldr	r3, [sp, #48]	; 0x30
 8000554:	696a      	ldr	r2, [r5, #20]
 8000556:	0289      	lsls	r1, r1, #10
 8000558:	430a      	orrs	r2, r1
 800055a:	616a      	str	r2, [r5, #20]
 800055c:	696b      	ldr	r3, [r5, #20]
 800055e:	2601      	movs	r6, #1
 8000560:	400b      	ands	r3, r1
 8000562:	2180      	movs	r1, #128	; 0x80
 8000564:	930d      	str	r3, [sp, #52]	; 0x34
 8000566:	9b0d      	ldr	r3, [sp, #52]	; 0x34
 8000568:	696a      	ldr	r2, [r5, #20]
 800056a:	02c9      	lsls	r1, r1, #11
 800056c:	430a      	orrs	r2, r1
 800056e:	616a      	str	r2, [r5, #20]
 8000570:	696b      	ldr	r3, [r5, #20]
 8000572:	2200      	movs	r2, #0
 8000574:	400b      	ands	r3, r1
 8000576:	930e      	str	r3, [sp, #56]	; 0x38
 8000578:	21c3      	movs	r1, #195	; 0xc3
 800057a:	9b0e      	ldr	r3, [sp, #56]	; 0x38
 800057c:	f001 fac8 	bl	8001b10 <HAL_GPIO_WritePin>
 8000580:	2090      	movs	r0, #144	; 0x90
 8000582:	2200      	movs	r2, #0
 8000584:	2102      	movs	r1, #2
 8000586:	05c0      	lsls	r0, r0, #23
 8000588:	f001 fac2 	bl	8001b10 <HAL_GPIO_WritePin>
 800058c:	23c3      	movs	r3, #195	; 0xc3
 800058e:	4825      	ldr	r0, [pc, #148]	; (8000624 <main+0x100>)
 8000590:	a92a      	add	r1, sp, #168	; 0xa8
 8000592:	932a      	str	r3, [sp, #168]	; 0xa8
 8000594:	962b      	str	r6, [sp, #172]	; 0xac
 8000596:	942c      	str	r4, [sp, #176]	; 0xb0
 8000598:	942d      	str	r4, [sp, #180]	; 0xb4
 800059a:	f001 fa09 	bl	80019b0 <HAL_GPIO_Init>
 800059e:	2090      	movs	r0, #144	; 0x90
 80005a0:	2302      	movs	r3, #2
 80005a2:	a92a      	add	r1, sp, #168	; 0xa8
 80005a4:	05c0      	lsls	r0, r0, #23
 80005a6:	932a      	str	r3, [sp, #168]	; 0xa8
 80005a8:	932c      	str	r3, [sp, #176]	; 0xb0
 80005aa:	962b      	str	r6, [sp, #172]	; 0xac
 80005ac:	942d      	str	r4, [sp, #180]	; 0xb4
 80005ae:	f001 f9ff 	bl	80019b0 <HAL_GPIO_Init>
 80005b2:	2380      	movs	r3, #128	; 0x80
 80005b4:	2090      	movs	r0, #144	; 0x90
 80005b6:	011b      	lsls	r3, r3, #4
 80005b8:	a92a      	add	r1, sp, #168	; 0xa8
 80005ba:	05c0      	lsls	r0, r0, #23
 80005bc:	932a      	str	r3, [sp, #168]	; 0xa8
 80005be:	942b      	str	r4, [sp, #172]	; 0xac
 80005c0:	942c      	str	r4, [sp, #176]	; 0xb0
 80005c2:	f001 f9f5 	bl	80019b0 <HAL_GPIO_Init>
 80005c6:	696b      	ldr	r3, [r5, #20]
 80005c8:	0022      	movs	r2, r4
 80005ca:	4333      	orrs	r3, r6
 80005cc:	616b      	str	r3, [r5, #20]
 80005ce:	696b      	ldr	r3, [r5, #20]
 80005d0:	0021      	movs	r1, r4
 80005d2:	4033      	ands	r3, r6
 80005d4:	2009      	movs	r0, #9
 80005d6:	930b      	str	r3, [sp, #44]	; 0x2c
 80005d8:	9b0b      	ldr	r3, [sp, #44]	; 0x2c
 80005da:	f001 f8b9 	bl	8001750 <HAL_NVIC_SetPriority>
 80005de:	2009      	movs	r0, #9
 80005e0:	f001 f8e0 	bl	80017a4 <HAL_NVIC_EnableIRQ>
 80005e4:	0021      	movs	r1, r4
 80005e6:	0022      	movs	r2, r4
 80005e8:	200a      	movs	r0, #10
 80005ea:	f001 f8b1 	bl	8001750 <HAL_NVIC_SetPriority>
 80005ee:	200a      	movs	r0, #10
 80005f0:	f001 f8d8 	bl	80017a4 <HAL_NVIC_EnableIRQ>
 80005f4:	4d0c      	ldr	r5, [pc, #48]	; (8000628 <main+0x104>)
 80005f6:	4b0d      	ldr	r3, [pc, #52]	; (800062c <main+0x108>)
 80005f8:	0028      	movs	r0, r5
 80005fa:	602b      	str	r3, [r5, #0]
 80005fc:	4b0c      	ldr	r3, [pc, #48]	; (8000630 <main+0x10c>)
 80005fe:	60ee      	str	r6, [r5, #12]
 8000600:	606b      	str	r3, [r5, #4]
 8000602:	2312      	movs	r3, #18
 8000604:	612c      	str	r4, [r5, #16]
 8000606:	60ab      	str	r3, [r5, #8]
 8000608:	616c      	str	r4, [r5, #20]
 800060a:	61ac      	str	r4, [r5, #24]
 800060c:	61ec      	str	r4, [r5, #28]
 800060e:	622c      	str	r4, [r5, #32]
 8000610:	f001 fb18 	bl	8001c44 <HAL_I2C_Init>
 8000614:	0001      	movs	r1, r0
 8000616:	42a0      	cmp	r0, r4
 8000618:	d00c      	beq.n	8000634 <main+0x110>
 800061a:	f7ff ff2b 	bl	8000474 <Error_Handler>
 800061e:	46c0      	nop			; (mov r8, r8)
 8000620:	40021000 	.word	0x40021000
 8000624:	48001400 	.word	0x48001400
 8000628:	20000164 	.word	0x20000164
 800062c:	40005400 	.word	0x40005400
 8000630:	2000090e 	.word	0x2000090e
 8000634:	0028      	movs	r0, r5
 8000636:	f002 f991 	bl	800295c <HAL_I2CEx_ConfigAnalogFilter>
 800063a:	1e01      	subs	r1, r0, #0
 800063c:	d1ed      	bne.n	800061a <main+0xf6>
 800063e:	0028      	movs	r0, r5
 8000640:	f002 f9b2 	bl	80029a8 <HAL_I2CEx_ConfigDigitalFilter>
 8000644:	1e04      	subs	r4, r0, #0
 8000646:	d1e8      	bne.n	800061a <main+0xf6>
 8000648:	0001      	movs	r1, r0
 800064a:	220c      	movs	r2, #12
 800064c:	a813      	add	r0, sp, #76	; 0x4c
 800064e:	f003 ff27 	bl	80044a0 <memset>
 8000652:	4dec      	ldr	r5, [pc, #944]	; (8000a04 <main+0x4e0>)
 8000654:	4bec      	ldr	r3, [pc, #944]	; (8000a08 <main+0x4e4>)
 8000656:	2704      	movs	r7, #4
 8000658:	602b      	str	r3, [r5, #0]
 800065a:	23c2      	movs	r3, #194	; 0xc2
 800065c:	33ff      	adds	r3, #255	; 0xff
 800065e:	61eb      	str	r3, [r5, #28]
 8000660:	0028      	movs	r0, r5
 8000662:	1d6b      	adds	r3, r5, #5
 8000664:	61ac      	str	r4, [r5, #24]
 8000666:	606c      	str	r4, [r5, #4]
 8000668:	60ac      	str	r4, [r5, #8]
 800066a:	60ec      	str	r4, [r5, #12]
 800066c:	612e      	str	r6, [r5, #16]
 800066e:	616f      	str	r7, [r5, #20]
 8000670:	622c      	str	r4, [r5, #32]
 8000672:	77dc      	strb	r4, [r3, #31]
 8000674:	62ae      	str	r6, [r5, #40]	; 0x28
 8000676:	f000 fe4d 	bl	8001314 <HAL_ADC_Init>
 800067a:	2800      	cmp	r0, #0
 800067c:	d1cd      	bne.n	800061a <main+0xf6>
 800067e:	2380      	movs	r3, #128	; 0x80
 8000680:	015b      	lsls	r3, r3, #5
 8000682:	9314      	str	r3, [sp, #80]	; 0x50
 8000684:	2380      	movs	r3, #128	; 0x80
 8000686:	9013      	str	r0, [sp, #76]	; 0x4c
 8000688:	055b      	lsls	r3, r3, #21
 800068a:	0028      	movs	r0, r5
 800068c:	a913      	add	r1, sp, #76	; 0x4c
 800068e:	9315      	str	r3, [sp, #84]	; 0x54
 8000690:	f000 ff80 	bl	8001594 <HAL_ADC_ConfigChannel>
 8000694:	2800      	cmp	r0, #0
 8000696:	d1c0      	bne.n	800061a <main+0xf6>
 8000698:	2303      	movs	r3, #3
 800069a:	0028      	movs	r0, r5
 800069c:	a913      	add	r1, sp, #76	; 0x4c
 800069e:	9313      	str	r3, [sp, #76]	; 0x4c
 80006a0:	f000 ff78 	bl	8001594 <HAL_ADC_ConfigChannel>
 80006a4:	2800      	cmp	r0, #0
 80006a6:	d1b8      	bne.n	800061a <main+0xf6>
 80006a8:	0028      	movs	r0, r5
 80006aa:	a913      	add	r1, sp, #76	; 0x4c
 80006ac:	9713      	str	r7, [sp, #76]	; 0x4c
 80006ae:	f000 ff71 	bl	8001594 <HAL_ADC_ConfigChannel>
 80006b2:	2800      	cmp	r0, #0
 80006b4:	d1b1      	bne.n	800061a <main+0xf6>
 80006b6:	2309      	movs	r3, #9
 80006b8:	0028      	movs	r0, r5
 80006ba:	a913      	add	r1, sp, #76	; 0x4c
 80006bc:	9313      	str	r3, [sp, #76]	; 0x4c
 80006be:	f000 ff69 	bl	8001594 <HAL_ADC_ConfigChannel>
 80006c2:	2800      	cmp	r0, #0
 80006c4:	d1a9      	bne.n	800061a <main+0xf6>
 80006c6:	2310      	movs	r3, #16
 80006c8:	0028      	movs	r0, r5
 80006ca:	a913      	add	r1, sp, #76	; 0x4c
 80006cc:	9313      	str	r3, [sp, #76]	; 0x4c
 80006ce:	f000 ff61 	bl	8001594 <HAL_ADC_ConfigChannel>
 80006d2:	2800      	cmp	r0, #0
 80006d4:	d1a1      	bne.n	800061a <main+0xf6>
 80006d6:	2311      	movs	r3, #17
 80006d8:	0028      	movs	r0, r5
 80006da:	a913      	add	r1, sp, #76	; 0x4c
 80006dc:	9313      	str	r3, [sp, #76]	; 0x4c
 80006de:	f000 ff59 	bl	8001594 <HAL_ADC_ConfigChannel>
 80006e2:	2800      	cmp	r0, #0
 80006e4:	d199      	bne.n	800061a <main+0xf6>
 80006e6:	48c9      	ldr	r0, [pc, #804]	; (8000a0c <main+0x4e8>)
 80006e8:	4bc9      	ldr	r3, [pc, #804]	; (8000a10 <main+0x4ec>)
 80006ea:	22e0      	movs	r2, #224	; 0xe0
 80006ec:	6003      	str	r3, [r0, #0]
 80006ee:	2382      	movs	r3, #130	; 0x82
 80006f0:	00d2      	lsls	r2, r2, #3
 80006f2:	005b      	lsls	r3, r3, #1
 80006f4:	60c2      	str	r2, [r0, #12]
 80006f6:	2202      	movs	r2, #2
 80006f8:	6043      	str	r3, [r0, #4]
 80006fa:	2180      	movs	r1, #128	; 0x80
 80006fc:	2300      	movs	r3, #0
 80006fe:	6102      	str	r2, [r0, #16]
 8000700:	3216      	adds	r2, #22
 8000702:	6083      	str	r3, [r0, #8]
 8000704:	6143      	str	r3, [r0, #20]
 8000706:	0089      	lsls	r1, r1, #2
 8000708:	61c2      	str	r2, [r0, #28]
 800070a:	6203      	str	r3, [r0, #32]
 800070c:	6243      	str	r3, [r0, #36]	; 0x24
 800070e:	6283      	str	r3, [r0, #40]	; 0x28
 8000710:	3a11      	subs	r2, #17
 8000712:	6303      	str	r3, [r0, #48]	; 0x30
 8000714:	3308      	adds	r3, #8
 8000716:	6181      	str	r1, [r0, #24]
 8000718:	62c2      	str	r2, [r0, #44]	; 0x2c
 800071a:	6343      	str	r3, [r0, #52]	; 0x34
 800071c:	f002 fd94 	bl	8003248 <HAL_SPI_Init>
 8000720:	1e06      	subs	r6, r0, #0
 8000722:	d000      	beq.n	8000726 <main+0x202>
 8000724:	e779      	b.n	800061a <main+0xf6>
 8000726:	0001      	movs	r1, r0
 8000728:	2210      	movs	r2, #16
 800072a:	a81a      	add	r0, sp, #104	; 0x68
 800072c:	f003 feb8 	bl	80044a0 <memset>
 8000730:	2214      	movs	r2, #20
 8000732:	0031      	movs	r1, r6
 8000734:	a81e      	add	r0, sp, #120	; 0x78
 8000736:	f003 feb3 	bl	80044a0 <memset>
 800073a:	2208      	movs	r2, #8
 800073c:	0031      	movs	r1, r6
 800073e:	a811      	add	r0, sp, #68	; 0x44
 8000740:	f003 feae 	bl	80044a0 <memset>
 8000744:	221c      	movs	r2, #28
 8000746:	0031      	movs	r1, r6
 8000748:	a823      	add	r0, sp, #140	; 0x8c
 800074a:	f003 fea9 	bl	80044a0 <memset>
 800074e:	2220      	movs	r2, #32
 8000750:	0031      	movs	r1, r6
 8000752:	a82a      	add	r0, sp, #168	; 0xa8
 8000754:	f003 fea4 	bl	80044a0 <memset>
 8000758:	2180      	movs	r1, #128	; 0x80
 800075a:	2202      	movs	r2, #2
 800075c:	4cad      	ldr	r4, [pc, #692]	; (8000a14 <main+0x4f0>)
 800075e:	4fae      	ldr	r7, [pc, #696]	; (8000a18 <main+0x4f4>)
 8000760:	0089      	lsls	r1, r1, #2
 8000762:	0020      	movs	r0, r4
 8000764:	6027      	str	r7, [r4, #0]
 8000766:	6062      	str	r2, [r4, #4]
 8000768:	60a6      	str	r6, [r4, #8]
 800076a:	60e1      	str	r1, [r4, #12]
 800076c:	6126      	str	r6, [r4, #16]
 800076e:	6166      	str	r6, [r4, #20]
 8000770:	61a6      	str	r6, [r4, #24]
 8000772:	f003 f8bd 	bl	80038f0 <HAL_TIM_Base_Init>
 8000776:	2800      	cmp	r0, #0
 8000778:	d000      	beq.n	800077c <main+0x258>
 800077a:	e74e      	b.n	800061a <main+0xf6>
 800077c:	2380      	movs	r3, #128	; 0x80
 800077e:	0020      	movs	r0, r4
 8000780:	015b      	lsls	r3, r3, #5
 8000782:	a91a      	add	r1, sp, #104	; 0x68
 8000784:	931a      	str	r3, [sp, #104]	; 0x68
 8000786:	f003 f9a9 	bl	8003adc <HAL_TIM_ConfigClockSource>
 800078a:	2800      	cmp	r0, #0
 800078c:	d000      	beq.n	8000790 <main+0x26c>
 800078e:	e744      	b.n	800061a <main+0xf6>
 8000790:	0020      	movs	r0, r4
 8000792:	f003 f8d5 	bl	8003940 <HAL_TIM_PWM_Init>
 8000796:	2800      	cmp	r0, #0
 8000798:	d000      	beq.n	800079c <main+0x278>
 800079a:	e73e      	b.n	800061a <main+0xf6>
 800079c:	2305      	movs	r3, #5
 800079e:	931e      	str	r3, [sp, #120]	; 0x78
 80007a0:	336b      	adds	r3, #107	; 0x6b
 80007a2:	931f      	str	r3, [sp, #124]	; 0x7c
 80007a4:	2380      	movs	r3, #128	; 0x80
 80007a6:	9021      	str	r0, [sp, #132]	; 0x84
 80007a8:	021b      	lsls	r3, r3, #8
 80007aa:	9022      	str	r0, [sp, #136]	; 0x88
 80007ac:	a91e      	add	r1, sp, #120	; 0x78
 80007ae:	0020      	movs	r0, r4
 80007b0:	9320      	str	r3, [sp, #128]	; 0x80
 80007b2:	f003 faa3 	bl	8003cfc <HAL_TIM_SlaveConfigSynchro>
 80007b6:	2800      	cmp	r0, #0
 80007b8:	d000      	beq.n	80007bc <main+0x298>
 80007ba:	e72e      	b.n	800061a <main+0xf6>
 80007bc:	9011      	str	r0, [sp, #68]	; 0x44
 80007be:	9012      	str	r0, [sp, #72]	; 0x48
 80007c0:	a911      	add	r1, sp, #68	; 0x44
 80007c2:	0020      	movs	r0, r4
 80007c4:	f003 fb80 	bl	8003ec8 <HAL_TIMEx_MasterConfigSynchronization>
 80007c8:	1e02      	subs	r2, r0, #0
 80007ca:	d000      	beq.n	80007ce <main+0x2aa>
 80007cc:	e725      	b.n	800061a <main+0xf6>
 80007ce:	2360      	movs	r3, #96	; 0x60
 80007d0:	9024      	str	r0, [sp, #144]	; 0x90
 80007d2:	9025      	str	r0, [sp, #148]	; 0x94
 80007d4:	9026      	str	r0, [sp, #152]	; 0x98
 80007d6:	9027      	str	r0, [sp, #156]	; 0x9c
 80007d8:	9028      	str	r0, [sp, #160]	; 0xa0
 80007da:	9029      	str	r0, [sp, #164]	; 0xa4
 80007dc:	a923      	add	r1, sp, #140	; 0x8c
 80007de:	0020      	movs	r0, r4
 80007e0:	9323      	str	r3, [sp, #140]	; 0x8c
 80007e2:	f003 f911 	bl	8003a08 <HAL_TIM_PWM_ConfigChannel>
 80007e6:	2800      	cmp	r0, #0
 80007e8:	d000      	beq.n	80007ec <main+0x2c8>
 80007ea:	e716      	b.n	800061a <main+0xf6>
 80007ec:	2204      	movs	r2, #4
 80007ee:	0020      	movs	r0, r4
 80007f0:	a923      	add	r1, sp, #140	; 0x8c
 80007f2:	f003 f909 	bl	8003a08 <HAL_TIM_PWM_ConfigChannel>
 80007f6:	2800      	cmp	r0, #0
 80007f8:	d000      	beq.n	80007fc <main+0x2d8>
 80007fa:	e70e      	b.n	800061a <main+0xf6>
 80007fc:	2208      	movs	r2, #8
 80007fe:	0020      	movs	r0, r4
 8000800:	a923      	add	r1, sp, #140	; 0x8c
 8000802:	f003 f901 	bl	8003a08 <HAL_TIM_PWM_ConfigChannel>
 8000806:	2800      	cmp	r0, #0
 8000808:	d000      	beq.n	800080c <main+0x2e8>
 800080a:	e706      	b.n	800061a <main+0xf6>
 800080c:	230a      	movs	r3, #10
 800080e:	932d      	str	r3, [sp, #180]	; 0xb4
 8000810:	2380      	movs	r3, #128	; 0x80
 8000812:	902a      	str	r0, [sp, #168]	; 0xa8
 8000814:	902b      	str	r0, [sp, #172]	; 0xac
 8000816:	902c      	str	r0, [sp, #176]	; 0xb0
 8000818:	902e      	str	r0, [sp, #184]	; 0xb8
 800081a:	019b      	lsls	r3, r3, #6
 800081c:	9031      	str	r0, [sp, #196]	; 0xc4
 800081e:	a92a      	add	r1, sp, #168	; 0xa8
 8000820:	0020      	movs	r0, r4
 8000822:	932f      	str	r3, [sp, #188]	; 0xbc
 8000824:	f003 fb7c 	bl	8003f20 <HAL_TIMEx_ConfigBreakDeadTime>
 8000828:	2800      	cmp	r0, #0
 800082a:	d000      	beq.n	800082e <main+0x30a>
 800082c:	e6f5      	b.n	800061a <main+0xf6>
 800082e:	0020      	movs	r0, r4
 8000830:	f000 fb9a 	bl	8000f68 <HAL_TIM_MspPostInit>
 8000834:	4879      	ldr	r0, [pc, #484]	; (8000a1c <main+0x4f8>)
 8000836:	4b7a      	ldr	r3, [pc, #488]	; (8000a20 <main+0x4fc>)
 8000838:	220c      	movs	r2, #12
 800083a:	6003      	str	r3, [r0, #0]
 800083c:	23e1      	movs	r3, #225	; 0xe1
 800083e:	025b      	lsls	r3, r3, #9
 8000840:	6043      	str	r3, [r0, #4]
 8000842:	2300      	movs	r3, #0
 8000844:	6142      	str	r2, [r0, #20]
 8000846:	6083      	str	r3, [r0, #8]
 8000848:	60c3      	str	r3, [r0, #12]
 800084a:	6103      	str	r3, [r0, #16]
 800084c:	6183      	str	r3, [r0, #24]
 800084e:	61c3      	str	r3, [r0, #28]
 8000850:	6203      	str	r3, [r0, #32]
 8000852:	6243      	str	r3, [r0, #36]	; 0x24
 8000854:	f003 fdc8 	bl	80043e8 <HAL_UART_Init>
 8000858:	1e06      	subs	r6, r0, #0
 800085a:	d000      	beq.n	800085e <main+0x33a>
 800085c:	e6dd      	b.n	800061a <main+0xf6>
 800085e:	0001      	movs	r1, r0
 8000860:	2210      	movs	r2, #16
 8000862:	a816      	add	r0, sp, #88	; 0x58
 8000864:	f003 fe1c 	bl	80044a0 <memset>
 8000868:	2208      	movs	r2, #8
 800086a:	0031      	movs	r1, r6
 800086c:	a80f      	add	r0, sp, #60	; 0x3c
 800086e:	f003 fe17 	bl	80044a0 <memset>
 8000872:	2380      	movs	r3, #128	; 0x80
 8000874:	4a6b      	ldr	r2, [pc, #428]	; (8000a24 <main+0x500>)
 8000876:	05db      	lsls	r3, r3, #23
 8000878:	6013      	str	r3, [r2, #0]
 800087a:	232f      	movs	r3, #47	; 0x2f
 800087c:	6053      	str	r3, [r2, #4]
 800087e:	4b6a      	ldr	r3, [pc, #424]	; (8000a28 <main+0x504>)
 8000880:	0010      	movs	r0, r2
 8000882:	6096      	str	r6, [r2, #8]
 8000884:	60d3      	str	r3, [r2, #12]
 8000886:	6116      	str	r6, [r2, #16]
 8000888:	6196      	str	r6, [r2, #24]
 800088a:	f003 f831 	bl	80038f0 <HAL_TIM_Base_Init>
 800088e:	2800      	cmp	r0, #0
 8000890:	d000      	beq.n	8000894 <main+0x370>
 8000892:	e6c2      	b.n	800061a <main+0xf6>
 8000894:	2380      	movs	r3, #128	; 0x80
 8000896:	4863      	ldr	r0, [pc, #396]	; (8000a24 <main+0x500>)
 8000898:	015b      	lsls	r3, r3, #5
 800089a:	a916      	add	r1, sp, #88	; 0x58
 800089c:	9316      	str	r3, [sp, #88]	; 0x58
 800089e:	f003 f91d 	bl	8003adc <HAL_TIM_ConfigClockSource>
 80008a2:	2800      	cmp	r0, #0
 80008a4:	d000      	beq.n	80008a8 <main+0x384>
 80008a6:	e6b8      	b.n	800061a <main+0xf6>
 80008a8:	900f      	str	r0, [sp, #60]	; 0x3c
 80008aa:	9010      	str	r0, [sp, #64]	; 0x40
 80008ac:	a90f      	add	r1, sp, #60	; 0x3c
 80008ae:	485d      	ldr	r0, [pc, #372]	; (8000a24 <main+0x500>)
 80008b0:	f003 fb0a 	bl	8003ec8 <HAL_TIMEx_MasterConfigSynchronization>
 80008b4:	1e06      	subs	r6, r0, #0
 80008b6:	d000      	beq.n	80008ba <main+0x396>
 80008b8:	e6af      	b.n	800061a <main+0xf6>
 80008ba:	0002      	movs	r2, r0
 80008bc:	2090      	movs	r0, #144	; 0x90
 80008be:	2102      	movs	r1, #2
 80008c0:	05c0      	lsls	r0, r0, #23
 80008c2:	f001 f925 	bl	8001b10 <HAL_GPIO_WritePin>
 80008c6:	0028      	movs	r0, r5
 80008c8:	f000 feea 	bl	80016a0 <HAL_ADCEx_Calibration_Start>
 80008cc:	0031      	movs	r1, r6
 80008ce:	0020      	movs	r0, r4
 80008d0:	f003 faa4 	bl	8003e1c <HAL_TIM_PWM_Start>
 80008d4:	0031      	movs	r1, r6
 80008d6:	0020      	movs	r0, r4
 80008d8:	f003 faf2 	bl	8003ec0 <HAL_TIMEx_PWMN_Start>
 80008dc:	2104      	movs	r1, #4
 80008de:	0020      	movs	r0, r4
 80008e0:	f003 fa9c 	bl	8003e1c <HAL_TIM_PWM_Start>
 80008e4:	2104      	movs	r1, #4
 80008e6:	0020      	movs	r0, r4
 80008e8:	f003 faea 	bl	8003ec0 <HAL_TIMEx_PWMN_Start>
 80008ec:	2108      	movs	r1, #8
 80008ee:	0020      	movs	r0, r4
 80008f0:	f003 fa94 	bl	8003e1c <HAL_TIM_PWM_Start>
 80008f4:	2108      	movs	r1, #8
 80008f6:	0020      	movs	r0, r4
 80008f8:	f003 fae2 	bl	8003ec0 <HAL_TIMEx_PWMN_Start>
 80008fc:	4849      	ldr	r0, [pc, #292]	; (8000a24 <main+0x500>)
 80008fe:	f002 fed9 	bl	80036b4 <HAL_TIM_Base_Start_IT>
 8000902:	2201      	movs	r2, #1
 8000904:	637e      	str	r6, [r7, #52]	; 0x34
 8000906:	0011      	movs	r1, r2
 8000908:	4848      	ldr	r0, [pc, #288]	; (8000a2c <main+0x508>)
 800090a:	63be      	str	r6, [r7, #56]	; 0x38
 800090c:	63fe      	str	r6, [r7, #60]	; 0x3c
 800090e:	f001 f8ff 	bl	8001b10 <HAL_GPIO_WritePin>
 8000912:	20fa      	movs	r0, #250	; 0xfa
 8000914:	00c0      	lsls	r0, r0, #3
 8000916:	f000 fc9b 	bl	8001250 <HAL_Delay>
 800091a:	0032      	movs	r2, r6
 800091c:	2101      	movs	r1, #1
 800091e:	4843      	ldr	r0, [pc, #268]	; (8000a2c <main+0x508>)
 8000920:	f001 f8f6 	bl	8001b10 <HAL_GPIO_WritePin>
 8000924:	2064      	movs	r0, #100	; 0x64
 8000926:	f000 fc93 	bl	8001250 <HAL_Delay>
 800092a:	4841      	ldr	r0, [pc, #260]	; (8000a30 <main+0x50c>)
 800092c:	f001 fabe 	bl	8001eac <HAL_I2C_EnableListen_IT>
 8000930:	1e04      	subs	r4, r0, #0
 8000932:	d000      	beq.n	8000936 <main+0x412>
 8000934:	e671      	b.n	800061a <main+0xf6>
 8000936:	2201      	movs	r2, #1
 8000938:	2180      	movs	r1, #128	; 0x80
 800093a:	483c      	ldr	r0, [pc, #240]	; (8000a2c <main+0x508>)
 800093c:	f001 f8e8 	bl	8001b10 <HAL_GPIO_WritePin>
 8000940:	2201      	movs	r2, #1
 8000942:	2140      	movs	r1, #64	; 0x40
 8000944:	4839      	ldr	r0, [pc, #228]	; (8000a2c <main+0x508>)
 8000946:	f001 f8e3 	bl	8001b10 <HAL_GPIO_WritePin>
 800094a:	2314      	movs	r3, #20
 800094c:	20fa      	movs	r0, #250	; 0xfa
 800094e:	637b      	str	r3, [r7, #52]	; 0x34
 8000950:	0080      	lsls	r0, r0, #2
 8000952:	63bc      	str	r4, [r7, #56]	; 0x38
 8000954:	63fc      	str	r4, [r7, #60]	; 0x3c
 8000956:	f000 fc7b 	bl	8001250 <HAL_Delay>
 800095a:	340a      	adds	r4, #10
 800095c:	3602      	adds	r6, #2
 800095e:	2200      	movs	r2, #0
 8000960:	0031      	movs	r1, r6
 8000962:	4832      	ldr	r0, [pc, #200]	; (8000a2c <main+0x508>)
 8000964:	f001 f8d4 	bl	8001b10 <HAL_GPIO_WritePin>
 8000968:	2301      	movs	r3, #1
 800096a:	4d32      	ldr	r5, [pc, #200]	; (8000a34 <main+0x510>)
 800096c:	425b      	negs	r3, r3
 800096e:	002a      	movs	r2, r5
 8000970:	4931      	ldr	r1, [pc, #196]	; (8000a38 <main+0x514>)
 8000972:	9300      	str	r3, [sp, #0]
 8000974:	4825      	ldr	r0, [pc, #148]	; (8000a0c <main+0x4e8>)
 8000976:	0033      	movs	r3, r6
 8000978:	f002 fcde 	bl	8003338 <HAL_SPI_TransmitReceive>
 800097c:	3c01      	subs	r4, #1
 800097e:	2201      	movs	r2, #1
 8000980:	0031      	movs	r1, r6
 8000982:	482a      	ldr	r0, [pc, #168]	; (8000a2c <main+0x508>)
 8000984:	f001 f8c4 	bl	8001b10 <HAL_GPIO_WritePin>
 8000988:	2c00      	cmp	r4, #0
 800098a:	d1e8      	bne.n	800095e <main+0x43a>
 800098c:	7828      	ldrb	r0, [r5, #0]
 800098e:	786b      	ldrb	r3, [r5, #1]
 8000990:	0200      	lsls	r0, r0, #8
 8000992:	18c0      	adds	r0, r0, r3
 8000994:	2380      	movs	r3, #128	; 0x80
 8000996:	21c8      	movs	r1, #200	; 0xc8
 8000998:	01db      	lsls	r3, r3, #7
 800099a:	18c0      	adds	r0, r0, r3
 800099c:	4b27      	ldr	r3, [pc, #156]	; (8000a3c <main+0x518>)
 800099e:	0389      	lsls	r1, r1, #14
 80009a0:	4358      	muls	r0, r3
 80009a2:	0bc5      	lsrs	r5, r0, #15
 80009a4:	f7ff fbce 	bl	8000144 <__udivsi3>
 80009a8:	2307      	movs	r3, #7
 80009aa:	21b4      	movs	r1, #180	; 0xb4
 80009ac:	4358      	muls	r0, r3
 80009ae:	0049      	lsls	r1, r1, #1
 80009b0:	f7ff fc4e 	bl	8000250 <__aeabi_uidivmod>
 80009b4:	0023      	movs	r3, r4
 80009b6:	3314      	adds	r3, #20
 80009b8:	9109      	str	r1, [sp, #36]	; 0x24
 80009ba:	9407      	str	r4, [sp, #28]
 80009bc:	9405      	str	r4, [sp, #20]
 80009be:	9406      	str	r4, [sp, #24]
 80009c0:	9303      	str	r3, [sp, #12]
 80009c2:	9404      	str	r4, [sp, #16]
 80009c4:	2200      	movs	r2, #0
 80009c6:	2102      	movs	r1, #2
 80009c8:	4818      	ldr	r0, [pc, #96]	; (8000a2c <main+0x508>)
 80009ca:	f001 f8a1 	bl	8001b10 <HAL_GPIO_WritePin>
 80009ce:	2301      	movs	r3, #1
 80009d0:	4e18      	ldr	r6, [pc, #96]	; (8000a34 <main+0x510>)
 80009d2:	425b      	negs	r3, r3
 80009d4:	0032      	movs	r2, r6
 80009d6:	4918      	ldr	r1, [pc, #96]	; (8000a38 <main+0x514>)
 80009d8:	9300      	str	r3, [sp, #0]
 80009da:	480c      	ldr	r0, [pc, #48]	; (8000a0c <main+0x4e8>)
 80009dc:	3303      	adds	r3, #3
 80009de:	f002 fcab 	bl	8003338 <HAL_SPI_TransmitReceive>
 80009e2:	2201      	movs	r2, #1
 80009e4:	2102      	movs	r1, #2
 80009e6:	4811      	ldr	r0, [pc, #68]	; (8000a2c <main+0x508>)
 80009e8:	f001 f892 	bl	8001b10 <HAL_GPIO_WritePin>
 80009ec:	7834      	ldrb	r4, [r6, #0]
 80009ee:	7873      	ldrb	r3, [r6, #1]
 80009f0:	0224      	lsls	r4, r4, #8
 80009f2:	18e4      	adds	r4, r4, r3
 80009f4:	2380      	movs	r3, #128	; 0x80
 80009f6:	01db      	lsls	r3, r3, #7
 80009f8:	18e4      	adds	r4, r4, r3
 80009fa:	4b10      	ldr	r3, [pc, #64]	; (8000a3c <main+0x518>)
 80009fc:	435c      	muls	r4, r3
 80009fe:	0019      	movs	r1, r3
 8000a00:	e01e      	b.n	8000a40 <main+0x51c>
 8000a02:	46c0      	nop			; (mov r8, r8)
 8000a04:	2000009c 	.word	0x2000009c
 8000a08:	40012400 	.word	0x40012400
 8000a0c:	200001b8 	.word	0x200001b8
 8000a10:	40013000 	.word	0x40013000
 8000a14:	2000021c 	.word	0x2000021c
 8000a18:	40012c00 	.word	0x40012c00
 8000a1c:	200002ac 	.word	0x200002ac
 8000a20:	40013800 	.word	0x40013800
 8000a24:	20000264 	.word	0x20000264
 8000a28:	00002710 	.word	0x00002710
 8000a2c:	48001400 	.word	0x48001400
 8000a30:	20000164 	.word	0x20000164
 8000a34:	20000339 	.word	0x20000339
 8000a38:	2000033b 	.word	0x2000033b
 8000a3c:	00008ca0 	.word	0x00008ca0
 8000a40:	0be0      	lsrs	r0, r4, #15
 8000a42:	f7ff fc05 	bl	8000250 <__aeabi_uidivmod>
 8000a46:	4b7a      	ldr	r3, [pc, #488]	; (8000c30 <main+0x70c>)
 8000a48:	9108      	str	r1, [sp, #32]
 8000a4a:	429d      	cmp	r5, r3
 8000a4c:	d855      	bhi.n	8000afa <main+0x5d6>
 8000a4e:	4b79      	ldr	r3, [pc, #484]	; (8000c34 <main+0x710>)
 8000a50:	4299      	cmp	r1, r3
 8000a52:	d904      	bls.n	8000a5e <main+0x53a>
 8000a54:	9b06      	ldr	r3, [sp, #24]
 8000a56:	4a78      	ldr	r2, [pc, #480]	; (8000c38 <main+0x714>)
 8000a58:	4694      	mov	ip, r2
 8000a5a:	4463      	add	r3, ip
 8000a5c:	9306      	str	r3, [sp, #24]
 8000a5e:	2563      	movs	r5, #99	; 0x63
 8000a60:	9b05      	ldr	r3, [sp, #20]
 8000a62:	2164      	movs	r1, #100	; 0x64
 8000a64:	435d      	muls	r5, r3
 8000a66:	9b08      	ldr	r3, [sp, #32]
 8000a68:	18ed      	adds	r5, r5, r3
 8000a6a:	9b06      	ldr	r3, [sp, #24]
 8000a6c:	18ed      	adds	r5, r5, r3
 8000a6e:	0028      	movs	r0, r5
 8000a70:	f7ff fb68 	bl	8000144 <__udivsi3>
 8000a74:	4b71      	ldr	r3, [pc, #452]	; (8000c3c <main+0x718>)
 8000a76:	9005      	str	r0, [sp, #20]
 8000a78:	781e      	ldrb	r6, [r3, #0]
 8000a7a:	2e00      	cmp	r6, #0
 8000a7c:	d146      	bne.n	8000b0c <main+0x5e8>
 8000a7e:	0032      	movs	r2, r6
 8000a80:	2180      	movs	r1, #128	; 0x80
 8000a82:	486f      	ldr	r0, [pc, #444]	; (8000c40 <main+0x71c>)
 8000a84:	f001 f844 	bl	8001b10 <HAL_GPIO_WritePin>
 8000a88:	0032      	movs	r2, r6
 8000a8a:	2140      	movs	r1, #64	; 0x40
 8000a8c:	486c      	ldr	r0, [pc, #432]	; (8000c40 <main+0x71c>)
 8000a8e:	f001 f83f 	bl	8001b10 <HAL_GPIO_WritePin>
 8000a92:	4c6c      	ldr	r4, [pc, #432]	; (8000c44 <main+0x720>)
 8000a94:	7823      	ldrb	r3, [r4, #0]
 8000a96:	2b00      	cmp	r3, #0
 8000a98:	d025      	beq.n	8000ae6 <main+0x5c2>
 8000a9a:	2101      	movs	r1, #1
 8000a9c:	4868      	ldr	r0, [pc, #416]	; (8000c40 <main+0x71c>)
 8000a9e:	f001 f83d 	bl	8001b1c <HAL_GPIO_TogglePin>
 8000aa2:	9908      	ldr	r1, [sp, #32]
 8000aa4:	4868      	ldr	r0, [pc, #416]	; (8000c48 <main+0x724>)
 8000aa6:	f003 fd03 	bl	80044b0 <iprintf>
 8000aaa:	4b64      	ldr	r3, [pc, #400]	; (8000c3c <main+0x718>)
 8000aac:	4867      	ldr	r0, [pc, #412]	; (8000c4c <main+0x728>)
 8000aae:	7819      	ldrb	r1, [r3, #0]
 8000ab0:	f003 fcfe 	bl	80044b0 <iprintf>
 8000ab4:	9b05      	ldr	r3, [sp, #20]
 8000ab6:	9a07      	ldr	r2, [sp, #28]
 8000ab8:	213c      	movs	r1, #60	; 0x3c
 8000aba:	1a98      	subs	r0, r3, r2
 8000abc:	f7ff fbcc 	bl	8000258 <__divsi3>
 8000ac0:	2500      	movs	r5, #0
 8000ac2:	0001      	movs	r1, r0
 8000ac4:	4862      	ldr	r0, [pc, #392]	; (8000c50 <main+0x72c>)
 8000ac6:	f003 fcf3 	bl	80044b0 <iprintf>
 8000aca:	2009      	movs	r0, #9
 8000acc:	f003 fd0a 	bl	80044e4 <putchar>
 8000ad0:	7025      	strb	r5, [r4, #0]
 8000ad2:	4c60      	ldr	r4, [pc, #384]	; (8000c54 <main+0x730>)
 8000ad4:	9a05      	ldr	r2, [sp, #20]
 8000ad6:	7823      	ldrb	r3, [r4, #0]
 8000ad8:	9207      	str	r2, [sp, #28]
 8000ada:	2b01      	cmp	r3, #1
 8000adc:	d103      	bne.n	8000ae6 <main+0x5c2>
 8000ade:	485e      	ldr	r0, [pc, #376]	; (8000c58 <main+0x734>)
 8000ae0:	f001 f9e4 	bl	8001eac <HAL_I2C_EnableListen_IT>
 8000ae4:	7025      	strb	r5, [r4, #0]
 8000ae6:	9b04      	ldr	r3, [sp, #16]
 8000ae8:	2b00      	cmp	r3, #0
 8000aea:	d173      	bne.n	8000bd4 <main+0x6b0>
 8000aec:	9b03      	ldr	r3, [sp, #12]
 8000aee:	637b      	str	r3, [r7, #52]	; 0x34
 8000af0:	9b04      	ldr	r3, [sp, #16]
 8000af2:	63bb      	str	r3, [r7, #56]	; 0x38
 8000af4:	9b04      	ldr	r3, [sp, #16]
 8000af6:	63fb      	str	r3, [r7, #60]	; 0x3c
 8000af8:	e07a      	b.n	8000bf0 <main+0x6cc>
 8000afa:	9a08      	ldr	r2, [sp, #32]
 8000afc:	429a      	cmp	r2, r3
 8000afe:	d8ae      	bhi.n	8000a5e <main+0x53a>
 8000b00:	4b4c      	ldr	r3, [pc, #304]	; (8000c34 <main+0x710>)
 8000b02:	429d      	cmp	r5, r3
 8000b04:	d9ab      	bls.n	8000a5e <main+0x53a>
 8000b06:	9b06      	ldr	r3, [sp, #24]
 8000b08:	4a54      	ldr	r2, [pc, #336]	; (8000c5c <main+0x738>)
 8000b0a:	e7a5      	b.n	8000a58 <main+0x534>
 8000b0c:	21c8      	movs	r1, #200	; 0xc8
 8000b0e:	0020      	movs	r0, r4
 8000b10:	0389      	lsls	r1, r1, #14
 8000b12:	f7ff fb17 	bl	8000144 <__udivsi3>
 8000b16:	2307      	movs	r3, #7
 8000b18:	21b4      	movs	r1, #180	; 0xb4
 8000b1a:	4358      	muls	r0, r3
 8000b1c:	9b09      	ldr	r3, [sp, #36]	; 0x24
 8000b1e:	0049      	lsls	r1, r1, #1
 8000b20:	1ac0      	subs	r0, r0, r3
 8000b22:	f7ff fb95 	bl	8000250 <__aeabi_uidivmod>
 8000b26:	1e73      	subs	r3, r6, #1
 8000b28:	000c      	movs	r4, r1
 8000b2a:	2b07      	cmp	r3, #7
 8000b2c:	d839      	bhi.n	8000ba2 <main+0x67e>
 8000b2e:	2201      	movs	r2, #1
 8000b30:	2180      	movs	r1, #128	; 0x80
 8000b32:	4843      	ldr	r0, [pc, #268]	; (8000c40 <main+0x71c>)
 8000b34:	f000 ffec 	bl	8001b10 <HAL_GPIO_WritePin>
 8000b38:	2201      	movs	r2, #1
 8000b3a:	2140      	movs	r1, #64	; 0x40
 8000b3c:	4840      	ldr	r0, [pc, #256]	; (8000c40 <main+0x71c>)
 8000b3e:	f000 ffe7 	bl	8001b10 <HAL_GPIO_WritePin>
 8000b42:	4b47      	ldr	r3, [pc, #284]	; (8000c60 <main+0x73c>)
 8000b44:	429d      	cmp	r5, r3
 8000b46:	d918      	bls.n	8000b7a <main+0x656>
 8000b48:	0020      	movs	r0, r4
 8000b4a:	21b4      	movs	r1, #180	; 0xb4
 8000b4c:	302d      	adds	r0, #45	; 0x2d
 8000b4e:	30ff      	adds	r0, #255	; 0xff
 8000b50:	0049      	lsls	r1, r1, #1
 8000b52:	f7ff fc67 	bl	8000424 <__aeabi_idivmod>
 8000b56:	0008      	movs	r0, r1
 8000b58:	213c      	movs	r1, #60	; 0x3c
 8000b5a:	f7ff fb7d 	bl	8000258 <__divsi3>
 8000b5e:	2164      	movs	r1, #100	; 0x64
 8000b60:	9b05      	ldr	r3, [sp, #20]
 8000b62:	4a40      	ldr	r2, [pc, #256]	; (8000c64 <main+0x740>)
 8000b64:	9004      	str	r0, [sp, #16]
 8000b66:	1898      	adds	r0, r3, r2
 8000b68:	f7ff fb76 	bl	8000258 <__divsi3>
 8000b6c:	230a      	movs	r3, #10
 8000b6e:	4373      	muls	r3, r6
 8000b70:	9303      	str	r3, [sp, #12]
 8000b72:	4283      	cmp	r3, r0
 8000b74:	dd8d      	ble.n	8000a92 <main+0x56e>
 8000b76:	9003      	str	r0, [sp, #12]
 8000b78:	e78b      	b.n	8000a92 <main+0x56e>
 8000b7a:	4b3b      	ldr	r3, [pc, #236]	; (8000c68 <main+0x744>)
 8000b7c:	2000      	movs	r0, #0
 8000b7e:	429d      	cmp	r5, r3
 8000b80:	d8f4      	bhi.n	8000b6c <main+0x648>
 8000b82:	0020      	movs	r0, r4
 8000b84:	21b4      	movs	r1, #180	; 0xb4
 8000b86:	3078      	adds	r0, #120	; 0x78
 8000b88:	0049      	lsls	r1, r1, #1
 8000b8a:	f7ff fc4b 	bl	8000424 <__aeabi_idivmod>
 8000b8e:	0008      	movs	r0, r1
 8000b90:	213c      	movs	r1, #60	; 0x3c
 8000b92:	f7ff fb61 	bl	8000258 <__divsi3>
 8000b96:	9b05      	ldr	r3, [sp, #20]
 8000b98:	9004      	str	r0, [sp, #16]
 8000b9a:	4834      	ldr	r0, [pc, #208]	; (8000c6c <main+0x748>)
 8000b9c:	2164      	movs	r1, #100	; 0x64
 8000b9e:	1ac0      	subs	r0, r0, r3
 8000ba0:	e7e2      	b.n	8000b68 <main+0x644>
 8000ba2:	2e09      	cmp	r6, #9
 8000ba4:	d000      	beq.n	8000ba8 <main+0x684>
 8000ba6:	e774      	b.n	8000a92 <main+0x56e>
 8000ba8:	2201      	movs	r2, #1
 8000baa:	2180      	movs	r1, #128	; 0x80
 8000bac:	4824      	ldr	r0, [pc, #144]	; (8000c40 <main+0x71c>)
 8000bae:	f000 ffaf 	bl	8001b10 <HAL_GPIO_WritePin>
 8000bb2:	2201      	movs	r2, #1
 8000bb4:	2140      	movs	r1, #64	; 0x40
 8000bb6:	4822      	ldr	r0, [pc, #136]	; (8000c40 <main+0x71c>)
 8000bb8:	f000 ffaa 	bl	8001b10 <HAL_GPIO_WritePin>
 8000bbc:	0020      	movs	r0, r4
 8000bbe:	21b4      	movs	r1, #180	; 0xb4
 8000bc0:	3078      	adds	r0, #120	; 0x78
 8000bc2:	0049      	lsls	r1, r1, #1
 8000bc4:	f7ff fc2e 	bl	8000424 <__aeabi_idivmod>
 8000bc8:	0008      	movs	r0, r1
 8000bca:	213c      	movs	r1, #60	; 0x3c
 8000bcc:	f7ff fb44 	bl	8000258 <__divsi3>
 8000bd0:	9004      	str	r0, [sp, #16]
 8000bd2:	e75e      	b.n	8000a92 <main+0x56e>
 8000bd4:	9b04      	ldr	r3, [sp, #16]
 8000bd6:	2b01      	cmp	r3, #1
 8000bd8:	d011      	beq.n	8000bfe <main+0x6da>
 8000bda:	2b02      	cmp	r3, #2
 8000bdc:	d015      	beq.n	8000c0a <main+0x6e6>
 8000bde:	9b04      	ldr	r3, [sp, #16]
 8000be0:	2b03      	cmp	r3, #3
 8000be2:	d017      	beq.n	8000c14 <main+0x6f0>
 8000be4:	9b04      	ldr	r3, [sp, #16]
 8000be6:	2b04      	cmp	r3, #4
 8000be8:	d01a      	beq.n	8000c20 <main+0x6fc>
 8000bea:	9b04      	ldr	r3, [sp, #16]
 8000bec:	2b05      	cmp	r3, #5
 8000bee:	d01a      	beq.n	8000c26 <main+0x702>
 8000bf0:	2206      	movs	r2, #6
 8000bf2:	491f      	ldr	r1, [pc, #124]	; (8000c70 <main+0x74c>)
 8000bf4:	481f      	ldr	r0, [pc, #124]	; (8000c74 <main+0x750>)
 8000bf6:	f000 fc35 	bl	8001464 <HAL_ADC_Start_DMA>
 8000bfa:	9d08      	ldr	r5, [sp, #32]
 8000bfc:	e6e2      	b.n	80009c4 <main+0x4a0>
 8000bfe:	9b03      	ldr	r3, [sp, #12]
 8000c00:	637b      	str	r3, [r7, #52]	; 0x34
 8000c02:	9b03      	ldr	r3, [sp, #12]
 8000c04:	63bb      	str	r3, [r7, #56]	; 0x38
 8000c06:	2300      	movs	r3, #0
 8000c08:	e775      	b.n	8000af6 <main+0x5d2>
 8000c0a:	2300      	movs	r3, #0
 8000c0c:	9a03      	ldr	r2, [sp, #12]
 8000c0e:	637b      	str	r3, [r7, #52]	; 0x34
 8000c10:	63ba      	str	r2, [r7, #56]	; 0x38
 8000c12:	e770      	b.n	8000af6 <main+0x5d2>
 8000c14:	2300      	movs	r3, #0
 8000c16:	637b      	str	r3, [r7, #52]	; 0x34
 8000c18:	9b03      	ldr	r3, [sp, #12]
 8000c1a:	63bb      	str	r3, [r7, #56]	; 0x38
 8000c1c:	9b03      	ldr	r3, [sp, #12]
 8000c1e:	e76a      	b.n	8000af6 <main+0x5d2>
 8000c20:	2300      	movs	r3, #0
 8000c22:	637b      	str	r3, [r7, #52]	; 0x34
 8000c24:	e7f9      	b.n	8000c1a <main+0x6f6>
 8000c26:	9b03      	ldr	r3, [sp, #12]
 8000c28:	637b      	str	r3, [r7, #52]	; 0x34
 8000c2a:	2300      	movs	r3, #0
 8000c2c:	e7f5      	b.n	8000c1a <main+0x6f6>
 8000c2e:	46c0      	nop			; (mov r8, r8)
 8000c30:	00002327 	.word	0x00002327
 8000c34:	00006978 	.word	0x00006978
 8000c38:	ffff7360 	.word	0xffff7360
 8000c3c:	20000334 	.word	0x20000334
 8000c40:	48001400 	.word	0x48001400
 8000c44:	20000098 	.word	0x20000098
 8000c48:	0800563b 	.word	0x0800563b
 8000c4c:	0800564a 	.word	0x0800564a
 8000c50:	08005657 	.word	0x08005657
 8000c54:	20000338 	.word	0x20000338
 8000c58:	20000164 	.word	0x20000164
 8000c5c:	00008ca0 	.word	0x00008ca0
 8000c60:	0037b233 	.word	0x0037b233
 8000c64:	ffff716c 	.word	0xffff716c
 8000c68:	00362b2f 	.word	0x00362b2f
 8000c6c:	00008aac 	.word	0x00008aac
 8000c70:	2000008c 	.word	0x2000008c
 8000c74:	2000009c 	.word	0x2000009c

08000c78 <HAL_I2C_AddrCallback>:
 8000c78:	2201      	movs	r2, #1
 8000c7a:	b570      	push	{r4, r5, r6, lr}
 8000c7c:	4813      	ldr	r0, [pc, #76]	; (8000ccc <HAL_I2C_AddrCallback+0x54>)
 8000c7e:	000d      	movs	r5, r1
 8000c80:	0011      	movs	r1, r2
 8000c82:	f000 ff45 	bl	8001b10 <HAL_GPIO_WritePin>
 8000c86:	4c12      	ldr	r4, [pc, #72]	; (8000cd0 <HAL_I2C_AddrCallback+0x58>)
 8000c88:	4812      	ldr	r0, [pc, #72]	; (8000cd4 <HAL_I2C_AddrCallback+0x5c>)
 8000c8a:	2d00      	cmp	r5, #0
 8000c8c:	d00a      	beq.n	8000ca4 <HAL_I2C_AddrCallback+0x2c>
 8000c8e:	2380      	movs	r3, #128	; 0x80
 8000c90:	2202      	movs	r2, #2
 8000c92:	0021      	movs	r1, r4
 8000c94:	049b      	lsls	r3, r3, #18
 8000c96:	f001 f82b 	bl	8001cf0 <HAL_I2C_Slave_Seq_Transmit_IT>
 8000c9a:	0002      	movs	r2, r0
 8000c9c:	2a00      	cmp	r2, #0
 8000c9e:	d010      	beq.n	8000cc2 <HAL_I2C_AddrCallback+0x4a>
 8000ca0:	f7ff fbe8 	bl	8000474 <Error_Handler>
 8000ca4:	2380      	movs	r3, #128	; 0x80
 8000ca6:	4d0c      	ldr	r5, [pc, #48]	; (8000cd8 <HAL_I2C_AddrCallback+0x60>)
 8000ca8:	2202      	movs	r2, #2
 8000caa:	049b      	lsls	r3, r3, #18
 8000cac:	0029      	movs	r1, r5
 8000cae:	f001 f88d 	bl	8001dcc <HAL_I2C_Slave_Seq_Receive_IT>
 8000cb2:	782b      	ldrb	r3, [r5, #0]
 8000cb4:	0002      	movs	r2, r0
 8000cb6:	3301      	adds	r3, #1
 8000cb8:	7023      	strb	r3, [r4, #0]
 8000cba:	786b      	ldrb	r3, [r5, #1]
 8000cbc:	3301      	adds	r3, #1
 8000cbe:	7063      	strb	r3, [r4, #1]
 8000cc0:	e7ec      	b.n	8000c9c <HAL_I2C_AddrCallback+0x24>
 8000cc2:	2101      	movs	r1, #1
 8000cc4:	4801      	ldr	r0, [pc, #4]	; (8000ccc <HAL_I2C_AddrCallback+0x54>)
 8000cc6:	f000 ff23 	bl	8001b10 <HAL_GPIO_WritePin>
 8000cca:	bd70      	pop	{r4, r5, r6, pc}
 8000ccc:	48001400 	.word	0x48001400
 8000cd0:	20000336 	.word	0x20000336
 8000cd4:	20000164 	.word	0x20000164
 8000cd8:	20000334 	.word	0x20000334

08000cdc <HAL_I2C_ErrorCallback>:
 8000cdc:	b510      	push	{r4, lr}
 8000cde:	f001 fe3b 	bl	8002958 <HAL_I2C_GetError>
 8000ce2:	2804      	cmp	r0, #4
 8000ce4:	d001      	beq.n	8000cea <HAL_I2C_ErrorCallback+0xe>
 8000ce6:	f7ff fbc5 	bl	8000474 <Error_Handler>
 8000cea:	bd10      	pop	{r4, pc}

08000cec <HAL_MspInit>:
 8000cec:	2001      	movs	r0, #1
 8000cee:	4b0a      	ldr	r3, [pc, #40]	; (8000d18 <HAL_MspInit+0x2c>)
 8000cf0:	b082      	sub	sp, #8
 8000cf2:	6999      	ldr	r1, [r3, #24]
 8000cf4:	4301      	orrs	r1, r0
 8000cf6:	6199      	str	r1, [r3, #24]
 8000cf8:	2180      	movs	r1, #128	; 0x80
 8000cfa:	699a      	ldr	r2, [r3, #24]
 8000cfc:	0549      	lsls	r1, r1, #21
 8000cfe:	4002      	ands	r2, r0
 8000d00:	9200      	str	r2, [sp, #0]
 8000d02:	9a00      	ldr	r2, [sp, #0]
 8000d04:	69da      	ldr	r2, [r3, #28]
 8000d06:	430a      	orrs	r2, r1
 8000d08:	61da      	str	r2, [r3, #28]
 8000d0a:	69db      	ldr	r3, [r3, #28]
 8000d0c:	400b      	ands	r3, r1
 8000d0e:	9301      	str	r3, [sp, #4]
 8000d10:	9b01      	ldr	r3, [sp, #4]
 8000d12:	b002      	add	sp, #8
 8000d14:	4770      	bx	lr
 8000d16:	46c0      	nop			; (mov r8, r8)
 8000d18:	40021000 	.word	0x40021000

08000d1c <HAL_ADC_MspInit>:
 8000d1c:	b570      	push	{r4, r5, r6, lr}
 8000d1e:	0005      	movs	r5, r0
 8000d20:	b088      	sub	sp, #32
 8000d22:	2214      	movs	r2, #20
 8000d24:	2100      	movs	r1, #0
 8000d26:	a803      	add	r0, sp, #12
 8000d28:	f003 fbba 	bl	80044a0 <memset>
 8000d2c:	4b25      	ldr	r3, [pc, #148]	; (8000dc4 <HAL_ADC_MspInit+0xa8>)
 8000d2e:	682a      	ldr	r2, [r5, #0]
 8000d30:	429a      	cmp	r2, r3
 8000d32:	d145      	bne.n	8000dc0 <HAL_ADC_MspInit+0xa4>
 8000d34:	2080      	movs	r0, #128	; 0x80
 8000d36:	4b24      	ldr	r3, [pc, #144]	; (8000dc8 <HAL_ADC_MspInit+0xac>)
 8000d38:	0080      	lsls	r0, r0, #2
 8000d3a:	6999      	ldr	r1, [r3, #24]
 8000d3c:	2403      	movs	r4, #3
 8000d3e:	4301      	orrs	r1, r0
 8000d40:	6199      	str	r1, [r3, #24]
 8000d42:	699a      	ldr	r2, [r3, #24]
 8000d44:	2600      	movs	r6, #0
 8000d46:	4002      	ands	r2, r0
 8000d48:	2080      	movs	r0, #128	; 0x80
 8000d4a:	9200      	str	r2, [sp, #0]
 8000d4c:	9a00      	ldr	r2, [sp, #0]
 8000d4e:	6959      	ldr	r1, [r3, #20]
 8000d50:	0280      	lsls	r0, r0, #10
 8000d52:	4301      	orrs	r1, r0
 8000d54:	6159      	str	r1, [r3, #20]
 8000d56:	2180      	movs	r1, #128	; 0x80
 8000d58:	695a      	ldr	r2, [r3, #20]
 8000d5a:	02c9      	lsls	r1, r1, #11
 8000d5c:	4002      	ands	r2, r0
 8000d5e:	9201      	str	r2, [sp, #4]
 8000d60:	9a01      	ldr	r2, [sp, #4]
 8000d62:	695a      	ldr	r2, [r3, #20]
 8000d64:	2090      	movs	r0, #144	; 0x90
 8000d66:	430a      	orrs	r2, r1
 8000d68:	615a      	str	r2, [r3, #20]
 8000d6a:	695b      	ldr	r3, [r3, #20]
 8000d6c:	05c0      	lsls	r0, r0, #23
 8000d6e:	400b      	ands	r3, r1
 8000d70:	9302      	str	r3, [sp, #8]
 8000d72:	9b02      	ldr	r3, [sp, #8]
 8000d74:	2319      	movs	r3, #25
 8000d76:	a903      	add	r1, sp, #12
 8000d78:	9303      	str	r3, [sp, #12]
 8000d7a:	9404      	str	r4, [sp, #16]
 8000d7c:	f000 fe18 	bl	80019b0 <HAL_GPIO_Init>
 8000d80:	2302      	movs	r3, #2
 8000d82:	4812      	ldr	r0, [pc, #72]	; (8000dcc <HAL_ADC_MspInit+0xb0>)
 8000d84:	a903      	add	r1, sp, #12
 8000d86:	9303      	str	r3, [sp, #12]
 8000d88:	9404      	str	r4, [sp, #16]
 8000d8a:	9605      	str	r6, [sp, #20]
 8000d8c:	f000 fe10 	bl	80019b0 <HAL_GPIO_Init>
 8000d90:	4c0f      	ldr	r4, [pc, #60]	; (8000dd0 <HAL_ADC_MspInit+0xb4>)
 8000d92:	4b10      	ldr	r3, [pc, #64]	; (8000dd4 <HAL_ADC_MspInit+0xb8>)
 8000d94:	0020      	movs	r0, r4
 8000d96:	6023      	str	r3, [r4, #0]
 8000d98:	2380      	movs	r3, #128	; 0x80
 8000d9a:	60e3      	str	r3, [r4, #12]
 8000d9c:	18db      	adds	r3, r3, r3
 8000d9e:	6123      	str	r3, [r4, #16]
 8000da0:	2380      	movs	r3, #128	; 0x80
 8000da2:	00db      	lsls	r3, r3, #3
 8000da4:	6163      	str	r3, [r4, #20]
 8000da6:	2320      	movs	r3, #32
 8000da8:	6066      	str	r6, [r4, #4]
 8000daa:	60a6      	str	r6, [r4, #8]
 8000dac:	61a3      	str	r3, [r4, #24]
 8000dae:	61e6      	str	r6, [r4, #28]
 8000db0:	f000 fd1e 	bl	80017f0 <HAL_DMA_Init>
 8000db4:	42b0      	cmp	r0, r6
 8000db6:	d001      	beq.n	8000dbc <HAL_ADC_MspInit+0xa0>
 8000db8:	f7ff fb5c 	bl	8000474 <Error_Handler>
 8000dbc:	632c      	str	r4, [r5, #48]	; 0x30
 8000dbe:	6265      	str	r5, [r4, #36]	; 0x24
 8000dc0:	b008      	add	sp, #32
 8000dc2:	bd70      	pop	{r4, r5, r6, pc}
 8000dc4:	40012400 	.word	0x40012400
 8000dc8:	40021000 	.word	0x40021000
 8000dcc:	48000400 	.word	0x48000400
 8000dd0:	200000dc 	.word	0x200000dc
 8000dd4:	40020008 	.word	0x40020008

08000dd8 <HAL_I2C_MspInit>:
 8000dd8:	b510      	push	{r4, lr}
 8000dda:	0004      	movs	r4, r0
 8000ddc:	b088      	sub	sp, #32
 8000dde:	2214      	movs	r2, #20
 8000de0:	2100      	movs	r1, #0
 8000de2:	a803      	add	r0, sp, #12
 8000de4:	f003 fb5c 	bl	80044a0 <memset>
 8000de8:	4b16      	ldr	r3, [pc, #88]	; (8000e44 <HAL_I2C_MspInit+0x6c>)
 8000dea:	6822      	ldr	r2, [r4, #0]
 8000dec:	429a      	cmp	r2, r3
 8000dee:	d126      	bne.n	8000e3e <HAL_I2C_MspInit+0x66>
 8000df0:	2180      	movs	r1, #128	; 0x80
 8000df2:	4c15      	ldr	r4, [pc, #84]	; (8000e48 <HAL_I2C_MspInit+0x70>)
 8000df4:	02c9      	lsls	r1, r1, #11
 8000df6:	6962      	ldr	r2, [r4, #20]
 8000df8:	4814      	ldr	r0, [pc, #80]	; (8000e4c <HAL_I2C_MspInit+0x74>)
 8000dfa:	430a      	orrs	r2, r1
 8000dfc:	6162      	str	r2, [r4, #20]
 8000dfe:	6963      	ldr	r3, [r4, #20]
 8000e00:	400b      	ands	r3, r1
 8000e02:	9301      	str	r3, [sp, #4]
 8000e04:	9b01      	ldr	r3, [sp, #4]
 8000e06:	23c0      	movs	r3, #192	; 0xc0
 8000e08:	9303      	str	r3, [sp, #12]
 8000e0a:	3bae      	subs	r3, #174	; 0xae
 8000e0c:	9304      	str	r3, [sp, #16]
 8000e0e:	3b0f      	subs	r3, #15
 8000e10:	9306      	str	r3, [sp, #24]
 8000e12:	a903      	add	r1, sp, #12
 8000e14:	3b02      	subs	r3, #2
 8000e16:	9307      	str	r3, [sp, #28]
 8000e18:	f000 fdca 	bl	80019b0 <HAL_GPIO_Init>
 8000e1c:	2180      	movs	r1, #128	; 0x80
 8000e1e:	69e2      	ldr	r2, [r4, #28]
 8000e20:	0389      	lsls	r1, r1, #14
 8000e22:	430a      	orrs	r2, r1
 8000e24:	61e2      	str	r2, [r4, #28]
 8000e26:	2200      	movs	r2, #0
 8000e28:	69e3      	ldr	r3, [r4, #28]
 8000e2a:	2017      	movs	r0, #23
 8000e2c:	400b      	ands	r3, r1
 8000e2e:	9302      	str	r3, [sp, #8]
 8000e30:	0011      	movs	r1, r2
 8000e32:	9b02      	ldr	r3, [sp, #8]
 8000e34:	f000 fc8c 	bl	8001750 <HAL_NVIC_SetPriority>
 8000e38:	2017      	movs	r0, #23
 8000e3a:	f000 fcb3 	bl	80017a4 <HAL_NVIC_EnableIRQ>
 8000e3e:	b008      	add	sp, #32
 8000e40:	bd10      	pop	{r4, pc}
 8000e42:	46c0      	nop			; (mov r8, r8)
 8000e44:	40005400 	.word	0x40005400
 8000e48:	40021000 	.word	0x40021000
 8000e4c:	48000400 	.word	0x48000400

08000e50 <HAL_SPI_MspInit>:
 8000e50:	b510      	push	{r4, lr}
 8000e52:	0004      	movs	r4, r0
 8000e54:	b088      	sub	sp, #32
 8000e56:	2214      	movs	r2, #20
 8000e58:	2100      	movs	r1, #0
 8000e5a:	a803      	add	r0, sp, #12
 8000e5c:	f003 fb20 	bl	80044a0 <memset>
 8000e60:	4b11      	ldr	r3, [pc, #68]	; (8000ea8 <HAL_SPI_MspInit+0x58>)
 8000e62:	6822      	ldr	r2, [r4, #0]
 8000e64:	429a      	cmp	r2, r3
 8000e66:	d11d      	bne.n	8000ea4 <HAL_SPI_MspInit+0x54>
 8000e68:	2080      	movs	r0, #128	; 0x80
 8000e6a:	4b10      	ldr	r3, [pc, #64]	; (8000eac <HAL_SPI_MspInit+0x5c>)
 8000e6c:	0140      	lsls	r0, r0, #5
 8000e6e:	6999      	ldr	r1, [r3, #24]
 8000e70:	4301      	orrs	r1, r0
 8000e72:	6199      	str	r1, [r3, #24]
 8000e74:	2180      	movs	r1, #128	; 0x80
 8000e76:	699a      	ldr	r2, [r3, #24]
 8000e78:	0289      	lsls	r1, r1, #10
 8000e7a:	4002      	ands	r2, r0
 8000e7c:	9201      	str	r2, [sp, #4]
 8000e7e:	9a01      	ldr	r2, [sp, #4]
 8000e80:	695a      	ldr	r2, [r3, #20]
 8000e82:	2090      	movs	r0, #144	; 0x90
 8000e84:	430a      	orrs	r2, r1
 8000e86:	615a      	str	r2, [r3, #20]
 8000e88:	695b      	ldr	r3, [r3, #20]
 8000e8a:	05c0      	lsls	r0, r0, #23
 8000e8c:	400b      	ands	r3, r1
 8000e8e:	9302      	str	r3, [sp, #8]
 8000e90:	9b02      	ldr	r3, [sp, #8]
 8000e92:	23e0      	movs	r3, #224	; 0xe0
 8000e94:	9303      	str	r3, [sp, #12]
 8000e96:	3bde      	subs	r3, #222	; 0xde
 8000e98:	9304      	str	r3, [sp, #16]
 8000e9a:	a903      	add	r1, sp, #12
 8000e9c:	3301      	adds	r3, #1
 8000e9e:	9306      	str	r3, [sp, #24]
 8000ea0:	f000 fd86 	bl	80019b0 <HAL_GPIO_Init>
 8000ea4:	b008      	add	sp, #32
 8000ea6:	bd10      	pop	{r4, pc}
 8000ea8:	40013000 	.word	0x40013000
 8000eac:	40021000 	.word	0x40021000

08000eb0 <HAL_TIM_Base_MspInit>:
 8000eb0:	b530      	push	{r4, r5, lr}
 8000eb2:	0004      	movs	r4, r0
 8000eb4:	b08b      	sub	sp, #44	; 0x2c
 8000eb6:	2214      	movs	r2, #20
 8000eb8:	2100      	movs	r1, #0
 8000eba:	a805      	add	r0, sp, #20
 8000ebc:	f003 faf0 	bl	80044a0 <memset>
 8000ec0:	6823      	ldr	r3, [r4, #0]
 8000ec2:	4a26      	ldr	r2, [pc, #152]	; (8000f5c <HAL_TIM_Base_MspInit+0xac>)
 8000ec4:	4293      	cmp	r3, r2
 8000ec6:	d132      	bne.n	8000f2e <HAL_TIM_Base_MspInit+0x7e>
 8000ec8:	2080      	movs	r0, #128	; 0x80
 8000eca:	4b25      	ldr	r3, [pc, #148]	; (8000f60 <HAL_TIM_Base_MspInit+0xb0>)
 8000ecc:	0100      	lsls	r0, r0, #4
 8000ece:	6999      	ldr	r1, [r3, #24]
 8000ed0:	2580      	movs	r5, #128	; 0x80
 8000ed2:	4301      	orrs	r1, r0
 8000ed4:	6199      	str	r1, [r3, #24]
 8000ed6:	699a      	ldr	r2, [r3, #24]
 8000ed8:	2402      	movs	r4, #2
 8000eda:	4002      	ands	r2, r0
 8000edc:	2080      	movs	r0, #128	; 0x80
 8000ede:	9201      	str	r2, [sp, #4]
 8000ee0:	9a01      	ldr	r2, [sp, #4]
 8000ee2:	6959      	ldr	r1, [r3, #20]
 8000ee4:	02c0      	lsls	r0, r0, #11
 8000ee6:	4301      	orrs	r1, r0
 8000ee8:	6159      	str	r1, [r3, #20]
 8000eea:	2180      	movs	r1, #128	; 0x80
 8000eec:	695a      	ldr	r2, [r3, #20]
 8000eee:	0289      	lsls	r1, r1, #10
 8000ef0:	4002      	ands	r2, r0
 8000ef2:	9202      	str	r2, [sp, #8]
 8000ef4:	9a02      	ldr	r2, [sp, #8]
 8000ef6:	695a      	ldr	r2, [r3, #20]
 8000ef8:	481a      	ldr	r0, [pc, #104]	; (8000f64 <HAL_TIM_Base_MspInit+0xb4>)
 8000efa:	430a      	orrs	r2, r1
 8000efc:	615a      	str	r2, [r3, #20]
 8000efe:	695b      	ldr	r3, [r3, #20]
 8000f00:	016d      	lsls	r5, r5, #5
 8000f02:	400b      	ands	r3, r1
 8000f04:	9303      	str	r3, [sp, #12]
 8000f06:	a905      	add	r1, sp, #20
 8000f08:	9b03      	ldr	r3, [sp, #12]
 8000f0a:	9505      	str	r5, [sp, #20]
 8000f0c:	9406      	str	r4, [sp, #24]
 8000f0e:	9409      	str	r4, [sp, #36]	; 0x24
 8000f10:	f000 fd4e 	bl	80019b0 <HAL_GPIO_Init>
 8000f14:	2090      	movs	r0, #144	; 0x90
 8000f16:	2300      	movs	r3, #0
 8000f18:	a905      	add	r1, sp, #20
 8000f1a:	05c0      	lsls	r0, r0, #23
 8000f1c:	9505      	str	r5, [sp, #20]
 8000f1e:	9406      	str	r4, [sp, #24]
 8000f20:	9307      	str	r3, [sp, #28]
 8000f22:	9308      	str	r3, [sp, #32]
 8000f24:	9409      	str	r4, [sp, #36]	; 0x24
 8000f26:	f000 fd43 	bl	80019b0 <HAL_GPIO_Init>
 8000f2a:	b00b      	add	sp, #44	; 0x2c
 8000f2c:	bd30      	pop	{r4, r5, pc}
 8000f2e:	2280      	movs	r2, #128	; 0x80
 8000f30:	05d2      	lsls	r2, r2, #23
 8000f32:	4293      	cmp	r3, r2
 8000f34:	d1f9      	bne.n	8000f2a <HAL_TIM_Base_MspInit+0x7a>
 8000f36:	2001      	movs	r0, #1
 8000f38:	4a09      	ldr	r2, [pc, #36]	; (8000f60 <HAL_TIM_Base_MspInit+0xb0>)
 8000f3a:	69d1      	ldr	r1, [r2, #28]
 8000f3c:	4301      	orrs	r1, r0
 8000f3e:	61d1      	str	r1, [r2, #28]
 8000f40:	69d3      	ldr	r3, [r2, #28]
 8000f42:	2200      	movs	r2, #0
 8000f44:	4003      	ands	r3, r0
 8000f46:	9304      	str	r3, [sp, #16]
 8000f48:	0011      	movs	r1, r2
 8000f4a:	300e      	adds	r0, #14
 8000f4c:	9b04      	ldr	r3, [sp, #16]
 8000f4e:	f000 fbff 	bl	8001750 <HAL_NVIC_SetPriority>
 8000f52:	200f      	movs	r0, #15
 8000f54:	f000 fc26 	bl	80017a4 <HAL_NVIC_EnableIRQ>
 8000f58:	e7e7      	b.n	8000f2a <HAL_TIM_Base_MspInit+0x7a>
 8000f5a:	46c0      	nop			; (mov r8, r8)
 8000f5c:	40012c00 	.word	0x40012c00
 8000f60:	40021000 	.word	0x40021000
 8000f64:	48000400 	.word	0x48000400

08000f68 <HAL_TIM_MspPostInit>:
 8000f68:	b510      	push	{r4, lr}
 8000f6a:	0004      	movs	r4, r0
 8000f6c:	b088      	sub	sp, #32
 8000f6e:	2214      	movs	r2, #20
 8000f70:	2100      	movs	r1, #0
 8000f72:	a803      	add	r0, sp, #12
 8000f74:	f003 fa94 	bl	80044a0 <memset>
 8000f78:	4b17      	ldr	r3, [pc, #92]	; (8000fd8 <HAL_TIM_MspPostInit+0x70>)
 8000f7a:	6822      	ldr	r2, [r4, #0]
 8000f7c:	429a      	cmp	r2, r3
 8000f7e:	d129      	bne.n	8000fd4 <HAL_TIM_MspPostInit+0x6c>
 8000f80:	2080      	movs	r0, #128	; 0x80
 8000f82:	4b16      	ldr	r3, [pc, #88]	; (8000fdc <HAL_TIM_MspPostInit+0x74>)
 8000f84:	02c0      	lsls	r0, r0, #11
 8000f86:	6959      	ldr	r1, [r3, #20]
 8000f88:	2402      	movs	r4, #2
 8000f8a:	4301      	orrs	r1, r0
 8000f8c:	6159      	str	r1, [r3, #20]
 8000f8e:	2180      	movs	r1, #128	; 0x80
 8000f90:	695a      	ldr	r2, [r3, #20]
 8000f92:	0289      	lsls	r1, r1, #10
 8000f94:	4002      	ands	r2, r0
 8000f96:	9201      	str	r2, [sp, #4]
 8000f98:	9a01      	ldr	r2, [sp, #4]
 8000f9a:	695a      	ldr	r2, [r3, #20]
 8000f9c:	4810      	ldr	r0, [pc, #64]	; (8000fe0 <HAL_TIM_MspPostInit+0x78>)
 8000f9e:	430a      	orrs	r2, r1
 8000fa0:	615a      	str	r2, [r3, #20]
 8000fa2:	695b      	ldr	r3, [r3, #20]
 8000fa4:	9404      	str	r4, [sp, #16]
 8000fa6:	400b      	ands	r3, r1
 8000fa8:	9302      	str	r3, [sp, #8]
 8000faa:	9b02      	ldr	r3, [sp, #8]
 8000fac:	23e0      	movs	r3, #224	; 0xe0
 8000fae:	a903      	add	r1, sp, #12
 8000fb0:	021b      	lsls	r3, r3, #8
 8000fb2:	9303      	str	r3, [sp, #12]
 8000fb4:	9407      	str	r4, [sp, #28]
 8000fb6:	f000 fcfb 	bl	80019b0 <HAL_GPIO_Init>
 8000fba:	23e0      	movs	r3, #224	; 0xe0
 8000fbc:	2090      	movs	r0, #144	; 0x90
 8000fbe:	00db      	lsls	r3, r3, #3
 8000fc0:	9303      	str	r3, [sp, #12]
 8000fc2:	2300      	movs	r3, #0
 8000fc4:	a903      	add	r1, sp, #12
 8000fc6:	05c0      	lsls	r0, r0, #23
 8000fc8:	9404      	str	r4, [sp, #16]
 8000fca:	9305      	str	r3, [sp, #20]
 8000fcc:	9306      	str	r3, [sp, #24]
 8000fce:	9407      	str	r4, [sp, #28]
 8000fd0:	f000 fcee 	bl	80019b0 <HAL_GPIO_Init>
 8000fd4:	b008      	add	sp, #32
 8000fd6:	bd10      	pop	{r4, pc}
 8000fd8:	40012c00 	.word	0x40012c00
 8000fdc:	40021000 	.word	0x40021000
 8000fe0:	48000400 	.word	0x48000400

08000fe4 <HAL_UART_MspInit>:
 8000fe4:	b530      	push	{r4, r5, lr}
 8000fe6:	0005      	movs	r5, r0
 8000fe8:	b089      	sub	sp, #36	; 0x24
 8000fea:	2214      	movs	r2, #20
 8000fec:	2100      	movs	r1, #0
 8000fee:	a803      	add	r0, sp, #12
 8000ff0:	f003 fa56 	bl	80044a0 <memset>
 8000ff4:	4b1d      	ldr	r3, [pc, #116]	; (800106c <HAL_UART_MspInit+0x88>)
 8000ff6:	682a      	ldr	r2, [r5, #0]
 8000ff8:	429a      	cmp	r2, r3
 8000ffa:	d135      	bne.n	8001068 <HAL_UART_MspInit+0x84>
 8000ffc:	2080      	movs	r0, #128	; 0x80
 8000ffe:	4b1c      	ldr	r3, [pc, #112]	; (8001070 <HAL_UART_MspInit+0x8c>)
 8001000:	01c0      	lsls	r0, r0, #7
 8001002:	6999      	ldr	r1, [r3, #24]
 8001004:	4301      	orrs	r1, r0
 8001006:	6199      	str	r1, [r3, #24]
 8001008:	2180      	movs	r1, #128	; 0x80
 800100a:	699a      	ldr	r2, [r3, #24]
 800100c:	0289      	lsls	r1, r1, #10
 800100e:	4002      	ands	r2, r0
 8001010:	9201      	str	r2, [sp, #4]
 8001012:	9a01      	ldr	r2, [sp, #4]
 8001014:	695a      	ldr	r2, [r3, #20]
 8001016:	2090      	movs	r0, #144	; 0x90
 8001018:	430a      	orrs	r2, r1
 800101a:	615a      	str	r2, [r3, #20]
 800101c:	695b      	ldr	r3, [r3, #20]
 800101e:	05c0      	lsls	r0, r0, #23
 8001020:	400b      	ands	r3, r1
 8001022:	9302      	str	r3, [sp, #8]
 8001024:	9b02      	ldr	r3, [sp, #8]
 8001026:	4b13      	ldr	r3, [pc, #76]	; (8001074 <HAL_UART_MspInit+0x90>)
 8001028:	a903      	add	r1, sp, #12
 800102a:	9303      	str	r3, [sp, #12]
 800102c:	2302      	movs	r3, #2
 800102e:	9304      	str	r3, [sp, #16]
 8001030:	3301      	adds	r3, #1
 8001032:	9306      	str	r3, [sp, #24]
 8001034:	3b02      	subs	r3, #2
 8001036:	9307      	str	r3, [sp, #28]
 8001038:	f000 fcba 	bl	80019b0 <HAL_GPIO_Init>
 800103c:	4c0e      	ldr	r4, [pc, #56]	; (8001078 <HAL_UART_MspInit+0x94>)
 800103e:	4b0f      	ldr	r3, [pc, #60]	; (800107c <HAL_UART_MspInit+0x98>)
 8001040:	2280      	movs	r2, #128	; 0x80
 8001042:	6023      	str	r3, [r4, #0]
 8001044:	2310      	movs	r3, #16
 8001046:	6063      	str	r3, [r4, #4]
 8001048:	2300      	movs	r3, #0
 800104a:	0020      	movs	r0, r4
 800104c:	60a3      	str	r3, [r4, #8]
 800104e:	60e2      	str	r2, [r4, #12]
 8001050:	6123      	str	r3, [r4, #16]
 8001052:	6163      	str	r3, [r4, #20]
 8001054:	61a3      	str	r3, [r4, #24]
 8001056:	61e3      	str	r3, [r4, #28]
 8001058:	f000 fbca 	bl	80017f0 <HAL_DMA_Init>
 800105c:	2800      	cmp	r0, #0
 800105e:	d001      	beq.n	8001064 <HAL_UART_MspInit+0x80>
 8001060:	f7ff fa08 	bl	8000474 <Error_Handler>
 8001064:	672c      	str	r4, [r5, #112]	; 0x70
 8001066:	6265      	str	r5, [r4, #36]	; 0x24
 8001068:	b009      	add	sp, #36	; 0x24
 800106a:	bd30      	pop	{r4, r5, pc}
 800106c:	40013800 	.word	0x40013800
 8001070:	40021000 	.word	0x40021000
 8001074:	00008004 	.word	0x00008004
 8001078:	20000120 	.word	0x20000120
 800107c:	4002001c 	.word	0x4002001c

08001080 <NMI_Handler>:
 8001080:	e7fe      	b.n	8001080 <NMI_Handler>

08001082 <HardFault_Handler>:
 8001082:	e7fe      	b.n	8001082 <HardFault_Handler>

08001084 <SVC_Handler>:
 8001084:	4770      	bx	lr

08001086 <PendSV_Handler>:
 8001086:	4770      	bx	lr

08001088 <SysTick_Handler>:
 8001088:	b510      	push	{r4, lr}
 800108a:	f000 f8cf 	bl	800122c <HAL_IncTick>
 800108e:	bd10      	pop	{r4, pc}

08001090 <DMA1_Channel1_IRQHandler>:
 8001090:	b510      	push	{r4, lr}
 8001092:	4802      	ldr	r0, [pc, #8]	; (800109c <DMA1_Channel1_IRQHandler+0xc>)
 8001094:	f000 fc3f 	bl	8001916 <HAL_DMA_IRQHandler>
 8001098:	bd10      	pop	{r4, pc}
 800109a:	46c0      	nop			; (mov r8, r8)
 800109c:	200000dc 	.word	0x200000dc

080010a0 <DMA1_Channel2_3_IRQHandler>:
 80010a0:	b510      	push	{r4, lr}
 80010a2:	4802      	ldr	r0, [pc, #8]	; (80010ac <DMA1_Channel2_3_IRQHandler+0xc>)
 80010a4:	f000 fc37 	bl	8001916 <HAL_DMA_IRQHandler>
 80010a8:	bd10      	pop	{r4, pc}
 80010aa:	46c0      	nop			; (mov r8, r8)
 80010ac:	20000120 	.word	0x20000120

080010b0 <TIM2_IRQHandler>:
 80010b0:	b510      	push	{r4, lr}
 80010b2:	4802      	ldr	r0, [pc, #8]	; (80010bc <TIM2_IRQHandler+0xc>)
 80010b4:	f002 fb2f 	bl	8003716 <HAL_TIM_IRQHandler>
 80010b8:	bd10      	pop	{r4, pc}
 80010ba:	46c0      	nop			; (mov r8, r8)
 80010bc:	20000264 	.word	0x20000264

080010c0 <I2C1_IRQHandler>:
 80010c0:	4806      	ldr	r0, [pc, #24]	; (80010dc <I2C1_IRQHandler+0x1c>)
 80010c2:	b510      	push	{r4, lr}
 80010c4:	6803      	ldr	r3, [r0, #0]
 80010c6:	699a      	ldr	r2, [r3, #24]
 80010c8:	23e0      	movs	r3, #224	; 0xe0
 80010ca:	00db      	lsls	r3, r3, #3
 80010cc:	421a      	tst	r2, r3
 80010ce:	d002      	beq.n	80010d6 <I2C1_IRQHandler+0x16>
 80010d0:	f001 fc02 	bl	80028d8 <HAL_I2C_ER_IRQHandler>
 80010d4:	bd10      	pop	{r4, pc}
 80010d6:	f000 fefd 	bl	8001ed4 <HAL_I2C_EV_IRQHandler>
 80010da:	e7fb      	b.n	80010d4 <I2C1_IRQHandler+0x14>
 80010dc:	20000164 	.word	0x20000164

080010e0 <_read>:
 80010e0:	b570      	push	{r4, r5, r6, lr}
 80010e2:	000e      	movs	r6, r1
 80010e4:	0014      	movs	r4, r2
 80010e6:	2500      	movs	r5, #0
 80010e8:	42a5      	cmp	r5, r4
 80010ea:	db01      	blt.n	80010f0 <_read+0x10>
 80010ec:	0020      	movs	r0, r4
 80010ee:	bd70      	pop	{r4, r5, r6, pc}
 80010f0:	e000      	b.n	80010f4 <_read+0x14>
 80010f2:	bf00      	nop
 80010f4:	5570      	strb	r0, [r6, r5]
 80010f6:	3501      	adds	r5, #1
 80010f8:	e7f6      	b.n	80010e8 <_read+0x8>

080010fa <_write>:
 80010fa:	b570      	push	{r4, r5, r6, lr}
 80010fc:	000e      	movs	r6, r1
 80010fe:	0014      	movs	r4, r2
 8001100:	2500      	movs	r5, #0
 8001102:	42a5      	cmp	r5, r4
 8001104:	db01      	blt.n	800110a <_write+0x10>
 8001106:	0020      	movs	r0, r4
 8001108:	bd70      	pop	{r4, r5, r6, pc}
 800110a:	5d70      	ldrb	r0, [r6, r5]
 800110c:	f7ff f990 	bl	8000430 <__io_putchar>
 8001110:	3501      	adds	r5, #1
 8001112:	e7f6      	b.n	8001102 <_write+0x8>

08001114 <_close>:
 8001114:	2001      	movs	r0, #1
 8001116:	4240      	negs	r0, r0
 8001118:	4770      	bx	lr

0800111a <_fstat>:
 800111a:	2380      	movs	r3, #128	; 0x80
 800111c:	019b      	lsls	r3, r3, #6
 800111e:	2000      	movs	r0, #0
 8001120:	604b      	str	r3, [r1, #4]
 8001122:	4770      	bx	lr

08001124 <_isatty>:
 8001124:	2001      	movs	r0, #1
 8001126:	4770      	bx	lr

08001128 <_lseek>:
 8001128:	2000      	movs	r0, #0
 800112a:	4770      	bx	lr

0800112c <_sbrk>:
 800112c:	4a0b      	ldr	r2, [pc, #44]	; (800115c <_sbrk+0x30>)
 800112e:	490c      	ldr	r1, [pc, #48]	; (8001160 <_sbrk+0x34>)
 8001130:	0003      	movs	r3, r0
 8001132:	1a89      	subs	r1, r1, r2
 8001134:	4a0b      	ldr	r2, [pc, #44]	; (8001164 <_sbrk+0x38>)
 8001136:	b510      	push	{r4, lr}
 8001138:	6810      	ldr	r0, [r2, #0]
 800113a:	2800      	cmp	r0, #0
 800113c:	d101      	bne.n	8001142 <_sbrk+0x16>
 800113e:	480a      	ldr	r0, [pc, #40]	; (8001168 <_sbrk+0x3c>)
 8001140:	6010      	str	r0, [r2, #0]
 8001142:	6810      	ldr	r0, [r2, #0]
 8001144:	18c3      	adds	r3, r0, r3
 8001146:	428b      	cmp	r3, r1
 8001148:	d906      	bls.n	8001158 <_sbrk+0x2c>
 800114a:	f003 f97f 	bl	800444c <__errno>
 800114e:	230c      	movs	r3, #12
 8001150:	6003      	str	r3, [r0, #0]
 8001152:	2001      	movs	r0, #1
 8001154:	4240      	negs	r0, r0
 8001156:	bd10      	pop	{r4, pc}
 8001158:	6013      	str	r3, [r2, #0]
 800115a:	e7fc      	b.n	8001156 <_sbrk+0x2a>
 800115c:	00000400 	.word	0x00000400
 8001160:	20001000 	.word	0x20001000
 8001164:	20000340 	.word	0x20000340
 8001168:	20000358 	.word	0x20000358

0800116c <SystemInit>:
 800116c:	4770      	bx	lr
	...

08001170 <Reset_Handler>:
 8001170:	480d      	ldr	r0, [pc, #52]	; (80011a8 <LoopForever+0x2>)
 8001172:	4685      	mov	sp, r0
 8001174:	f7ff fffa 	bl	800116c <SystemInit>
 8001178:	480c      	ldr	r0, [pc, #48]	; (80011ac <LoopForever+0x6>)
 800117a:	490d      	ldr	r1, [pc, #52]	; (80011b0 <LoopForever+0xa>)
 800117c:	4a0d      	ldr	r2, [pc, #52]	; (80011b4 <LoopForever+0xe>)
 800117e:	2300      	movs	r3, #0
 8001180:	e002      	b.n	8001188 <LoopCopyDataInit>

08001182 <CopyDataInit>:
 8001182:	58d4      	ldr	r4, [r2, r3]
 8001184:	50c4      	str	r4, [r0, r3]
 8001186:	3304      	adds	r3, #4

08001188 <LoopCopyDataInit>:
 8001188:	18c4      	adds	r4, r0, r3
 800118a:	428c      	cmp	r4, r1
 800118c:	d3f9      	bcc.n	8001182 <CopyDataInit>
 800118e:	4a0a      	ldr	r2, [pc, #40]	; (80011b8 <LoopForever+0x12>)
 8001190:	4c0a      	ldr	r4, [pc, #40]	; (80011bc <LoopForever+0x16>)
 8001192:	2300      	movs	r3, #0
 8001194:	e001      	b.n	800119a <LoopFillZerobss>

08001196 <FillZerobss>:
 8001196:	6013      	str	r3, [r2, #0]
 8001198:	3204      	adds	r2, #4

0800119a <LoopFillZerobss>:
 800119a:	42a2      	cmp	r2, r4
 800119c:	d3fb      	bcc.n	8001196 <FillZerobss>
 800119e:	f003 f95b 	bl	8004458 <__libc_init_array>
 80011a2:	f7ff f9bf 	bl	8000524 <main>

080011a6 <LoopForever>:
 80011a6:	e7fe      	b.n	80011a6 <LoopForever>
 80011a8:	20001000 	.word	0x20001000
 80011ac:	20000000 	.word	0x20000000
 80011b0:	20000070 	.word	0x20000070
 80011b4:	08005740 	.word	0x08005740
 80011b8:	20000070 	.word	0x20000070
 80011bc:	20000358 	.word	0x20000358

080011c0 <ADC1_IRQHandler>:
 80011c0:	e7fe      	b.n	80011c0 <ADC1_IRQHandler>
	...

080011c4 <HAL_InitTick>:
 80011c4:	b570      	push	{r4, r5, r6, lr}
 80011c6:	0005      	movs	r5, r0
 80011c8:	20fa      	movs	r0, #250	; 0xfa
 80011ca:	4b0d      	ldr	r3, [pc, #52]	; (8001200 <HAL_InitTick+0x3c>)
 80011cc:	0080      	lsls	r0, r0, #2
 80011ce:	7819      	ldrb	r1, [r3, #0]
 80011d0:	f7fe ffb8 	bl	8000144 <__udivsi3>
 80011d4:	4b0b      	ldr	r3, [pc, #44]	; (8001204 <HAL_InitTick+0x40>)
 80011d6:	0001      	movs	r1, r0
 80011d8:	6818      	ldr	r0, [r3, #0]
 80011da:	f7fe ffb3 	bl	8000144 <__udivsi3>
 80011de:	f000 faed 	bl	80017bc <HAL_SYSTICK_Config>
 80011e2:	0004      	movs	r4, r0
 80011e4:	2001      	movs	r0, #1
 80011e6:	2c00      	cmp	r4, #0
 80011e8:	d109      	bne.n	80011fe <HAL_InitTick+0x3a>
 80011ea:	2d03      	cmp	r5, #3
 80011ec:	d807      	bhi.n	80011fe <HAL_InitTick+0x3a>
 80011ee:	3802      	subs	r0, #2
 80011f0:	0022      	movs	r2, r4
 80011f2:	0029      	movs	r1, r5
 80011f4:	f000 faac 	bl	8001750 <HAL_NVIC_SetPriority>
 80011f8:	0020      	movs	r0, r4
 80011fa:	4b03      	ldr	r3, [pc, #12]	; (8001208 <HAL_InitTick+0x44>)
 80011fc:	601d      	str	r5, [r3, #0]
 80011fe:	bd70      	pop	{r4, r5, r6, pc}
 8001200:	20000004 	.word	0x20000004
 8001204:	20000000 	.word	0x20000000
 8001208:	20000008 	.word	0x20000008

0800120c <HAL_Init>:
 800120c:	2310      	movs	r3, #16
 800120e:	4a06      	ldr	r2, [pc, #24]	; (8001228 <HAL_Init+0x1c>)
 8001210:	b510      	push	{r4, lr}
 8001212:	6811      	ldr	r1, [r2, #0]
 8001214:	2003      	movs	r0, #3
 8001216:	430b      	orrs	r3, r1
 8001218:	6013      	str	r3, [r2, #0]
 800121a:	f7ff ffd3 	bl	80011c4 <HAL_InitTick>
 800121e:	f7ff fd65 	bl	8000cec <HAL_MspInit>
 8001222:	2000      	movs	r0, #0
 8001224:	bd10      	pop	{r4, pc}
 8001226:	46c0      	nop			; (mov r8, r8)
 8001228:	40022000 	.word	0x40022000

0800122c <HAL_IncTick>:
 800122c:	4a03      	ldr	r2, [pc, #12]	; (800123c <HAL_IncTick+0x10>)
 800122e:	4b04      	ldr	r3, [pc, #16]	; (8001240 <HAL_IncTick+0x14>)
 8001230:	6811      	ldr	r1, [r2, #0]
 8001232:	781b      	ldrb	r3, [r3, #0]
 8001234:	185b      	adds	r3, r3, r1
 8001236:	6013      	str	r3, [r2, #0]
 8001238:	4770      	bx	lr
 800123a:	46c0      	nop			; (mov r8, r8)
 800123c:	20000344 	.word	0x20000344
 8001240:	20000004 	.word	0x20000004

08001244 <HAL_GetTick>:
 8001244:	4b01      	ldr	r3, [pc, #4]	; (800124c <HAL_GetTick+0x8>)
 8001246:	6818      	ldr	r0, [r3, #0]
 8001248:	4770      	bx	lr
 800124a:	46c0      	nop			; (mov r8, r8)
 800124c:	20000344 	.word	0x20000344

08001250 <HAL_Delay>:
 8001250:	b570      	push	{r4, r5, r6, lr}
 8001252:	0004      	movs	r4, r0
 8001254:	f7ff fff6 	bl	8001244 <HAL_GetTick>
 8001258:	0005      	movs	r5, r0
 800125a:	1c63      	adds	r3, r4, #1
 800125c:	d002      	beq.n	8001264 <HAL_Delay+0x14>
 800125e:	4b04      	ldr	r3, [pc, #16]	; (8001270 <HAL_Delay+0x20>)
 8001260:	781b      	ldrb	r3, [r3, #0]
 8001262:	18e4      	adds	r4, r4, r3
 8001264:	f7ff ffee 	bl	8001244 <HAL_GetTick>
 8001268:	1b40      	subs	r0, r0, r5
 800126a:	42a0      	cmp	r0, r4
 800126c:	d3fa      	bcc.n	8001264 <HAL_Delay+0x14>
 800126e:	bd70      	pop	{r4, r5, r6, pc}
 8001270:	20000004 	.word	0x20000004

08001274 <ADC_Enable>:
 8001274:	2300      	movs	r3, #0
 8001276:	b573      	push	{r0, r1, r4, r5, r6, lr}
 8001278:	2103      	movs	r1, #3
 800127a:	9301      	str	r3, [sp, #4]
 800127c:	6803      	ldr	r3, [r0, #0]
 800127e:	0004      	movs	r4, r0
 8001280:	689a      	ldr	r2, [r3, #8]
 8001282:	400a      	ands	r2, r1
 8001284:	2a01      	cmp	r2, #1
 8001286:	d107      	bne.n	8001298 <ADC_Enable+0x24>
 8001288:	6819      	ldr	r1, [r3, #0]
 800128a:	4211      	tst	r1, r2
 800128c:	d001      	beq.n	8001292 <ADC_Enable+0x1e>
 800128e:	2000      	movs	r0, #0
 8001290:	bd76      	pop	{r1, r2, r4, r5, r6, pc}
 8001292:	68da      	ldr	r2, [r3, #12]
 8001294:	0412      	lsls	r2, r2, #16
 8001296:	d4fa      	bmi.n	800128e <ADC_Enable+0x1a>
 8001298:	6899      	ldr	r1, [r3, #8]
 800129a:	4a1b      	ldr	r2, [pc, #108]	; (8001308 <ADC_Enable+0x94>)
 800129c:	4211      	tst	r1, r2
 800129e:	d008      	beq.n	80012b2 <ADC_Enable+0x3e>
 80012a0:	2310      	movs	r3, #16
 80012a2:	2001      	movs	r0, #1
 80012a4:	6ba2      	ldr	r2, [r4, #56]	; 0x38
 80012a6:	4313      	orrs	r3, r2
 80012a8:	63a3      	str	r3, [r4, #56]	; 0x38
 80012aa:	6be3      	ldr	r3, [r4, #60]	; 0x3c
 80012ac:	4303      	orrs	r3, r0
 80012ae:	63e3      	str	r3, [r4, #60]	; 0x3c
 80012b0:	e7ee      	b.n	8001290 <ADC_Enable+0x1c>
 80012b2:	2201      	movs	r2, #1
 80012b4:	6899      	ldr	r1, [r3, #8]
 80012b6:	430a      	orrs	r2, r1
 80012b8:	609a      	str	r2, [r3, #8]
 80012ba:	4b14      	ldr	r3, [pc, #80]	; (800130c <ADC_Enable+0x98>)
 80012bc:	4914      	ldr	r1, [pc, #80]	; (8001310 <ADC_Enable+0x9c>)
 80012be:	6818      	ldr	r0, [r3, #0]
 80012c0:	f7fe ff40 	bl	8000144 <__udivsi3>
 80012c4:	9001      	str	r0, [sp, #4]
 80012c6:	9b01      	ldr	r3, [sp, #4]
 80012c8:	2b00      	cmp	r3, #0
 80012ca:	d119      	bne.n	8001300 <ADC_Enable+0x8c>
 80012cc:	f7ff ffba 	bl	8001244 <HAL_GetTick>
 80012d0:	2501      	movs	r5, #1
 80012d2:	0006      	movs	r6, r0
 80012d4:	6823      	ldr	r3, [r4, #0]
 80012d6:	681b      	ldr	r3, [r3, #0]
 80012d8:	422b      	tst	r3, r5
 80012da:	d1d8      	bne.n	800128e <ADC_Enable+0x1a>
 80012dc:	f7ff ffb2 	bl	8001244 <HAL_GetTick>
 80012e0:	1b80      	subs	r0, r0, r6
 80012e2:	2802      	cmp	r0, #2
 80012e4:	d9f6      	bls.n	80012d4 <ADC_Enable+0x60>
 80012e6:	6823      	ldr	r3, [r4, #0]
 80012e8:	681b      	ldr	r3, [r3, #0]
 80012ea:	422b      	tst	r3, r5
 80012ec:	d1f2      	bne.n	80012d4 <ADC_Enable+0x60>
 80012ee:	2310      	movs	r3, #16
 80012f0:	6ba2      	ldr	r2, [r4, #56]	; 0x38
 80012f2:	2001      	movs	r0, #1
 80012f4:	4313      	orrs	r3, r2
 80012f6:	63a3      	str	r3, [r4, #56]	; 0x38
 80012f8:	6be3      	ldr	r3, [r4, #60]	; 0x3c
 80012fa:	431d      	orrs	r5, r3
 80012fc:	63e5      	str	r5, [r4, #60]	; 0x3c
 80012fe:	e7c7      	b.n	8001290 <ADC_Enable+0x1c>
 8001300:	9b01      	ldr	r3, [sp, #4]
 8001302:	3b01      	subs	r3, #1
 8001304:	9301      	str	r3, [sp, #4]
 8001306:	e7de      	b.n	80012c6 <ADC_Enable+0x52>
 8001308:	80000017 	.word	0x80000017
 800130c:	20000000 	.word	0x20000000
 8001310:	000f4240 	.word	0x000f4240

08001314 <HAL_ADC_Init>:
 8001314:	b5f8      	push	{r3, r4, r5, r6, r7, lr}
 8001316:	0004      	movs	r4, r0
 8001318:	2001      	movs	r0, #1
 800131a:	2c00      	cmp	r4, #0
 800131c:	d100      	bne.n	8001320 <HAL_ADC_Init+0xc>
 800131e:	e080      	b.n	8001422 <HAL_ADC_Init+0x10e>
 8001320:	6ba3      	ldr	r3, [r4, #56]	; 0x38
 8001322:	2b00      	cmp	r3, #0
 8001324:	d106      	bne.n	8001334 <HAL_ADC_Init+0x20>
 8001326:	0022      	movs	r2, r4
 8001328:	3234      	adds	r2, #52	; 0x34
 800132a:	63e3      	str	r3, [r4, #60]	; 0x3c
 800132c:	0020      	movs	r0, r4
 800132e:	7013      	strb	r3, [r2, #0]
 8001330:	f7ff fcf4 	bl	8000d1c <HAL_ADC_MspInit>
 8001334:	6ba3      	ldr	r3, [r4, #56]	; 0x38
 8001336:	06db      	lsls	r3, r3, #27
 8001338:	d500      	bpl.n	800133c <HAL_ADC_Init+0x28>
 800133a:	e087      	b.n	800144c <HAL_ADC_Init+0x138>
 800133c:	6823      	ldr	r3, [r4, #0]
 800133e:	2204      	movs	r2, #4
 8001340:	6899      	ldr	r1, [r3, #8]
 8001342:	0008      	movs	r0, r1
 8001344:	4010      	ands	r0, r2
 8001346:	4211      	tst	r1, r2
 8001348:	d000      	beq.n	800134c <HAL_ADC_Init+0x38>
 800134a:	e07f      	b.n	800144c <HAL_ADC_Init+0x138>
 800134c:	6ba2      	ldr	r2, [r4, #56]	; 0x38
 800134e:	4942      	ldr	r1, [pc, #264]	; (8001458 <HAL_ADC_Init+0x144>)
 8001350:	4011      	ands	r1, r2
 8001352:	2202      	movs	r2, #2
 8001354:	430a      	orrs	r2, r1
 8001356:	2103      	movs	r1, #3
 8001358:	63a2      	str	r2, [r4, #56]	; 0x38
 800135a:	689a      	ldr	r2, [r3, #8]
 800135c:	400a      	ands	r2, r1
 800135e:	2a01      	cmp	r2, #1
 8001360:	d105      	bne.n	800136e <HAL_ADC_Init+0x5a>
 8001362:	6819      	ldr	r1, [r3, #0]
 8001364:	4211      	tst	r1, r2
 8001366:	d10e      	bne.n	8001386 <HAL_ADC_Init+0x72>
 8001368:	68da      	ldr	r2, [r3, #12]
 800136a:	0412      	lsls	r2, r2, #16
 800136c:	d40b      	bmi.n	8001386 <HAL_ADC_Init+0x72>
 800136e:	2118      	movs	r1, #24
 8001370:	68da      	ldr	r2, [r3, #12]
 8001372:	438a      	bics	r2, r1
 8001374:	68a1      	ldr	r1, [r4, #8]
 8001376:	430a      	orrs	r2, r1
 8001378:	60da      	str	r2, [r3, #12]
 800137a:	6919      	ldr	r1, [r3, #16]
 800137c:	6862      	ldr	r2, [r4, #4]
 800137e:	0089      	lsls	r1, r1, #2
 8001380:	0889      	lsrs	r1, r1, #2
 8001382:	4311      	orrs	r1, r2
 8001384:	6119      	str	r1, [r3, #16]
 8001386:	68da      	ldr	r2, [r3, #12]
 8001388:	4934      	ldr	r1, [pc, #208]	; (800145c <HAL_ADC_Init+0x148>)
 800138a:	400a      	ands	r2, r1
 800138c:	60da      	str	r2, [r3, #12]
 800138e:	6aa2      	ldr	r2, [r4, #40]	; 0x28
 8001390:	7e26      	ldrb	r6, [r4, #24]
 8001392:	1e57      	subs	r7, r2, #1
 8001394:	1e7a      	subs	r2, r7, #1
 8001396:	4197      	sbcs	r7, r2
 8001398:	7e61      	ldrb	r1, [r4, #25]
 800139a:	68e2      	ldr	r2, [r4, #12]
 800139c:	03c9      	lsls	r1, r1, #15
 800139e:	03b6      	lsls	r6, r6, #14
 80013a0:	430e      	orrs	r6, r1
 80013a2:	7ea5      	ldrb	r5, [r4, #26]
 80013a4:	4316      	orrs	r6, r2
 80013a6:	6922      	ldr	r2, [r4, #16]
 80013a8:	0369      	lsls	r1, r5, #13
 80013aa:	033f      	lsls	r7, r7, #12
 80013ac:	430e      	orrs	r6, r1
 80013ae:	2a02      	cmp	r2, #2
 80013b0:	d100      	bne.n	80013b4 <HAL_ADC_Init+0xa0>
 80013b2:	2004      	movs	r0, #4
 80013b4:	1d62      	adds	r2, r4, #5
 80013b6:	7fd2      	ldrb	r2, [r2, #31]
 80013b8:	7ee1      	ldrb	r1, [r4, #27]
 80013ba:	0052      	lsls	r2, r2, #1
 80013bc:	4332      	orrs	r2, r6
 80013be:	433a      	orrs	r2, r7
 80013c0:	4302      	orrs	r2, r0
 80013c2:	2901      	cmp	r1, #1
 80013c4:	d104      	bne.n	80013d0 <HAL_ADC_Init+0xbc>
 80013c6:	2d00      	cmp	r5, #0
 80013c8:	d12c      	bne.n	8001424 <HAL_ADC_Init+0x110>
 80013ca:	2180      	movs	r1, #128	; 0x80
 80013cc:	0249      	lsls	r1, r1, #9
 80013ce:	430a      	orrs	r2, r1
 80013d0:	20c2      	movs	r0, #194	; 0xc2
 80013d2:	69e1      	ldr	r1, [r4, #28]
 80013d4:	30ff      	adds	r0, #255	; 0xff
 80013d6:	4281      	cmp	r1, r0
 80013d8:	d002      	beq.n	80013e0 <HAL_ADC_Init+0xcc>
 80013da:	6a20      	ldr	r0, [r4, #32]
 80013dc:	4301      	orrs	r1, r0
 80013de:	430a      	orrs	r2, r1
 80013e0:	2080      	movs	r0, #128	; 0x80
 80013e2:	68d9      	ldr	r1, [r3, #12]
 80013e4:	0540      	lsls	r0, r0, #21
 80013e6:	4311      	orrs	r1, r2
 80013e8:	60d9      	str	r1, [r3, #12]
 80013ea:	6ae1      	ldr	r1, [r4, #44]	; 0x2c
 80013ec:	4281      	cmp	r1, r0
 80013ee:	d002      	beq.n	80013f6 <HAL_ADC_Init+0xe2>
 80013f0:	1e48      	subs	r0, r1, #1
 80013f2:	2806      	cmp	r0, #6
 80013f4:	d807      	bhi.n	8001406 <HAL_ADC_Init+0xf2>
 80013f6:	2507      	movs	r5, #7
 80013f8:	6958      	ldr	r0, [r3, #20]
 80013fa:	4029      	ands	r1, r5
 80013fc:	43a8      	bics	r0, r5
 80013fe:	6158      	str	r0, [r3, #20]
 8001400:	6958      	ldr	r0, [r3, #20]
 8001402:	4301      	orrs	r1, r0
 8001404:	6159      	str	r1, [r3, #20]
 8001406:	68db      	ldr	r3, [r3, #12]
 8001408:	4915      	ldr	r1, [pc, #84]	; (8001460 <HAL_ADC_Init+0x14c>)
 800140a:	400b      	ands	r3, r1
 800140c:	4293      	cmp	r3, r2
 800140e:	d111      	bne.n	8001434 <HAL_ADC_Init+0x120>
 8001410:	2000      	movs	r0, #0
 8001412:	2203      	movs	r2, #3
 8001414:	63e0      	str	r0, [r4, #60]	; 0x3c
 8001416:	6ba3      	ldr	r3, [r4, #56]	; 0x38
 8001418:	4393      	bics	r3, r2
 800141a:	001a      	movs	r2, r3
 800141c:	2301      	movs	r3, #1
 800141e:	4313      	orrs	r3, r2
 8001420:	63a3      	str	r3, [r4, #56]	; 0x38
 8001422:	bdf8      	pop	{r3, r4, r5, r6, r7, pc}
 8001424:	2020      	movs	r0, #32
 8001426:	6ba5      	ldr	r5, [r4, #56]	; 0x38
 8001428:	4328      	orrs	r0, r5
 800142a:	63a0      	str	r0, [r4, #56]	; 0x38
 800142c:	6be0      	ldr	r0, [r4, #60]	; 0x3c
 800142e:	4301      	orrs	r1, r0
 8001430:	63e1      	str	r1, [r4, #60]	; 0x3c
 8001432:	e7cd      	b.n	80013d0 <HAL_ADC_Init+0xbc>
 8001434:	2212      	movs	r2, #18
 8001436:	6ba3      	ldr	r3, [r4, #56]	; 0x38
 8001438:	2001      	movs	r0, #1
 800143a:	4393      	bics	r3, r2
 800143c:	001a      	movs	r2, r3
 800143e:	2310      	movs	r3, #16
 8001440:	4313      	orrs	r3, r2
 8001442:	63a3      	str	r3, [r4, #56]	; 0x38
 8001444:	6be3      	ldr	r3, [r4, #60]	; 0x3c
 8001446:	4303      	orrs	r3, r0
 8001448:	63e3      	str	r3, [r4, #60]	; 0x3c
 800144a:	e7ea      	b.n	8001422 <HAL_ADC_Init+0x10e>
 800144c:	2310      	movs	r3, #16
 800144e:	6ba2      	ldr	r2, [r4, #56]	; 0x38
 8001450:	2001      	movs	r0, #1
 8001452:	4313      	orrs	r3, r2
 8001454:	63a3      	str	r3, [r4, #56]	; 0x38
 8001456:	e7e4      	b.n	8001422 <HAL_ADC_Init+0x10e>
 8001458:	fffffefd 	.word	0xfffffefd
 800145c:	fffe0219 	.word	0xfffe0219
 8001460:	833fffe7 	.word	0x833fffe7

08001464 <HAL_ADC_Start_DMA>:
 8001464:	b5f7      	push	{r0, r1, r2, r4, r5, r6, r7, lr}
 8001466:	6803      	ldr	r3, [r0, #0]
 8001468:	0004      	movs	r4, r0
 800146a:	689b      	ldr	r3, [r3, #8]
 800146c:	000e      	movs	r6, r1
 800146e:	2002      	movs	r0, #2
 8001470:	9201      	str	r2, [sp, #4]
 8001472:	075b      	lsls	r3, r3, #29
 8001474:	d430      	bmi.n	80014d8 <HAL_ADC_Start_DMA+0x74>
 8001476:	0027      	movs	r7, r4
 8001478:	3734      	adds	r7, #52	; 0x34
 800147a:	783b      	ldrb	r3, [r7, #0]
 800147c:	2b01      	cmp	r3, #1
 800147e:	d02b      	beq.n	80014d8 <HAL_ADC_Start_DMA+0x74>
 8001480:	2301      	movs	r3, #1
 8001482:	703b      	strb	r3, [r7, #0]
 8001484:	7e63      	ldrb	r3, [r4, #25]
 8001486:	2b01      	cmp	r3, #1
 8001488:	d127      	bne.n	80014da <HAL_ADC_Start_DMA+0x76>
 800148a:	6ba3      	ldr	r3, [r4, #56]	; 0x38
 800148c:	4a16      	ldr	r2, [pc, #88]	; (80014e8 <HAL_ADC_Start_DMA+0x84>)
 800148e:	2500      	movs	r5, #0
 8001490:	401a      	ands	r2, r3
 8001492:	2380      	movs	r3, #128	; 0x80
 8001494:	005b      	lsls	r3, r3, #1
 8001496:	4313      	orrs	r3, r2
 8001498:	63a3      	str	r3, [r4, #56]	; 0x38
 800149a:	63e5      	str	r5, [r4, #60]	; 0x3c
 800149c:	703d      	strb	r5, [r7, #0]
 800149e:	6b20      	ldr	r0, [r4, #48]	; 0x30
 80014a0:	4b12      	ldr	r3, [pc, #72]	; (80014ec <HAL_ADC_Start_DMA+0x88>)
 80014a2:	6821      	ldr	r1, [r4, #0]
 80014a4:	6283      	str	r3, [r0, #40]	; 0x28
 80014a6:	4b12      	ldr	r3, [pc, #72]	; (80014f0 <HAL_ADC_Start_DMA+0x8c>)
 80014a8:	62c3      	str	r3, [r0, #44]	; 0x2c
 80014aa:	4b12      	ldr	r3, [pc, #72]	; (80014f4 <HAL_ADC_Start_DMA+0x90>)
 80014ac:	6303      	str	r3, [r0, #48]	; 0x30
 80014ae:	231c      	movs	r3, #28
 80014b0:	600b      	str	r3, [r1, #0]
 80014b2:	684a      	ldr	r2, [r1, #4]
 80014b4:	3b0c      	subs	r3, #12
 80014b6:	4313      	orrs	r3, r2
 80014b8:	604b      	str	r3, [r1, #4]
 80014ba:	2301      	movs	r3, #1
 80014bc:	68ca      	ldr	r2, [r1, #12]
 80014be:	4313      	orrs	r3, r2
 80014c0:	60cb      	str	r3, [r1, #12]
 80014c2:	0032      	movs	r2, r6
 80014c4:	9b01      	ldr	r3, [sp, #4]
 80014c6:	3140      	adds	r1, #64	; 0x40
 80014c8:	f000 f9c4 	bl	8001854 <HAL_DMA_Start_IT>
 80014cc:	2304      	movs	r3, #4
 80014ce:	0028      	movs	r0, r5
 80014d0:	6822      	ldr	r2, [r4, #0]
 80014d2:	6891      	ldr	r1, [r2, #8]
 80014d4:	430b      	orrs	r3, r1
 80014d6:	6093      	str	r3, [r2, #8]
 80014d8:	bdfe      	pop	{r1, r2, r3, r4, r5, r6, r7, pc}
 80014da:	0020      	movs	r0, r4
 80014dc:	f7ff feca 	bl	8001274 <ADC_Enable>
 80014e0:	2800      	cmp	r0, #0
 80014e2:	d0d2      	beq.n	800148a <HAL_ADC_Start_DMA+0x26>
 80014e4:	e7f8      	b.n	80014d8 <HAL_ADC_Start_DMA+0x74>
 80014e6:	46c0      	nop			; (mov r8, r8)
 80014e8:	fffff0fe 	.word	0xfffff0fe
 80014ec:	080014fd 	.word	0x080014fd
 80014f0:	0800156f 	.word	0x0800156f
 80014f4:	0800157b 	.word	0x0800157b

080014f8 <HAL_ADC_ConvCpltCallback>:
 80014f8:	4770      	bx	lr
	...

080014fc <ADC_DMAConvCplt>:
 80014fc:	2250      	movs	r2, #80	; 0x50
 80014fe:	6a43      	ldr	r3, [r0, #36]	; 0x24
 8001500:	b510      	push	{r4, lr}
 8001502:	6b99      	ldr	r1, [r3, #56]	; 0x38
 8001504:	4211      	tst	r1, r2
 8001506:	d12a      	bne.n	800155e <ADC_DMAConvCplt+0x62>
 8001508:	6b99      	ldr	r1, [r3, #56]	; 0x38
 800150a:	32b1      	adds	r2, #177	; 0xb1
 800150c:	32ff      	adds	r2, #255	; 0xff
 800150e:	430a      	orrs	r2, r1
 8001510:	21c0      	movs	r1, #192	; 0xc0
 8001512:	639a      	str	r2, [r3, #56]	; 0x38
 8001514:	681a      	ldr	r2, [r3, #0]
 8001516:	0109      	lsls	r1, r1, #4
 8001518:	68d0      	ldr	r0, [r2, #12]
 800151a:	4208      	tst	r0, r1
 800151c:	d112      	bne.n	8001544 <ADC_DMAConvCplt+0x48>
 800151e:	7e99      	ldrb	r1, [r3, #26]
 8001520:	2900      	cmp	r1, #0
 8001522:	d10f      	bne.n	8001544 <ADC_DMAConvCplt+0x48>
 8001524:	6811      	ldr	r1, [r2, #0]
 8001526:	0709      	lsls	r1, r1, #28
 8001528:	d50c      	bpl.n	8001544 <ADC_DMAConvCplt+0x48>
 800152a:	6891      	ldr	r1, [r2, #8]
 800152c:	0749      	lsls	r1, r1, #29
 800152e:	d40d      	bmi.n	800154c <ADC_DMAConvCplt+0x50>
 8001530:	200c      	movs	r0, #12
 8001532:	6851      	ldr	r1, [r2, #4]
 8001534:	4381      	bics	r1, r0
 8001536:	6051      	str	r1, [r2, #4]
 8001538:	6b9a      	ldr	r2, [r3, #56]	; 0x38
 800153a:	490b      	ldr	r1, [pc, #44]	; (8001568 <ADC_DMAConvCplt+0x6c>)
 800153c:	4011      	ands	r1, r2
 800153e:	2201      	movs	r2, #1
 8001540:	430a      	orrs	r2, r1
 8001542:	639a      	str	r2, [r3, #56]	; 0x38
 8001544:	0018      	movs	r0, r3
 8001546:	f7ff ffd7 	bl	80014f8 <HAL_ADC_ConvCpltCallback>
 800154a:	bd10      	pop	{r4, pc}
 800154c:	2220      	movs	r2, #32
 800154e:	6b99      	ldr	r1, [r3, #56]	; 0x38
 8001550:	430a      	orrs	r2, r1
 8001552:	639a      	str	r2, [r3, #56]	; 0x38
 8001554:	2201      	movs	r2, #1
 8001556:	6bd9      	ldr	r1, [r3, #60]	; 0x3c
 8001558:	430a      	orrs	r2, r1
 800155a:	63da      	str	r2, [r3, #60]	; 0x3c
 800155c:	e7f2      	b.n	8001544 <ADC_DMAConvCplt+0x48>
 800155e:	6b1b      	ldr	r3, [r3, #48]	; 0x30
 8001560:	6b1b      	ldr	r3, [r3, #48]	; 0x30
 8001562:	4798      	blx	r3
 8001564:	e7f1      	b.n	800154a <ADC_DMAConvCplt+0x4e>
 8001566:	46c0      	nop			; (mov r8, r8)
 8001568:	fffffefe 	.word	0xfffffefe

0800156c <HAL_ADC_ConvHalfCpltCallback>:
 800156c:	4770      	bx	lr

0800156e <ADC_DMAHalfConvCplt>:
 800156e:	b510      	push	{r4, lr}
 8001570:	6a40      	ldr	r0, [r0, #36]	; 0x24
 8001572:	f7ff fffb 	bl	800156c <HAL_ADC_ConvHalfCpltCallback>
 8001576:	bd10      	pop	{r4, pc}

08001578 <HAL_ADC_ErrorCallback>:
 8001578:	4770      	bx	lr

0800157a <ADC_DMAError>:
 800157a:	2340      	movs	r3, #64	; 0x40
 800157c:	6a40      	ldr	r0, [r0, #36]	; 0x24
 800157e:	b510      	push	{r4, lr}
 8001580:	6b82      	ldr	r2, [r0, #56]	; 0x38
 8001582:	4313      	orrs	r3, r2
 8001584:	6383      	str	r3, [r0, #56]	; 0x38
 8001586:	2304      	movs	r3, #4
 8001588:	6bc2      	ldr	r2, [r0, #60]	; 0x3c
 800158a:	4313      	orrs	r3, r2
 800158c:	63c3      	str	r3, [r0, #60]	; 0x3c
 800158e:	f7ff fff3 	bl	8001578 <HAL_ADC_ErrorCallback>
 8001592:	bd10      	pop	{r4, pc}

08001594 <HAL_ADC_ConfigChannel>:
 8001594:	b5f7      	push	{r0, r1, r2, r4, r5, r6, r7, lr}
 8001596:	2200      	movs	r2, #0
 8001598:	0004      	movs	r4, r0
 800159a:	9201      	str	r2, [sp, #4]
 800159c:	3434      	adds	r4, #52	; 0x34
 800159e:	7822      	ldrb	r2, [r4, #0]
 80015a0:	0003      	movs	r3, r0
 80015a2:	6ac5      	ldr	r5, [r0, #44]	; 0x2c
 80015a4:	2002      	movs	r0, #2
 80015a6:	2a01      	cmp	r2, #1
 80015a8:	d02b      	beq.n	8001602 <HAL_ADC_ConfigChannel+0x6e>
 80015aa:	3801      	subs	r0, #1
 80015ac:	7020      	strb	r0, [r4, #0]
 80015ae:	681a      	ldr	r2, [r3, #0]
 80015b0:	6896      	ldr	r6, [r2, #8]
 80015b2:	0776      	lsls	r6, r6, #29
 80015b4:	d461      	bmi.n	800167a <HAL_ADC_ConfigChannel+0xe6>
 80015b6:	680b      	ldr	r3, [r1, #0]
 80015b8:	4f32      	ldr	r7, [pc, #200]	; (8001684 <HAL_ADC_ConfigChannel+0xf0>)
 80015ba:	4098      	lsls	r0, r3
 80015bc:	001e      	movs	r6, r3
 80015be:	4684      	mov	ip, r0
 80015c0:	6848      	ldr	r0, [r1, #4]
 80015c2:	3e10      	subs	r6, #16
 80015c4:	42b8      	cmp	r0, r7
 80015c6:	d040      	beq.n	800164a <HAL_ADC_ConfigChannel+0xb6>
 80015c8:	4660      	mov	r0, ip
 80015ca:	6a97      	ldr	r7, [r2, #40]	; 0x28
 80015cc:	4338      	orrs	r0, r7
 80015ce:	6290      	str	r0, [r2, #40]	; 0x28
 80015d0:	2080      	movs	r0, #128	; 0x80
 80015d2:	0540      	lsls	r0, r0, #21
 80015d4:	4285      	cmp	r5, r0
 80015d6:	d00f      	beq.n	80015f8 <HAL_ADC_ConfigChannel+0x64>
 80015d8:	3d01      	subs	r5, #1
 80015da:	2d06      	cmp	r5, #6
 80015dc:	d90c      	bls.n	80015f8 <HAL_ADC_ConfigChannel+0x64>
 80015de:	2007      	movs	r0, #7
 80015e0:	6955      	ldr	r5, [r2, #20]
 80015e2:	6889      	ldr	r1, [r1, #8]
 80015e4:	4005      	ands	r5, r0
 80015e6:	42a9      	cmp	r1, r5
 80015e8:	d006      	beq.n	80015f8 <HAL_ADC_ConfigChannel+0x64>
 80015ea:	6955      	ldr	r5, [r2, #20]
 80015ec:	4001      	ands	r1, r0
 80015ee:	4385      	bics	r5, r0
 80015f0:	6155      	str	r5, [r2, #20]
 80015f2:	6955      	ldr	r5, [r2, #20]
 80015f4:	4329      	orrs	r1, r5
 80015f6:	6151      	str	r1, [r2, #20]
 80015f8:	2e02      	cmp	r6, #2
 80015fa:	d903      	bls.n	8001604 <HAL_ADC_ConfigChannel+0x70>
 80015fc:	2000      	movs	r0, #0
 80015fe:	2300      	movs	r3, #0
 8001600:	7023      	strb	r3, [r4, #0]
 8001602:	bdfe      	pop	{r1, r2, r3, r4, r5, r6, r7, pc}
 8001604:	4820      	ldr	r0, [pc, #128]	; (8001688 <HAL_ADC_ConfigChannel+0xf4>)
 8001606:	6801      	ldr	r1, [r0, #0]
 8001608:	2b10      	cmp	r3, #16
 800160a:	d01b      	beq.n	8001644 <HAL_ADC_ConfigChannel+0xb0>
 800160c:	001a      	movs	r2, r3
 800160e:	3a11      	subs	r2, #17
 8001610:	4255      	negs	r5, r2
 8001612:	416a      	adcs	r2, r5
 8001614:	4d1d      	ldr	r5, [pc, #116]	; (800168c <HAL_ADC_ConfigChannel+0xf8>)
 8001616:	4252      	negs	r2, r2
 8001618:	402a      	ands	r2, r5
 800161a:	2580      	movs	r5, #128	; 0x80
 800161c:	046d      	lsls	r5, r5, #17
 800161e:	1952      	adds	r2, r2, r5
 8001620:	430a      	orrs	r2, r1
 8001622:	6002      	str	r2, [r0, #0]
 8001624:	2b10      	cmp	r3, #16
 8001626:	d1e9      	bne.n	80015fc <HAL_ADC_ConfigChannel+0x68>
 8001628:	4b19      	ldr	r3, [pc, #100]	; (8001690 <HAL_ADC_ConfigChannel+0xfc>)
 800162a:	491a      	ldr	r1, [pc, #104]	; (8001694 <HAL_ADC_ConfigChannel+0x100>)
 800162c:	6818      	ldr	r0, [r3, #0]
 800162e:	f7fe fd89 	bl	8000144 <__udivsi3>
 8001632:	230a      	movs	r3, #10
 8001634:	4343      	muls	r3, r0
 8001636:	9301      	str	r3, [sp, #4]
 8001638:	9b01      	ldr	r3, [sp, #4]
 800163a:	2b00      	cmp	r3, #0
 800163c:	d0de      	beq.n	80015fc <HAL_ADC_ConfigChannel+0x68>
 800163e:	9b01      	ldr	r3, [sp, #4]
 8001640:	3b01      	subs	r3, #1
 8001642:	e7f8      	b.n	8001636 <HAL_ADC_ConfigChannel+0xa2>
 8001644:	2280      	movs	r2, #128	; 0x80
 8001646:	0412      	lsls	r2, r2, #16
 8001648:	e7ea      	b.n	8001620 <HAL_ADC_ConfigChannel+0x8c>
 800164a:	4660      	mov	r0, ip
 800164c:	6a91      	ldr	r1, [r2, #40]	; 0x28
 800164e:	4381      	bics	r1, r0
 8001650:	6291      	str	r1, [r2, #40]	; 0x28
 8001652:	2e02      	cmp	r6, #2
 8001654:	d8d2      	bhi.n	80015fc <HAL_ADC_ConfigChannel+0x68>
 8001656:	4a0c      	ldr	r2, [pc, #48]	; (8001688 <HAL_ADC_ConfigChannel+0xf4>)
 8001658:	6811      	ldr	r1, [r2, #0]
 800165a:	2b10      	cmp	r3, #16
 800165c:	d00b      	beq.n	8001676 <HAL_ADC_ConfigChannel+0xe2>
 800165e:	3b11      	subs	r3, #17
 8001660:	4258      	negs	r0, r3
 8001662:	4143      	adcs	r3, r0
 8001664:	20c0      	movs	r0, #192	; 0xc0
 8001666:	425b      	negs	r3, r3
 8001668:	0400      	lsls	r0, r0, #16
 800166a:	4003      	ands	r3, r0
 800166c:	480a      	ldr	r0, [pc, #40]	; (8001698 <HAL_ADC_ConfigChannel+0x104>)
 800166e:	181b      	adds	r3, r3, r0
 8001670:	400b      	ands	r3, r1
 8001672:	6013      	str	r3, [r2, #0]
 8001674:	e7c2      	b.n	80015fc <HAL_ADC_ConfigChannel+0x68>
 8001676:	4b09      	ldr	r3, [pc, #36]	; (800169c <HAL_ADC_ConfigChannel+0x108>)
 8001678:	e7fa      	b.n	8001670 <HAL_ADC_ConfigChannel+0xdc>
 800167a:	2220      	movs	r2, #32
 800167c:	6b99      	ldr	r1, [r3, #56]	; 0x38
 800167e:	430a      	orrs	r2, r1
 8001680:	639a      	str	r2, [r3, #56]	; 0x38
 8001682:	e7bc      	b.n	80015fe <HAL_ADC_ConfigChannel+0x6a>
 8001684:	00001001 	.word	0x00001001
 8001688:	40012708 	.word	0x40012708
 800168c:	ff400000 	.word	0xff400000
 8001690:	20000000 	.word	0x20000000
 8001694:	000f4240 	.word	0x000f4240
 8001698:	feffffff 	.word	0xfeffffff
 800169c:	ff7fffff 	.word	0xff7fffff

080016a0 <HAL_ADCEx_Calibration_Start>:
 80016a0:	b5f8      	push	{r3, r4, r5, r6, r7, lr}
 80016a2:	0006      	movs	r6, r0
 80016a4:	3634      	adds	r6, #52	; 0x34
 80016a6:	7833      	ldrb	r3, [r6, #0]
 80016a8:	0004      	movs	r4, r0
 80016aa:	2002      	movs	r0, #2
 80016ac:	2b01      	cmp	r3, #1
 80016ae:	d046      	beq.n	800173e <HAL_ADCEx_Calibration_Start+0x9e>
 80016b0:	2301      	movs	r3, #1
 80016b2:	2103      	movs	r1, #3
 80016b4:	7033      	strb	r3, [r6, #0]
 80016b6:	6823      	ldr	r3, [r4, #0]
 80016b8:	689a      	ldr	r2, [r3, #8]
 80016ba:	400a      	ands	r2, r1
 80016bc:	2a01      	cmp	r2, #1
 80016be:	d105      	bne.n	80016cc <HAL_ADCEx_Calibration_Start+0x2c>
 80016c0:	6819      	ldr	r1, [r3, #0]
 80016c2:	4211      	tst	r1, r2
 80016c4:	d13c      	bne.n	8001740 <HAL_ADCEx_Calibration_Start+0xa0>
 80016c6:	68da      	ldr	r2, [r3, #12]
 80016c8:	0412      	lsls	r2, r2, #16
 80016ca:	d439      	bmi.n	8001740 <HAL_ADCEx_Calibration_Start+0xa0>
 80016cc:	6ba2      	ldr	r2, [r4, #56]	; 0x38
 80016ce:	491f      	ldr	r1, [pc, #124]	; (800174c <HAL_ADCEx_Calibration_Start+0xac>)
 80016d0:	4011      	ands	r1, r2
 80016d2:	2202      	movs	r2, #2
 80016d4:	430a      	orrs	r2, r1
 80016d6:	2103      	movs	r1, #3
 80016d8:	63a2      	str	r2, [r4, #56]	; 0x38
 80016da:	68dd      	ldr	r5, [r3, #12]
 80016dc:	68da      	ldr	r2, [r3, #12]
 80016de:	438a      	bics	r2, r1
 80016e0:	60da      	str	r2, [r3, #12]
 80016e2:	2280      	movs	r2, #128	; 0x80
 80016e4:	6899      	ldr	r1, [r3, #8]
 80016e6:	0612      	lsls	r2, r2, #24
 80016e8:	430a      	orrs	r2, r1
 80016ea:	609a      	str	r2, [r3, #8]
 80016ec:	f7ff fdaa 	bl	8001244 <HAL_GetTick>
 80016f0:	0007      	movs	r7, r0
 80016f2:	6823      	ldr	r3, [r4, #0]
 80016f4:	689a      	ldr	r2, [r3, #8]
 80016f6:	2a00      	cmp	r2, #0
 80016f8:	db0e      	blt.n	8001718 <HAL_ADCEx_Calibration_Start+0x78>
 80016fa:	2203      	movs	r2, #3
 80016fc:	68d9      	ldr	r1, [r3, #12]
 80016fe:	4015      	ands	r5, r2
 8001700:	430d      	orrs	r5, r1
 8001702:	60dd      	str	r5, [r3, #12]
 8001704:	6ba3      	ldr	r3, [r4, #56]	; 0x38
 8001706:	2000      	movs	r0, #0
 8001708:	4393      	bics	r3, r2
 800170a:	001a      	movs	r2, r3
 800170c:	2301      	movs	r3, #1
 800170e:	4313      	orrs	r3, r2
 8001710:	63a3      	str	r3, [r4, #56]	; 0x38
 8001712:	2300      	movs	r3, #0
 8001714:	7033      	strb	r3, [r6, #0]
 8001716:	e012      	b.n	800173e <HAL_ADCEx_Calibration_Start+0x9e>
 8001718:	f7ff fd94 	bl	8001244 <HAL_GetTick>
 800171c:	1bc0      	subs	r0, r0, r7
 800171e:	2802      	cmp	r0, #2
 8001720:	d9e7      	bls.n	80016f2 <HAL_ADCEx_Calibration_Start+0x52>
 8001722:	6823      	ldr	r3, [r4, #0]
 8001724:	689b      	ldr	r3, [r3, #8]
 8001726:	2b00      	cmp	r3, #0
 8001728:	dae3      	bge.n	80016f2 <HAL_ADCEx_Calibration_Start+0x52>
 800172a:	2212      	movs	r2, #18
 800172c:	6ba3      	ldr	r3, [r4, #56]	; 0x38
 800172e:	2001      	movs	r0, #1
 8001730:	4393      	bics	r3, r2
 8001732:	001a      	movs	r2, r3
 8001734:	2310      	movs	r3, #16
 8001736:	4313      	orrs	r3, r2
 8001738:	63a3      	str	r3, [r4, #56]	; 0x38
 800173a:	2300      	movs	r3, #0
 800173c:	7033      	strb	r3, [r6, #0]
 800173e:	bdf8      	pop	{r3, r4, r5, r6, r7, pc}
 8001740:	2320      	movs	r3, #32
 8001742:	6ba2      	ldr	r2, [r4, #56]	; 0x38
 8001744:	2001      	movs	r0, #1
 8001746:	4313      	orrs	r3, r2
 8001748:	63a3      	str	r3, [r4, #56]	; 0x38
 800174a:	e7e2      	b.n	8001712 <HAL_ADCEx_Calibration_Start+0x72>
 800174c:	fffffefd 	.word	0xfffffefd

08001750 <HAL_NVIC_SetPriority>:
 8001750:	b530      	push	{r4, r5, lr}
 8001752:	25ff      	movs	r5, #255	; 0xff
 8001754:	2403      	movs	r4, #3
 8001756:	002a      	movs	r2, r5
 8001758:	4004      	ands	r4, r0
 800175a:	00e4      	lsls	r4, r4, #3
 800175c:	40a2      	lsls	r2, r4
 800175e:	0189      	lsls	r1, r1, #6
 8001760:	4029      	ands	r1, r5
 8001762:	43d2      	mvns	r2, r2
 8001764:	40a1      	lsls	r1, r4
 8001766:	b2c3      	uxtb	r3, r0
 8001768:	2800      	cmp	r0, #0
 800176a:	db0a      	blt.n	8001782 <HAL_NVIC_SetPriority+0x32>
 800176c:	24c0      	movs	r4, #192	; 0xc0
 800176e:	4b0b      	ldr	r3, [pc, #44]	; (800179c <HAL_NVIC_SetPriority+0x4c>)
 8001770:	0880      	lsrs	r0, r0, #2
 8001772:	0080      	lsls	r0, r0, #2
 8001774:	18c0      	adds	r0, r0, r3
 8001776:	00a4      	lsls	r4, r4, #2
 8001778:	5903      	ldr	r3, [r0, r4]
 800177a:	401a      	ands	r2, r3
 800177c:	4311      	orrs	r1, r2
 800177e:	5101      	str	r1, [r0, r4]
 8001780:	bd30      	pop	{r4, r5, pc}
 8001782:	200f      	movs	r0, #15
 8001784:	4003      	ands	r3, r0
 8001786:	3b08      	subs	r3, #8
 8001788:	4805      	ldr	r0, [pc, #20]	; (80017a0 <HAL_NVIC_SetPriority+0x50>)
 800178a:	089b      	lsrs	r3, r3, #2
 800178c:	009b      	lsls	r3, r3, #2
 800178e:	181b      	adds	r3, r3, r0
 8001790:	69d8      	ldr	r0, [r3, #28]
 8001792:	4002      	ands	r2, r0
 8001794:	4311      	orrs	r1, r2
 8001796:	61d9      	str	r1, [r3, #28]
 8001798:	e7f2      	b.n	8001780 <HAL_NVIC_SetPriority+0x30>
 800179a:	46c0      	nop			; (mov r8, r8)
 800179c:	e000e100 	.word	0xe000e100
 80017a0:	e000ed00 	.word	0xe000ed00

080017a4 <HAL_NVIC_EnableIRQ>:
 80017a4:	2800      	cmp	r0, #0
 80017a6:	db05      	blt.n	80017b4 <HAL_NVIC_EnableIRQ+0x10>
 80017a8:	231f      	movs	r3, #31
 80017aa:	4018      	ands	r0, r3
 80017ac:	3b1e      	subs	r3, #30
 80017ae:	4083      	lsls	r3, r0
 80017b0:	4a01      	ldr	r2, [pc, #4]	; (80017b8 <HAL_NVIC_EnableIRQ+0x14>)
 80017b2:	6013      	str	r3, [r2, #0]
 80017b4:	4770      	bx	lr
 80017b6:	46c0      	nop			; (mov r8, r8)
 80017b8:	e000e100 	.word	0xe000e100

080017bc <HAL_SYSTICK_Config>:
 80017bc:	2280      	movs	r2, #128	; 0x80
 80017be:	1e43      	subs	r3, r0, #1
 80017c0:	0452      	lsls	r2, r2, #17
 80017c2:	2001      	movs	r0, #1
 80017c4:	4293      	cmp	r3, r2
 80017c6:	d20d      	bcs.n	80017e4 <HAL_SYSTICK_Config+0x28>
 80017c8:	21c0      	movs	r1, #192	; 0xc0
 80017ca:	4a07      	ldr	r2, [pc, #28]	; (80017e8 <HAL_SYSTICK_Config+0x2c>)
 80017cc:	4807      	ldr	r0, [pc, #28]	; (80017ec <HAL_SYSTICK_Config+0x30>)
 80017ce:	6053      	str	r3, [r2, #4]
 80017d0:	6a03      	ldr	r3, [r0, #32]
 80017d2:	0609      	lsls	r1, r1, #24
 80017d4:	021b      	lsls	r3, r3, #8
 80017d6:	0a1b      	lsrs	r3, r3, #8
 80017d8:	430b      	orrs	r3, r1
 80017da:	6203      	str	r3, [r0, #32]
 80017dc:	2000      	movs	r0, #0
 80017de:	2307      	movs	r3, #7
 80017e0:	6090      	str	r0, [r2, #8]
 80017e2:	6013      	str	r3, [r2, #0]
 80017e4:	4770      	bx	lr
 80017e6:	46c0      	nop			; (mov r8, r8)
 80017e8:	e000e010 	.word	0xe000e010
 80017ec:	e000ed00 	.word	0xe000ed00

080017f0 <HAL_DMA_Init>:
 80017f0:	b570      	push	{r4, r5, r6, lr}
 80017f2:	0004      	movs	r4, r0
 80017f4:	2001      	movs	r0, #1
 80017f6:	2c00      	cmp	r4, #0
 80017f8:	d024      	beq.n	8001844 <HAL_DMA_Init+0x54>
 80017fa:	2302      	movs	r3, #2
 80017fc:	1ca5      	adds	r5, r4, #2
 80017fe:	77eb      	strb	r3, [r5, #31]
 8001800:	6820      	ldr	r0, [r4, #0]
 8001802:	4b11      	ldr	r3, [pc, #68]	; (8001848 <HAL_DMA_Init+0x58>)
 8001804:	6802      	ldr	r2, [r0, #0]
 8001806:	68a1      	ldr	r1, [r4, #8]
 8001808:	401a      	ands	r2, r3
 800180a:	6863      	ldr	r3, [r4, #4]
 800180c:	430b      	orrs	r3, r1
 800180e:	68e1      	ldr	r1, [r4, #12]
 8001810:	430b      	orrs	r3, r1
 8001812:	6921      	ldr	r1, [r4, #16]
 8001814:	430b      	orrs	r3, r1
 8001816:	6961      	ldr	r1, [r4, #20]
 8001818:	430b      	orrs	r3, r1
 800181a:	69a1      	ldr	r1, [r4, #24]
 800181c:	430b      	orrs	r3, r1
 800181e:	69e1      	ldr	r1, [r4, #28]
 8001820:	430b      	orrs	r3, r1
 8001822:	4313      	orrs	r3, r2
 8001824:	6003      	str	r3, [r0, #0]
 8001826:	4b09      	ldr	r3, [pc, #36]	; (800184c <HAL_DMA_Init+0x5c>)
 8001828:	2114      	movs	r1, #20
 800182a:	18c0      	adds	r0, r0, r3
 800182c:	f7fe fc8a 	bl	8000144 <__udivsi3>
 8001830:	4b07      	ldr	r3, [pc, #28]	; (8001850 <HAL_DMA_Init+0x60>)
 8001832:	0080      	lsls	r0, r0, #2
 8001834:	6420      	str	r0, [r4, #64]	; 0x40
 8001836:	63e3      	str	r3, [r4, #60]	; 0x3c
 8001838:	2000      	movs	r0, #0
 800183a:	2301      	movs	r3, #1
 800183c:	63a0      	str	r0, [r4, #56]	; 0x38
 800183e:	18e4      	adds	r4, r4, r3
 8001840:	77eb      	strb	r3, [r5, #31]
 8001842:	77e0      	strb	r0, [r4, #31]
 8001844:	bd70      	pop	{r4, r5, r6, pc}
 8001846:	46c0      	nop			; (mov r8, r8)
 8001848:	ffffc00f 	.word	0xffffc00f
 800184c:	bffdfff8 	.word	0xbffdfff8
 8001850:	40020000 	.word	0x40020000

08001854 <HAL_DMA_Start_IT>:
 8001854:	b5f7      	push	{r0, r1, r2, r4, r5, r6, r7, lr}
 8001856:	1c45      	adds	r5, r0, #1
 8001858:	9301      	str	r3, [sp, #4]
 800185a:	7feb      	ldrb	r3, [r5, #31]
 800185c:	0004      	movs	r4, r0
 800185e:	2002      	movs	r0, #2
 8001860:	2b01      	cmp	r3, #1
 8001862:	d027      	beq.n	80018b4 <HAL_DMA_Start_IT+0x60>
 8001864:	2301      	movs	r3, #1
 8001866:	1827      	adds	r7, r4, r0
 8001868:	77eb      	strb	r3, [r5, #31]
 800186a:	7ffb      	ldrb	r3, [r7, #31]
 800186c:	2600      	movs	r6, #0
 800186e:	469c      	mov	ip, r3
 8001870:	4660      	mov	r0, ip
 8001872:	b2db      	uxtb	r3, r3
 8001874:	2801      	cmp	r0, #1
 8001876:	d128      	bne.n	80018ca <HAL_DMA_Start_IT+0x76>
 8001878:	3001      	adds	r0, #1
 800187a:	77f8      	strb	r0, [r7, #31]
 800187c:	6820      	ldr	r0, [r4, #0]
 800187e:	63a6      	str	r6, [r4, #56]	; 0x38
 8001880:	6805      	ldr	r5, [r0, #0]
 8001882:	6c26      	ldr	r6, [r4, #64]	; 0x40
 8001884:	439d      	bics	r5, r3
 8001886:	40b3      	lsls	r3, r6
 8001888:	6005      	str	r5, [r0, #0]
 800188a:	6be5      	ldr	r5, [r4, #60]	; 0x3c
 800188c:	606b      	str	r3, [r5, #4]
 800188e:	9b01      	ldr	r3, [sp, #4]
 8001890:	6043      	str	r3, [r0, #4]
 8001892:	6863      	ldr	r3, [r4, #4]
 8001894:	2b10      	cmp	r3, #16
 8001896:	d10e      	bne.n	80018b6 <HAL_DMA_Start_IT+0x62>
 8001898:	6082      	str	r2, [r0, #8]
 800189a:	60c1      	str	r1, [r0, #12]
 800189c:	6ae3      	ldr	r3, [r4, #44]	; 0x2c
 800189e:	6802      	ldr	r2, [r0, #0]
 80018a0:	2b00      	cmp	r3, #0
 80018a2:	d00b      	beq.n	80018bc <HAL_DMA_Start_IT+0x68>
 80018a4:	230e      	movs	r3, #14
 80018a6:	4313      	orrs	r3, r2
 80018a8:	6003      	str	r3, [r0, #0]
 80018aa:	2301      	movs	r3, #1
 80018ac:	6802      	ldr	r2, [r0, #0]
 80018ae:	4313      	orrs	r3, r2
 80018b0:	6003      	str	r3, [r0, #0]
 80018b2:	2000      	movs	r0, #0
 80018b4:	bdfe      	pop	{r1, r2, r3, r4, r5, r6, r7, pc}
 80018b6:	6081      	str	r1, [r0, #8]
 80018b8:	60c2      	str	r2, [r0, #12]
 80018ba:	e7ef      	b.n	800189c <HAL_DMA_Start_IT+0x48>
 80018bc:	230a      	movs	r3, #10
 80018be:	4313      	orrs	r3, r2
 80018c0:	2204      	movs	r2, #4
 80018c2:	6003      	str	r3, [r0, #0]
 80018c4:	6803      	ldr	r3, [r0, #0]
 80018c6:	4393      	bics	r3, r2
 80018c8:	e7ee      	b.n	80018a8 <HAL_DMA_Start_IT+0x54>
 80018ca:	2002      	movs	r0, #2
 80018cc:	77ee      	strb	r6, [r5, #31]
 80018ce:	e7f1      	b.n	80018b4 <HAL_DMA_Start_IT+0x60>

080018d0 <HAL_DMA_Abort_IT>:
 80018d0:	b570      	push	{r4, r5, r6, lr}
 80018d2:	1c84      	adds	r4, r0, #2
 80018d4:	7fe3      	ldrb	r3, [r4, #31]
 80018d6:	2b02      	cmp	r3, #2
 80018d8:	d004      	beq.n	80018e4 <HAL_DMA_Abort_IT+0x14>
 80018da:	2304      	movs	r3, #4
 80018dc:	6383      	str	r3, [r0, #56]	; 0x38
 80018de:	3b03      	subs	r3, #3
 80018e0:	0018      	movs	r0, r3
 80018e2:	bd70      	pop	{r4, r5, r6, pc}
 80018e4:	210e      	movs	r1, #14
 80018e6:	6803      	ldr	r3, [r0, #0]
 80018e8:	6c05      	ldr	r5, [r0, #64]	; 0x40
 80018ea:	681a      	ldr	r2, [r3, #0]
 80018ec:	438a      	bics	r2, r1
 80018ee:	601a      	str	r2, [r3, #0]
 80018f0:	2201      	movs	r2, #1
 80018f2:	6819      	ldr	r1, [r3, #0]
 80018f4:	4391      	bics	r1, r2
 80018f6:	6019      	str	r1, [r3, #0]
 80018f8:	0011      	movs	r1, r2
 80018fa:	40a9      	lsls	r1, r5
 80018fc:	6bc3      	ldr	r3, [r0, #60]	; 0x3c
 80018fe:	6059      	str	r1, [r3, #4]
 8001900:	77e2      	strb	r2, [r4, #31]
 8001902:	2400      	movs	r4, #0
 8001904:	1883      	adds	r3, r0, r2
 8001906:	77dc      	strb	r4, [r3, #31]
 8001908:	6b42      	ldr	r2, [r0, #52]	; 0x34
 800190a:	0013      	movs	r3, r2
 800190c:	42a2      	cmp	r2, r4
 800190e:	d0e7      	beq.n	80018e0 <HAL_DMA_Abort_IT+0x10>
 8001910:	4790      	blx	r2
 8001912:	0023      	movs	r3, r4
 8001914:	e7e4      	b.n	80018e0 <HAL_DMA_Abort_IT+0x10>

08001916 <HAL_DMA_IRQHandler>:
 8001916:	b5f8      	push	{r3, r4, r5, r6, r7, lr}
 8001918:	2704      	movs	r7, #4
 800191a:	003e      	movs	r6, r7
 800191c:	6c01      	ldr	r1, [r0, #64]	; 0x40
 800191e:	6bc2      	ldr	r2, [r0, #60]	; 0x3c
 8001920:	408e      	lsls	r6, r1
 8001922:	6815      	ldr	r5, [r2, #0]
 8001924:	6803      	ldr	r3, [r0, #0]
 8001926:	681c      	ldr	r4, [r3, #0]
 8001928:	4235      	tst	r5, r6
 800192a:	d00d      	beq.n	8001948 <HAL_DMA_IRQHandler+0x32>
 800192c:	423c      	tst	r4, r7
 800192e:	d00b      	beq.n	8001948 <HAL_DMA_IRQHandler+0x32>
 8001930:	6819      	ldr	r1, [r3, #0]
 8001932:	0689      	lsls	r1, r1, #26
 8001934:	d402      	bmi.n	800193c <HAL_DMA_IRQHandler+0x26>
 8001936:	6819      	ldr	r1, [r3, #0]
 8001938:	43b9      	bics	r1, r7
 800193a:	6019      	str	r1, [r3, #0]
 800193c:	6ac3      	ldr	r3, [r0, #44]	; 0x2c
 800193e:	6056      	str	r6, [r2, #4]
 8001940:	2b00      	cmp	r3, #0
 8001942:	d019      	beq.n	8001978 <HAL_DMA_IRQHandler+0x62>
 8001944:	4798      	blx	r3
 8001946:	e017      	b.n	8001978 <HAL_DMA_IRQHandler+0x62>
 8001948:	2702      	movs	r7, #2
 800194a:	003e      	movs	r6, r7
 800194c:	408e      	lsls	r6, r1
 800194e:	4235      	tst	r5, r6
 8001950:	d013      	beq.n	800197a <HAL_DMA_IRQHandler+0x64>
 8001952:	423c      	tst	r4, r7
 8001954:	d011      	beq.n	800197a <HAL_DMA_IRQHandler+0x64>
 8001956:	6819      	ldr	r1, [r3, #0]
 8001958:	0689      	lsls	r1, r1, #26
 800195a:	d406      	bmi.n	800196a <HAL_DMA_IRQHandler+0x54>
 800195c:	240a      	movs	r4, #10
 800195e:	6819      	ldr	r1, [r3, #0]
 8001960:	43a1      	bics	r1, r4
 8001962:	6019      	str	r1, [r3, #0]
 8001964:	2101      	movs	r1, #1
 8001966:	19c3      	adds	r3, r0, r7
 8001968:	77d9      	strb	r1, [r3, #31]
 800196a:	6056      	str	r6, [r2, #4]
 800196c:	2200      	movs	r2, #0
 800196e:	1c43      	adds	r3, r0, #1
 8001970:	77da      	strb	r2, [r3, #31]
 8001972:	6a83      	ldr	r3, [r0, #40]	; 0x28
 8001974:	4293      	cmp	r3, r2
 8001976:	d1e5      	bne.n	8001944 <HAL_DMA_IRQHandler+0x2e>
 8001978:	bdf8      	pop	{r3, r4, r5, r6, r7, pc}
 800197a:	2608      	movs	r6, #8
 800197c:	0037      	movs	r7, r6
 800197e:	408f      	lsls	r7, r1
 8001980:	423d      	tst	r5, r7
 8001982:	d0f9      	beq.n	8001978 <HAL_DMA_IRQHandler+0x62>
 8001984:	4234      	tst	r4, r6
 8001986:	d0f7      	beq.n	8001978 <HAL_DMA_IRQHandler+0x62>
 8001988:	250e      	movs	r5, #14
 800198a:	681c      	ldr	r4, [r3, #0]
 800198c:	43ac      	bics	r4, r5
 800198e:	601c      	str	r4, [r3, #0]
 8001990:	2301      	movs	r3, #1
 8001992:	001c      	movs	r4, r3
 8001994:	408c      	lsls	r4, r1
 8001996:	6054      	str	r4, [r2, #4]
 8001998:	1c82      	adds	r2, r0, #2
 800199a:	6383      	str	r3, [r0, #56]	; 0x38
 800199c:	77d3      	strb	r3, [r2, #31]
 800199e:	2200      	movs	r2, #0
 80019a0:	18c3      	adds	r3, r0, r3
 80019a2:	77da      	strb	r2, [r3, #31]
 80019a4:	6b03      	ldr	r3, [r0, #48]	; 0x30
 80019a6:	e7e5      	b.n	8001974 <HAL_DMA_IRQHandler+0x5e>

080019a8 <HAL_DMA_GetState>:
 80019a8:	3002      	adds	r0, #2
 80019aa:	7fc0      	ldrb	r0, [r0, #31]
 80019ac:	b2c0      	uxtb	r0, r0
 80019ae:	4770      	bx	lr

080019b0 <HAL_GPIO_Init>:
 80019b0:	2300      	movs	r3, #0
 80019b2:	b5f0      	push	{r4, r5, r6, r7, lr}
 80019b4:	b087      	sub	sp, #28
 80019b6:	680a      	ldr	r2, [r1, #0]
 80019b8:	0014      	movs	r4, r2
 80019ba:	40dc      	lsrs	r4, r3
 80019bc:	d101      	bne.n	80019c2 <HAL_GPIO_Init+0x12>
 80019be:	b007      	add	sp, #28
 80019c0:	bdf0      	pop	{r4, r5, r6, r7, pc}
 80019c2:	2501      	movs	r5, #1
 80019c4:	0014      	movs	r4, r2
 80019c6:	409d      	lsls	r5, r3
 80019c8:	402c      	ands	r4, r5
 80019ca:	9401      	str	r4, [sp, #4]
 80019cc:	422a      	tst	r2, r5
 80019ce:	d100      	bne.n	80019d2 <HAL_GPIO_Init+0x22>
 80019d0:	e091      	b.n	8001af6 <HAL_GPIO_Init+0x146>
 80019d2:	684a      	ldr	r2, [r1, #4]
 80019d4:	005e      	lsls	r6, r3, #1
 80019d6:	4694      	mov	ip, r2
 80019d8:	2203      	movs	r2, #3
 80019da:	4664      	mov	r4, ip
 80019dc:	4022      	ands	r2, r4
 80019de:	2403      	movs	r4, #3
 80019e0:	40b4      	lsls	r4, r6
 80019e2:	43e4      	mvns	r4, r4
 80019e4:	9402      	str	r4, [sp, #8]
 80019e6:	1e54      	subs	r4, r2, #1
 80019e8:	2c01      	cmp	r4, #1
 80019ea:	d82a      	bhi.n	8001a42 <HAL_GPIO_Init+0x92>
 80019ec:	6887      	ldr	r7, [r0, #8]
 80019ee:	9c02      	ldr	r4, [sp, #8]
 80019f0:	4027      	ands	r7, r4
 80019f2:	68cc      	ldr	r4, [r1, #12]
 80019f4:	40b4      	lsls	r4, r6
 80019f6:	433c      	orrs	r4, r7
 80019f8:	6084      	str	r4, [r0, #8]
 80019fa:	6844      	ldr	r4, [r0, #4]
 80019fc:	2701      	movs	r7, #1
 80019fe:	43ac      	bics	r4, r5
 8001a00:	0025      	movs	r5, r4
 8001a02:	4664      	mov	r4, ip
 8001a04:	0924      	lsrs	r4, r4, #4
 8001a06:	403c      	ands	r4, r7
 8001a08:	409c      	lsls	r4, r3
 8001a0a:	432c      	orrs	r4, r5
 8001a0c:	6044      	str	r4, [r0, #4]
 8001a0e:	68c5      	ldr	r5, [r0, #12]
 8001a10:	9c02      	ldr	r4, [sp, #8]
 8001a12:	4025      	ands	r5, r4
 8001a14:	688c      	ldr	r4, [r1, #8]
 8001a16:	40b4      	lsls	r4, r6
 8001a18:	432c      	orrs	r4, r5
 8001a1a:	60c4      	str	r4, [r0, #12]
 8001a1c:	2a02      	cmp	r2, #2
 8001a1e:	d112      	bne.n	8001a46 <HAL_GPIO_Init+0x96>
 8001a20:	08dc      	lsrs	r4, r3, #3
 8001a22:	2507      	movs	r5, #7
 8001a24:	00a4      	lsls	r4, r4, #2
 8001a26:	1904      	adds	r4, r0, r4
 8001a28:	6a27      	ldr	r7, [r4, #32]
 8001a2a:	9403      	str	r4, [sp, #12]
 8001a2c:	240f      	movs	r4, #15
 8001a2e:	401d      	ands	r5, r3
 8001a30:	00ad      	lsls	r5, r5, #2
 8001a32:	40ac      	lsls	r4, r5
 8001a34:	43a7      	bics	r7, r4
 8001a36:	690c      	ldr	r4, [r1, #16]
 8001a38:	40ac      	lsls	r4, r5
 8001a3a:	4327      	orrs	r7, r4
 8001a3c:	9c03      	ldr	r4, [sp, #12]
 8001a3e:	6227      	str	r7, [r4, #32]
 8001a40:	e001      	b.n	8001a46 <HAL_GPIO_Init+0x96>
 8001a42:	2a03      	cmp	r2, #3
 8001a44:	d1e3      	bne.n	8001a0e <HAL_GPIO_Init+0x5e>
 8001a46:	6804      	ldr	r4, [r0, #0]
 8001a48:	9d02      	ldr	r5, [sp, #8]
 8001a4a:	40b2      	lsls	r2, r6
 8001a4c:	4025      	ands	r5, r4
 8001a4e:	002c      	movs	r4, r5
 8001a50:	4314      	orrs	r4, r2
 8001a52:	6004      	str	r4, [r0, #0]
 8001a54:	24c0      	movs	r4, #192	; 0xc0
 8001a56:	4662      	mov	r2, ip
 8001a58:	02a4      	lsls	r4, r4, #10
 8001a5a:	4222      	tst	r2, r4
 8001a5c:	d04b      	beq.n	8001af6 <HAL_GPIO_Init+0x146>
 8001a5e:	2501      	movs	r5, #1
 8001a60:	4a26      	ldr	r2, [pc, #152]	; (8001afc <HAL_GPIO_Init+0x14c>)
 8001a62:	2790      	movs	r7, #144	; 0x90
 8001a64:	6994      	ldr	r4, [r2, #24]
 8001a66:	05ff      	lsls	r7, r7, #23
 8001a68:	432c      	orrs	r4, r5
 8001a6a:	6194      	str	r4, [r2, #24]
 8001a6c:	6992      	ldr	r2, [r2, #24]
 8001a6e:	089c      	lsrs	r4, r3, #2
 8001a70:	402a      	ands	r2, r5
 8001a72:	9205      	str	r2, [sp, #20]
 8001a74:	9a05      	ldr	r2, [sp, #20]
 8001a76:	4a22      	ldr	r2, [pc, #136]	; (8001b00 <HAL_GPIO_Init+0x150>)
 8001a78:	00a4      	lsls	r4, r4, #2
 8001a7a:	18a4      	adds	r4, r4, r2
 8001a7c:	220f      	movs	r2, #15
 8001a7e:	3502      	adds	r5, #2
 8001a80:	401d      	ands	r5, r3
 8001a82:	00ad      	lsls	r5, r5, #2
 8001a84:	40aa      	lsls	r2, r5
 8001a86:	68a6      	ldr	r6, [r4, #8]
 8001a88:	4396      	bics	r6, r2
 8001a8a:	2200      	movs	r2, #0
 8001a8c:	42b8      	cmp	r0, r7
 8001a8e:	d008      	beq.n	8001aa2 <HAL_GPIO_Init+0xf2>
 8001a90:	4f1c      	ldr	r7, [pc, #112]	; (8001b04 <HAL_GPIO_Init+0x154>)
 8001a92:	3201      	adds	r2, #1
 8001a94:	42b8      	cmp	r0, r7
 8001a96:	d004      	beq.n	8001aa2 <HAL_GPIO_Init+0xf2>
 8001a98:	4f1b      	ldr	r7, [pc, #108]	; (8001b08 <HAL_GPIO_Init+0x158>)
 8001a9a:	3201      	adds	r2, #1
 8001a9c:	42b8      	cmp	r0, r7
 8001a9e:	d000      	beq.n	8001aa2 <HAL_GPIO_Init+0xf2>
 8001aa0:	3203      	adds	r2, #3
 8001aa2:	40aa      	lsls	r2, r5
 8001aa4:	4667      	mov	r7, ip
 8001aa6:	4332      	orrs	r2, r6
 8001aa8:	60a2      	str	r2, [r4, #8]
 8001aaa:	4a18      	ldr	r2, [pc, #96]	; (8001b0c <HAL_GPIO_Init+0x15c>)
 8001aac:	9c01      	ldr	r4, [sp, #4]
 8001aae:	6896      	ldr	r6, [r2, #8]
 8001ab0:	9d01      	ldr	r5, [sp, #4]
 8001ab2:	43e4      	mvns	r4, r4
 8001ab4:	4335      	orrs	r5, r6
 8001ab6:	02ff      	lsls	r7, r7, #11
 8001ab8:	d401      	bmi.n	8001abe <HAL_GPIO_Init+0x10e>
 8001aba:	0035      	movs	r5, r6
 8001abc:	4025      	ands	r5, r4
 8001abe:	4667      	mov	r7, ip
 8001ac0:	6095      	str	r5, [r2, #8]
 8001ac2:	68d6      	ldr	r6, [r2, #12]
 8001ac4:	9d01      	ldr	r5, [sp, #4]
 8001ac6:	4335      	orrs	r5, r6
 8001ac8:	02bf      	lsls	r7, r7, #10
 8001aca:	d401      	bmi.n	8001ad0 <HAL_GPIO_Init+0x120>
 8001acc:	0035      	movs	r5, r6
 8001ace:	4025      	ands	r5, r4
 8001ad0:	4667      	mov	r7, ip
 8001ad2:	60d5      	str	r5, [r2, #12]
 8001ad4:	6856      	ldr	r6, [r2, #4]
 8001ad6:	9d01      	ldr	r5, [sp, #4]
 8001ad8:	4335      	orrs	r5, r6
 8001ada:	03bf      	lsls	r7, r7, #14
 8001adc:	d401      	bmi.n	8001ae2 <HAL_GPIO_Init+0x132>
 8001ade:	0035      	movs	r5, r6
 8001ae0:	4025      	ands	r5, r4
 8001ae2:	4667      	mov	r7, ip
 8001ae4:	6055      	str	r5, [r2, #4]
 8001ae6:	6815      	ldr	r5, [r2, #0]
 8001ae8:	9e01      	ldr	r6, [sp, #4]
 8001aea:	432e      	orrs	r6, r5
 8001aec:	03ff      	lsls	r7, r7, #15
 8001aee:	d401      	bmi.n	8001af4 <HAL_GPIO_Init+0x144>
 8001af0:	4025      	ands	r5, r4
 8001af2:	002e      	movs	r6, r5
 8001af4:	6016      	str	r6, [r2, #0]
 8001af6:	3301      	adds	r3, #1
 8001af8:	e75d      	b.n	80019b6 <HAL_GPIO_Init+0x6>
 8001afa:	46c0      	nop			; (mov r8, r8)
 8001afc:	40021000 	.word	0x40021000
 8001b00:	40010000 	.word	0x40010000
 8001b04:	48000400 	.word	0x48000400
 8001b08:	48000800 	.word	0x48000800
 8001b0c:	40010400 	.word	0x40010400

08001b10 <HAL_GPIO_WritePin>:
 8001b10:	2a00      	cmp	r2, #0
 8001b12:	d001      	beq.n	8001b18 <HAL_GPIO_WritePin+0x8>
 8001b14:	6181      	str	r1, [r0, #24]
 8001b16:	4770      	bx	lr
 8001b18:	6281      	str	r1, [r0, #40]	; 0x28
 8001b1a:	e7fc      	b.n	8001b16 <HAL_GPIO_WritePin+0x6>

08001b1c <HAL_GPIO_TogglePin>:
 8001b1c:	6942      	ldr	r2, [r0, #20]
 8001b1e:	0013      	movs	r3, r2
 8001b20:	400b      	ands	r3, r1
 8001b22:	041b      	lsls	r3, r3, #16
 8001b24:	4391      	bics	r1, r2
 8001b26:	4319      	orrs	r1, r3
 8001b28:	6181      	str	r1, [r0, #24]
 8001b2a:	4770      	bx	lr

08001b2c <I2C_Flush_TXDR>:
 8001b2c:	6803      	ldr	r3, [r0, #0]
 8001b2e:	699a      	ldr	r2, [r3, #24]
 8001b30:	0792      	lsls	r2, r2, #30
 8001b32:	d501      	bpl.n	8001b38 <I2C_Flush_TXDR+0xc>
 8001b34:	2200      	movs	r2, #0
 8001b36:	629a      	str	r2, [r3, #40]	; 0x28
 8001b38:	2201      	movs	r2, #1
 8001b3a:	6999      	ldr	r1, [r3, #24]
 8001b3c:	4211      	tst	r1, r2
 8001b3e:	d102      	bne.n	8001b46 <I2C_Flush_TXDR+0x1a>
 8001b40:	6999      	ldr	r1, [r3, #24]
 8001b42:	430a      	orrs	r2, r1
 8001b44:	619a      	str	r2, [r3, #24]
 8001b46:	4770      	bx	lr

08001b48 <I2C_TransferConfig>:
 8001b48:	b530      	push	{r4, r5, lr}
 8001b4a:	9c03      	ldr	r4, [sp, #12]
 8001b4c:	6800      	ldr	r0, [r0, #0]
 8001b4e:	4323      	orrs	r3, r4
 8001b50:	0412      	lsls	r2, r2, #16
 8001b52:	0589      	lsls	r1, r1, #22
 8001b54:	431a      	orrs	r2, r3
 8001b56:	0d89      	lsrs	r1, r1, #22
 8001b58:	4b05      	ldr	r3, [pc, #20]	; (8001b70 <I2C_TransferConfig+0x28>)
 8001b5a:	6845      	ldr	r5, [r0, #4]
 8001b5c:	430a      	orrs	r2, r1
 8001b5e:	0d64      	lsrs	r4, r4, #21
 8001b60:	431c      	orrs	r4, r3
 8001b62:	0052      	lsls	r2, r2, #1
 8001b64:	43a5      	bics	r5, r4
 8001b66:	0852      	lsrs	r2, r2, #1
 8001b68:	432a      	orrs	r2, r5
 8001b6a:	6042      	str	r2, [r0, #4]
 8001b6c:	bd30      	pop	{r4, r5, pc}
 8001b6e:	46c0      	nop			; (mov r8, r8)
 8001b70:	03ff63ff 	.word	0x03ff63ff

08001b74 <I2C_Enable_IRQ>:
 8001b74:	6b42      	ldr	r2, [r0, #52]	; 0x34
 8001b76:	4b1e      	ldr	r3, [pc, #120]	; (8001bf0 <I2C_Enable_IRQ+0x7c>)
 8001b78:	b510      	push	{r4, lr}
 8001b7a:	b20c      	sxth	r4, r1
 8001b7c:	429a      	cmp	r2, r3
 8001b7e:	d01e      	beq.n	8001bbe <I2C_Enable_IRQ+0x4a>
 8001b80:	4b1c      	ldr	r3, [pc, #112]	; (8001bf4 <I2C_Enable_IRQ+0x80>)
 8001b82:	429a      	cmp	r2, r3
 8001b84:	d01b      	beq.n	8001bbe <I2C_Enable_IRQ+0x4a>
 8001b86:	4b1c      	ldr	r3, [pc, #112]	; (8001bf8 <I2C_Enable_IRQ+0x84>)
 8001b88:	429a      	cmp	r2, r3
 8001b8a:	d018      	beq.n	8001bbe <I2C_Enable_IRQ+0x4a>
 8001b8c:	2300      	movs	r3, #0
 8001b8e:	429c      	cmp	r4, r3
 8001b90:	da00      	bge.n	8001b94 <I2C_Enable_IRQ+0x20>
 8001b92:	33b8      	adds	r3, #184	; 0xb8
 8001b94:	07ca      	lsls	r2, r1, #31
 8001b96:	d501      	bpl.n	8001b9c <I2C_Enable_IRQ+0x28>
 8001b98:	22f2      	movs	r2, #242	; 0xf2
 8001b9a:	4313      	orrs	r3, r2
 8001b9c:	078a      	lsls	r2, r1, #30
 8001b9e:	d501      	bpl.n	8001ba4 <I2C_Enable_IRQ+0x30>
 8001ba0:	22f4      	movs	r2, #244	; 0xf4
 8001ba2:	4313      	orrs	r3, r2
 8001ba4:	2910      	cmp	r1, #16
 8001ba6:	d106      	bne.n	8001bb6 <I2C_Enable_IRQ+0x42>
 8001ba8:	2290      	movs	r2, #144	; 0x90
 8001baa:	4313      	orrs	r3, r2
 8001bac:	6801      	ldr	r1, [r0, #0]
 8001bae:	680a      	ldr	r2, [r1, #0]
 8001bb0:	4313      	orrs	r3, r2
 8001bb2:	600b      	str	r3, [r1, #0]
 8001bb4:	bd10      	pop	{r4, pc}
 8001bb6:	2920      	cmp	r1, #32
 8001bb8:	d1f8      	bne.n	8001bac <I2C_Enable_IRQ+0x38>
 8001bba:	430b      	orrs	r3, r1
 8001bbc:	e7f6      	b.n	8001bac <I2C_Enable_IRQ+0x38>
 8001bbe:	2300      	movs	r3, #0
 8001bc0:	429c      	cmp	r4, r3
 8001bc2:	da00      	bge.n	8001bc6 <I2C_Enable_IRQ+0x52>
 8001bc4:	33b8      	adds	r3, #184	; 0xb8
 8001bc6:	07cc      	lsls	r4, r1, #31
 8001bc8:	d501      	bpl.n	8001bce <I2C_Enable_IRQ+0x5a>
 8001bca:	24f2      	movs	r4, #242	; 0xf2
 8001bcc:	4323      	orrs	r3, r4
 8001bce:	078c      	lsls	r4, r1, #30
 8001bd0:	d501      	bpl.n	8001bd6 <I2C_Enable_IRQ+0x62>
 8001bd2:	24f4      	movs	r4, #244	; 0xf4
 8001bd4:	4323      	orrs	r3, r4
 8001bd6:	2910      	cmp	r1, #16
 8001bd8:	d0e6      	beq.n	8001ba8 <I2C_Enable_IRQ+0x34>
 8001bda:	2920      	cmp	r1, #32
 8001bdc:	d101      	bne.n	8001be2 <I2C_Enable_IRQ+0x6e>
 8001bde:	2260      	movs	r2, #96	; 0x60
 8001be0:	e7e3      	b.n	8001baa <I2C_Enable_IRQ+0x36>
 8001be2:	4c05      	ldr	r4, [pc, #20]	; (8001bf8 <I2C_Enable_IRQ+0x84>)
 8001be4:	42a2      	cmp	r2, r4
 8001be6:	d0e1      	beq.n	8001bac <I2C_Enable_IRQ+0x38>
 8001be8:	2940      	cmp	r1, #64	; 0x40
 8001bea:	d0e6      	beq.n	8001bba <I2C_Enable_IRQ+0x46>
 8001bec:	e7de      	b.n	8001bac <I2C_Enable_IRQ+0x38>
 8001bee:	46c0      	nop			; (mov r8, r8)
 8001bf0:	080027b9 	.word	0x080027b9
 8001bf4:	080026ad 	.word	0x080026ad
 8001bf8:	08002559 	.word	0x08002559

08001bfc <I2C_Disable_IRQ>:
 8001bfc:	2300      	movs	r3, #0
 8001bfe:	b510      	push	{r4, lr}
 8001c00:	07ca      	lsls	r2, r1, #31
 8001c02:	d508      	bpl.n	8001c16 <I2C_Disable_IRQ+0x1a>
 8001c04:	0003      	movs	r3, r0
 8001c06:	3341      	adds	r3, #65	; 0x41
 8001c08:	781a      	ldrb	r2, [r3, #0]
 8001c0a:	2328      	movs	r3, #40	; 0x28
 8001c0c:	401a      	ands	r2, r3
 8001c0e:	331a      	adds	r3, #26
 8001c10:	2a28      	cmp	r2, #40	; 0x28
 8001c12:	d000      	beq.n	8001c16 <I2C_Disable_IRQ+0x1a>
 8001c14:	33b0      	adds	r3, #176	; 0xb0
 8001c16:	078a      	lsls	r2, r1, #30
 8001c18:	d508      	bpl.n	8001c2c <I2C_Disable_IRQ+0x30>
 8001c1a:	0002      	movs	r2, r0
 8001c1c:	2428      	movs	r4, #40	; 0x28
 8001c1e:	3241      	adds	r2, #65	; 0x41
 8001c20:	7812      	ldrb	r2, [r2, #0]
 8001c22:	4022      	ands	r2, r4
 8001c24:	42a2      	cmp	r2, r4
 8001c26:	d10b      	bne.n	8001c40 <I2C_Disable_IRQ+0x44>
 8001c28:	2244      	movs	r2, #68	; 0x44
 8001c2a:	4313      	orrs	r3, r2
 8001c2c:	b209      	sxth	r1, r1
 8001c2e:	2900      	cmp	r1, #0
 8001c30:	da01      	bge.n	8001c36 <I2C_Disable_IRQ+0x3a>
 8001c32:	22b8      	movs	r2, #184	; 0xb8
 8001c34:	4313      	orrs	r3, r2
 8001c36:	6801      	ldr	r1, [r0, #0]
 8001c38:	680a      	ldr	r2, [r1, #0]
 8001c3a:	439a      	bics	r2, r3
 8001c3c:	600a      	str	r2, [r1, #0]
 8001c3e:	bd10      	pop	{r4, pc}
 8001c40:	22f4      	movs	r2, #244	; 0xf4
 8001c42:	e7f2      	b.n	8001c2a <I2C_Disable_IRQ+0x2e>

08001c44 <HAL_I2C_Init>:
 8001c44:	b570      	push	{r4, r5, r6, lr}
 8001c46:	0004      	movs	r4, r0
 8001c48:	2001      	movs	r0, #1
 8001c4a:	2c00      	cmp	r4, #0
 8001c4c:	d03f      	beq.n	8001cce <HAL_I2C_Init+0x8a>
 8001c4e:	0025      	movs	r5, r4
 8001c50:	3541      	adds	r5, #65	; 0x41
 8001c52:	782b      	ldrb	r3, [r5, #0]
 8001c54:	b2da      	uxtb	r2, r3
 8001c56:	2b00      	cmp	r3, #0
 8001c58:	d105      	bne.n	8001c66 <HAL_I2C_Init+0x22>
 8001c5a:	0023      	movs	r3, r4
 8001c5c:	3340      	adds	r3, #64	; 0x40
 8001c5e:	0020      	movs	r0, r4
 8001c60:	701a      	strb	r2, [r3, #0]
 8001c62:	f7ff f8b9 	bl	8000dd8 <HAL_I2C_MspInit>
 8001c66:	2324      	movs	r3, #36	; 0x24
 8001c68:	2101      	movs	r1, #1
 8001c6a:	702b      	strb	r3, [r5, #0]
 8001c6c:	6823      	ldr	r3, [r4, #0]
 8001c6e:	481d      	ldr	r0, [pc, #116]	; (8001ce4 <HAL_I2C_Init+0xa0>)
 8001c70:	681a      	ldr	r2, [r3, #0]
 8001c72:	68a6      	ldr	r6, [r4, #8]
 8001c74:	438a      	bics	r2, r1
 8001c76:	601a      	str	r2, [r3, #0]
 8001c78:	6861      	ldr	r1, [r4, #4]
 8001c7a:	4a1b      	ldr	r2, [pc, #108]	; (8001ce8 <HAL_I2C_Init+0xa4>)
 8001c7c:	400a      	ands	r2, r1
 8001c7e:	611a      	str	r2, [r3, #16]
 8001c80:	689a      	ldr	r2, [r3, #8]
 8001c82:	4002      	ands	r2, r0
 8001c84:	609a      	str	r2, [r3, #8]
 8001c86:	68e2      	ldr	r2, [r4, #12]
 8001c88:	2a01      	cmp	r2, #1
 8001c8a:	d121      	bne.n	8001cd0 <HAL_I2C_Init+0x8c>
 8001c8c:	2180      	movs	r1, #128	; 0x80
 8001c8e:	0209      	lsls	r1, r1, #8
 8001c90:	4331      	orrs	r1, r6
 8001c92:	6099      	str	r1, [r3, #8]
 8001c94:	685a      	ldr	r2, [r3, #4]
 8001c96:	4915      	ldr	r1, [pc, #84]	; (8001cec <HAL_I2C_Init+0xa8>)
 8001c98:	4311      	orrs	r1, r2
 8001c9a:	6059      	str	r1, [r3, #4]
 8001c9c:	68da      	ldr	r2, [r3, #12]
 8001c9e:	6961      	ldr	r1, [r4, #20]
 8001ca0:	4002      	ands	r2, r0
 8001ca2:	60da      	str	r2, [r3, #12]
 8001ca4:	6922      	ldr	r2, [r4, #16]
 8001ca6:	2000      	movs	r0, #0
 8001ca8:	430a      	orrs	r2, r1
 8001caa:	69a1      	ldr	r1, [r4, #24]
 8001cac:	0209      	lsls	r1, r1, #8
 8001cae:	430a      	orrs	r2, r1
 8001cb0:	60da      	str	r2, [r3, #12]
 8001cb2:	6a21      	ldr	r1, [r4, #32]
 8001cb4:	69e2      	ldr	r2, [r4, #28]
 8001cb6:	430a      	orrs	r2, r1
 8001cb8:	601a      	str	r2, [r3, #0]
 8001cba:	2201      	movs	r2, #1
 8001cbc:	6819      	ldr	r1, [r3, #0]
 8001cbe:	430a      	orrs	r2, r1
 8001cc0:	601a      	str	r2, [r3, #0]
 8001cc2:	2320      	movs	r3, #32
 8001cc4:	6460      	str	r0, [r4, #68]	; 0x44
 8001cc6:	702b      	strb	r3, [r5, #0]
 8001cc8:	6320      	str	r0, [r4, #48]	; 0x30
 8001cca:	3442      	adds	r4, #66	; 0x42
 8001ccc:	7020      	strb	r0, [r4, #0]
 8001cce:	bd70      	pop	{r4, r5, r6, pc}
 8001cd0:	2184      	movs	r1, #132	; 0x84
 8001cd2:	0209      	lsls	r1, r1, #8
 8001cd4:	4331      	orrs	r1, r6
 8001cd6:	6099      	str	r1, [r3, #8]
 8001cd8:	2a02      	cmp	r2, #2
 8001cda:	d1db      	bne.n	8001c94 <HAL_I2C_Init+0x50>
 8001cdc:	2280      	movs	r2, #128	; 0x80
 8001cde:	0112      	lsls	r2, r2, #4
 8001ce0:	605a      	str	r2, [r3, #4]
 8001ce2:	e7d7      	b.n	8001c94 <HAL_I2C_Init+0x50>
 8001ce4:	ffff7fff 	.word	0xffff7fff
 8001ce8:	f0ffffff 	.word	0xf0ffffff
 8001cec:	02008000 	.word	0x02008000

08001cf0 <HAL_I2C_Slave_Seq_Transmit_IT>:
 8001cf0:	b5f0      	push	{r4, r5, r6, r7, lr}
 8001cf2:	0007      	movs	r7, r0
 8001cf4:	b085      	sub	sp, #20
 8001cf6:	9202      	str	r2, [sp, #8]
 8001cf8:	2228      	movs	r2, #40	; 0x28
 8001cfa:	9101      	str	r1, [sp, #4]
 8001cfc:	9303      	str	r3, [sp, #12]
 8001cfe:	3741      	adds	r7, #65	; 0x41
 8001d00:	783b      	ldrb	r3, [r7, #0]
 8001d02:	0004      	movs	r4, r0
 8001d04:	2501      	movs	r5, #1
 8001d06:	4013      	ands	r3, r2
 8001d08:	4293      	cmp	r3, r2
 8001d0a:	d108      	bne.n	8001d1e <HAL_I2C_Slave_Seq_Transmit_IT+0x2e>
 8001d0c:	2900      	cmp	r1, #0
 8001d0e:	d002      	beq.n	8001d16 <HAL_I2C_Slave_Seq_Transmit_IT+0x26>
 8001d10:	9b02      	ldr	r3, [sp, #8]
 8001d12:	2b00      	cmp	r3, #0
 8001d14:	d106      	bne.n	8001d24 <HAL_I2C_Slave_Seq_Transmit_IT+0x34>
 8001d16:	2380      	movs	r3, #128	; 0x80
 8001d18:	2501      	movs	r5, #1
 8001d1a:	009b      	lsls	r3, r3, #2
 8001d1c:	6463      	str	r3, [r4, #68]	; 0x44
 8001d1e:	0028      	movs	r0, r5
 8001d20:	b005      	add	sp, #20
 8001d22:	bdf0      	pop	{r4, r5, r6, r7, pc}
 8001d24:	0026      	movs	r6, r4
 8001d26:	4925      	ldr	r1, [pc, #148]	; (8001dbc <HAL_I2C_Slave_Seq_Transmit_IT+0xcc>)
 8001d28:	3640      	adds	r6, #64	; 0x40
 8001d2a:	f7ff ff67 	bl	8001bfc <I2C_Disable_IRQ>
 8001d2e:	7833      	ldrb	r3, [r6, #0]
 8001d30:	2b01      	cmp	r3, #1
 8001d32:	d040      	beq.n	8001db6 <HAL_I2C_Slave_Seq_Transmit_IT+0xc6>
 8001d34:	7035      	strb	r5, [r6, #0]
 8001d36:	783b      	ldrb	r3, [r7, #0]
 8001d38:	4d21      	ldr	r5, [pc, #132]	; (8001dc0 <HAL_I2C_Slave_Seq_Transmit_IT+0xd0>)
 8001d3a:	2b2a      	cmp	r3, #42	; 0x2a
 8001d3c:	d116      	bne.n	8001d6c <HAL_I2C_Slave_Seq_Transmit_IT+0x7c>
 8001d3e:	2102      	movs	r1, #2
 8001d40:	0020      	movs	r0, r4
 8001d42:	f7ff ff5b 	bl	8001bfc <I2C_Disable_IRQ>
 8001d46:	6823      	ldr	r3, [r4, #0]
 8001d48:	681a      	ldr	r2, [r3, #0]
 8001d4a:	0412      	lsls	r2, r2, #16
 8001d4c:	d50e      	bpl.n	8001d6c <HAL_I2C_Slave_Seq_Transmit_IT+0x7c>
 8001d4e:	681a      	ldr	r2, [r3, #0]
 8001d50:	6be0      	ldr	r0, [r4, #60]	; 0x3c
 8001d52:	402a      	ands	r2, r5
 8001d54:	601a      	str	r2, [r3, #0]
 8001d56:	2800      	cmp	r0, #0
 8001d58:	d008      	beq.n	8001d6c <HAL_I2C_Slave_Seq_Transmit_IT+0x7c>
 8001d5a:	4b1a      	ldr	r3, [pc, #104]	; (8001dc4 <HAL_I2C_Slave_Seq_Transmit_IT+0xd4>)
 8001d5c:	6343      	str	r3, [r0, #52]	; 0x34
 8001d5e:	f7ff fdb7 	bl	80018d0 <HAL_DMA_Abort_IT>
 8001d62:	2800      	cmp	r0, #0
 8001d64:	d002      	beq.n	8001d6c <HAL_I2C_Slave_Seq_Transmit_IT+0x7c>
 8001d66:	6be0      	ldr	r0, [r4, #60]	; 0x3c
 8001d68:	6b43      	ldr	r3, [r0, #52]	; 0x34
 8001d6a:	4798      	blx	r3
 8001d6c:	2329      	movs	r3, #41	; 0x29
 8001d6e:	703b      	strb	r3, [r7, #0]
 8001d70:	0023      	movs	r3, r4
 8001d72:	2220      	movs	r2, #32
 8001d74:	3342      	adds	r3, #66	; 0x42
 8001d76:	701a      	strb	r2, [r3, #0]
 8001d78:	2300      	movs	r3, #0
 8001d7a:	6463      	str	r3, [r4, #68]	; 0x44
 8001d7c:	6823      	ldr	r3, [r4, #0]
 8001d7e:	685a      	ldr	r2, [r3, #4]
 8001d80:	4015      	ands	r5, r2
 8001d82:	9a01      	ldr	r2, [sp, #4]
 8001d84:	605d      	str	r5, [r3, #4]
 8001d86:	6262      	str	r2, [r4, #36]	; 0x24
 8001d88:	9a02      	ldr	r2, [sp, #8]
 8001d8a:	8562      	strh	r2, [r4, #42]	; 0x2a
 8001d8c:	8d62      	ldrh	r2, [r4, #42]	; 0x2a
 8001d8e:	8522      	strh	r2, [r4, #40]	; 0x28
 8001d90:	9a03      	ldr	r2, [sp, #12]
 8001d92:	62e2      	str	r2, [r4, #44]	; 0x2c
 8001d94:	4a0c      	ldr	r2, [pc, #48]	; (8001dc8 <HAL_I2C_Slave_Seq_Transmit_IT+0xd8>)
 8001d96:	6999      	ldr	r1, [r3, #24]
 8001d98:	6362      	str	r2, [r4, #52]	; 0x34
 8001d9a:	699a      	ldr	r2, [r3, #24]
 8001d9c:	03d2      	lsls	r2, r2, #15
 8001d9e:	d503      	bpl.n	8001da8 <HAL_I2C_Slave_Seq_Transmit_IT+0xb8>
 8001da0:	2208      	movs	r2, #8
 8001da2:	4211      	tst	r1, r2
 8001da4:	d000      	beq.n	8001da8 <HAL_I2C_Slave_Seq_Transmit_IT+0xb8>
 8001da6:	61da      	str	r2, [r3, #28]
 8001da8:	2500      	movs	r5, #0
 8001daa:	0020      	movs	r0, r4
 8001dac:	4903      	ldr	r1, [pc, #12]	; (8001dbc <HAL_I2C_Slave_Seq_Transmit_IT+0xcc>)
 8001dae:	7035      	strb	r5, [r6, #0]
 8001db0:	f7ff fee0 	bl	8001b74 <I2C_Enable_IRQ>
 8001db4:	e7b3      	b.n	8001d1e <HAL_I2C_Slave_Seq_Transmit_IT+0x2e>
 8001db6:	2502      	movs	r5, #2
 8001db8:	e7b1      	b.n	8001d1e <HAL_I2C_Slave_Seq_Transmit_IT+0x2e>
 8001dba:	46c0      	nop			; (mov r8, r8)
 8001dbc:	00008001 	.word	0x00008001
 8001dc0:	ffff7fff 	.word	0xffff7fff
 8001dc4:	0800293b 	.word	0x0800293b
 8001dc8:	08002345 	.word	0x08002345

08001dcc <HAL_I2C_Slave_Seq_Receive_IT>:
 8001dcc:	b5f0      	push	{r4, r5, r6, r7, lr}
 8001dce:	0007      	movs	r7, r0
 8001dd0:	b085      	sub	sp, #20
 8001dd2:	9202      	str	r2, [sp, #8]
 8001dd4:	2228      	movs	r2, #40	; 0x28
 8001dd6:	9101      	str	r1, [sp, #4]
 8001dd8:	9303      	str	r3, [sp, #12]
 8001dda:	3741      	adds	r7, #65	; 0x41
 8001ddc:	783b      	ldrb	r3, [r7, #0]
 8001dde:	0004      	movs	r4, r0
 8001de0:	2501      	movs	r5, #1
 8001de2:	4013      	ands	r3, r2
 8001de4:	4293      	cmp	r3, r2
 8001de6:	d108      	bne.n	8001dfa <HAL_I2C_Slave_Seq_Receive_IT+0x2e>
 8001de8:	2900      	cmp	r1, #0
 8001dea:	d002      	beq.n	8001df2 <HAL_I2C_Slave_Seq_Receive_IT+0x26>
 8001dec:	9b02      	ldr	r3, [sp, #8]
 8001dee:	2b00      	cmp	r3, #0
 8001df0:	d106      	bne.n	8001e00 <HAL_I2C_Slave_Seq_Receive_IT+0x34>
 8001df2:	2380      	movs	r3, #128	; 0x80
 8001df4:	2501      	movs	r5, #1
 8001df6:	009b      	lsls	r3, r3, #2
 8001df8:	6463      	str	r3, [r4, #68]	; 0x44
 8001dfa:	0028      	movs	r0, r5
 8001dfc:	b005      	add	sp, #20
 8001dfe:	bdf0      	pop	{r4, r5, r6, r7, pc}
 8001e00:	0026      	movs	r6, r4
 8001e02:	4925      	ldr	r1, [pc, #148]	; (8001e98 <HAL_I2C_Slave_Seq_Receive_IT+0xcc>)
 8001e04:	3640      	adds	r6, #64	; 0x40
 8001e06:	f7ff fef9 	bl	8001bfc <I2C_Disable_IRQ>
 8001e0a:	7833      	ldrb	r3, [r6, #0]
 8001e0c:	2b01      	cmp	r3, #1
 8001e0e:	d041      	beq.n	8001e94 <HAL_I2C_Slave_Seq_Receive_IT+0xc8>
 8001e10:	7035      	strb	r5, [r6, #0]
 8001e12:	783b      	ldrb	r3, [r7, #0]
 8001e14:	2b29      	cmp	r3, #41	; 0x29
 8001e16:	d117      	bne.n	8001e48 <HAL_I2C_Slave_Seq_Receive_IT+0x7c>
 8001e18:	0029      	movs	r1, r5
 8001e1a:	0020      	movs	r0, r4
 8001e1c:	f7ff feee 	bl	8001bfc <I2C_Disable_IRQ>
 8001e20:	6823      	ldr	r3, [r4, #0]
 8001e22:	681a      	ldr	r2, [r3, #0]
 8001e24:	0452      	lsls	r2, r2, #17
 8001e26:	d50f      	bpl.n	8001e48 <HAL_I2C_Slave_Seq_Receive_IT+0x7c>
 8001e28:	681a      	ldr	r2, [r3, #0]
 8001e2a:	491c      	ldr	r1, [pc, #112]	; (8001e9c <HAL_I2C_Slave_Seq_Receive_IT+0xd0>)
 8001e2c:	6ba0      	ldr	r0, [r4, #56]	; 0x38
 8001e2e:	400a      	ands	r2, r1
 8001e30:	601a      	str	r2, [r3, #0]
 8001e32:	2800      	cmp	r0, #0
 8001e34:	d008      	beq.n	8001e48 <HAL_I2C_Slave_Seq_Receive_IT+0x7c>
 8001e36:	4b1a      	ldr	r3, [pc, #104]	; (8001ea0 <HAL_I2C_Slave_Seq_Receive_IT+0xd4>)
 8001e38:	6343      	str	r3, [r0, #52]	; 0x34
 8001e3a:	f7ff fd49 	bl	80018d0 <HAL_DMA_Abort_IT>
 8001e3e:	2800      	cmp	r0, #0
 8001e40:	d002      	beq.n	8001e48 <HAL_I2C_Slave_Seq_Receive_IT+0x7c>
 8001e42:	6ba0      	ldr	r0, [r4, #56]	; 0x38
 8001e44:	6b43      	ldr	r3, [r0, #52]	; 0x34
 8001e46:	4798      	blx	r3
 8001e48:	232a      	movs	r3, #42	; 0x2a
 8001e4a:	703b      	strb	r3, [r7, #0]
 8001e4c:	0023      	movs	r3, r4
 8001e4e:	2220      	movs	r2, #32
 8001e50:	3342      	adds	r3, #66	; 0x42
 8001e52:	701a      	strb	r2, [r3, #0]
 8001e54:	2300      	movs	r3, #0
 8001e56:	6463      	str	r3, [r4, #68]	; 0x44
 8001e58:	6823      	ldr	r3, [r4, #0]
 8001e5a:	4912      	ldr	r1, [pc, #72]	; (8001ea4 <HAL_I2C_Slave_Seq_Receive_IT+0xd8>)
 8001e5c:	685a      	ldr	r2, [r3, #4]
 8001e5e:	400a      	ands	r2, r1
 8001e60:	605a      	str	r2, [r3, #4]
 8001e62:	9a01      	ldr	r2, [sp, #4]
 8001e64:	6262      	str	r2, [r4, #36]	; 0x24
 8001e66:	9a02      	ldr	r2, [sp, #8]
 8001e68:	8562      	strh	r2, [r4, #42]	; 0x2a
 8001e6a:	8d62      	ldrh	r2, [r4, #42]	; 0x2a
 8001e6c:	8522      	strh	r2, [r4, #40]	; 0x28
 8001e6e:	9a03      	ldr	r2, [sp, #12]
 8001e70:	62e2      	str	r2, [r4, #44]	; 0x2c
 8001e72:	4a0d      	ldr	r2, [pc, #52]	; (8001ea8 <HAL_I2C_Slave_Seq_Receive_IT+0xdc>)
 8001e74:	6999      	ldr	r1, [r3, #24]
 8001e76:	6362      	str	r2, [r4, #52]	; 0x34
 8001e78:	699a      	ldr	r2, [r3, #24]
 8001e7a:	03d2      	lsls	r2, r2, #15
 8001e7c:	d403      	bmi.n	8001e86 <HAL_I2C_Slave_Seq_Receive_IT+0xba>
 8001e7e:	2208      	movs	r2, #8
 8001e80:	4211      	tst	r1, r2
 8001e82:	d000      	beq.n	8001e86 <HAL_I2C_Slave_Seq_Receive_IT+0xba>
 8001e84:	61da      	str	r2, [r3, #28]
 8001e86:	2500      	movs	r5, #0
 8001e88:	0020      	movs	r0, r4
 8001e8a:	4903      	ldr	r1, [pc, #12]	; (8001e98 <HAL_I2C_Slave_Seq_Receive_IT+0xcc>)
 8001e8c:	7035      	strb	r5, [r6, #0]
 8001e8e:	f7ff fe71 	bl	8001b74 <I2C_Enable_IRQ>
 8001e92:	e7b2      	b.n	8001dfa <HAL_I2C_Slave_Seq_Receive_IT+0x2e>
 8001e94:	2502      	movs	r5, #2
 8001e96:	e7b0      	b.n	8001dfa <HAL_I2C_Slave_Seq_Receive_IT+0x2e>
 8001e98:	00008002 	.word	0x00008002
 8001e9c:	ffffbfff 	.word	0xffffbfff
 8001ea0:	0800293b 	.word	0x0800293b
 8001ea4:	ffff7fff 	.word	0xffff7fff
 8001ea8:	08002345 	.word	0x08002345

08001eac <HAL_I2C_EnableListen_IT>:
 8001eac:	0002      	movs	r2, r0
 8001eae:	b510      	push	{r4, lr}
 8001eb0:	3241      	adds	r2, #65	; 0x41
 8001eb2:	7811      	ldrb	r1, [r2, #0]
 8001eb4:	2302      	movs	r3, #2
 8001eb6:	2920      	cmp	r1, #32
 8001eb8:	d108      	bne.n	8001ecc <HAL_I2C_EnableListen_IT+0x20>
 8001eba:	2180      	movs	r1, #128	; 0x80
 8001ebc:	3326      	adds	r3, #38	; 0x26
 8001ebe:	7013      	strb	r3, [r2, #0]
 8001ec0:	4b03      	ldr	r3, [pc, #12]	; (8001ed0 <HAL_I2C_EnableListen_IT+0x24>)
 8001ec2:	0209      	lsls	r1, r1, #8
 8001ec4:	6343      	str	r3, [r0, #52]	; 0x34
 8001ec6:	f7ff fe55 	bl	8001b74 <I2C_Enable_IRQ>
 8001eca:	2300      	movs	r3, #0
 8001ecc:	0018      	movs	r0, r3
 8001ece:	bd10      	pop	{r4, pc}
 8001ed0:	08002345 	.word	0x08002345

08001ed4 <HAL_I2C_EV_IRQHandler>:
 8001ed4:	6803      	ldr	r3, [r0, #0]
 8001ed6:	b510      	push	{r4, lr}
 8001ed8:	6999      	ldr	r1, [r3, #24]
 8001eda:	681a      	ldr	r2, [r3, #0]
 8001edc:	6b43      	ldr	r3, [r0, #52]	; 0x34
 8001ede:	2b00      	cmp	r3, #0
 8001ee0:	d000      	beq.n	8001ee4 <HAL_I2C_EV_IRQHandler+0x10>
 8001ee2:	4798      	blx	r3
 8001ee4:	bd10      	pop	{r4, pc}

08001ee6 <HAL_I2C_MasterTxCpltCallback>:
 8001ee6:	4770      	bx	lr

08001ee8 <HAL_I2C_MasterRxCpltCallback>:
 8001ee8:	4770      	bx	lr

08001eea <I2C_ITMasterSeqCplt>:
 8001eea:	0003      	movs	r3, r0
 8001eec:	b570      	push	{r4, r5, r6, lr}
 8001eee:	2500      	movs	r5, #0
 8001ef0:	2220      	movs	r2, #32
 8001ef2:	0006      	movs	r6, r0
 8001ef4:	3342      	adds	r3, #66	; 0x42
 8001ef6:	701d      	strb	r5, [r3, #0]
 8001ef8:	3b01      	subs	r3, #1
 8001efa:	7819      	ldrb	r1, [r3, #0]
 8001efc:	0004      	movs	r4, r0
 8001efe:	3640      	adds	r6, #64	; 0x40
 8001f00:	701a      	strb	r2, [r3, #0]
 8001f02:	2921      	cmp	r1, #33	; 0x21
 8001f04:	d10a      	bne.n	8001f1c <I2C_ITMasterSeqCplt+0x32>
 8001f06:	2311      	movs	r3, #17
 8001f08:	6345      	str	r5, [r0, #52]	; 0x34
 8001f0a:	6303      	str	r3, [r0, #48]	; 0x30
 8001f0c:	3920      	subs	r1, #32
 8001f0e:	f7ff fe75 	bl	8001bfc <I2C_Disable_IRQ>
 8001f12:	0020      	movs	r0, r4
 8001f14:	7035      	strb	r5, [r6, #0]
 8001f16:	f7ff ffe6 	bl	8001ee6 <HAL_I2C_MasterTxCpltCallback>
 8001f1a:	bd70      	pop	{r4, r5, r6, pc}
 8001f1c:	2312      	movs	r3, #18
 8001f1e:	6345      	str	r5, [r0, #52]	; 0x34
 8001f20:	6303      	str	r3, [r0, #48]	; 0x30
 8001f22:	2102      	movs	r1, #2
 8001f24:	f7ff fe6a 	bl	8001bfc <I2C_Disable_IRQ>
 8001f28:	0020      	movs	r0, r4
 8001f2a:	7035      	strb	r5, [r6, #0]
 8001f2c:	f7ff ffdc 	bl	8001ee8 <HAL_I2C_MasterRxCpltCallback>
 8001f30:	e7f3      	b.n	8001f1a <I2C_ITMasterSeqCplt+0x30>
	...

08001f34 <I2C_ITSlaveSeqCplt>:
 8001f34:	0001      	movs	r1, r0
 8001f36:	6803      	ldr	r3, [r0, #0]
 8001f38:	b510      	push	{r4, lr}
 8001f3a:	0004      	movs	r4, r0
 8001f3c:	2000      	movs	r0, #0
 8001f3e:	681a      	ldr	r2, [r3, #0]
 8001f40:	3142      	adds	r1, #66	; 0x42
 8001f42:	7008      	strb	r0, [r1, #0]
 8001f44:	2101      	movs	r1, #1
 8001f46:	0450      	lsls	r0, r2, #17
 8001f48:	d518      	bpl.n	8001f7c <I2C_ITSlaveSeqCplt+0x48>
 8001f4a:	681a      	ldr	r2, [r3, #0]
 8001f4c:	4918      	ldr	r1, [pc, #96]	; (8001fb0 <I2C_ITSlaveSeqCplt+0x7c>)
 8001f4e:	400a      	ands	r2, r1
 8001f50:	601a      	str	r2, [r3, #0]
 8001f52:	0023      	movs	r3, r4
 8001f54:	3341      	adds	r3, #65	; 0x41
 8001f56:	781a      	ldrb	r2, [r3, #0]
 8001f58:	2a29      	cmp	r2, #41	; 0x29
 8001f5a:	d115      	bne.n	8001f88 <I2C_ITSlaveSeqCplt+0x54>
 8001f5c:	3a01      	subs	r2, #1
 8001f5e:	701a      	strb	r2, [r3, #0]
 8001f60:	2321      	movs	r3, #33	; 0x21
 8001f62:	0020      	movs	r0, r4
 8001f64:	6323      	str	r3, [r4, #48]	; 0x30
 8001f66:	2101      	movs	r1, #1
 8001f68:	f7ff fe48 	bl	8001bfc <I2C_Disable_IRQ>
 8001f6c:	0023      	movs	r3, r4
 8001f6e:	2200      	movs	r2, #0
 8001f70:	3340      	adds	r3, #64	; 0x40
 8001f72:	0020      	movs	r0, r4
 8001f74:	701a      	strb	r2, [r3, #0]
 8001f76:	f7fe fa75 	bl	8000464 <HAL_I2C_SlaveTxCpltCallback>
 8001f7a:	bd10      	pop	{r4, pc}
 8001f7c:	0bd2      	lsrs	r2, r2, #15
 8001f7e:	420a      	tst	r2, r1
 8001f80:	d0e7      	beq.n	8001f52 <I2C_ITSlaveSeqCplt+0x1e>
 8001f82:	681a      	ldr	r2, [r3, #0]
 8001f84:	490b      	ldr	r1, [pc, #44]	; (8001fb4 <I2C_ITSlaveSeqCplt+0x80>)
 8001f86:	e7e2      	b.n	8001f4e <I2C_ITSlaveSeqCplt+0x1a>
 8001f88:	781a      	ldrb	r2, [r3, #0]
 8001f8a:	2a2a      	cmp	r2, #42	; 0x2a
 8001f8c:	d1f5      	bne.n	8001f7a <I2C_ITSlaveSeqCplt+0x46>
 8001f8e:	3a02      	subs	r2, #2
 8001f90:	701a      	strb	r2, [r3, #0]
 8001f92:	2322      	movs	r3, #34	; 0x22
 8001f94:	0020      	movs	r0, r4
 8001f96:	6323      	str	r3, [r4, #48]	; 0x30
 8001f98:	2102      	movs	r1, #2
 8001f9a:	f7ff fe2f 	bl	8001bfc <I2C_Disable_IRQ>
 8001f9e:	0023      	movs	r3, r4
 8001fa0:	2200      	movs	r2, #0
 8001fa2:	3340      	adds	r3, #64	; 0x40
 8001fa4:	0020      	movs	r0, r4
 8001fa6:	701a      	strb	r2, [r3, #0]
 8001fa8:	f7fe fa62 	bl	8000470 <HAL_I2C_SlaveRxCpltCallback>
 8001fac:	e7e5      	b.n	8001f7a <I2C_ITSlaveSeqCplt+0x46>
 8001fae:	46c0      	nop			; (mov r8, r8)
 8001fb0:	ffffbfff 	.word	0xffffbfff
 8001fb4:	ffff7fff 	.word	0xffff7fff

08001fb8 <I2C_ITAddrCplt.constprop.0>:
 8001fb8:	0003      	movs	r3, r0
 8001fba:	b5f7      	push	{r0, r1, r2, r4, r5, r6, r7, lr}
 8001fbc:	2228      	movs	r2, #40	; 0x28
 8001fbe:	3341      	adds	r3, #65	; 0x41
 8001fc0:	781b      	ldrb	r3, [r3, #0]
 8001fc2:	0004      	movs	r4, r0
 8001fc4:	6801      	ldr	r1, [r0, #0]
 8001fc6:	4013      	ands	r3, r2
 8001fc8:	4293      	cmp	r3, r2
 8001fca:	d13c      	bne.n	8002046 <I2C_ITAddrCplt.constprop.0+0x8e>
 8001fcc:	27fe      	movs	r7, #254	; 0xfe
 8001fce:	698d      	ldr	r5, [r1, #24]
 8001fd0:	698e      	ldr	r6, [r1, #24]
 8001fd2:	688b      	ldr	r3, [r1, #8]
 8001fd4:	68ca      	ldr	r2, [r1, #12]
 8001fd6:	03ed      	lsls	r5, r5, #15
 8001fd8:	9201      	str	r2, [sp, #4]
 8001fda:	68c2      	ldr	r2, [r0, #12]
 8001fdc:	0c36      	lsrs	r6, r6, #16
 8001fde:	0fed      	lsrs	r5, r5, #31
 8001fe0:	403e      	ands	r6, r7
 8001fe2:	2a02      	cmp	r2, #2
 8001fe4:	d125      	bne.n	8002032 <I2C_ITAddrCplt.constprop.0+0x7a>
 8001fe6:	059b      	lsls	r3, r3, #22
 8001fe8:	0d9a      	lsrs	r2, r3, #22
 8001fea:	0f5b      	lsrs	r3, r3, #29
 8001fec:	405e      	eors	r6, r3
 8001fee:	0030      	movs	r0, r6
 8001ff0:	2306      	movs	r3, #6
 8001ff2:	4018      	ands	r0, r3
 8001ff4:	421e      	tst	r6, r3
 8001ff6:	d110      	bne.n	800201a <I2C_ITAddrCplt.constprop.0+0x62>
 8001ff8:	6ca3      	ldr	r3, [r4, #72]	; 0x48
 8001ffa:	3301      	adds	r3, #1
 8001ffc:	64a3      	str	r3, [r4, #72]	; 0x48
 8001ffe:	6ca3      	ldr	r3, [r4, #72]	; 0x48
 8002000:	2b02      	cmp	r3, #2
 8002002:	d109      	bne.n	8002018 <I2C_ITAddrCplt.constprop.0+0x60>
 8002004:	3306      	adds	r3, #6
 8002006:	64a0      	str	r0, [r4, #72]	; 0x48
 8002008:	61cb      	str	r3, [r1, #28]
 800200a:	0023      	movs	r3, r4
 800200c:	3340      	adds	r3, #64	; 0x40
 800200e:	7018      	strb	r0, [r3, #0]
 8002010:	0029      	movs	r1, r5
 8002012:	0020      	movs	r0, r4
 8002014:	f7fe fe30 	bl	8000c78 <HAL_I2C_AddrCallback>
 8002018:	bdf7      	pop	{r0, r1, r2, r4, r5, r6, r7, pc}
 800201a:	2180      	movs	r1, #128	; 0x80
 800201c:	0020      	movs	r0, r4
 800201e:	0209      	lsls	r1, r1, #8
 8002020:	f7ff fdec 	bl	8001bfc <I2C_Disable_IRQ>
 8002024:	0023      	movs	r3, r4
 8002026:	2200      	movs	r2, #0
 8002028:	3340      	adds	r3, #64	; 0x40
 800202a:	701a      	strb	r2, [r3, #0]
 800202c:	9a01      	ldr	r2, [sp, #4]
 800202e:	403a      	ands	r2, r7
 8002030:	e7ee      	b.n	8002010 <I2C_ITAddrCplt.constprop.0+0x58>
 8002032:	2180      	movs	r1, #128	; 0x80
 8002034:	0209      	lsls	r1, r1, #8
 8002036:	f7ff fde1 	bl	8001bfc <I2C_Disable_IRQ>
 800203a:	0023      	movs	r3, r4
 800203c:	2200      	movs	r2, #0
 800203e:	3340      	adds	r3, #64	; 0x40
 8002040:	701a      	strb	r2, [r3, #0]
 8002042:	0032      	movs	r2, r6
 8002044:	e7e4      	b.n	8002010 <I2C_ITAddrCplt.constprop.0+0x58>
 8002046:	2308      	movs	r3, #8
 8002048:	61cb      	str	r3, [r1, #28]
 800204a:	2300      	movs	r3, #0
 800204c:	3440      	adds	r4, #64	; 0x40
 800204e:	7023      	strb	r3, [r4, #0]
 8002050:	e7e2      	b.n	8002018 <I2C_ITAddrCplt.constprop.0+0x60>

08002052 <HAL_I2C_ListenCpltCallback>:
 8002052:	4770      	bx	lr

08002054 <I2C_ITListenCplt>:
 8002054:	4b18      	ldr	r3, [pc, #96]	; (80020b8 <I2C_ITListenCplt+0x64>)
 8002056:	b510      	push	{r4, lr}
 8002058:	62c3      	str	r3, [r0, #44]	; 0x2c
 800205a:	2300      	movs	r3, #0
 800205c:	0002      	movs	r2, r0
 800205e:	6303      	str	r3, [r0, #48]	; 0x30
 8002060:	0004      	movs	r4, r0
 8002062:	2020      	movs	r0, #32
 8002064:	3241      	adds	r2, #65	; 0x41
 8002066:	7010      	strb	r0, [r2, #0]
 8002068:	7053      	strb	r3, [r2, #1]
 800206a:	6363      	str	r3, [r4, #52]	; 0x34
 800206c:	074b      	lsls	r3, r1, #29
 800206e:	d513      	bpl.n	8002098 <I2C_ITListenCplt+0x44>
 8002070:	6823      	ldr	r3, [r4, #0]
 8002072:	6a62      	ldr	r2, [r4, #36]	; 0x24
 8002074:	6a5b      	ldr	r3, [r3, #36]	; 0x24
 8002076:	7013      	strb	r3, [r2, #0]
 8002078:	6a63      	ldr	r3, [r4, #36]	; 0x24
 800207a:	3301      	adds	r3, #1
 800207c:	6263      	str	r3, [r4, #36]	; 0x24
 800207e:	8d23      	ldrh	r3, [r4, #40]	; 0x28
 8002080:	2b00      	cmp	r3, #0
 8002082:	d009      	beq.n	8002098 <I2C_ITListenCplt+0x44>
 8002084:	3b01      	subs	r3, #1
 8002086:	8523      	strh	r3, [r4, #40]	; 0x28
 8002088:	8d63      	ldrh	r3, [r4, #42]	; 0x2a
 800208a:	3b01      	subs	r3, #1
 800208c:	b29b      	uxth	r3, r3
 800208e:	8563      	strh	r3, [r4, #42]	; 0x2a
 8002090:	2304      	movs	r3, #4
 8002092:	6c62      	ldr	r2, [r4, #68]	; 0x44
 8002094:	4313      	orrs	r3, r2
 8002096:	6463      	str	r3, [r4, #68]	; 0x44
 8002098:	0020      	movs	r0, r4
 800209a:	4908      	ldr	r1, [pc, #32]	; (80020bc <I2C_ITListenCplt+0x68>)
 800209c:	f7ff fdae 	bl	8001bfc <I2C_Disable_IRQ>
 80020a0:	2210      	movs	r2, #16
 80020a2:	6823      	ldr	r3, [r4, #0]
 80020a4:	0020      	movs	r0, r4
 80020a6:	61da      	str	r2, [r3, #28]
 80020a8:	0023      	movs	r3, r4
 80020aa:	2200      	movs	r2, #0
 80020ac:	3340      	adds	r3, #64	; 0x40
 80020ae:	701a      	strb	r2, [r3, #0]
 80020b0:	f7ff ffcf 	bl	8002052 <HAL_I2C_ListenCpltCallback>
 80020b4:	bd10      	pop	{r4, pc}
 80020b6:	46c0      	nop			; (mov r8, r8)
 80020b8:	ffff0000 	.word	0xffff0000
 80020bc:	00008003 	.word	0x00008003

080020c0 <HAL_I2C_MemTxCpltCallback>:
 80020c0:	4770      	bx	lr

080020c2 <HAL_I2C_MemRxCpltCallback>:
 80020c2:	4770      	bx	lr

080020c4 <HAL_I2C_AbortCpltCallback>:
 80020c4:	4770      	bx	lr

080020c6 <I2C_TreatErrorCallback>:
 80020c6:	0001      	movs	r1, r0
 80020c8:	0002      	movs	r2, r0
 80020ca:	b510      	push	{r4, lr}
 80020cc:	3141      	adds	r1, #65	; 0x41
 80020ce:	780c      	ldrb	r4, [r1, #0]
 80020d0:	2300      	movs	r3, #0
 80020d2:	3240      	adds	r2, #64	; 0x40
 80020d4:	2c60      	cmp	r4, #96	; 0x60
 80020d6:	d106      	bne.n	80020e6 <I2C_TreatErrorCallback+0x20>
 80020d8:	3c40      	subs	r4, #64	; 0x40
 80020da:	700c      	strb	r4, [r1, #0]
 80020dc:	6303      	str	r3, [r0, #48]	; 0x30
 80020de:	7013      	strb	r3, [r2, #0]
 80020e0:	f7ff fff0 	bl	80020c4 <HAL_I2C_AbortCpltCallback>
 80020e4:	bd10      	pop	{r4, pc}
 80020e6:	6303      	str	r3, [r0, #48]	; 0x30
 80020e8:	7013      	strb	r3, [r2, #0]
 80020ea:	f7fe fdf7 	bl	8000cdc <HAL_I2C_ErrorCallback>
 80020ee:	e7f9      	b.n	80020e4 <I2C_TreatErrorCallback+0x1e>

080020f0 <I2C_ITError>:
 80020f0:	b570      	push	{r4, r5, r6, lr}
 80020f2:	0002      	movs	r2, r0
 80020f4:	0005      	movs	r5, r0
 80020f6:	0004      	movs	r4, r0
 80020f8:	2000      	movs	r0, #0
 80020fa:	3242      	adds	r2, #66	; 0x42
 80020fc:	3541      	adds	r5, #65	; 0x41
 80020fe:	782b      	ldrb	r3, [r5, #0]
 8002100:	7010      	strb	r0, [r2, #0]
 8002102:	4a3b      	ldr	r2, [pc, #236]	; (80021f0 <I2C_ITError+0x100>)
 8002104:	3b28      	subs	r3, #40	; 0x28
 8002106:	62e2      	str	r2, [r4, #44]	; 0x2c
 8002108:	8560      	strh	r0, [r4, #42]	; 0x2a
 800210a:	6c62      	ldr	r2, [r4, #68]	; 0x44
 800210c:	430a      	orrs	r2, r1
 800210e:	6462      	str	r2, [r4, #68]	; 0x44
 8002110:	2b02      	cmp	r3, #2
 8002112:	d82b      	bhi.n	800216c <I2C_ITError+0x7c>
 8002114:	2103      	movs	r1, #3
 8002116:	0020      	movs	r0, r4
 8002118:	f7ff fd70 	bl	8001bfc <I2C_Disable_IRQ>
 800211c:	2328      	movs	r3, #40	; 0x28
 800211e:	702b      	strb	r3, [r5, #0]
 8002120:	4b34      	ldr	r3, [pc, #208]	; (80021f4 <I2C_ITError+0x104>)
 8002122:	6ba0      	ldr	r0, [r4, #56]	; 0x38
 8002124:	6363      	str	r3, [r4, #52]	; 0x34
 8002126:	6b23      	ldr	r3, [r4, #48]	; 0x30
 8002128:	2800      	cmp	r0, #0
 800212a:	d040      	beq.n	80021ae <I2C_ITError+0xbe>
 800212c:	001a      	movs	r2, r3
 800212e:	2110      	movs	r1, #16
 8002130:	3a11      	subs	r2, #17
 8002132:	438a      	bics	r2, r1
 8002134:	d13b      	bne.n	80021ae <I2C_ITError+0xbe>
 8002136:	6823      	ldr	r3, [r4, #0]
 8002138:	681a      	ldr	r2, [r3, #0]
 800213a:	0452      	lsls	r2, r2, #17
 800213c:	d503      	bpl.n	8002146 <I2C_ITError+0x56>
 800213e:	681a      	ldr	r2, [r3, #0]
 8002140:	492d      	ldr	r1, [pc, #180]	; (80021f8 <I2C_ITError+0x108>)
 8002142:	400a      	ands	r2, r1
 8002144:	601a      	str	r2, [r3, #0]
 8002146:	f7ff fc2f 	bl	80019a8 <HAL_DMA_GetState>
 800214a:	2801      	cmp	r0, #1
 800214c:	d02b      	beq.n	80021a6 <I2C_ITError+0xb6>
 800214e:	6ba0      	ldr	r0, [r4, #56]	; 0x38
 8002150:	4b2a      	ldr	r3, [pc, #168]	; (80021fc <I2C_ITError+0x10c>)
 8002152:	2200      	movs	r2, #0
 8002154:	6343      	str	r3, [r0, #52]	; 0x34
 8002156:	0023      	movs	r3, r4
 8002158:	3340      	adds	r3, #64	; 0x40
 800215a:	701a      	strb	r2, [r3, #0]
 800215c:	f7ff fbb8 	bl	80018d0 <HAL_DMA_Abort_IT>
 8002160:	2800      	cmp	r0, #0
 8002162:	d023      	beq.n	80021ac <I2C_ITError+0xbc>
 8002164:	6ba0      	ldr	r0, [r4, #56]	; 0x38
 8002166:	6b43      	ldr	r3, [r0, #52]	; 0x34
 8002168:	4798      	blx	r3
 800216a:	e01f      	b.n	80021ac <I2C_ITError+0xbc>
 800216c:	0020      	movs	r0, r4
 800216e:	4924      	ldr	r1, [pc, #144]	; (8002200 <I2C_ITError+0x110>)
 8002170:	f7ff fd44 	bl	8001bfc <I2C_Disable_IRQ>
 8002174:	0020      	movs	r0, r4
 8002176:	f7ff fcd9 	bl	8001b2c <I2C_Flush_TXDR>
 800217a:	782b      	ldrb	r3, [r5, #0]
 800217c:	2b60      	cmp	r3, #96	; 0x60
 800217e:	d010      	beq.n	80021a2 <I2C_ITError+0xb2>
 8002180:	2220      	movs	r2, #32
 8002182:	702a      	strb	r2, [r5, #0]
 8002184:	6823      	ldr	r3, [r4, #0]
 8002186:	6999      	ldr	r1, [r3, #24]
 8002188:	4211      	tst	r1, r2
 800218a:	d00a      	beq.n	80021a2 <I2C_ITError+0xb2>
 800218c:	6999      	ldr	r1, [r3, #24]
 800218e:	3a10      	subs	r2, #16
 8002190:	4211      	tst	r1, r2
 8002192:	d004      	beq.n	800219e <I2C_ITError+0xae>
 8002194:	61da      	str	r2, [r3, #28]
 8002196:	6c61      	ldr	r1, [r4, #68]	; 0x44
 8002198:	3a0c      	subs	r2, #12
 800219a:	430a      	orrs	r2, r1
 800219c:	6462      	str	r2, [r4, #68]	; 0x44
 800219e:	2220      	movs	r2, #32
 80021a0:	61da      	str	r2, [r3, #28]
 80021a2:	2300      	movs	r3, #0
 80021a4:	e7bd      	b.n	8002122 <I2C_ITError+0x32>
 80021a6:	0020      	movs	r0, r4
 80021a8:	f7ff ff8d 	bl	80020c6 <I2C_TreatErrorCallback>
 80021ac:	bd70      	pop	{r4, r5, r6, pc}
 80021ae:	6be0      	ldr	r0, [r4, #60]	; 0x3c
 80021b0:	2800      	cmp	r0, #0
 80021b2:	d0f8      	beq.n	80021a6 <I2C_ITError+0xb6>
 80021b4:	2210      	movs	r2, #16
 80021b6:	3b12      	subs	r3, #18
 80021b8:	4393      	bics	r3, r2
 80021ba:	d1f4      	bne.n	80021a6 <I2C_ITError+0xb6>
 80021bc:	6823      	ldr	r3, [r4, #0]
 80021be:	681a      	ldr	r2, [r3, #0]
 80021c0:	0412      	lsls	r2, r2, #16
 80021c2:	d503      	bpl.n	80021cc <I2C_ITError+0xdc>
 80021c4:	681a      	ldr	r2, [r3, #0]
 80021c6:	490f      	ldr	r1, [pc, #60]	; (8002204 <I2C_ITError+0x114>)
 80021c8:	400a      	ands	r2, r1
 80021ca:	601a      	str	r2, [r3, #0]
 80021cc:	f7ff fbec 	bl	80019a8 <HAL_DMA_GetState>
 80021d0:	2801      	cmp	r0, #1
 80021d2:	d0e8      	beq.n	80021a6 <I2C_ITError+0xb6>
 80021d4:	6be0      	ldr	r0, [r4, #60]	; 0x3c
 80021d6:	4b09      	ldr	r3, [pc, #36]	; (80021fc <I2C_ITError+0x10c>)
 80021d8:	2200      	movs	r2, #0
 80021da:	6343      	str	r3, [r0, #52]	; 0x34
 80021dc:	0023      	movs	r3, r4
 80021de:	3340      	adds	r3, #64	; 0x40
 80021e0:	701a      	strb	r2, [r3, #0]
 80021e2:	f7ff fb75 	bl	80018d0 <HAL_DMA_Abort_IT>
 80021e6:	2800      	cmp	r0, #0
 80021e8:	d0e0      	beq.n	80021ac <I2C_ITError+0xbc>
 80021ea:	6be0      	ldr	r0, [r4, #60]	; 0x3c
 80021ec:	e7bb      	b.n	8002166 <I2C_ITError+0x76>
 80021ee:	46c0      	nop			; (mov r8, r8)
 80021f0:	ffff0000 	.word	0xffff0000
 80021f4:	08002345 	.word	0x08002345
 80021f8:	ffffbfff 	.word	0xffffbfff
 80021fc:	0800293b 	.word	0x0800293b
 8002200:	00008003 	.word	0x00008003
 8002204:	ffff7fff 	.word	0xffff7fff

08002208 <I2C_ITSlaveCplt>:
 8002208:	b5f7      	push	{r0, r1, r2, r4, r5, r6, r7, lr}
 800220a:	6803      	ldr	r3, [r0, #0]
 800220c:	0006      	movs	r6, r0
 800220e:	681a      	ldr	r2, [r3, #0]
 8002210:	3641      	adds	r6, #65	; 0x41
 8002212:	9201      	str	r2, [sp, #4]
 8002214:	2220      	movs	r2, #32
 8002216:	7835      	ldrb	r5, [r6, #0]
 8002218:	61da      	str	r2, [r3, #28]
 800221a:	2308      	movs	r3, #8
 800221c:	0004      	movs	r4, r0
 800221e:	000f      	movs	r7, r1
 8002220:	439d      	bics	r5, r3
 8002222:	2d21      	cmp	r5, #33	; 0x21
 8002224:	d150      	bne.n	80022c8 <I2C_ITSlaveCplt+0xc0>
 8002226:	4941      	ldr	r1, [pc, #260]	; (800232c <I2C_ITSlaveCplt+0x124>)
 8002228:	0020      	movs	r0, r4
 800222a:	f7ff fce7 	bl	8001bfc <I2C_Disable_IRQ>
 800222e:	6325      	str	r5, [r4, #48]	; 0x30
 8002230:	2280      	movs	r2, #128	; 0x80
 8002232:	6823      	ldr	r3, [r4, #0]
 8002234:	0212      	lsls	r2, r2, #8
 8002236:	6859      	ldr	r1, [r3, #4]
 8002238:	0020      	movs	r0, r4
 800223a:	430a      	orrs	r2, r1
 800223c:	605a      	str	r2, [r3, #4]
 800223e:	685a      	ldr	r2, [r3, #4]
 8002240:	493b      	ldr	r1, [pc, #236]	; (8002330 <I2C_ITSlaveCplt+0x128>)
 8002242:	400a      	ands	r2, r1
 8002244:	605a      	str	r2, [r3, #4]
 8002246:	f7ff fc71 	bl	8001b2c <I2C_Flush_TXDR>
 800224a:	9b01      	ldr	r3, [sp, #4]
 800224c:	2201      	movs	r2, #1
 800224e:	045b      	lsls	r3, r3, #17
 8002250:	d53e      	bpl.n	80022d0 <I2C_ITSlaveCplt+0xc8>
 8002252:	6822      	ldr	r2, [r4, #0]
 8002254:	4937      	ldr	r1, [pc, #220]	; (8002334 <I2C_ITSlaveCplt+0x12c>)
 8002256:	6813      	ldr	r3, [r2, #0]
 8002258:	400b      	ands	r3, r1
 800225a:	6013      	str	r3, [r2, #0]
 800225c:	6ba3      	ldr	r3, [r4, #56]	; 0x38
 800225e:	2b00      	cmp	r3, #0
 8002260:	d003      	beq.n	800226a <I2C_ITSlaveCplt+0x62>
 8002262:	681b      	ldr	r3, [r3, #0]
 8002264:	685b      	ldr	r3, [r3, #4]
 8002266:	b29b      	uxth	r3, r3
 8002268:	8563      	strh	r3, [r4, #42]	; 0x2a
 800226a:	077b      	lsls	r3, r7, #29
 800226c:	d511      	bpl.n	8002292 <I2C_ITSlaveCplt+0x8a>
 800226e:	2304      	movs	r3, #4
 8002270:	439f      	bics	r7, r3
 8002272:	6823      	ldr	r3, [r4, #0]
 8002274:	6a62      	ldr	r2, [r4, #36]	; 0x24
 8002276:	6a5b      	ldr	r3, [r3, #36]	; 0x24
 8002278:	7013      	strb	r3, [r2, #0]
 800227a:	6a63      	ldr	r3, [r4, #36]	; 0x24
 800227c:	3301      	adds	r3, #1
 800227e:	6263      	str	r3, [r4, #36]	; 0x24
 8002280:	8d23      	ldrh	r3, [r4, #40]	; 0x28
 8002282:	2b00      	cmp	r3, #0
 8002284:	d005      	beq.n	8002292 <I2C_ITSlaveCplt+0x8a>
 8002286:	3b01      	subs	r3, #1
 8002288:	8523      	strh	r3, [r4, #40]	; 0x28
 800228a:	8d63      	ldrh	r3, [r4, #42]	; 0x2a
 800228c:	3b01      	subs	r3, #1
 800228e:	b29b      	uxth	r3, r3
 8002290:	8563      	strh	r3, [r4, #42]	; 0x2a
 8002292:	8d63      	ldrh	r3, [r4, #42]	; 0x2a
 8002294:	2b00      	cmp	r3, #0
 8002296:	d003      	beq.n	80022a0 <I2C_ITSlaveCplt+0x98>
 8002298:	2304      	movs	r3, #4
 800229a:	6c62      	ldr	r2, [r4, #68]	; 0x44
 800229c:	4313      	orrs	r3, r2
 800229e:	6463      	str	r3, [r4, #68]	; 0x44
 80022a0:	0023      	movs	r3, r4
 80022a2:	2200      	movs	r2, #0
 80022a4:	3342      	adds	r3, #66	; 0x42
 80022a6:	701a      	strb	r2, [r3, #0]
 80022a8:	6c65      	ldr	r5, [r4, #68]	; 0x44
 80022aa:	6362      	str	r2, [r4, #52]	; 0x34
 80022ac:	4295      	cmp	r5, r2
 80022ae:	d01a      	beq.n	80022e6 <I2C_ITSlaveCplt+0xde>
 80022b0:	0020      	movs	r0, r4
 80022b2:	6c61      	ldr	r1, [r4, #68]	; 0x44
 80022b4:	f7ff ff1c 	bl	80020f0 <I2C_ITError>
 80022b8:	7833      	ldrb	r3, [r6, #0]
 80022ba:	2b28      	cmp	r3, #40	; 0x28
 80022bc:	d103      	bne.n	80022c6 <I2C_ITSlaveCplt+0xbe>
 80022be:	0039      	movs	r1, r7
 80022c0:	0020      	movs	r0, r4
 80022c2:	f7ff fec7 	bl	8002054 <I2C_ITListenCplt>
 80022c6:	bdf7      	pop	{r0, r1, r2, r4, r5, r6, r7, pc}
 80022c8:	2d22      	cmp	r5, #34	; 0x22
 80022ca:	d1b1      	bne.n	8002230 <I2C_ITSlaveCplt+0x28>
 80022cc:	491a      	ldr	r1, [pc, #104]	; (8002338 <I2C_ITSlaveCplt+0x130>)
 80022ce:	e7ab      	b.n	8002228 <I2C_ITSlaveCplt+0x20>
 80022d0:	9b01      	ldr	r3, [sp, #4]
 80022d2:	0bdb      	lsrs	r3, r3, #15
 80022d4:	4213      	tst	r3, r2
 80022d6:	d0c8      	beq.n	800226a <I2C_ITSlaveCplt+0x62>
 80022d8:	6822      	ldr	r2, [r4, #0]
 80022da:	4918      	ldr	r1, [pc, #96]	; (800233c <I2C_ITSlaveCplt+0x134>)
 80022dc:	6813      	ldr	r3, [r2, #0]
 80022de:	400b      	ands	r3, r1
 80022e0:	6013      	str	r3, [r2, #0]
 80022e2:	6be3      	ldr	r3, [r4, #60]	; 0x3c
 80022e4:	e7bb      	b.n	800225e <I2C_ITSlaveCplt+0x56>
 80022e6:	0027      	movs	r7, r4
 80022e8:	6ae3      	ldr	r3, [r4, #44]	; 0x2c
 80022ea:	4a15      	ldr	r2, [pc, #84]	; (8002340 <I2C_ITSlaveCplt+0x138>)
 80022ec:	3740      	adds	r7, #64	; 0x40
 80022ee:	4293      	cmp	r3, r2
 80022f0:	d00c      	beq.n	800230c <I2C_ITSlaveCplt+0x104>
 80022f2:	0020      	movs	r0, r4
 80022f4:	f7ff fe1e 	bl	8001f34 <I2C_ITSlaveSeqCplt>
 80022f8:	2320      	movs	r3, #32
 80022fa:	4a11      	ldr	r2, [pc, #68]	; (8002340 <I2C_ITSlaveCplt+0x138>)
 80022fc:	0020      	movs	r0, r4
 80022fe:	62e2      	str	r2, [r4, #44]	; 0x2c
 8002300:	7033      	strb	r3, [r6, #0]
 8002302:	6325      	str	r5, [r4, #48]	; 0x30
 8002304:	703d      	strb	r5, [r7, #0]
 8002306:	f7ff fea4 	bl	8002052 <HAL_I2C_ListenCpltCallback>
 800230a:	e7dc      	b.n	80022c6 <I2C_ITSlaveCplt+0xbe>
 800230c:	0023      	movs	r3, r4
 800230e:	2220      	movs	r2, #32
 8002310:	3341      	adds	r3, #65	; 0x41
 8002312:	7819      	ldrb	r1, [r3, #0]
 8002314:	0020      	movs	r0, r4
 8002316:	701a      	strb	r2, [r3, #0]
 8002318:	6325      	str	r5, [r4, #48]	; 0x30
 800231a:	703d      	strb	r5, [r7, #0]
 800231c:	2922      	cmp	r1, #34	; 0x22
 800231e:	d102      	bne.n	8002326 <I2C_ITSlaveCplt+0x11e>
 8002320:	f7fe f8a6 	bl	8000470 <HAL_I2C_SlaveRxCpltCallback>
 8002324:	e7cf      	b.n	80022c6 <I2C_ITSlaveCplt+0xbe>
 8002326:	f7fe f89d 	bl	8000464 <HAL_I2C_SlaveTxCpltCallback>
 800232a:	e7cc      	b.n	80022c6 <I2C_ITSlaveCplt+0xbe>
 800232c:	00008001 	.word	0x00008001
 8002330:	fe00e800 	.word	0xfe00e800
 8002334:	ffffbfff 	.word	0xffffbfff
 8002338:	00008002 	.word	0x00008002
 800233c:	ffff7fff 	.word	0xffff7fff
 8002340:	ffff0000 	.word	0xffff0000

08002344 <I2C_Slave_ISR_IT>:
 8002344:	0003      	movs	r3, r0
 8002346:	b5f7      	push	{r0, r1, r2, r4, r5, r6, r7, lr}
 8002348:	3340      	adds	r3, #64	; 0x40
 800234a:	9301      	str	r3, [sp, #4]
 800234c:	781b      	ldrb	r3, [r3, #0]
 800234e:	0004      	movs	r4, r0
 8002350:	6ac7      	ldr	r7, [r0, #44]	; 0x2c
 8002352:	000e      	movs	r6, r1
 8002354:	0015      	movs	r5, r2
 8002356:	2002      	movs	r0, #2
 8002358:	2b01      	cmp	r3, #1
 800235a:	d024      	beq.n	80023a6 <I2C_Slave_ISR_IT+0x62>
 800235c:	2301      	movs	r3, #1
 800235e:	9a01      	ldr	r2, [sp, #4]
 8002360:	7013      	strb	r3, [r2, #0]
 8002362:	094a      	lsrs	r2, r1, #5
 8002364:	421a      	tst	r2, r3
 8002366:	d005      	beq.n	8002374 <I2C_Slave_ISR_IT+0x30>
 8002368:	096a      	lsrs	r2, r5, #5
 800236a:	421a      	tst	r2, r3
 800236c:	d002      	beq.n	8002374 <I2C_Slave_ISR_IT+0x30>
 800236e:	0020      	movs	r0, r4
 8002370:	f7ff ff4a 	bl	8002208 <I2C_ITSlaveCplt>
 8002374:	2301      	movs	r3, #1
 8002376:	06f2      	lsls	r2, r6, #27
 8002378:	d535      	bpl.n	80023e6 <I2C_Slave_ISR_IT+0xa2>
 800237a:	092a      	lsrs	r2, r5, #4
 800237c:	421a      	tst	r2, r3
 800237e:	d032      	beq.n	80023e6 <I2C_Slave_ISR_IT+0xa2>
 8002380:	8d63      	ldrh	r3, [r4, #42]	; 0x2a
 8002382:	2b00      	cmp	r3, #0
 8002384:	d120      	bne.n	80023c8 <I2C_Slave_ISR_IT+0x84>
 8002386:	0023      	movs	r3, r4
 8002388:	3341      	adds	r3, #65	; 0x41
 800238a:	781a      	ldrb	r2, [r3, #0]
 800238c:	2a28      	cmp	r2, #40	; 0x28
 800238e:	d10b      	bne.n	80023a8 <I2C_Slave_ISR_IT+0x64>
 8002390:	2280      	movs	r2, #128	; 0x80
 8002392:	0492      	lsls	r2, r2, #18
 8002394:	4297      	cmp	r7, r2
 8002396:	d107      	bne.n	80023a8 <I2C_Slave_ISR_IT+0x64>
 8002398:	0031      	movs	r1, r6
 800239a:	0020      	movs	r0, r4
 800239c:	f7ff fe5a 	bl	8002054 <I2C_ITListenCplt>
 80023a0:	2000      	movs	r0, #0
 80023a2:	9b01      	ldr	r3, [sp, #4]
 80023a4:	7018      	strb	r0, [r3, #0]
 80023a6:	bdfe      	pop	{r1, r2, r3, r4, r5, r6, r7, pc}
 80023a8:	2210      	movs	r2, #16
 80023aa:	7819      	ldrb	r1, [r3, #0]
 80023ac:	6823      	ldr	r3, [r4, #0]
 80023ae:	61da      	str	r2, [r3, #28]
 80023b0:	2929      	cmp	r1, #41	; 0x29
 80023b2:	d1f5      	bne.n	80023a0 <I2C_Slave_ISR_IT+0x5c>
 80023b4:	492d      	ldr	r1, [pc, #180]	; (800246c <I2C_Slave_ISR_IT+0x128>)
 80023b6:	428f      	cmp	r7, r1
 80023b8:	d0f2      	beq.n	80023a0 <I2C_Slave_ISR_IT+0x5c>
 80023ba:	0020      	movs	r0, r4
 80023bc:	f7ff fbb6 	bl	8001b2c <I2C_Flush_TXDR>
 80023c0:	0020      	movs	r0, r4
 80023c2:	f7ff fdb7 	bl	8001f34 <I2C_ITSlaveSeqCplt>
 80023c6:	e7eb      	b.n	80023a0 <I2C_Slave_ISR_IT+0x5c>
 80023c8:	2210      	movs	r2, #16
 80023ca:	6823      	ldr	r3, [r4, #0]
 80023cc:	61da      	str	r2, [r3, #28]
 80023ce:	2304      	movs	r3, #4
 80023d0:	6c62      	ldr	r2, [r4, #68]	; 0x44
 80023d2:	4313      	orrs	r3, r2
 80023d4:	6463      	str	r3, [r4, #68]	; 0x44
 80023d6:	4b26      	ldr	r3, [pc, #152]	; (8002470 <I2C_Slave_ISR_IT+0x12c>)
 80023d8:	421f      	tst	r7, r3
 80023da:	d1e1      	bne.n	80023a0 <I2C_Slave_ISR_IT+0x5c>
 80023dc:	0020      	movs	r0, r4
 80023de:	6c61      	ldr	r1, [r4, #68]	; 0x44
 80023e0:	f7ff fe86 	bl	80020f0 <I2C_ITError>
 80023e4:	e7dc      	b.n	80023a0 <I2C_Slave_ISR_IT+0x5c>
 80023e6:	2301      	movs	r3, #1
 80023e8:	0772      	lsls	r2, r6, #29
 80023ea:	d51a      	bpl.n	8002422 <I2C_Slave_ISR_IT+0xde>
 80023ec:	08aa      	lsrs	r2, r5, #2
 80023ee:	421a      	tst	r2, r3
 80023f0:	d017      	beq.n	8002422 <I2C_Slave_ISR_IT+0xde>
 80023f2:	8d63      	ldrh	r3, [r4, #42]	; 0x2a
 80023f4:	2b00      	cmp	r3, #0
 80023f6:	d00d      	beq.n	8002414 <I2C_Slave_ISR_IT+0xd0>
 80023f8:	6823      	ldr	r3, [r4, #0]
 80023fa:	6a62      	ldr	r2, [r4, #36]	; 0x24
 80023fc:	6a5b      	ldr	r3, [r3, #36]	; 0x24
 80023fe:	7013      	strb	r3, [r2, #0]
 8002400:	6a63      	ldr	r3, [r4, #36]	; 0x24
 8002402:	3301      	adds	r3, #1
 8002404:	6263      	str	r3, [r4, #36]	; 0x24
 8002406:	8d23      	ldrh	r3, [r4, #40]	; 0x28
 8002408:	3b01      	subs	r3, #1
 800240a:	8523      	strh	r3, [r4, #40]	; 0x28
 800240c:	8d63      	ldrh	r3, [r4, #42]	; 0x2a
 800240e:	3b01      	subs	r3, #1
 8002410:	b29b      	uxth	r3, r3
 8002412:	8563      	strh	r3, [r4, #42]	; 0x2a
 8002414:	8d63      	ldrh	r3, [r4, #42]	; 0x2a
 8002416:	2b00      	cmp	r3, #0
 8002418:	d1c2      	bne.n	80023a0 <I2C_Slave_ISR_IT+0x5c>
 800241a:	4b14      	ldr	r3, [pc, #80]	; (800246c <I2C_Slave_ISR_IT+0x128>)
 800241c:	429f      	cmp	r7, r3
 800241e:	d0bf      	beq.n	80023a0 <I2C_Slave_ISR_IT+0x5c>
 8002420:	e7ce      	b.n	80023c0 <I2C_Slave_ISR_IT+0x7c>
 8002422:	2301      	movs	r3, #1
 8002424:	0732      	lsls	r2, r6, #28
 8002426:	d506      	bpl.n	8002436 <I2C_Slave_ISR_IT+0xf2>
 8002428:	08ea      	lsrs	r2, r5, #3
 800242a:	421a      	tst	r2, r3
 800242c:	d003      	beq.n	8002436 <I2C_Slave_ISR_IT+0xf2>
 800242e:	0020      	movs	r0, r4
 8002430:	f7ff fdc2 	bl	8001fb8 <I2C_ITAddrCplt.constprop.0>
 8002434:	e7b4      	b.n	80023a0 <I2C_Slave_ISR_IT+0x5c>
 8002436:	2301      	movs	r3, #1
 8002438:	07b2      	lsls	r2, r6, #30
 800243a:	d5b1      	bpl.n	80023a0 <I2C_Slave_ISR_IT+0x5c>
 800243c:	40dd      	lsrs	r5, r3
 800243e:	421d      	tst	r5, r3
 8002440:	d0ae      	beq.n	80023a0 <I2C_Slave_ISR_IT+0x5c>
 8002442:	8d63      	ldrh	r3, [r4, #42]	; 0x2a
 8002444:	2b00      	cmp	r3, #0
 8002446:	d00d      	beq.n	8002464 <I2C_Slave_ISR_IT+0x120>
 8002448:	6a63      	ldr	r3, [r4, #36]	; 0x24
 800244a:	6822      	ldr	r2, [r4, #0]
 800244c:	7819      	ldrb	r1, [r3, #0]
 800244e:	3301      	adds	r3, #1
 8002450:	6291      	str	r1, [r2, #40]	; 0x28
 8002452:	6263      	str	r3, [r4, #36]	; 0x24
 8002454:	8d63      	ldrh	r3, [r4, #42]	; 0x2a
 8002456:	3b01      	subs	r3, #1
 8002458:	b29b      	uxth	r3, r3
 800245a:	8563      	strh	r3, [r4, #42]	; 0x2a
 800245c:	8d23      	ldrh	r3, [r4, #40]	; 0x28
 800245e:	3b01      	subs	r3, #1
 8002460:	8523      	strh	r3, [r4, #40]	; 0x28
 8002462:	e79d      	b.n	80023a0 <I2C_Slave_ISR_IT+0x5c>
 8002464:	4b02      	ldr	r3, [pc, #8]	; (8002470 <I2C_Slave_ISR_IT+0x12c>)
 8002466:	421f      	tst	r7, r3
 8002468:	d0aa      	beq.n	80023c0 <I2C_Slave_ISR_IT+0x7c>
 800246a:	e799      	b.n	80023a0 <I2C_Slave_ISR_IT+0x5c>
 800246c:	ffff0000 	.word	0xffff0000
 8002470:	feffffff 	.word	0xfeffffff

08002474 <I2C_ITMasterCplt>:
 8002474:	b573      	push	{r0, r1, r4, r5, r6, lr}
 8002476:	2220      	movs	r2, #32
 8002478:	0005      	movs	r5, r0
 800247a:	6803      	ldr	r3, [r0, #0]
 800247c:	3541      	adds	r5, #65	; 0x41
 800247e:	61da      	str	r2, [r3, #28]
 8002480:	782b      	ldrb	r3, [r5, #0]
 8002482:	0004      	movs	r4, r0
 8002484:	000e      	movs	r6, r1
 8002486:	2b21      	cmp	r3, #33	; 0x21
 8002488:	d12c      	bne.n	80024e4 <I2C_ITMasterCplt+0x70>
 800248a:	2101      	movs	r1, #1
 800248c:	f7ff fbb6 	bl	8001bfc <I2C_Disable_IRQ>
 8002490:	2311      	movs	r3, #17
 8002492:	6323      	str	r3, [r4, #48]	; 0x30
 8002494:	6823      	ldr	r3, [r4, #0]
 8002496:	492e      	ldr	r1, [pc, #184]	; (8002550 <I2C_ITMasterCplt+0xdc>)
 8002498:	685a      	ldr	r2, [r3, #4]
 800249a:	400a      	ands	r2, r1
 800249c:	605a      	str	r2, [r3, #4]
 800249e:	2200      	movs	r2, #0
 80024a0:	6362      	str	r2, [r4, #52]	; 0x34
 80024a2:	4a2c      	ldr	r2, [pc, #176]	; (8002554 <I2C_ITMasterCplt+0xe0>)
 80024a4:	62e2      	str	r2, [r4, #44]	; 0x2c
 80024a6:	06f2      	lsls	r2, r6, #27
 80024a8:	d505      	bpl.n	80024b6 <I2C_ITMasterCplt+0x42>
 80024aa:	2210      	movs	r2, #16
 80024ac:	61da      	str	r2, [r3, #28]
 80024ae:	6c61      	ldr	r1, [r4, #68]	; 0x44
 80024b0:	3a0c      	subs	r2, #12
 80024b2:	430a      	orrs	r2, r1
 80024b4:	6462      	str	r2, [r4, #68]	; 0x44
 80024b6:	782a      	ldrb	r2, [r5, #0]
 80024b8:	2a60      	cmp	r2, #96	; 0x60
 80024ba:	d105      	bne.n	80024c8 <I2C_ITMasterCplt+0x54>
 80024bc:	0772      	lsls	r2, r6, #29
 80024be:	d503      	bpl.n	80024c8 <I2C_ITMasterCplt+0x54>
 80024c0:	6a5b      	ldr	r3, [r3, #36]	; 0x24
 80024c2:	b2db      	uxtb	r3, r3
 80024c4:	9301      	str	r3, [sp, #4]
 80024c6:	9b01      	ldr	r3, [sp, #4]
 80024c8:	0020      	movs	r0, r4
 80024ca:	f7ff fb2f 	bl	8001b2c <I2C_Flush_TXDR>
 80024ce:	6c63      	ldr	r3, [r4, #68]	; 0x44
 80024d0:	782a      	ldrb	r2, [r5, #0]
 80024d2:	2a60      	cmp	r2, #96	; 0x60
 80024d4:	d001      	beq.n	80024da <I2C_ITMasterCplt+0x66>
 80024d6:	2b00      	cmp	r3, #0
 80024d8:	d00c      	beq.n	80024f4 <I2C_ITMasterCplt+0x80>
 80024da:	0020      	movs	r0, r4
 80024dc:	6c61      	ldr	r1, [r4, #68]	; 0x44
 80024de:	f7ff fe07 	bl	80020f0 <I2C_ITError>
 80024e2:	bd73      	pop	{r0, r1, r4, r5, r6, pc}
 80024e4:	782b      	ldrb	r3, [r5, #0]
 80024e6:	2b22      	cmp	r3, #34	; 0x22
 80024e8:	d1d4      	bne.n	8002494 <I2C_ITMasterCplt+0x20>
 80024ea:	2102      	movs	r1, #2
 80024ec:	f7ff fb86 	bl	8001bfc <I2C_Disable_IRQ>
 80024f0:	2312      	movs	r3, #18
 80024f2:	e7ce      	b.n	8002492 <I2C_ITMasterCplt+0x1e>
 80024f4:	782a      	ldrb	r2, [r5, #0]
 80024f6:	2a21      	cmp	r2, #33	; 0x21
 80024f8:	d113      	bne.n	8002522 <I2C_ITMasterCplt+0xae>
 80024fa:	3a01      	subs	r2, #1
 80024fc:	702a      	strb	r2, [r5, #0]
 80024fe:	0022      	movs	r2, r4
 8002500:	0021      	movs	r1, r4
 8002502:	6323      	str	r3, [r4, #48]	; 0x30
 8002504:	3242      	adds	r2, #66	; 0x42
 8002506:	7810      	ldrb	r0, [r2, #0]
 8002508:	3140      	adds	r1, #64	; 0x40
 800250a:	7013      	strb	r3, [r2, #0]
 800250c:	700b      	strb	r3, [r1, #0]
 800250e:	2840      	cmp	r0, #64	; 0x40
 8002510:	d103      	bne.n	800251a <I2C_ITMasterCplt+0xa6>
 8002512:	0020      	movs	r0, r4
 8002514:	f7ff fdd4 	bl	80020c0 <HAL_I2C_MemTxCpltCallback>
 8002518:	e7e3      	b.n	80024e2 <I2C_ITMasterCplt+0x6e>
 800251a:	0020      	movs	r0, r4
 800251c:	f7ff fce3 	bl	8001ee6 <HAL_I2C_MasterTxCpltCallback>
 8002520:	e7df      	b.n	80024e2 <I2C_ITMasterCplt+0x6e>
 8002522:	782a      	ldrb	r2, [r5, #0]
 8002524:	2a22      	cmp	r2, #34	; 0x22
 8002526:	d1dc      	bne.n	80024e2 <I2C_ITMasterCplt+0x6e>
 8002528:	3a02      	subs	r2, #2
 800252a:	702a      	strb	r2, [r5, #0]
 800252c:	0022      	movs	r2, r4
 800252e:	0021      	movs	r1, r4
 8002530:	6323      	str	r3, [r4, #48]	; 0x30
 8002532:	3242      	adds	r2, #66	; 0x42
 8002534:	7810      	ldrb	r0, [r2, #0]
 8002536:	3140      	adds	r1, #64	; 0x40
 8002538:	7013      	strb	r3, [r2, #0]
 800253a:	700b      	strb	r3, [r1, #0]
 800253c:	2840      	cmp	r0, #64	; 0x40
 800253e:	d103      	bne.n	8002548 <I2C_ITMasterCplt+0xd4>
 8002540:	0020      	movs	r0, r4
 8002542:	f7ff fdbe 	bl	80020c2 <HAL_I2C_MemRxCpltCallback>
 8002546:	e7cc      	b.n	80024e2 <I2C_ITMasterCplt+0x6e>
 8002548:	0020      	movs	r0, r4
 800254a:	f7ff fccd 	bl	8001ee8 <HAL_I2C_MasterRxCpltCallback>
 800254e:	e7c8      	b.n	80024e2 <I2C_ITMasterCplt+0x6e>
 8002550:	fe00e800 	.word	0xfe00e800
 8002554:	ffff0000 	.word	0xffff0000

08002558 <I2C_Mem_ISR_DMA>:
 8002558:	b573      	push	{r0, r1, r4, r5, r6, lr}
 800255a:	0005      	movs	r5, r0
 800255c:	3540      	adds	r5, #64	; 0x40
 800255e:	782b      	ldrb	r3, [r5, #0]
 8002560:	0004      	movs	r4, r0
 8002562:	2002      	movs	r0, #2
 8002564:	2b01      	cmp	r3, #1
 8002566:	d017      	beq.n	8002598 <I2C_Mem_ISR_DMA+0x40>
 8002568:	2301      	movs	r3, #1
 800256a:	0908      	lsrs	r0, r1, #4
 800256c:	702b      	strb	r3, [r5, #0]
 800256e:	4218      	tst	r0, r3
 8002570:	d013      	beq.n	800259a <I2C_Mem_ISR_DMA+0x42>
 8002572:	0910      	lsrs	r0, r2, #4
 8002574:	4218      	tst	r0, r3
 8002576:	d010      	beq.n	800259a <I2C_Mem_ISR_DMA+0x42>
 8002578:	2210      	movs	r2, #16
 800257a:	6823      	ldr	r3, [r4, #0]
 800257c:	0020      	movs	r0, r4
 800257e:	61da      	str	r2, [r3, #28]
 8002580:	2304      	movs	r3, #4
 8002582:	6c62      	ldr	r2, [r4, #68]	; 0x44
 8002584:	2120      	movs	r1, #32
 8002586:	4313      	orrs	r3, r2
 8002588:	6463      	str	r3, [r4, #68]	; 0x44
 800258a:	f7ff faf3 	bl	8001b74 <I2C_Enable_IRQ>
 800258e:	0020      	movs	r0, r4
 8002590:	f7ff facc 	bl	8001b2c <I2C_Flush_TXDR>
 8002594:	2000      	movs	r0, #0
 8002596:	7028      	strb	r0, [r5, #0]
 8002598:	bd76      	pop	{r1, r2, r4, r5, r6, pc}
 800259a:	2301      	movs	r3, #1
 800259c:	0788      	lsls	r0, r1, #30
 800259e:	d509      	bpl.n	80025b4 <I2C_Mem_ISR_DMA+0x5c>
 80025a0:	0850      	lsrs	r0, r2, #1
 80025a2:	4218      	tst	r0, r3
 80025a4:	d006      	beq.n	80025b4 <I2C_Mem_ISR_DMA+0x5c>
 80025a6:	6823      	ldr	r3, [r4, #0]
 80025a8:	6d22      	ldr	r2, [r4, #80]	; 0x50
 80025aa:	629a      	str	r2, [r3, #40]	; 0x28
 80025ac:	2301      	movs	r3, #1
 80025ae:	425b      	negs	r3, r3
 80025b0:	6523      	str	r3, [r4, #80]	; 0x50
 80025b2:	e7ef      	b.n	8002594 <I2C_Mem_ISR_DMA+0x3c>
 80025b4:	2301      	movs	r3, #1
 80025b6:	0608      	lsls	r0, r1, #24
 80025b8:	d538      	bpl.n	800262c <I2C_Mem_ISR_DMA+0xd4>
 80025ba:	0990      	lsrs	r0, r2, #6
 80025bc:	4218      	tst	r0, r3
 80025be:	d035      	beq.n	800262c <I2C_Mem_ISR_DMA+0xd4>
 80025c0:	2110      	movs	r1, #16
 80025c2:	0020      	movs	r0, r4
 80025c4:	f7ff fad6 	bl	8001b74 <I2C_Enable_IRQ>
 80025c8:	8d63      	ldrh	r3, [r4, #42]	; 0x2a
 80025ca:	2b00      	cmp	r3, #0
 80025cc:	d029      	beq.n	8002622 <I2C_Mem_ISR_DMA+0xca>
 80025ce:	8d63      	ldrh	r3, [r4, #42]	; 0x2a
 80025d0:	2bff      	cmp	r3, #255	; 0xff
 80025d2:	d91b      	bls.n	800260c <I2C_Mem_ISR_DMA+0xb4>
 80025d4:	2300      	movs	r3, #0
 80025d6:	22ff      	movs	r2, #255	; 0xff
 80025d8:	9300      	str	r3, [sp, #0]
 80025da:	2380      	movs	r3, #128	; 0x80
 80025dc:	6ce1      	ldr	r1, [r4, #76]	; 0x4c
 80025de:	8522      	strh	r2, [r4, #40]	; 0x28
 80025e0:	b289      	uxth	r1, r1
 80025e2:	045b      	lsls	r3, r3, #17
 80025e4:	0020      	movs	r0, r4
 80025e6:	f7ff faaf 	bl	8001b48 <I2C_TransferConfig>
 80025ea:	8d63      	ldrh	r3, [r4, #42]	; 0x2a
 80025ec:	8d22      	ldrh	r2, [r4, #40]	; 0x28
 80025ee:	1a9b      	subs	r3, r3, r2
 80025f0:	b29b      	uxth	r3, r3
 80025f2:	8563      	strh	r3, [r4, #42]	; 0x2a
 80025f4:	0023      	movs	r3, r4
 80025f6:	3341      	adds	r3, #65	; 0x41
 80025f8:	781a      	ldrb	r2, [r3, #0]
 80025fa:	6823      	ldr	r3, [r4, #0]
 80025fc:	6819      	ldr	r1, [r3, #0]
 80025fe:	2a22      	cmp	r2, #34	; 0x22
 8002600:	d143      	bne.n	800268a <I2C_Mem_ISR_DMA+0x132>
 8002602:	2280      	movs	r2, #128	; 0x80
 8002604:	0212      	lsls	r2, r2, #8
 8002606:	430a      	orrs	r2, r1
 8002608:	601a      	str	r2, [r3, #0]
 800260a:	e7c3      	b.n	8002594 <I2C_Mem_ISR_DMA+0x3c>
 800260c:	2300      	movs	r3, #0
 800260e:	9300      	str	r3, [sp, #0]
 8002610:	2380      	movs	r3, #128	; 0x80
 8002612:	8d62      	ldrh	r2, [r4, #42]	; 0x2a
 8002614:	6ce1      	ldr	r1, [r4, #76]	; 0x4c
 8002616:	b292      	uxth	r2, r2
 8002618:	8522      	strh	r2, [r4, #40]	; 0x28
 800261a:	b289      	uxth	r1, r1
 800261c:	b2d2      	uxtb	r2, r2
 800261e:	049b      	lsls	r3, r3, #18
 8002620:	e7e0      	b.n	80025e4 <I2C_Mem_ISR_DMA+0x8c>
 8002622:	2140      	movs	r1, #64	; 0x40
 8002624:	0020      	movs	r0, r4
 8002626:	f7ff fd63 	bl	80020f0 <I2C_ITError>
 800262a:	e7b3      	b.n	8002594 <I2C_Mem_ISR_DMA+0x3c>
 800262c:	2301      	movs	r3, #1
 800262e:	0648      	lsls	r0, r1, #25
 8002630:	d52e      	bpl.n	8002690 <I2C_Mem_ISR_DMA+0x138>
 8002632:	0990      	lsrs	r0, r2, #6
 8002634:	4218      	tst	r0, r3
 8002636:	d02b      	beq.n	8002690 <I2C_Mem_ISR_DMA+0x138>
 8002638:	0026      	movs	r6, r4
 800263a:	3641      	adds	r6, #65	; 0x41
 800263c:	7833      	ldrb	r3, [r6, #0]
 800263e:	3b22      	subs	r3, #34	; 0x22
 8002640:	1e5a      	subs	r2, r3, #1
 8002642:	4193      	sbcs	r3, r2
 8002644:	425b      	negs	r3, r3
 8002646:	4a18      	ldr	r2, [pc, #96]	; (80026a8 <I2C_Mem_ISR_DMA+0x150>)
 8002648:	0a9b      	lsrs	r3, r3, #10
 800264a:	029b      	lsls	r3, r3, #10
 800264c:	189b      	adds	r3, r3, r2
 800264e:	8d62      	ldrh	r2, [r4, #42]	; 0x2a
 8002650:	2aff      	cmp	r2, #255	; 0xff
 8002652:	d910      	bls.n	8002676 <I2C_Mem_ISR_DMA+0x11e>
 8002654:	22ff      	movs	r2, #255	; 0xff
 8002656:	9300      	str	r3, [sp, #0]
 8002658:	2380      	movs	r3, #128	; 0x80
 800265a:	6ce1      	ldr	r1, [r4, #76]	; 0x4c
 800265c:	8522      	strh	r2, [r4, #40]	; 0x28
 800265e:	b289      	uxth	r1, r1
 8002660:	045b      	lsls	r3, r3, #17
 8002662:	0020      	movs	r0, r4
 8002664:	f7ff fa70 	bl	8001b48 <I2C_TransferConfig>
 8002668:	8d63      	ldrh	r3, [r4, #42]	; 0x2a
 800266a:	8d22      	ldrh	r2, [r4, #40]	; 0x28
 800266c:	1a9b      	subs	r3, r3, r2
 800266e:	b29b      	uxth	r3, r3
 8002670:	8563      	strh	r3, [r4, #42]	; 0x2a
 8002672:	7832      	ldrb	r2, [r6, #0]
 8002674:	e7c1      	b.n	80025fa <I2C_Mem_ISR_DMA+0xa2>
 8002676:	9300      	str	r3, [sp, #0]
 8002678:	2380      	movs	r3, #128	; 0x80
 800267a:	8d62      	ldrh	r2, [r4, #42]	; 0x2a
 800267c:	6ce1      	ldr	r1, [r4, #76]	; 0x4c
 800267e:	b292      	uxth	r2, r2
 8002680:	8522      	strh	r2, [r4, #40]	; 0x28
 8002682:	b289      	uxth	r1, r1
 8002684:	b2d2      	uxtb	r2, r2
 8002686:	049b      	lsls	r3, r3, #18
 8002688:	e7eb      	b.n	8002662 <I2C_Mem_ISR_DMA+0x10a>
 800268a:	2280      	movs	r2, #128	; 0x80
 800268c:	01d2      	lsls	r2, r2, #7
 800268e:	e7ba      	b.n	8002606 <I2C_Mem_ISR_DMA+0xae>
 8002690:	2301      	movs	r3, #1
 8002692:	0688      	lsls	r0, r1, #26
 8002694:	d400      	bmi.n	8002698 <I2C_Mem_ISR_DMA+0x140>
 8002696:	e77d      	b.n	8002594 <I2C_Mem_ISR_DMA+0x3c>
 8002698:	0952      	lsrs	r2, r2, #5
 800269a:	421a      	tst	r2, r3
 800269c:	d100      	bne.n	80026a0 <I2C_Mem_ISR_DMA+0x148>
 800269e:	e779      	b.n	8002594 <I2C_Mem_ISR_DMA+0x3c>
 80026a0:	0020      	movs	r0, r4
 80026a2:	f7ff fee7 	bl	8002474 <I2C_ITMasterCplt>
 80026a6:	e775      	b.n	8002594 <I2C_Mem_ISR_DMA+0x3c>
 80026a8:	80002400 	.word	0x80002400

080026ac <I2C_Slave_ISR_DMA>:
 80026ac:	0003      	movs	r3, r0
 80026ae:	b5f7      	push	{r0, r1, r2, r4, r5, r6, r7, lr}
 80026b0:	3340      	adds	r3, #64	; 0x40
 80026b2:	9301      	str	r3, [sp, #4]
 80026b4:	781b      	ldrb	r3, [r3, #0]
 80026b6:	0004      	movs	r4, r0
 80026b8:	6ac7      	ldr	r7, [r0, #44]	; 0x2c
 80026ba:	000e      	movs	r6, r1
 80026bc:	0015      	movs	r5, r2
 80026be:	2002      	movs	r0, #2
 80026c0:	2b01      	cmp	r3, #1
 80026c2:	d03d      	beq.n	8002740 <I2C_Slave_ISR_DMA+0x94>
 80026c4:	2301      	movs	r3, #1
 80026c6:	9a01      	ldr	r2, [sp, #4]
 80026c8:	7013      	strb	r3, [r2, #0]
 80026ca:	094a      	lsrs	r2, r1, #5
 80026cc:	421a      	tst	r2, r3
 80026ce:	d005      	beq.n	80026dc <I2C_Slave_ISR_DMA+0x30>
 80026d0:	096a      	lsrs	r2, r5, #5
 80026d2:	421a      	tst	r2, r3
 80026d4:	d002      	beq.n	80026dc <I2C_Slave_ISR_DMA+0x30>
 80026d6:	0020      	movs	r0, r4
 80026d8:	f7ff fd96 	bl	8002208 <I2C_ITSlaveCplt>
 80026dc:	2001      	movs	r0, #1
 80026de:	06f3      	lsls	r3, r6, #27
 80026e0:	d55c      	bpl.n	800279c <I2C_Slave_ISR_DMA+0xf0>
 80026e2:	092b      	lsrs	r3, r5, #4
 80026e4:	4203      	tst	r3, r0
 80026e6:	d059      	beq.n	800279c <I2C_Slave_ISR_DMA+0xf0>
 80026e8:	0bab      	lsrs	r3, r5, #14
 80026ea:	0bed      	lsrs	r5, r5, #15
 80026ec:	469c      	mov	ip, r3
 80026ee:	432b      	orrs	r3, r5
 80026f0:	4203      	tst	r3, r0
 80026f2:	d04f      	beq.n	8002794 <I2C_Slave_ISR_DMA+0xe8>
 80026f4:	6be1      	ldr	r1, [r4, #60]	; 0x3c
 80026f6:	1e0b      	subs	r3, r1, #0
 80026f8:	d006      	beq.n	8002708 <I2C_Slave_ISR_DMA+0x5c>
 80026fa:	2300      	movs	r3, #0
 80026fc:	4205      	tst	r5, r0
 80026fe:	d003      	beq.n	8002708 <I2C_Slave_ISR_DMA+0x5c>
 8002700:	680b      	ldr	r3, [r1, #0]
 8002702:	685b      	ldr	r3, [r3, #4]
 8002704:	425a      	negs	r2, r3
 8002706:	4153      	adcs	r3, r2
 8002708:	0022      	movs	r2, r4
 800270a:	6ba1      	ldr	r1, [r4, #56]	; 0x38
 800270c:	3241      	adds	r2, #65	; 0x41
 800270e:	2900      	cmp	r1, #0
 8002710:	d006      	beq.n	8002720 <I2C_Slave_ISR_DMA+0x74>
 8002712:	4660      	mov	r0, ip
 8002714:	07c0      	lsls	r0, r0, #31
 8002716:	d503      	bpl.n	8002720 <I2C_Slave_ISR_DMA+0x74>
 8002718:	6809      	ldr	r1, [r1, #0]
 800271a:	6849      	ldr	r1, [r1, #4]
 800271c:	2900      	cmp	r1, #0
 800271e:	d001      	beq.n	8002724 <I2C_Slave_ISR_DMA+0x78>
 8002720:	2b01      	cmp	r3, #1
 8002722:	d11e      	bne.n	8002762 <I2C_Slave_ISR_DMA+0xb6>
 8002724:	7813      	ldrb	r3, [r2, #0]
 8002726:	2b28      	cmp	r3, #40	; 0x28
 8002728:	d10b      	bne.n	8002742 <I2C_Slave_ISR_DMA+0x96>
 800272a:	2380      	movs	r3, #128	; 0x80
 800272c:	049b      	lsls	r3, r3, #18
 800272e:	429f      	cmp	r7, r3
 8002730:	d107      	bne.n	8002742 <I2C_Slave_ISR_DMA+0x96>
 8002732:	0031      	movs	r1, r6
 8002734:	0020      	movs	r0, r4
 8002736:	f7ff fc8d 	bl	8002054 <I2C_ITListenCplt>
 800273a:	2000      	movs	r0, #0
 800273c:	9b01      	ldr	r3, [sp, #4]
 800273e:	7018      	strb	r0, [r3, #0]
 8002740:	bdfe      	pop	{r1, r2, r3, r4, r5, r6, r7, pc}
 8002742:	7811      	ldrb	r1, [r2, #0]
 8002744:	2210      	movs	r2, #16
 8002746:	6823      	ldr	r3, [r4, #0]
 8002748:	61da      	str	r2, [r3, #28]
 800274a:	2929      	cmp	r1, #41	; 0x29
 800274c:	d1f5      	bne.n	800273a <I2C_Slave_ISR_DMA+0x8e>
 800274e:	4918      	ldr	r1, [pc, #96]	; (80027b0 <I2C_Slave_ISR_DMA+0x104>)
 8002750:	428f      	cmp	r7, r1
 8002752:	d0f2      	beq.n	800273a <I2C_Slave_ISR_DMA+0x8e>
 8002754:	0020      	movs	r0, r4
 8002756:	f7ff f9e9 	bl	8001b2c <I2C_Flush_TXDR>
 800275a:	0020      	movs	r0, r4
 800275c:	f7ff fbea 	bl	8001f34 <I2C_ITSlaveSeqCplt>
 8002760:	e7eb      	b.n	800273a <I2C_Slave_ISR_DMA+0x8e>
 8002762:	2110      	movs	r1, #16
 8002764:	6823      	ldr	r3, [r4, #0]
 8002766:	61d9      	str	r1, [r3, #28]
 8002768:	2304      	movs	r3, #4
 800276a:	6c61      	ldr	r1, [r4, #68]	; 0x44
 800276c:	430b      	orrs	r3, r1
 800276e:	6463      	str	r3, [r4, #68]	; 0x44
 8002770:	7813      	ldrb	r3, [r2, #0]
 8002772:	4a10      	ldr	r2, [pc, #64]	; (80027b4 <I2C_Slave_ISR_DMA+0x108>)
 8002774:	b2db      	uxtb	r3, r3
 8002776:	4217      	tst	r7, r2
 8002778:	d1df      	bne.n	800273a <I2C_Slave_ISR_DMA+0x8e>
 800277a:	2208      	movs	r2, #8
 800277c:	4393      	bics	r3, r2
 800277e:	2b21      	cmp	r3, #33	; 0x21
 8002780:	d101      	bne.n	8002786 <I2C_Slave_ISR_DMA+0xda>
 8002782:	6323      	str	r3, [r4, #48]	; 0x30
 8002784:	e001      	b.n	800278a <I2C_Slave_ISR_DMA+0xde>
 8002786:	2b22      	cmp	r3, #34	; 0x22
 8002788:	d0fb      	beq.n	8002782 <I2C_Slave_ISR_DMA+0xd6>
 800278a:	0020      	movs	r0, r4
 800278c:	6c61      	ldr	r1, [r4, #68]	; 0x44
 800278e:	f7ff fcaf 	bl	80020f0 <I2C_ITError>
 8002792:	e7d2      	b.n	800273a <I2C_Slave_ISR_DMA+0x8e>
 8002794:	2210      	movs	r2, #16
 8002796:	6823      	ldr	r3, [r4, #0]
 8002798:	61da      	str	r2, [r3, #28]
 800279a:	e7ce      	b.n	800273a <I2C_Slave_ISR_DMA+0x8e>
 800279c:	2301      	movs	r3, #1
 800279e:	0732      	lsls	r2, r6, #28
 80027a0:	d5cb      	bpl.n	800273a <I2C_Slave_ISR_DMA+0x8e>
 80027a2:	08ed      	lsrs	r5, r5, #3
 80027a4:	421d      	tst	r5, r3
 80027a6:	d0c8      	beq.n	800273a <I2C_Slave_ISR_DMA+0x8e>
 80027a8:	0020      	movs	r0, r4
 80027aa:	f7ff fc05 	bl	8001fb8 <I2C_ITAddrCplt.constprop.0>
 80027ae:	e7c4      	b.n	800273a <I2C_Slave_ISR_DMA+0x8e>
 80027b0:	ffff0000 	.word	0xffff0000
 80027b4:	feffffff 	.word	0xfeffffff

080027b8 <I2C_Master_ISR_DMA>:
 80027b8:	b537      	push	{r0, r1, r2, r4, r5, lr}
 80027ba:	0005      	movs	r5, r0
 80027bc:	3540      	adds	r5, #64	; 0x40
 80027be:	782b      	ldrb	r3, [r5, #0]
 80027c0:	0004      	movs	r4, r0
 80027c2:	2002      	movs	r0, #2
 80027c4:	2b01      	cmp	r3, #1
 80027c6:	d017      	beq.n	80027f8 <I2C_Master_ISR_DMA+0x40>
 80027c8:	2301      	movs	r3, #1
 80027ca:	0908      	lsrs	r0, r1, #4
 80027cc:	702b      	strb	r3, [r5, #0]
 80027ce:	4218      	tst	r0, r3
 80027d0:	d013      	beq.n	80027fa <I2C_Master_ISR_DMA+0x42>
 80027d2:	0910      	lsrs	r0, r2, #4
 80027d4:	4218      	tst	r0, r3
 80027d6:	d010      	beq.n	80027fa <I2C_Master_ISR_DMA+0x42>
 80027d8:	2210      	movs	r2, #16
 80027da:	6823      	ldr	r3, [r4, #0]
 80027dc:	0020      	movs	r0, r4
 80027de:	61da      	str	r2, [r3, #28]
 80027e0:	2304      	movs	r3, #4
 80027e2:	6c62      	ldr	r2, [r4, #68]	; 0x44
 80027e4:	2120      	movs	r1, #32
 80027e6:	4313      	orrs	r3, r2
 80027e8:	6463      	str	r3, [r4, #68]	; 0x44
 80027ea:	f7ff f9c3 	bl	8001b74 <I2C_Enable_IRQ>
 80027ee:	0020      	movs	r0, r4
 80027f0:	f7ff f99c 	bl	8001b2c <I2C_Flush_TXDR>
 80027f4:	2000      	movs	r0, #0
 80027f6:	7028      	strb	r0, [r5, #0]
 80027f8:	bd3e      	pop	{r1, r2, r3, r4, r5, pc}
 80027fa:	2301      	movs	r3, #1
 80027fc:	0608      	lsls	r0, r1, #24
 80027fe:	d546      	bpl.n	800288e <I2C_Master_ISR_DMA+0xd6>
 8002800:	0990      	lsrs	r0, r2, #6
 8002802:	4218      	tst	r0, r3
 8002804:	d043      	beq.n	800288e <I2C_Master_ISR_DMA+0xd6>
 8002806:	2140      	movs	r1, #64	; 0x40
 8002808:	6823      	ldr	r3, [r4, #0]
 800280a:	681a      	ldr	r2, [r3, #0]
 800280c:	438a      	bics	r2, r1
 800280e:	601a      	str	r2, [r3, #0]
 8002810:	8d62      	ldrh	r2, [r4, #42]	; 0x2a
 8002812:	2a00      	cmp	r2, #0
 8002814:	d02f      	beq.n	8002876 <I2C_Master_ISR_DMA+0xbe>
 8002816:	6859      	ldr	r1, [r3, #4]
 8002818:	8d63      	ldrh	r3, [r4, #42]	; 0x2a
 800281a:	0589      	lsls	r1, r1, #22
 800281c:	0d89      	lsrs	r1, r1, #22
 800281e:	2bff      	cmp	r3, #255	; 0xff
 8002820:	d91b      	bls.n	800285a <I2C_Master_ISR_DMA+0xa2>
 8002822:	23ff      	movs	r3, #255	; 0xff
 8002824:	8523      	strh	r3, [r4, #40]	; 0x28
 8002826:	2380      	movs	r3, #128	; 0x80
 8002828:	045b      	lsls	r3, r3, #17
 800282a:	2000      	movs	r0, #0
 800282c:	8d22      	ldrh	r2, [r4, #40]	; 0x28
 800282e:	9000      	str	r0, [sp, #0]
 8002830:	b2d2      	uxtb	r2, r2
 8002832:	0020      	movs	r0, r4
 8002834:	f7ff f988 	bl	8001b48 <I2C_TransferConfig>
 8002838:	8d63      	ldrh	r3, [r4, #42]	; 0x2a
 800283a:	8d22      	ldrh	r2, [r4, #40]	; 0x28
 800283c:	1a9b      	subs	r3, r3, r2
 800283e:	b29b      	uxth	r3, r3
 8002840:	8563      	strh	r3, [r4, #42]	; 0x2a
 8002842:	0023      	movs	r3, r4
 8002844:	3341      	adds	r3, #65	; 0x41
 8002846:	781a      	ldrb	r2, [r3, #0]
 8002848:	6823      	ldr	r3, [r4, #0]
 800284a:	6819      	ldr	r1, [r3, #0]
 800284c:	2a22      	cmp	r2, #34	; 0x22
 800284e:	d10f      	bne.n	8002870 <I2C_Master_ISR_DMA+0xb8>
 8002850:	2280      	movs	r2, #128	; 0x80
 8002852:	0212      	lsls	r2, r2, #8
 8002854:	430a      	orrs	r2, r1
 8002856:	601a      	str	r2, [r3, #0]
 8002858:	e7cc      	b.n	80027f4 <I2C_Master_ISR_DMA+0x3c>
 800285a:	8d63      	ldrh	r3, [r4, #42]	; 0x2a
 800285c:	6ae2      	ldr	r2, [r4, #44]	; 0x2c
 800285e:	8523      	strh	r3, [r4, #40]	; 0x28
 8002860:	4b1c      	ldr	r3, [pc, #112]	; (80028d4 <I2C_Master_ISR_DMA+0x11c>)
 8002862:	429a      	cmp	r2, r3
 8002864:	d001      	beq.n	800286a <I2C_Master_ISR_DMA+0xb2>
 8002866:	6ae3      	ldr	r3, [r4, #44]	; 0x2c
 8002868:	e7df      	b.n	800282a <I2C_Master_ISR_DMA+0x72>
 800286a:	2380      	movs	r3, #128	; 0x80
 800286c:	049b      	lsls	r3, r3, #18
 800286e:	e7dc      	b.n	800282a <I2C_Master_ISR_DMA+0x72>
 8002870:	2280      	movs	r2, #128	; 0x80
 8002872:	01d2      	lsls	r2, r2, #7
 8002874:	e7ee      	b.n	8002854 <I2C_Master_ISR_DMA+0x9c>
 8002876:	685b      	ldr	r3, [r3, #4]
 8002878:	019b      	lsls	r3, r3, #6
 800287a:	d403      	bmi.n	8002884 <I2C_Master_ISR_DMA+0xcc>
 800287c:	0020      	movs	r0, r4
 800287e:	f7ff fb34 	bl	8001eea <I2C_ITMasterSeqCplt>
 8002882:	e7b7      	b.n	80027f4 <I2C_Master_ISR_DMA+0x3c>
 8002884:	2140      	movs	r1, #64	; 0x40
 8002886:	0020      	movs	r0, r4
 8002888:	f7ff fc32 	bl	80020f0 <I2C_ITError>
 800288c:	e7b2      	b.n	80027f4 <I2C_Master_ISR_DMA+0x3c>
 800288e:	2301      	movs	r3, #1
 8002890:	0648      	lsls	r0, r1, #25
 8002892:	d513      	bpl.n	80028bc <I2C_Master_ISR_DMA+0x104>
 8002894:	0990      	lsrs	r0, r2, #6
 8002896:	4218      	tst	r0, r3
 8002898:	d010      	beq.n	80028bc <I2C_Master_ISR_DMA+0x104>
 800289a:	8d63      	ldrh	r3, [r4, #42]	; 0x2a
 800289c:	2b00      	cmp	r3, #0
 800289e:	d1f1      	bne.n	8002884 <I2C_Master_ISR_DMA+0xcc>
 80028a0:	6823      	ldr	r3, [r4, #0]
 80028a2:	685a      	ldr	r2, [r3, #4]
 80028a4:	0192      	lsls	r2, r2, #6
 80028a6:	d4a5      	bmi.n	80027f4 <I2C_Master_ISR_DMA+0x3c>
 80028a8:	6ae1      	ldr	r1, [r4, #44]	; 0x2c
 80028aa:	4a0a      	ldr	r2, [pc, #40]	; (80028d4 <I2C_Master_ISR_DMA+0x11c>)
 80028ac:	4291      	cmp	r1, r2
 80028ae:	d1e5      	bne.n	800287c <I2C_Master_ISR_DMA+0xc4>
 80028b0:	2280      	movs	r2, #128	; 0x80
 80028b2:	6859      	ldr	r1, [r3, #4]
 80028b4:	01d2      	lsls	r2, r2, #7
 80028b6:	430a      	orrs	r2, r1
 80028b8:	605a      	str	r2, [r3, #4]
 80028ba:	e79b      	b.n	80027f4 <I2C_Master_ISR_DMA+0x3c>
 80028bc:	2301      	movs	r3, #1
 80028be:	0688      	lsls	r0, r1, #26
 80028c0:	d400      	bmi.n	80028c4 <I2C_Master_ISR_DMA+0x10c>
 80028c2:	e797      	b.n	80027f4 <I2C_Master_ISR_DMA+0x3c>
 80028c4:	0952      	lsrs	r2, r2, #5
 80028c6:	421a      	tst	r2, r3
 80028c8:	d100      	bne.n	80028cc <I2C_Master_ISR_DMA+0x114>
 80028ca:	e793      	b.n	80027f4 <I2C_Master_ISR_DMA+0x3c>
 80028cc:	0020      	movs	r0, r4
 80028ce:	f7ff fdd1 	bl	8002474 <I2C_ITMasterCplt>
 80028d2:	e78f      	b.n	80027f4 <I2C_Master_ISR_DMA+0x3c>
 80028d4:	ffff0000 	.word	0xffff0000

080028d8 <HAL_I2C_ER_IRQHandler>:
 80028d8:	6803      	ldr	r3, [r0, #0]
 80028da:	b570      	push	{r4, r5, r6, lr}
 80028dc:	699c      	ldr	r4, [r3, #24]
 80028de:	2101      	movs	r1, #1
 80028e0:	681a      	ldr	r2, [r3, #0]
 80028e2:	05e5      	lsls	r5, r4, #23
 80028e4:	d508      	bpl.n	80028f8 <HAL_I2C_ER_IRQHandler+0x20>
 80028e6:	09d5      	lsrs	r5, r2, #7
 80028e8:	420d      	tst	r5, r1
 80028ea:	d005      	beq.n	80028f8 <HAL_I2C_ER_IRQHandler+0x20>
 80028ec:	6c45      	ldr	r5, [r0, #68]	; 0x44
 80028ee:	4329      	orrs	r1, r5
 80028f0:	6441      	str	r1, [r0, #68]	; 0x44
 80028f2:	2180      	movs	r1, #128	; 0x80
 80028f4:	0049      	lsls	r1, r1, #1
 80028f6:	61d9      	str	r1, [r3, #28]
 80028f8:	2101      	movs	r1, #1
 80028fa:	0565      	lsls	r5, r4, #21
 80028fc:	d509      	bpl.n	8002912 <HAL_I2C_ER_IRQHandler+0x3a>
 80028fe:	09d5      	lsrs	r5, r2, #7
 8002900:	420d      	tst	r5, r1
 8002902:	d006      	beq.n	8002912 <HAL_I2C_ER_IRQHandler+0x3a>
 8002904:	6c45      	ldr	r5, [r0, #68]	; 0x44
 8002906:	3107      	adds	r1, #7
 8002908:	4329      	orrs	r1, r5
 800290a:	6441      	str	r1, [r0, #68]	; 0x44
 800290c:	2180      	movs	r1, #128	; 0x80
 800290e:	00c9      	lsls	r1, r1, #3
 8002910:	61d9      	str	r1, [r3, #28]
 8002912:	2101      	movs	r1, #1
 8002914:	05a4      	lsls	r4, r4, #22
 8002916:	d509      	bpl.n	800292c <HAL_I2C_ER_IRQHandler+0x54>
 8002918:	09d2      	lsrs	r2, r2, #7
 800291a:	420a      	tst	r2, r1
 800291c:	d006      	beq.n	800292c <HAL_I2C_ER_IRQHandler+0x54>
 800291e:	2202      	movs	r2, #2
 8002920:	6c41      	ldr	r1, [r0, #68]	; 0x44
 8002922:	430a      	orrs	r2, r1
 8002924:	6442      	str	r2, [r0, #68]	; 0x44
 8002926:	2280      	movs	r2, #128	; 0x80
 8002928:	0092      	lsls	r2, r2, #2
 800292a:	61da      	str	r2, [r3, #28]
 800292c:	230b      	movs	r3, #11
 800292e:	6c41      	ldr	r1, [r0, #68]	; 0x44
 8002930:	4219      	tst	r1, r3
 8002932:	d001      	beq.n	8002938 <HAL_I2C_ER_IRQHandler+0x60>
 8002934:	f7ff fbdc 	bl	80020f0 <I2C_ITError>
 8002938:	bd70      	pop	{r4, r5, r6, pc}

0800293a <I2C_DMAAbort>:
 800293a:	6a40      	ldr	r0, [r0, #36]	; 0x24
 800293c:	b510      	push	{r4, lr}
 800293e:	6b83      	ldr	r3, [r0, #56]	; 0x38
 8002940:	2b00      	cmp	r3, #0
 8002942:	d001      	beq.n	8002948 <I2C_DMAAbort+0xe>
 8002944:	2200      	movs	r2, #0
 8002946:	635a      	str	r2, [r3, #52]	; 0x34
 8002948:	6bc3      	ldr	r3, [r0, #60]	; 0x3c
 800294a:	2b00      	cmp	r3, #0
 800294c:	d001      	beq.n	8002952 <I2C_DMAAbort+0x18>
 800294e:	2200      	movs	r2, #0
 8002950:	635a      	str	r2, [r3, #52]	; 0x34
 8002952:	f7ff fbb8 	bl	80020c6 <I2C_TreatErrorCallback>
 8002956:	bd10      	pop	{r4, pc}

08002958 <HAL_I2C_GetError>:
 8002958:	6c40      	ldr	r0, [r0, #68]	; 0x44
 800295a:	4770      	bx	lr

0800295c <HAL_I2CEx_ConfigAnalogFilter>:
 800295c:	b5f0      	push	{r4, r5, r6, r7, lr}
 800295e:	0004      	movs	r4, r0
 8002960:	3441      	adds	r4, #65	; 0x41
 8002962:	7822      	ldrb	r2, [r4, #0]
 8002964:	0003      	movs	r3, r0
 8002966:	000f      	movs	r7, r1
 8002968:	2002      	movs	r0, #2
 800296a:	b2d6      	uxtb	r6, r2
 800296c:	2a20      	cmp	r2, #32
 800296e:	d118      	bne.n	80029a2 <HAL_I2CEx_ConfigAnalogFilter+0x46>
 8002970:	001d      	movs	r5, r3
 8002972:	3540      	adds	r5, #64	; 0x40
 8002974:	782a      	ldrb	r2, [r5, #0]
 8002976:	2a01      	cmp	r2, #1
 8002978:	d013      	beq.n	80029a2 <HAL_I2CEx_ConfigAnalogFilter+0x46>
 800297a:	2224      	movs	r2, #36	; 0x24
 800297c:	7022      	strb	r2, [r4, #0]
 800297e:	681b      	ldr	r3, [r3, #0]
 8002980:	3a23      	subs	r2, #35	; 0x23
 8002982:	6819      	ldr	r1, [r3, #0]
 8002984:	4807      	ldr	r0, [pc, #28]	; (80029a4 <HAL_I2CEx_ConfigAnalogFilter+0x48>)
 8002986:	4391      	bics	r1, r2
 8002988:	6019      	str	r1, [r3, #0]
 800298a:	6819      	ldr	r1, [r3, #0]
 800298c:	4001      	ands	r1, r0
 800298e:	2000      	movs	r0, #0
 8002990:	6019      	str	r1, [r3, #0]
 8002992:	6819      	ldr	r1, [r3, #0]
 8002994:	4339      	orrs	r1, r7
 8002996:	6019      	str	r1, [r3, #0]
 8002998:	6819      	ldr	r1, [r3, #0]
 800299a:	430a      	orrs	r2, r1
 800299c:	601a      	str	r2, [r3, #0]
 800299e:	7026      	strb	r6, [r4, #0]
 80029a0:	7028      	strb	r0, [r5, #0]
 80029a2:	bdf0      	pop	{r4, r5, r6, r7, pc}
 80029a4:	ffffefff 	.word	0xffffefff

080029a8 <HAL_I2CEx_ConfigDigitalFilter>:
 80029a8:	0002      	movs	r2, r0
 80029aa:	b5f0      	push	{r4, r5, r6, r7, lr}
 80029ac:	3241      	adds	r2, #65	; 0x41
 80029ae:	7814      	ldrb	r4, [r2, #0]
 80029b0:	0003      	movs	r3, r0
 80029b2:	b2e5      	uxtb	r5, r4
 80029b4:	2002      	movs	r0, #2
 80029b6:	2c20      	cmp	r4, #32
 80029b8:	d117      	bne.n	80029ea <HAL_I2CEx_ConfigDigitalFilter+0x42>
 80029ba:	001c      	movs	r4, r3
 80029bc:	3440      	adds	r4, #64	; 0x40
 80029be:	7826      	ldrb	r6, [r4, #0]
 80029c0:	2e01      	cmp	r6, #1
 80029c2:	d012      	beq.n	80029ea <HAL_I2CEx_ConfigDigitalFilter+0x42>
 80029c4:	3022      	adds	r0, #34	; 0x22
 80029c6:	7010      	strb	r0, [r2, #0]
 80029c8:	681b      	ldr	r3, [r3, #0]
 80029ca:	3823      	subs	r0, #35	; 0x23
 80029cc:	681e      	ldr	r6, [r3, #0]
 80029ce:	4f07      	ldr	r7, [pc, #28]	; (80029ec <HAL_I2CEx_ConfigDigitalFilter+0x44>)
 80029d0:	4386      	bics	r6, r0
 80029d2:	601e      	str	r6, [r3, #0]
 80029d4:	681e      	ldr	r6, [r3, #0]
 80029d6:	0209      	lsls	r1, r1, #8
 80029d8:	403e      	ands	r6, r7
 80029da:	4331      	orrs	r1, r6
 80029dc:	6019      	str	r1, [r3, #0]
 80029de:	6819      	ldr	r1, [r3, #0]
 80029e0:	4308      	orrs	r0, r1
 80029e2:	6018      	str	r0, [r3, #0]
 80029e4:	2000      	movs	r0, #0
 80029e6:	7015      	strb	r5, [r2, #0]
 80029e8:	7020      	strb	r0, [r4, #0]
 80029ea:	bdf0      	pop	{r4, r5, r6, r7, pc}
 80029ec:	fffff0ff 	.word	0xfffff0ff

080029f0 <HAL_RCC_OscConfig>:
 80029f0:	b5f0      	push	{r4, r5, r6, r7, lr}
 80029f2:	0004      	movs	r4, r0
 80029f4:	b085      	sub	sp, #20
 80029f6:	2800      	cmp	r0, #0
 80029f8:	d045      	beq.n	8002a86 <HAL_RCC_OscConfig+0x96>
 80029fa:	6803      	ldr	r3, [r0, #0]
 80029fc:	07db      	lsls	r3, r3, #31
 80029fe:	d42f      	bmi.n	8002a60 <HAL_RCC_OscConfig+0x70>
 8002a00:	6823      	ldr	r3, [r4, #0]
 8002a02:	079b      	lsls	r3, r3, #30
 8002a04:	d500      	bpl.n	8002a08 <HAL_RCC_OscConfig+0x18>
 8002a06:	e081      	b.n	8002b0c <HAL_RCC_OscConfig+0x11c>
 8002a08:	6823      	ldr	r3, [r4, #0]
 8002a0a:	071b      	lsls	r3, r3, #28
 8002a0c:	d500      	bpl.n	8002a10 <HAL_RCC_OscConfig+0x20>
 8002a0e:	e0bc      	b.n	8002b8a <HAL_RCC_OscConfig+0x19a>
 8002a10:	6823      	ldr	r3, [r4, #0]
 8002a12:	075b      	lsls	r3, r3, #29
 8002a14:	d500      	bpl.n	8002a18 <HAL_RCC_OscConfig+0x28>
 8002a16:	e0df      	b.n	8002bd8 <HAL_RCC_OscConfig+0x1e8>
 8002a18:	6823      	ldr	r3, [r4, #0]
 8002a1a:	06db      	lsls	r3, r3, #27
 8002a1c:	d51a      	bpl.n	8002a54 <HAL_RCC_OscConfig+0x64>
 8002a1e:	6962      	ldr	r2, [r4, #20]
 8002a20:	2304      	movs	r3, #4
 8002a22:	4db5      	ldr	r5, [pc, #724]	; (8002cf8 <HAL_RCC_OscConfig+0x308>)
 8002a24:	2a01      	cmp	r2, #1
 8002a26:	d000      	beq.n	8002a2a <HAL_RCC_OscConfig+0x3a>
 8002a28:	e14a      	b.n	8002cc0 <HAL_RCC_OscConfig+0x2d0>
 8002a2a:	6b69      	ldr	r1, [r5, #52]	; 0x34
 8002a2c:	2702      	movs	r7, #2
 8002a2e:	430b      	orrs	r3, r1
 8002a30:	636b      	str	r3, [r5, #52]	; 0x34
 8002a32:	6b6b      	ldr	r3, [r5, #52]	; 0x34
 8002a34:	431a      	orrs	r2, r3
 8002a36:	636a      	str	r2, [r5, #52]	; 0x34
 8002a38:	f7fe fc04 	bl	8001244 <HAL_GetTick>
 8002a3c:	0006      	movs	r6, r0
 8002a3e:	6b6b      	ldr	r3, [r5, #52]	; 0x34
 8002a40:	423b      	tst	r3, r7
 8002a42:	d100      	bne.n	8002a46 <HAL_RCC_OscConfig+0x56>
 8002a44:	e135      	b.n	8002cb2 <HAL_RCC_OscConfig+0x2c2>
 8002a46:	21f8      	movs	r1, #248	; 0xf8
 8002a48:	6b6a      	ldr	r2, [r5, #52]	; 0x34
 8002a4a:	69a3      	ldr	r3, [r4, #24]
 8002a4c:	438a      	bics	r2, r1
 8002a4e:	00db      	lsls	r3, r3, #3
 8002a50:	4313      	orrs	r3, r2
 8002a52:	636b      	str	r3, [r5, #52]	; 0x34
 8002a54:	6a23      	ldr	r3, [r4, #32]
 8002a56:	2b00      	cmp	r3, #0
 8002a58:	d000      	beq.n	8002a5c <HAL_RCC_OscConfig+0x6c>
 8002a5a:	e159      	b.n	8002d10 <HAL_RCC_OscConfig+0x320>
 8002a5c:	2000      	movs	r0, #0
 8002a5e:	e02a      	b.n	8002ab6 <HAL_RCC_OscConfig+0xc6>
 8002a60:	210c      	movs	r1, #12
 8002a62:	4da5      	ldr	r5, [pc, #660]	; (8002cf8 <HAL_RCC_OscConfig+0x308>)
 8002a64:	686a      	ldr	r2, [r5, #4]
 8002a66:	400a      	ands	r2, r1
 8002a68:	2a04      	cmp	r2, #4
 8002a6a:	d006      	beq.n	8002a7a <HAL_RCC_OscConfig+0x8a>
 8002a6c:	686b      	ldr	r3, [r5, #4]
 8002a6e:	400b      	ands	r3, r1
 8002a70:	2b08      	cmp	r3, #8
 8002a72:	d10a      	bne.n	8002a8a <HAL_RCC_OscConfig+0x9a>
 8002a74:	686b      	ldr	r3, [r5, #4]
 8002a76:	03db      	lsls	r3, r3, #15
 8002a78:	d507      	bpl.n	8002a8a <HAL_RCC_OscConfig+0x9a>
 8002a7a:	682b      	ldr	r3, [r5, #0]
 8002a7c:	039b      	lsls	r3, r3, #14
 8002a7e:	d5bf      	bpl.n	8002a00 <HAL_RCC_OscConfig+0x10>
 8002a80:	6863      	ldr	r3, [r4, #4]
 8002a82:	2b00      	cmp	r3, #0
 8002a84:	d1bc      	bne.n	8002a00 <HAL_RCC_OscConfig+0x10>
 8002a86:	2001      	movs	r0, #1
 8002a88:	e015      	b.n	8002ab6 <HAL_RCC_OscConfig+0xc6>
 8002a8a:	6863      	ldr	r3, [r4, #4]
 8002a8c:	2b01      	cmp	r3, #1
 8002a8e:	d114      	bne.n	8002aba <HAL_RCC_OscConfig+0xca>
 8002a90:	2380      	movs	r3, #128	; 0x80
 8002a92:	682a      	ldr	r2, [r5, #0]
 8002a94:	025b      	lsls	r3, r3, #9
 8002a96:	4313      	orrs	r3, r2
 8002a98:	602b      	str	r3, [r5, #0]
 8002a9a:	f7fe fbd3 	bl	8001244 <HAL_GetTick>
 8002a9e:	2780      	movs	r7, #128	; 0x80
 8002aa0:	0006      	movs	r6, r0
 8002aa2:	02bf      	lsls	r7, r7, #10
 8002aa4:	682b      	ldr	r3, [r5, #0]
 8002aa6:	423b      	tst	r3, r7
 8002aa8:	d1aa      	bne.n	8002a00 <HAL_RCC_OscConfig+0x10>
 8002aaa:	f7fe fbcb 	bl	8001244 <HAL_GetTick>
 8002aae:	1b80      	subs	r0, r0, r6
 8002ab0:	2864      	cmp	r0, #100	; 0x64
 8002ab2:	d9f7      	bls.n	8002aa4 <HAL_RCC_OscConfig+0xb4>
 8002ab4:	2003      	movs	r0, #3
 8002ab6:	b005      	add	sp, #20
 8002ab8:	bdf0      	pop	{r4, r5, r6, r7, pc}
 8002aba:	2b00      	cmp	r3, #0
 8002abc:	d116      	bne.n	8002aec <HAL_RCC_OscConfig+0xfc>
 8002abe:	682b      	ldr	r3, [r5, #0]
 8002ac0:	4a8e      	ldr	r2, [pc, #568]	; (8002cfc <HAL_RCC_OscConfig+0x30c>)
 8002ac2:	2780      	movs	r7, #128	; 0x80
 8002ac4:	4013      	ands	r3, r2
 8002ac6:	602b      	str	r3, [r5, #0]
 8002ac8:	682b      	ldr	r3, [r5, #0]
 8002aca:	4a8d      	ldr	r2, [pc, #564]	; (8002d00 <HAL_RCC_OscConfig+0x310>)
 8002acc:	02bf      	lsls	r7, r7, #10
 8002ace:	4013      	ands	r3, r2
 8002ad0:	602b      	str	r3, [r5, #0]
 8002ad2:	f7fe fbb7 	bl	8001244 <HAL_GetTick>
 8002ad6:	0006      	movs	r6, r0
 8002ad8:	682b      	ldr	r3, [r5, #0]
 8002ada:	423b      	tst	r3, r7
 8002adc:	d100      	bne.n	8002ae0 <HAL_RCC_OscConfig+0xf0>
 8002ade:	e78f      	b.n	8002a00 <HAL_RCC_OscConfig+0x10>
 8002ae0:	f7fe fbb0 	bl	8001244 <HAL_GetTick>
 8002ae4:	1b80      	subs	r0, r0, r6
 8002ae6:	2864      	cmp	r0, #100	; 0x64
 8002ae8:	d9f6      	bls.n	8002ad8 <HAL_RCC_OscConfig+0xe8>
 8002aea:	e7e3      	b.n	8002ab4 <HAL_RCC_OscConfig+0xc4>
 8002aec:	2b05      	cmp	r3, #5
 8002aee:	d105      	bne.n	8002afc <HAL_RCC_OscConfig+0x10c>
 8002af0:	2380      	movs	r3, #128	; 0x80
 8002af2:	682a      	ldr	r2, [r5, #0]
 8002af4:	02db      	lsls	r3, r3, #11
 8002af6:	4313      	orrs	r3, r2
 8002af8:	602b      	str	r3, [r5, #0]
 8002afa:	e7c9      	b.n	8002a90 <HAL_RCC_OscConfig+0xa0>
 8002afc:	682b      	ldr	r3, [r5, #0]
 8002afe:	4a7f      	ldr	r2, [pc, #508]	; (8002cfc <HAL_RCC_OscConfig+0x30c>)
 8002b00:	4013      	ands	r3, r2
 8002b02:	602b      	str	r3, [r5, #0]
 8002b04:	682b      	ldr	r3, [r5, #0]
 8002b06:	4a7e      	ldr	r2, [pc, #504]	; (8002d00 <HAL_RCC_OscConfig+0x310>)
 8002b08:	4013      	ands	r3, r2
 8002b0a:	e7c5      	b.n	8002a98 <HAL_RCC_OscConfig+0xa8>
 8002b0c:	220c      	movs	r2, #12
 8002b0e:	4d7a      	ldr	r5, [pc, #488]	; (8002cf8 <HAL_RCC_OscConfig+0x308>)
 8002b10:	686b      	ldr	r3, [r5, #4]
 8002b12:	4213      	tst	r3, r2
 8002b14:	d006      	beq.n	8002b24 <HAL_RCC_OscConfig+0x134>
 8002b16:	686b      	ldr	r3, [r5, #4]
 8002b18:	4013      	ands	r3, r2
 8002b1a:	2b08      	cmp	r3, #8
 8002b1c:	d110      	bne.n	8002b40 <HAL_RCC_OscConfig+0x150>
 8002b1e:	686b      	ldr	r3, [r5, #4]
 8002b20:	03db      	lsls	r3, r3, #15
 8002b22:	d40d      	bmi.n	8002b40 <HAL_RCC_OscConfig+0x150>
 8002b24:	682b      	ldr	r3, [r5, #0]
 8002b26:	079b      	lsls	r3, r3, #30
 8002b28:	d502      	bpl.n	8002b30 <HAL_RCC_OscConfig+0x140>
 8002b2a:	68e3      	ldr	r3, [r4, #12]
 8002b2c:	2b01      	cmp	r3, #1
 8002b2e:	d1aa      	bne.n	8002a86 <HAL_RCC_OscConfig+0x96>
 8002b30:	21f8      	movs	r1, #248	; 0xf8
 8002b32:	682a      	ldr	r2, [r5, #0]
 8002b34:	6923      	ldr	r3, [r4, #16]
 8002b36:	438a      	bics	r2, r1
 8002b38:	00db      	lsls	r3, r3, #3
 8002b3a:	4313      	orrs	r3, r2
 8002b3c:	602b      	str	r3, [r5, #0]
 8002b3e:	e763      	b.n	8002a08 <HAL_RCC_OscConfig+0x18>
 8002b40:	68e2      	ldr	r2, [r4, #12]
 8002b42:	2301      	movs	r3, #1
 8002b44:	2a00      	cmp	r2, #0
 8002b46:	d00f      	beq.n	8002b68 <HAL_RCC_OscConfig+0x178>
 8002b48:	682a      	ldr	r2, [r5, #0]
 8002b4a:	2702      	movs	r7, #2
 8002b4c:	4313      	orrs	r3, r2
 8002b4e:	602b      	str	r3, [r5, #0]
 8002b50:	f7fe fb78 	bl	8001244 <HAL_GetTick>
 8002b54:	0006      	movs	r6, r0
 8002b56:	682b      	ldr	r3, [r5, #0]
 8002b58:	423b      	tst	r3, r7
 8002b5a:	d1e9      	bne.n	8002b30 <HAL_RCC_OscConfig+0x140>
 8002b5c:	f7fe fb72 	bl	8001244 <HAL_GetTick>
 8002b60:	1b80      	subs	r0, r0, r6
 8002b62:	2802      	cmp	r0, #2
 8002b64:	d9f7      	bls.n	8002b56 <HAL_RCC_OscConfig+0x166>
 8002b66:	e7a5      	b.n	8002ab4 <HAL_RCC_OscConfig+0xc4>
 8002b68:	682a      	ldr	r2, [r5, #0]
 8002b6a:	2702      	movs	r7, #2
 8002b6c:	439a      	bics	r2, r3
 8002b6e:	602a      	str	r2, [r5, #0]
 8002b70:	f7fe fb68 	bl	8001244 <HAL_GetTick>
 8002b74:	0006      	movs	r6, r0
 8002b76:	682b      	ldr	r3, [r5, #0]
 8002b78:	423b      	tst	r3, r7
 8002b7a:	d100      	bne.n	8002b7e <HAL_RCC_OscConfig+0x18e>
 8002b7c:	e744      	b.n	8002a08 <HAL_RCC_OscConfig+0x18>
 8002b7e:	f7fe fb61 	bl	8001244 <HAL_GetTick>
 8002b82:	1b80      	subs	r0, r0, r6
 8002b84:	2802      	cmp	r0, #2
 8002b86:	d9f6      	bls.n	8002b76 <HAL_RCC_OscConfig+0x186>
 8002b88:	e794      	b.n	8002ab4 <HAL_RCC_OscConfig+0xc4>
 8002b8a:	69e2      	ldr	r2, [r4, #28]
 8002b8c:	2301      	movs	r3, #1
 8002b8e:	4d5a      	ldr	r5, [pc, #360]	; (8002cf8 <HAL_RCC_OscConfig+0x308>)
 8002b90:	2a00      	cmp	r2, #0
 8002b92:	d010      	beq.n	8002bb6 <HAL_RCC_OscConfig+0x1c6>
 8002b94:	6a6a      	ldr	r2, [r5, #36]	; 0x24
 8002b96:	2702      	movs	r7, #2
 8002b98:	4313      	orrs	r3, r2
 8002b9a:	626b      	str	r3, [r5, #36]	; 0x24
 8002b9c:	f7fe fb52 	bl	8001244 <HAL_GetTick>
 8002ba0:	0006      	movs	r6, r0
 8002ba2:	6a6b      	ldr	r3, [r5, #36]	; 0x24
 8002ba4:	423b      	tst	r3, r7
 8002ba6:	d000      	beq.n	8002baa <HAL_RCC_OscConfig+0x1ba>
 8002ba8:	e732      	b.n	8002a10 <HAL_RCC_OscConfig+0x20>
 8002baa:	f7fe fb4b 	bl	8001244 <HAL_GetTick>
 8002bae:	1b80      	subs	r0, r0, r6
 8002bb0:	2802      	cmp	r0, #2
 8002bb2:	d9f6      	bls.n	8002ba2 <HAL_RCC_OscConfig+0x1b2>
 8002bb4:	e77e      	b.n	8002ab4 <HAL_RCC_OscConfig+0xc4>
 8002bb6:	6a6a      	ldr	r2, [r5, #36]	; 0x24
 8002bb8:	2702      	movs	r7, #2
 8002bba:	439a      	bics	r2, r3
 8002bbc:	626a      	str	r2, [r5, #36]	; 0x24
 8002bbe:	f7fe fb41 	bl	8001244 <HAL_GetTick>
 8002bc2:	0006      	movs	r6, r0
 8002bc4:	6a6b      	ldr	r3, [r5, #36]	; 0x24
 8002bc6:	423b      	tst	r3, r7
 8002bc8:	d100      	bne.n	8002bcc <HAL_RCC_OscConfig+0x1dc>
 8002bca:	e721      	b.n	8002a10 <HAL_RCC_OscConfig+0x20>
 8002bcc:	f7fe fb3a 	bl	8001244 <HAL_GetTick>
 8002bd0:	1b80      	subs	r0, r0, r6
 8002bd2:	2802      	cmp	r0, #2
 8002bd4:	d9f6      	bls.n	8002bc4 <HAL_RCC_OscConfig+0x1d4>
 8002bd6:	e76d      	b.n	8002ab4 <HAL_RCC_OscConfig+0xc4>
 8002bd8:	2280      	movs	r2, #128	; 0x80
 8002bda:	2100      	movs	r1, #0
 8002bdc:	4d46      	ldr	r5, [pc, #280]	; (8002cf8 <HAL_RCC_OscConfig+0x308>)
 8002bde:	0552      	lsls	r2, r2, #21
 8002be0:	69eb      	ldr	r3, [r5, #28]
 8002be2:	9100      	str	r1, [sp, #0]
 8002be4:	4213      	tst	r3, r2
 8002be6:	d108      	bne.n	8002bfa <HAL_RCC_OscConfig+0x20a>
 8002be8:	69eb      	ldr	r3, [r5, #28]
 8002bea:	4313      	orrs	r3, r2
 8002bec:	61eb      	str	r3, [r5, #28]
 8002bee:	69eb      	ldr	r3, [r5, #28]
 8002bf0:	4013      	ands	r3, r2
 8002bf2:	9303      	str	r3, [sp, #12]
 8002bf4:	9b03      	ldr	r3, [sp, #12]
 8002bf6:	2301      	movs	r3, #1
 8002bf8:	9300      	str	r3, [sp, #0]
 8002bfa:	2780      	movs	r7, #128	; 0x80
 8002bfc:	4e41      	ldr	r6, [pc, #260]	; (8002d04 <HAL_RCC_OscConfig+0x314>)
 8002bfe:	007f      	lsls	r7, r7, #1
 8002c00:	6833      	ldr	r3, [r6, #0]
 8002c02:	423b      	tst	r3, r7
 8002c04:	d006      	beq.n	8002c14 <HAL_RCC_OscConfig+0x224>
 8002c06:	68a3      	ldr	r3, [r4, #8]
 8002c08:	2b01      	cmp	r3, #1
 8002c0a:	d113      	bne.n	8002c34 <HAL_RCC_OscConfig+0x244>
 8002c0c:	6a2a      	ldr	r2, [r5, #32]
 8002c0e:	4313      	orrs	r3, r2
 8002c10:	622b      	str	r3, [r5, #32]
 8002c12:	e030      	b.n	8002c76 <HAL_RCC_OscConfig+0x286>
 8002c14:	6833      	ldr	r3, [r6, #0]
 8002c16:	433b      	orrs	r3, r7
 8002c18:	6033      	str	r3, [r6, #0]
 8002c1a:	f7fe fb13 	bl	8001244 <HAL_GetTick>
 8002c1e:	9001      	str	r0, [sp, #4]
 8002c20:	6833      	ldr	r3, [r6, #0]
 8002c22:	423b      	tst	r3, r7
 8002c24:	d1ef      	bne.n	8002c06 <HAL_RCC_OscConfig+0x216>
 8002c26:	f7fe fb0d 	bl	8001244 <HAL_GetTick>
 8002c2a:	9b01      	ldr	r3, [sp, #4]
 8002c2c:	1ac0      	subs	r0, r0, r3
 8002c2e:	2864      	cmp	r0, #100	; 0x64
 8002c30:	d9f6      	bls.n	8002c20 <HAL_RCC_OscConfig+0x230>
 8002c32:	e73f      	b.n	8002ab4 <HAL_RCC_OscConfig+0xc4>
 8002c34:	2201      	movs	r2, #1
 8002c36:	2b00      	cmp	r3, #0
 8002c38:	d114      	bne.n	8002c64 <HAL_RCC_OscConfig+0x274>
 8002c3a:	6a2b      	ldr	r3, [r5, #32]
 8002c3c:	2702      	movs	r7, #2
 8002c3e:	4393      	bics	r3, r2
 8002c40:	622b      	str	r3, [r5, #32]
 8002c42:	6a2b      	ldr	r3, [r5, #32]
 8002c44:	3203      	adds	r2, #3
 8002c46:	4393      	bics	r3, r2
 8002c48:	622b      	str	r3, [r5, #32]
 8002c4a:	f7fe fafb 	bl	8001244 <HAL_GetTick>
 8002c4e:	0006      	movs	r6, r0
 8002c50:	6a2b      	ldr	r3, [r5, #32]
 8002c52:	423b      	tst	r3, r7
 8002c54:	d016      	beq.n	8002c84 <HAL_RCC_OscConfig+0x294>
 8002c56:	f7fe faf5 	bl	8001244 <HAL_GetTick>
 8002c5a:	4b2b      	ldr	r3, [pc, #172]	; (8002d08 <HAL_RCC_OscConfig+0x318>)
 8002c5c:	1b80      	subs	r0, r0, r6
 8002c5e:	4298      	cmp	r0, r3
 8002c60:	d9f6      	bls.n	8002c50 <HAL_RCC_OscConfig+0x260>
 8002c62:	e727      	b.n	8002ab4 <HAL_RCC_OscConfig+0xc4>
 8002c64:	2b05      	cmp	r3, #5
 8002c66:	d116      	bne.n	8002c96 <HAL_RCC_OscConfig+0x2a6>
 8002c68:	6a29      	ldr	r1, [r5, #32]
 8002c6a:	3b01      	subs	r3, #1
 8002c6c:	430b      	orrs	r3, r1
 8002c6e:	622b      	str	r3, [r5, #32]
 8002c70:	6a2b      	ldr	r3, [r5, #32]
 8002c72:	431a      	orrs	r2, r3
 8002c74:	622a      	str	r2, [r5, #32]
 8002c76:	f7fe fae5 	bl	8001244 <HAL_GetTick>
 8002c7a:	2702      	movs	r7, #2
 8002c7c:	0006      	movs	r6, r0
 8002c7e:	6a2b      	ldr	r3, [r5, #32]
 8002c80:	423b      	tst	r3, r7
 8002c82:	d00f      	beq.n	8002ca4 <HAL_RCC_OscConfig+0x2b4>
 8002c84:	9b00      	ldr	r3, [sp, #0]
 8002c86:	2b01      	cmp	r3, #1
 8002c88:	d000      	beq.n	8002c8c <HAL_RCC_OscConfig+0x29c>
 8002c8a:	e6c5      	b.n	8002a18 <HAL_RCC_OscConfig+0x28>
 8002c8c:	69eb      	ldr	r3, [r5, #28]
 8002c8e:	4a1f      	ldr	r2, [pc, #124]	; (8002d0c <HAL_RCC_OscConfig+0x31c>)
 8002c90:	4013      	ands	r3, r2
 8002c92:	61eb      	str	r3, [r5, #28]
 8002c94:	e6c0      	b.n	8002a18 <HAL_RCC_OscConfig+0x28>
 8002c96:	6a2b      	ldr	r3, [r5, #32]
 8002c98:	4393      	bics	r3, r2
 8002c9a:	2204      	movs	r2, #4
 8002c9c:	622b      	str	r3, [r5, #32]
 8002c9e:	6a2b      	ldr	r3, [r5, #32]
 8002ca0:	4393      	bics	r3, r2
 8002ca2:	e7b5      	b.n	8002c10 <HAL_RCC_OscConfig+0x220>
 8002ca4:	f7fe face 	bl	8001244 <HAL_GetTick>
 8002ca8:	4b17      	ldr	r3, [pc, #92]	; (8002d08 <HAL_RCC_OscConfig+0x318>)
 8002caa:	1b80      	subs	r0, r0, r6
 8002cac:	4298      	cmp	r0, r3
 8002cae:	d9e6      	bls.n	8002c7e <HAL_RCC_OscConfig+0x28e>
 8002cb0:	e700      	b.n	8002ab4 <HAL_RCC_OscConfig+0xc4>
 8002cb2:	f7fe fac7 	bl	8001244 <HAL_GetTick>
 8002cb6:	1b80      	subs	r0, r0, r6
 8002cb8:	2802      	cmp	r0, #2
 8002cba:	d800      	bhi.n	8002cbe <HAL_RCC_OscConfig+0x2ce>
 8002cbc:	e6bf      	b.n	8002a3e <HAL_RCC_OscConfig+0x4e>
 8002cbe:	e6f9      	b.n	8002ab4 <HAL_RCC_OscConfig+0xc4>
 8002cc0:	3205      	adds	r2, #5
 8002cc2:	d103      	bne.n	8002ccc <HAL_RCC_OscConfig+0x2dc>
 8002cc4:	6b6a      	ldr	r2, [r5, #52]	; 0x34
 8002cc6:	439a      	bics	r2, r3
 8002cc8:	636a      	str	r2, [r5, #52]	; 0x34
 8002cca:	e6bc      	b.n	8002a46 <HAL_RCC_OscConfig+0x56>
 8002ccc:	6b6a      	ldr	r2, [r5, #52]	; 0x34
 8002cce:	2702      	movs	r7, #2
 8002cd0:	4313      	orrs	r3, r2
 8002cd2:	2201      	movs	r2, #1
 8002cd4:	636b      	str	r3, [r5, #52]	; 0x34
 8002cd6:	6b6b      	ldr	r3, [r5, #52]	; 0x34
 8002cd8:	4393      	bics	r3, r2
 8002cda:	636b      	str	r3, [r5, #52]	; 0x34
 8002cdc:	f7fe fab2 	bl	8001244 <HAL_GetTick>
 8002ce0:	0006      	movs	r6, r0
 8002ce2:	6b6b      	ldr	r3, [r5, #52]	; 0x34
 8002ce4:	423b      	tst	r3, r7
 8002ce6:	d100      	bne.n	8002cea <HAL_RCC_OscConfig+0x2fa>
 8002ce8:	e6b4      	b.n	8002a54 <HAL_RCC_OscConfig+0x64>
 8002cea:	f7fe faab 	bl	8001244 <HAL_GetTick>
 8002cee:	1b80      	subs	r0, r0, r6
 8002cf0:	2802      	cmp	r0, #2
 8002cf2:	d9f6      	bls.n	8002ce2 <HAL_RCC_OscConfig+0x2f2>
 8002cf4:	e6de      	b.n	8002ab4 <HAL_RCC_OscConfig+0xc4>
 8002cf6:	46c0      	nop			; (mov r8, r8)
 8002cf8:	40021000 	.word	0x40021000
 8002cfc:	fffeffff 	.word	0xfffeffff
 8002d00:	fffbffff 	.word	0xfffbffff
 8002d04:	40007000 	.word	0x40007000
 8002d08:	00001388 	.word	0x00001388
 8002d0c:	efffffff 	.word	0xefffffff
 8002d10:	210c      	movs	r1, #12
 8002d12:	4d34      	ldr	r5, [pc, #208]	; (8002de4 <HAL_RCC_OscConfig+0x3f4>)
 8002d14:	686a      	ldr	r2, [r5, #4]
 8002d16:	400a      	ands	r2, r1
 8002d18:	2a08      	cmp	r2, #8
 8002d1a:	d047      	beq.n	8002dac <HAL_RCC_OscConfig+0x3bc>
 8002d1c:	4a32      	ldr	r2, [pc, #200]	; (8002de8 <HAL_RCC_OscConfig+0x3f8>)
 8002d1e:	2b02      	cmp	r3, #2
 8002d20:	d132      	bne.n	8002d88 <HAL_RCC_OscConfig+0x398>
 8002d22:	682b      	ldr	r3, [r5, #0]
 8002d24:	2780      	movs	r7, #128	; 0x80
 8002d26:	4013      	ands	r3, r2
 8002d28:	602b      	str	r3, [r5, #0]
 8002d2a:	f7fe fa8b 	bl	8001244 <HAL_GetTick>
 8002d2e:	0006      	movs	r6, r0
 8002d30:	04bf      	lsls	r7, r7, #18
 8002d32:	682b      	ldr	r3, [r5, #0]
 8002d34:	423b      	tst	r3, r7
 8002d36:	d121      	bne.n	8002d7c <HAL_RCC_OscConfig+0x38c>
 8002d38:	220f      	movs	r2, #15
 8002d3a:	6aeb      	ldr	r3, [r5, #44]	; 0x2c
 8002d3c:	2680      	movs	r6, #128	; 0x80
 8002d3e:	4393      	bics	r3, r2
 8002d40:	6ae2      	ldr	r2, [r4, #44]	; 0x2c
 8002d42:	04b6      	lsls	r6, r6, #18
 8002d44:	4313      	orrs	r3, r2
 8002d46:	62eb      	str	r3, [r5, #44]	; 0x2c
 8002d48:	6a61      	ldr	r1, [r4, #36]	; 0x24
 8002d4a:	6aa3      	ldr	r3, [r4, #40]	; 0x28
 8002d4c:	686a      	ldr	r2, [r5, #4]
 8002d4e:	430b      	orrs	r3, r1
 8002d50:	4926      	ldr	r1, [pc, #152]	; (8002dec <HAL_RCC_OscConfig+0x3fc>)
 8002d52:	400a      	ands	r2, r1
 8002d54:	4313      	orrs	r3, r2
 8002d56:	606b      	str	r3, [r5, #4]
 8002d58:	2380      	movs	r3, #128	; 0x80
 8002d5a:	682a      	ldr	r2, [r5, #0]
 8002d5c:	045b      	lsls	r3, r3, #17
 8002d5e:	4313      	orrs	r3, r2
 8002d60:	602b      	str	r3, [r5, #0]
 8002d62:	f7fe fa6f 	bl	8001244 <HAL_GetTick>
 8002d66:	0004      	movs	r4, r0
 8002d68:	682b      	ldr	r3, [r5, #0]
 8002d6a:	4233      	tst	r3, r6
 8002d6c:	d000      	beq.n	8002d70 <HAL_RCC_OscConfig+0x380>
 8002d6e:	e675      	b.n	8002a5c <HAL_RCC_OscConfig+0x6c>
 8002d70:	f7fe fa68 	bl	8001244 <HAL_GetTick>
 8002d74:	1b00      	subs	r0, r0, r4
 8002d76:	2802      	cmp	r0, #2
 8002d78:	d9f6      	bls.n	8002d68 <HAL_RCC_OscConfig+0x378>
 8002d7a:	e69b      	b.n	8002ab4 <HAL_RCC_OscConfig+0xc4>
 8002d7c:	f7fe fa62 	bl	8001244 <HAL_GetTick>
 8002d80:	1b80      	subs	r0, r0, r6
 8002d82:	2802      	cmp	r0, #2
 8002d84:	d9d5      	bls.n	8002d32 <HAL_RCC_OscConfig+0x342>
 8002d86:	e695      	b.n	8002ab4 <HAL_RCC_OscConfig+0xc4>
 8002d88:	682b      	ldr	r3, [r5, #0]
 8002d8a:	2680      	movs	r6, #128	; 0x80
 8002d8c:	4013      	ands	r3, r2
 8002d8e:	602b      	str	r3, [r5, #0]
 8002d90:	f7fe fa58 	bl	8001244 <HAL_GetTick>
 8002d94:	0004      	movs	r4, r0
 8002d96:	04b6      	lsls	r6, r6, #18
 8002d98:	682b      	ldr	r3, [r5, #0]
 8002d9a:	4233      	tst	r3, r6
 8002d9c:	d100      	bne.n	8002da0 <HAL_RCC_OscConfig+0x3b0>
 8002d9e:	e65d      	b.n	8002a5c <HAL_RCC_OscConfig+0x6c>
 8002da0:	f7fe fa50 	bl	8001244 <HAL_GetTick>
 8002da4:	1b00      	subs	r0, r0, r4
 8002da6:	2802      	cmp	r0, #2
 8002da8:	d9f6      	bls.n	8002d98 <HAL_RCC_OscConfig+0x3a8>
 8002daa:	e683      	b.n	8002ab4 <HAL_RCC_OscConfig+0xc4>
 8002dac:	0018      	movs	r0, r3
 8002dae:	2b01      	cmp	r3, #1
 8002db0:	d100      	bne.n	8002db4 <HAL_RCC_OscConfig+0x3c4>
 8002db2:	e680      	b.n	8002ab6 <HAL_RCC_OscConfig+0xc6>
 8002db4:	2180      	movs	r1, #128	; 0x80
 8002db6:	686b      	ldr	r3, [r5, #4]
 8002db8:	6a60      	ldr	r0, [r4, #36]	; 0x24
 8002dba:	0249      	lsls	r1, r1, #9
 8002dbc:	6aea      	ldr	r2, [r5, #44]	; 0x2c
 8002dbe:	4019      	ands	r1, r3
 8002dc0:	4281      	cmp	r1, r0
 8002dc2:	d000      	beq.n	8002dc6 <HAL_RCC_OscConfig+0x3d6>
 8002dc4:	e65f      	b.n	8002a86 <HAL_RCC_OscConfig+0x96>
 8002dc6:	210f      	movs	r1, #15
 8002dc8:	400a      	ands	r2, r1
 8002dca:	6ae1      	ldr	r1, [r4, #44]	; 0x2c
 8002dcc:	428a      	cmp	r2, r1
 8002dce:	d000      	beq.n	8002dd2 <HAL_RCC_OscConfig+0x3e2>
 8002dd0:	e659      	b.n	8002a86 <HAL_RCC_OscConfig+0x96>
 8002dd2:	22f0      	movs	r2, #240	; 0xf0
 8002dd4:	0392      	lsls	r2, r2, #14
 8002dd6:	4013      	ands	r3, r2
 8002dd8:	6aa2      	ldr	r2, [r4, #40]	; 0x28
 8002dda:	4293      	cmp	r3, r2
 8002ddc:	d100      	bne.n	8002de0 <HAL_RCC_OscConfig+0x3f0>
 8002dde:	e63d      	b.n	8002a5c <HAL_RCC_OscConfig+0x6c>
 8002de0:	e651      	b.n	8002a86 <HAL_RCC_OscConfig+0x96>
 8002de2:	46c0      	nop			; (mov r8, r8)
 8002de4:	40021000 	.word	0x40021000
 8002de8:	feffffff 	.word	0xfeffffff
 8002dec:	ffc2ffff 	.word	0xffc2ffff

08002df0 <HAL_RCC_GetSysClockFreq>:
 8002df0:	220c      	movs	r2, #12
 8002df2:	b570      	push	{r4, r5, r6, lr}
 8002df4:	4d0c      	ldr	r5, [pc, #48]	; (8002e28 <HAL_RCC_GetSysClockFreq+0x38>)
 8002df6:	686b      	ldr	r3, [r5, #4]
 8002df8:	401a      	ands	r2, r3
 8002dfa:	2a08      	cmp	r2, #8
 8002dfc:	d111      	bne.n	8002e22 <HAL_RCC_GetSysClockFreq+0x32>
 8002dfe:	200f      	movs	r0, #15
 8002e00:	4a0a      	ldr	r2, [pc, #40]	; (8002e2c <HAL_RCC_GetSysClockFreq+0x3c>)
 8002e02:	0c99      	lsrs	r1, r3, #18
 8002e04:	4001      	ands	r1, r0
 8002e06:	5c54      	ldrb	r4, [r2, r1]
 8002e08:	6aea      	ldr	r2, [r5, #44]	; 0x2c
 8002e0a:	4909      	ldr	r1, [pc, #36]	; (8002e30 <HAL_RCC_GetSysClockFreq+0x40>)
 8002e0c:	4002      	ands	r2, r0
 8002e0e:	5c89      	ldrb	r1, [r1, r2]
 8002e10:	03db      	lsls	r3, r3, #15
 8002e12:	d504      	bpl.n	8002e1e <HAL_RCC_GetSysClockFreq+0x2e>
 8002e14:	4807      	ldr	r0, [pc, #28]	; (8002e34 <HAL_RCC_GetSysClockFreq+0x44>)
 8002e16:	f7fd f995 	bl	8000144 <__udivsi3>
 8002e1a:	4360      	muls	r0, r4
 8002e1c:	bd70      	pop	{r4, r5, r6, pc}
 8002e1e:	4806      	ldr	r0, [pc, #24]	; (8002e38 <HAL_RCC_GetSysClockFreq+0x48>)
 8002e20:	e7fb      	b.n	8002e1a <HAL_RCC_GetSysClockFreq+0x2a>
 8002e22:	4804      	ldr	r0, [pc, #16]	; (8002e34 <HAL_RCC_GetSysClockFreq+0x44>)
 8002e24:	e7fa      	b.n	8002e1c <HAL_RCC_GetSysClockFreq+0x2c>
 8002e26:	46c0      	nop			; (mov r8, r8)
 8002e28:	40021000 	.word	0x40021000
 8002e2c:	0800567a 	.word	0x0800567a
 8002e30:	0800568a 	.word	0x0800568a
 8002e34:	007a1200 	.word	0x007a1200
 8002e38:	003d0900 	.word	0x003d0900

08002e3c <HAL_RCC_ClockConfig>:
 8002e3c:	b5f7      	push	{r0, r1, r2, r4, r5, r6, r7, lr}
 8002e3e:	0004      	movs	r4, r0
 8002e40:	000e      	movs	r6, r1
 8002e42:	2800      	cmp	r0, #0
 8002e44:	d101      	bne.n	8002e4a <HAL_RCC_ClockConfig+0xe>
 8002e46:	2001      	movs	r0, #1
 8002e48:	bdfe      	pop	{r1, r2, r3, r4, r5, r6, r7, pc}
 8002e4a:	2201      	movs	r2, #1
 8002e4c:	4d37      	ldr	r5, [pc, #220]	; (8002f2c <HAL_RCC_ClockConfig+0xf0>)
 8002e4e:	682b      	ldr	r3, [r5, #0]
 8002e50:	4013      	ands	r3, r2
 8002e52:	428b      	cmp	r3, r1
 8002e54:	d31c      	bcc.n	8002e90 <HAL_RCC_ClockConfig+0x54>
 8002e56:	6821      	ldr	r1, [r4, #0]
 8002e58:	078b      	lsls	r3, r1, #30
 8002e5a:	d422      	bmi.n	8002ea2 <HAL_RCC_ClockConfig+0x66>
 8002e5c:	07cb      	lsls	r3, r1, #31
 8002e5e:	d42f      	bmi.n	8002ec0 <HAL_RCC_ClockConfig+0x84>
 8002e60:	2301      	movs	r3, #1
 8002e62:	682a      	ldr	r2, [r5, #0]
 8002e64:	401a      	ands	r2, r3
 8002e66:	42b2      	cmp	r2, r6
 8002e68:	d851      	bhi.n	8002f0e <HAL_RCC_ClockConfig+0xd2>
 8002e6a:	6823      	ldr	r3, [r4, #0]
 8002e6c:	4d30      	ldr	r5, [pc, #192]	; (8002f30 <HAL_RCC_ClockConfig+0xf4>)
 8002e6e:	075b      	lsls	r3, r3, #29
 8002e70:	d454      	bmi.n	8002f1c <HAL_RCC_ClockConfig+0xe0>
 8002e72:	f7ff ffbd 	bl	8002df0 <HAL_RCC_GetSysClockFreq>
 8002e76:	686b      	ldr	r3, [r5, #4]
 8002e78:	4a2e      	ldr	r2, [pc, #184]	; (8002f34 <HAL_RCC_ClockConfig+0xf8>)
 8002e7a:	061b      	lsls	r3, r3, #24
 8002e7c:	0f1b      	lsrs	r3, r3, #28
 8002e7e:	5cd3      	ldrb	r3, [r2, r3]
 8002e80:	40d8      	lsrs	r0, r3
 8002e82:	4b2d      	ldr	r3, [pc, #180]	; (8002f38 <HAL_RCC_ClockConfig+0xfc>)
 8002e84:	6018      	str	r0, [r3, #0]
 8002e86:	2003      	movs	r0, #3
 8002e88:	f7fe f99c 	bl	80011c4 <HAL_InitTick>
 8002e8c:	2000      	movs	r0, #0
 8002e8e:	e7db      	b.n	8002e48 <HAL_RCC_ClockConfig+0xc>
 8002e90:	682b      	ldr	r3, [r5, #0]
 8002e92:	4393      	bics	r3, r2
 8002e94:	430b      	orrs	r3, r1
 8002e96:	602b      	str	r3, [r5, #0]
 8002e98:	682b      	ldr	r3, [r5, #0]
 8002e9a:	4013      	ands	r3, r2
 8002e9c:	428b      	cmp	r3, r1
 8002e9e:	d1d2      	bne.n	8002e46 <HAL_RCC_ClockConfig+0xa>
 8002ea0:	e7d9      	b.n	8002e56 <HAL_RCC_ClockConfig+0x1a>
 8002ea2:	4a23      	ldr	r2, [pc, #140]	; (8002f30 <HAL_RCC_ClockConfig+0xf4>)
 8002ea4:	074b      	lsls	r3, r1, #29
 8002ea6:	d504      	bpl.n	8002eb2 <HAL_RCC_ClockConfig+0x76>
 8002ea8:	23e0      	movs	r3, #224	; 0xe0
 8002eaa:	6850      	ldr	r0, [r2, #4]
 8002eac:	00db      	lsls	r3, r3, #3
 8002eae:	4303      	orrs	r3, r0
 8002eb0:	6053      	str	r3, [r2, #4]
 8002eb2:	20f0      	movs	r0, #240	; 0xf0
 8002eb4:	6853      	ldr	r3, [r2, #4]
 8002eb6:	4383      	bics	r3, r0
 8002eb8:	68a0      	ldr	r0, [r4, #8]
 8002eba:	4303      	orrs	r3, r0
 8002ebc:	6053      	str	r3, [r2, #4]
 8002ebe:	e7cd      	b.n	8002e5c <HAL_RCC_ClockConfig+0x20>
 8002ec0:	4f1b      	ldr	r7, [pc, #108]	; (8002f30 <HAL_RCC_ClockConfig+0xf4>)
 8002ec2:	6862      	ldr	r2, [r4, #4]
 8002ec4:	683b      	ldr	r3, [r7, #0]
 8002ec6:	2a01      	cmp	r2, #1
 8002ec8:	d119      	bne.n	8002efe <HAL_RCC_ClockConfig+0xc2>
 8002eca:	039b      	lsls	r3, r3, #14
 8002ecc:	d5bb      	bpl.n	8002e46 <HAL_RCC_ClockConfig+0xa>
 8002ece:	2103      	movs	r1, #3
 8002ed0:	687b      	ldr	r3, [r7, #4]
 8002ed2:	438b      	bics	r3, r1
 8002ed4:	4313      	orrs	r3, r2
 8002ed6:	607b      	str	r3, [r7, #4]
 8002ed8:	f7fe f9b4 	bl	8001244 <HAL_GetTick>
 8002edc:	9001      	str	r0, [sp, #4]
 8002ede:	230c      	movs	r3, #12
 8002ee0:	687a      	ldr	r2, [r7, #4]
 8002ee2:	401a      	ands	r2, r3
 8002ee4:	6863      	ldr	r3, [r4, #4]
 8002ee6:	009b      	lsls	r3, r3, #2
 8002ee8:	429a      	cmp	r2, r3
 8002eea:	d0b9      	beq.n	8002e60 <HAL_RCC_ClockConfig+0x24>
 8002eec:	f7fe f9aa 	bl	8001244 <HAL_GetTick>
 8002ef0:	9b01      	ldr	r3, [sp, #4]
 8002ef2:	1ac0      	subs	r0, r0, r3
 8002ef4:	4b11      	ldr	r3, [pc, #68]	; (8002f3c <HAL_RCC_ClockConfig+0x100>)
 8002ef6:	4298      	cmp	r0, r3
 8002ef8:	d9f1      	bls.n	8002ede <HAL_RCC_ClockConfig+0xa2>
 8002efa:	2003      	movs	r0, #3
 8002efc:	e7a4      	b.n	8002e48 <HAL_RCC_ClockConfig+0xc>
 8002efe:	2a02      	cmp	r2, #2
 8002f00:	d102      	bne.n	8002f08 <HAL_RCC_ClockConfig+0xcc>
 8002f02:	019b      	lsls	r3, r3, #6
 8002f04:	d4e3      	bmi.n	8002ece <HAL_RCC_ClockConfig+0x92>
 8002f06:	e79e      	b.n	8002e46 <HAL_RCC_ClockConfig+0xa>
 8002f08:	079b      	lsls	r3, r3, #30
 8002f0a:	d4e0      	bmi.n	8002ece <HAL_RCC_ClockConfig+0x92>
 8002f0c:	e79b      	b.n	8002e46 <HAL_RCC_ClockConfig+0xa>
 8002f0e:	682a      	ldr	r2, [r5, #0]
 8002f10:	439a      	bics	r2, r3
 8002f12:	602a      	str	r2, [r5, #0]
 8002f14:	682a      	ldr	r2, [r5, #0]
 8002f16:	421a      	tst	r2, r3
 8002f18:	d0a7      	beq.n	8002e6a <HAL_RCC_ClockConfig+0x2e>
 8002f1a:	e794      	b.n	8002e46 <HAL_RCC_ClockConfig+0xa>
 8002f1c:	686b      	ldr	r3, [r5, #4]
 8002f1e:	4a08      	ldr	r2, [pc, #32]	; (8002f40 <HAL_RCC_ClockConfig+0x104>)
 8002f20:	4013      	ands	r3, r2
 8002f22:	68e2      	ldr	r2, [r4, #12]
 8002f24:	4313      	orrs	r3, r2
 8002f26:	606b      	str	r3, [r5, #4]
 8002f28:	e7a3      	b.n	8002e72 <HAL_RCC_ClockConfig+0x36>
 8002f2a:	46c0      	nop			; (mov r8, r8)
 8002f2c:	40022000 	.word	0x40022000
 8002f30:	40021000 	.word	0x40021000
 8002f34:	08005662 	.word	0x08005662
 8002f38:	20000000 	.word	0x20000000
 8002f3c:	00001388 	.word	0x00001388
 8002f40:	fffff8ff 	.word	0xfffff8ff

08002f44 <HAL_RCC_GetPCLK1Freq>:
 8002f44:	4b04      	ldr	r3, [pc, #16]	; (8002f58 <HAL_RCC_GetPCLK1Freq+0x14>)
 8002f46:	4a05      	ldr	r2, [pc, #20]	; (8002f5c <HAL_RCC_GetPCLK1Freq+0x18>)
 8002f48:	685b      	ldr	r3, [r3, #4]
 8002f4a:	055b      	lsls	r3, r3, #21
 8002f4c:	0f5b      	lsrs	r3, r3, #29
 8002f4e:	5cd3      	ldrb	r3, [r2, r3]
 8002f50:	4a03      	ldr	r2, [pc, #12]	; (8002f60 <HAL_RCC_GetPCLK1Freq+0x1c>)
 8002f52:	6810      	ldr	r0, [r2, #0]
 8002f54:	40d8      	lsrs	r0, r3
 8002f56:	4770      	bx	lr
 8002f58:	40021000 	.word	0x40021000
 8002f5c:	08005672 	.word	0x08005672
 8002f60:	20000000 	.word	0x20000000

08002f64 <HAL_RCCEx_PeriphCLKConfig>:
 8002f64:	b5f0      	push	{r4, r5, r6, r7, lr}
 8002f66:	6803      	ldr	r3, [r0, #0]
 8002f68:	0005      	movs	r5, r0
 8002f6a:	b085      	sub	sp, #20
 8002f6c:	03db      	lsls	r3, r3, #15
 8002f6e:	d52a      	bpl.n	8002fc6 <HAL_RCCEx_PeriphCLKConfig+0x62>
 8002f70:	2280      	movs	r2, #128	; 0x80
 8002f72:	2100      	movs	r1, #0
 8002f74:	4c38      	ldr	r4, [pc, #224]	; (8003058 <HAL_RCCEx_PeriphCLKConfig+0xf4>)
 8002f76:	0552      	lsls	r2, r2, #21
 8002f78:	69e3      	ldr	r3, [r4, #28]
 8002f7a:	9100      	str	r1, [sp, #0]
 8002f7c:	4213      	tst	r3, r2
 8002f7e:	d108      	bne.n	8002f92 <HAL_RCCEx_PeriphCLKConfig+0x2e>
 8002f80:	69e3      	ldr	r3, [r4, #28]
 8002f82:	4313      	orrs	r3, r2
 8002f84:	61e3      	str	r3, [r4, #28]
 8002f86:	69e3      	ldr	r3, [r4, #28]
 8002f88:	4013      	ands	r3, r2
 8002f8a:	9303      	str	r3, [sp, #12]
 8002f8c:	9b03      	ldr	r3, [sp, #12]
 8002f8e:	2301      	movs	r3, #1
 8002f90:	9300      	str	r3, [sp, #0]
 8002f92:	2780      	movs	r7, #128	; 0x80
 8002f94:	4e31      	ldr	r6, [pc, #196]	; (800305c <HAL_RCCEx_PeriphCLKConfig+0xf8>)
 8002f96:	007f      	lsls	r7, r7, #1
 8002f98:	6833      	ldr	r3, [r6, #0]
 8002f9a:	423b      	tst	r3, r7
 8002f9c:	d028      	beq.n	8002ff0 <HAL_RCCEx_PeriphCLKConfig+0x8c>
 8002f9e:	6a22      	ldr	r2, [r4, #32]
 8002fa0:	23c0      	movs	r3, #192	; 0xc0
 8002fa2:	0011      	movs	r1, r2
 8002fa4:	009b      	lsls	r3, r3, #2
 8002fa6:	4e2e      	ldr	r6, [pc, #184]	; (8003060 <HAL_RCCEx_PeriphCLKConfig+0xfc>)
 8002fa8:	4019      	ands	r1, r3
 8002faa:	421a      	tst	r2, r3
 8002fac:	d132      	bne.n	8003014 <HAL_RCCEx_PeriphCLKConfig+0xb0>
 8002fae:	6a23      	ldr	r3, [r4, #32]
 8002fb0:	401e      	ands	r6, r3
 8002fb2:	686b      	ldr	r3, [r5, #4]
 8002fb4:	431e      	orrs	r6, r3
 8002fb6:	9b00      	ldr	r3, [sp, #0]
 8002fb8:	6226      	str	r6, [r4, #32]
 8002fba:	2b01      	cmp	r3, #1
 8002fbc:	d103      	bne.n	8002fc6 <HAL_RCCEx_PeriphCLKConfig+0x62>
 8002fbe:	69e3      	ldr	r3, [r4, #28]
 8002fc0:	4a28      	ldr	r2, [pc, #160]	; (8003064 <HAL_RCCEx_PeriphCLKConfig+0x100>)
 8002fc2:	4013      	ands	r3, r2
 8002fc4:	61e3      	str	r3, [r4, #28]
 8002fc6:	682a      	ldr	r2, [r5, #0]
 8002fc8:	07d3      	lsls	r3, r2, #31
 8002fca:	d506      	bpl.n	8002fda <HAL_RCCEx_PeriphCLKConfig+0x76>
 8002fcc:	2003      	movs	r0, #3
 8002fce:	4922      	ldr	r1, [pc, #136]	; (8003058 <HAL_RCCEx_PeriphCLKConfig+0xf4>)
 8002fd0:	6b0b      	ldr	r3, [r1, #48]	; 0x30
 8002fd2:	4383      	bics	r3, r0
 8002fd4:	68a8      	ldr	r0, [r5, #8]
 8002fd6:	4303      	orrs	r3, r0
 8002fd8:	630b      	str	r3, [r1, #48]	; 0x30
 8002fda:	2000      	movs	r0, #0
 8002fdc:	0693      	lsls	r3, r2, #26
 8002fde:	d517      	bpl.n	8003010 <HAL_RCCEx_PeriphCLKConfig+0xac>
 8002fe0:	2110      	movs	r1, #16
 8002fe2:	4a1d      	ldr	r2, [pc, #116]	; (8003058 <HAL_RCCEx_PeriphCLKConfig+0xf4>)
 8002fe4:	6b13      	ldr	r3, [r2, #48]	; 0x30
 8002fe6:	438b      	bics	r3, r1
 8002fe8:	68e9      	ldr	r1, [r5, #12]
 8002fea:	430b      	orrs	r3, r1
 8002fec:	6313      	str	r3, [r2, #48]	; 0x30
 8002fee:	e00f      	b.n	8003010 <HAL_RCCEx_PeriphCLKConfig+0xac>
 8002ff0:	6833      	ldr	r3, [r6, #0]
 8002ff2:	433b      	orrs	r3, r7
 8002ff4:	6033      	str	r3, [r6, #0]
 8002ff6:	f7fe f925 	bl	8001244 <HAL_GetTick>
 8002ffa:	9001      	str	r0, [sp, #4]
 8002ffc:	6833      	ldr	r3, [r6, #0]
 8002ffe:	423b      	tst	r3, r7
 8003000:	d1cd      	bne.n	8002f9e <HAL_RCCEx_PeriphCLKConfig+0x3a>
 8003002:	f7fe f91f 	bl	8001244 <HAL_GetTick>
 8003006:	9b01      	ldr	r3, [sp, #4]
 8003008:	1ac0      	subs	r0, r0, r3
 800300a:	2864      	cmp	r0, #100	; 0x64
 800300c:	d9f6      	bls.n	8002ffc <HAL_RCCEx_PeriphCLKConfig+0x98>
 800300e:	2003      	movs	r0, #3
 8003010:	b005      	add	sp, #20
 8003012:	bdf0      	pop	{r4, r5, r6, r7, pc}
 8003014:	686a      	ldr	r2, [r5, #4]
 8003016:	4013      	ands	r3, r2
 8003018:	428b      	cmp	r3, r1
 800301a:	d0c8      	beq.n	8002fae <HAL_RCCEx_PeriphCLKConfig+0x4a>
 800301c:	2380      	movs	r3, #128	; 0x80
 800301e:	6a22      	ldr	r2, [r4, #32]
 8003020:	6a20      	ldr	r0, [r4, #32]
 8003022:	0011      	movs	r1, r2
 8003024:	025b      	lsls	r3, r3, #9
 8003026:	4303      	orrs	r3, r0
 8003028:	6223      	str	r3, [r4, #32]
 800302a:	6a23      	ldr	r3, [r4, #32]
 800302c:	480e      	ldr	r0, [pc, #56]	; (8003068 <HAL_RCCEx_PeriphCLKConfig+0x104>)
 800302e:	4031      	ands	r1, r6
 8003030:	4003      	ands	r3, r0
 8003032:	6223      	str	r3, [r4, #32]
 8003034:	6221      	str	r1, [r4, #32]
 8003036:	07d3      	lsls	r3, r2, #31
 8003038:	d5b9      	bpl.n	8002fae <HAL_RCCEx_PeriphCLKConfig+0x4a>
 800303a:	f7fe f903 	bl	8001244 <HAL_GetTick>
 800303e:	0007      	movs	r7, r0
 8003040:	2202      	movs	r2, #2
 8003042:	6a23      	ldr	r3, [r4, #32]
 8003044:	4213      	tst	r3, r2
 8003046:	d1b2      	bne.n	8002fae <HAL_RCCEx_PeriphCLKConfig+0x4a>
 8003048:	f7fe f8fc 	bl	8001244 <HAL_GetTick>
 800304c:	4b07      	ldr	r3, [pc, #28]	; (800306c <HAL_RCCEx_PeriphCLKConfig+0x108>)
 800304e:	1bc0      	subs	r0, r0, r7
 8003050:	4298      	cmp	r0, r3
 8003052:	d9f5      	bls.n	8003040 <HAL_RCCEx_PeriphCLKConfig+0xdc>
 8003054:	e7db      	b.n	800300e <HAL_RCCEx_PeriphCLKConfig+0xaa>
 8003056:	46c0      	nop			; (mov r8, r8)
 8003058:	40021000 	.word	0x40021000
 800305c:	40007000 	.word	0x40007000
 8003060:	fffffcff 	.word	0xfffffcff
 8003064:	efffffff 	.word	0xefffffff
 8003068:	fffeffff 	.word	0xfffeffff
 800306c:	00001388 	.word	0x00001388

08003070 <SPI_WaitFifoStateUntilTimeout.constprop.0>:
 8003070:	b5f0      	push	{r4, r5, r6, r7, lr}
 8003072:	0017      	movs	r7, r2
 8003074:	2200      	movs	r2, #0
 8003076:	b085      	sub	sp, #20
 8003078:	001d      	movs	r5, r3
 800307a:	ab02      	add	r3, sp, #8
 800307c:	70da      	strb	r2, [r3, #3]
 800307e:	0004      	movs	r4, r0
 8003080:	000e      	movs	r6, r1
 8003082:	f7fe f8df 	bl	8001244 <HAL_GetTick>
 8003086:	19ed      	adds	r5, r5, r7
 8003088:	1a2d      	subs	r5, r5, r0
 800308a:	f7fe f8db 	bl	8001244 <HAL_GetTick>
 800308e:	2223      	movs	r2, #35	; 0x23
 8003090:	6823      	ldr	r3, [r4, #0]
 8003092:	9000      	str	r0, [sp, #0]
 8003094:	9301      	str	r3, [sp, #4]
 8003096:	4b2a      	ldr	r3, [pc, #168]	; (8003140 <SPI_WaitFifoStateUntilTimeout.constprop.0+0xd0>)
 8003098:	681b      	ldr	r3, [r3, #0]
 800309a:	4353      	muls	r3, r2
 800309c:	0d1b      	lsrs	r3, r3, #20
 800309e:	436b      	muls	r3, r5
 80030a0:	9303      	str	r3, [sp, #12]
 80030a2:	6821      	ldr	r1, [r4, #0]
 80030a4:	ab02      	add	r3, sp, #8
 80030a6:	1cda      	adds	r2, r3, #3
 80030a8:	688b      	ldr	r3, [r1, #8]
 80030aa:	0018      	movs	r0, r3
 80030ac:	4030      	ands	r0, r6
 80030ae:	4233      	tst	r3, r6
 80030b0:	d03b      	beq.n	800312a <SPI_WaitFifoStateUntilTimeout.constprop.0+0xba>
 80030b2:	23c0      	movs	r3, #192	; 0xc0
 80030b4:	00db      	lsls	r3, r3, #3
 80030b6:	429e      	cmp	r6, r3
 80030b8:	d104      	bne.n	80030c4 <SPI_WaitFifoStateUntilTimeout.constprop.0+0x54>
 80030ba:	9b01      	ldr	r3, [sp, #4]
 80030bc:	7b1b      	ldrb	r3, [r3, #12]
 80030be:	b2db      	uxtb	r3, r3
 80030c0:	7013      	strb	r3, [r2, #0]
 80030c2:	7813      	ldrb	r3, [r2, #0]
 80030c4:	1c7b      	adds	r3, r7, #1
 80030c6:	d0ef      	beq.n	80030a8 <SPI_WaitFifoStateUntilTimeout.constprop.0+0x38>
 80030c8:	f7fe f8bc 	bl	8001244 <HAL_GetTick>
 80030cc:	9b00      	ldr	r3, [sp, #0]
 80030ce:	1ac0      	subs	r0, r0, r3
 80030d0:	42a8      	cmp	r0, r5
 80030d2:	d32c      	bcc.n	800312e <SPI_WaitFifoStateUntilTimeout.constprop.0+0xbe>
 80030d4:	21e0      	movs	r1, #224	; 0xe0
 80030d6:	6823      	ldr	r3, [r4, #0]
 80030d8:	685a      	ldr	r2, [r3, #4]
 80030da:	438a      	bics	r2, r1
 80030dc:	605a      	str	r2, [r3, #4]
 80030de:	2282      	movs	r2, #130	; 0x82
 80030e0:	6861      	ldr	r1, [r4, #4]
 80030e2:	0052      	lsls	r2, r2, #1
 80030e4:	4291      	cmp	r1, r2
 80030e6:	d10c      	bne.n	8003102 <SPI_WaitFifoStateUntilTimeout.constprop.0+0x92>
 80030e8:	2180      	movs	r1, #128	; 0x80
 80030ea:	68a2      	ldr	r2, [r4, #8]
 80030ec:	0209      	lsls	r1, r1, #8
 80030ee:	428a      	cmp	r2, r1
 80030f0:	d003      	beq.n	80030fa <SPI_WaitFifoStateUntilTimeout.constprop.0+0x8a>
 80030f2:	2180      	movs	r1, #128	; 0x80
 80030f4:	00c9      	lsls	r1, r1, #3
 80030f6:	428a      	cmp	r2, r1
 80030f8:	d103      	bne.n	8003102 <SPI_WaitFifoStateUntilTimeout.constprop.0+0x92>
 80030fa:	2140      	movs	r1, #64	; 0x40
 80030fc:	681a      	ldr	r2, [r3, #0]
 80030fe:	438a      	bics	r2, r1
 8003100:	601a      	str	r2, [r3, #0]
 8003102:	2180      	movs	r1, #128	; 0x80
 8003104:	6aa2      	ldr	r2, [r4, #40]	; 0x28
 8003106:	0189      	lsls	r1, r1, #6
 8003108:	428a      	cmp	r2, r1
 800310a:	d106      	bne.n	800311a <SPI_WaitFifoStateUntilTimeout.constprop.0+0xaa>
 800310c:	6819      	ldr	r1, [r3, #0]
 800310e:	480d      	ldr	r0, [pc, #52]	; (8003144 <SPI_WaitFifoStateUntilTimeout.constprop.0+0xd4>)
 8003110:	4001      	ands	r1, r0
 8003112:	6019      	str	r1, [r3, #0]
 8003114:	6819      	ldr	r1, [r3, #0]
 8003116:	430a      	orrs	r2, r1
 8003118:	601a      	str	r2, [r3, #0]
 800311a:	0023      	movs	r3, r4
 800311c:	2201      	movs	r2, #1
 800311e:	335d      	adds	r3, #93	; 0x5d
 8003120:	701a      	strb	r2, [r3, #0]
 8003122:	2300      	movs	r3, #0
 8003124:	2003      	movs	r0, #3
 8003126:	345c      	adds	r4, #92	; 0x5c
 8003128:	7023      	strb	r3, [r4, #0]
 800312a:	b005      	add	sp, #20
 800312c:	bdf0      	pop	{r4, r5, r6, r7, pc}
 800312e:	9b03      	ldr	r3, [sp, #12]
 8003130:	1e5a      	subs	r2, r3, #1
 8003132:	4193      	sbcs	r3, r2
 8003134:	425b      	negs	r3, r3
 8003136:	401d      	ands	r5, r3
 8003138:	9b03      	ldr	r3, [sp, #12]
 800313a:	3b01      	subs	r3, #1
 800313c:	e7b0      	b.n	80030a0 <SPI_WaitFifoStateUntilTimeout.constprop.0+0x30>
 800313e:	46c0      	nop			; (mov r8, r8)
 8003140:	20000000 	.word	0x20000000
 8003144:	ffffdfff 	.word	0xffffdfff

08003148 <SPI_WaitFlagStateUntilTimeout.constprop.0>:
 8003148:	b5f0      	push	{r4, r5, r6, r7, lr}
 800314a:	000e      	movs	r6, r1
 800314c:	b085      	sub	sp, #20
 800314e:	0015      	movs	r5, r2
 8003150:	0004      	movs	r4, r0
 8003152:	f7fe f877 	bl	8001244 <HAL_GetTick>
 8003156:	19ad      	adds	r5, r5, r6
 8003158:	1a2d      	subs	r5, r5, r0
 800315a:	f7fe f873 	bl	8001244 <HAL_GetTick>
 800315e:	2780      	movs	r7, #128	; 0x80
 8003160:	4b25      	ldr	r3, [pc, #148]	; (80031f8 <SPI_WaitFlagStateUntilTimeout.constprop.0+0xb0>)
 8003162:	9001      	str	r0, [sp, #4]
 8003164:	681b      	ldr	r3, [r3, #0]
 8003166:	015b      	lsls	r3, r3, #5
 8003168:	0d1b      	lsrs	r3, r3, #20
 800316a:	436b      	muls	r3, r5
 800316c:	9303      	str	r3, [sp, #12]
 800316e:	6822      	ldr	r2, [r4, #0]
 8003170:	6893      	ldr	r3, [r2, #8]
 8003172:	0018      	movs	r0, r3
 8003174:	4038      	ands	r0, r7
 8003176:	423b      	tst	r3, r7
 8003178:	d032      	beq.n	80031e0 <SPI_WaitFlagStateUntilTimeout.constprop.0+0x98>
 800317a:	1c73      	adds	r3, r6, #1
 800317c:	d0f8      	beq.n	8003170 <SPI_WaitFlagStateUntilTimeout.constprop.0+0x28>
 800317e:	f7fe f861 	bl	8001244 <HAL_GetTick>
 8003182:	9b01      	ldr	r3, [sp, #4]
 8003184:	1ac0      	subs	r0, r0, r3
 8003186:	42a8      	cmp	r0, r5
 8003188:	d32c      	bcc.n	80031e4 <SPI_WaitFlagStateUntilTimeout.constprop.0+0x9c>
 800318a:	21e0      	movs	r1, #224	; 0xe0
 800318c:	6823      	ldr	r3, [r4, #0]
 800318e:	685a      	ldr	r2, [r3, #4]
 8003190:	438a      	bics	r2, r1
 8003192:	605a      	str	r2, [r3, #4]
 8003194:	2282      	movs	r2, #130	; 0x82
 8003196:	6861      	ldr	r1, [r4, #4]
 8003198:	0052      	lsls	r2, r2, #1
 800319a:	4291      	cmp	r1, r2
 800319c:	d10c      	bne.n	80031b8 <SPI_WaitFlagStateUntilTimeout.constprop.0+0x70>
 800319e:	2180      	movs	r1, #128	; 0x80
 80031a0:	68a2      	ldr	r2, [r4, #8]
 80031a2:	0209      	lsls	r1, r1, #8
 80031a4:	428a      	cmp	r2, r1
 80031a6:	d003      	beq.n	80031b0 <SPI_WaitFlagStateUntilTimeout.constprop.0+0x68>
 80031a8:	2180      	movs	r1, #128	; 0x80
 80031aa:	00c9      	lsls	r1, r1, #3
 80031ac:	428a      	cmp	r2, r1
 80031ae:	d103      	bne.n	80031b8 <SPI_WaitFlagStateUntilTimeout.constprop.0+0x70>
 80031b0:	2140      	movs	r1, #64	; 0x40
 80031b2:	681a      	ldr	r2, [r3, #0]
 80031b4:	438a      	bics	r2, r1
 80031b6:	601a      	str	r2, [r3, #0]
 80031b8:	2180      	movs	r1, #128	; 0x80
 80031ba:	6aa2      	ldr	r2, [r4, #40]	; 0x28
 80031bc:	0189      	lsls	r1, r1, #6
 80031be:	428a      	cmp	r2, r1
 80031c0:	d106      	bne.n	80031d0 <SPI_WaitFlagStateUntilTimeout.constprop.0+0x88>
 80031c2:	6819      	ldr	r1, [r3, #0]
 80031c4:	480d      	ldr	r0, [pc, #52]	; (80031fc <SPI_WaitFlagStateUntilTimeout.constprop.0+0xb4>)
 80031c6:	4001      	ands	r1, r0
 80031c8:	6019      	str	r1, [r3, #0]
 80031ca:	6819      	ldr	r1, [r3, #0]
 80031cc:	430a      	orrs	r2, r1
 80031ce:	601a      	str	r2, [r3, #0]
 80031d0:	0023      	movs	r3, r4
 80031d2:	2201      	movs	r2, #1
 80031d4:	335d      	adds	r3, #93	; 0x5d
 80031d6:	701a      	strb	r2, [r3, #0]
 80031d8:	2300      	movs	r3, #0
 80031da:	2003      	movs	r0, #3
 80031dc:	345c      	adds	r4, #92	; 0x5c
 80031de:	7023      	strb	r3, [r4, #0]
 80031e0:	b005      	add	sp, #20
 80031e2:	bdf0      	pop	{r4, r5, r6, r7, pc}
 80031e4:	9b03      	ldr	r3, [sp, #12]
 80031e6:	1e5a      	subs	r2, r3, #1
 80031e8:	4193      	sbcs	r3, r2
 80031ea:	425b      	negs	r3, r3
 80031ec:	401d      	ands	r5, r3
 80031ee:	9b03      	ldr	r3, [sp, #12]
 80031f0:	3b01      	subs	r3, #1
 80031f2:	9303      	str	r3, [sp, #12]
 80031f4:	e7bb      	b.n	800316e <SPI_WaitFlagStateUntilTimeout.constprop.0+0x26>
 80031f6:	46c0      	nop			; (mov r8, r8)
 80031f8:	20000000 	.word	0x20000000
 80031fc:	ffffdfff 	.word	0xffffdfff

08003200 <SPI_EndRxTxTransaction>:
 8003200:	b570      	push	{r4, r5, r6, lr}
 8003202:	0013      	movs	r3, r2
 8003204:	000d      	movs	r5, r1
 8003206:	0016      	movs	r6, r2
 8003208:	000a      	movs	r2, r1
 800320a:	21c0      	movs	r1, #192	; 0xc0
 800320c:	0149      	lsls	r1, r1, #5
 800320e:	0004      	movs	r4, r0
 8003210:	f7ff ff2e 	bl	8003070 <SPI_WaitFifoStateUntilTimeout.constprop.0>
 8003214:	2800      	cmp	r0, #0
 8003216:	d005      	beq.n	8003224 <SPI_EndRxTxTransaction+0x24>
 8003218:	2320      	movs	r3, #32
 800321a:	6e22      	ldr	r2, [r4, #96]	; 0x60
 800321c:	2003      	movs	r0, #3
 800321e:	4313      	orrs	r3, r2
 8003220:	6623      	str	r3, [r4, #96]	; 0x60
 8003222:	e00f      	b.n	8003244 <SPI_EndRxTxTransaction+0x44>
 8003224:	0032      	movs	r2, r6
 8003226:	0029      	movs	r1, r5
 8003228:	0020      	movs	r0, r4
 800322a:	f7ff ff8d 	bl	8003148 <SPI_WaitFlagStateUntilTimeout.constprop.0>
 800322e:	2800      	cmp	r0, #0
 8003230:	d1f2      	bne.n	8003218 <SPI_EndRxTxTransaction+0x18>
 8003232:	21c0      	movs	r1, #192	; 0xc0
 8003234:	0033      	movs	r3, r6
 8003236:	002a      	movs	r2, r5
 8003238:	0020      	movs	r0, r4
 800323a:	00c9      	lsls	r1, r1, #3
 800323c:	f7ff ff18 	bl	8003070 <SPI_WaitFifoStateUntilTimeout.constprop.0>
 8003240:	2800      	cmp	r0, #0
 8003242:	d1e9      	bne.n	8003218 <SPI_EndRxTxTransaction+0x18>
 8003244:	bd70      	pop	{r4, r5, r6, pc}
	...

08003248 <HAL_SPI_Init>:
 8003248:	b5f8      	push	{r3, r4, r5, r6, r7, lr}
 800324a:	0004      	movs	r4, r0
 800324c:	2001      	movs	r0, #1
 800324e:	2c00      	cmp	r4, #0
 8003250:	d067      	beq.n	8003322 <HAL_SPI_Init+0xda>
 8003252:	6a63      	ldr	r3, [r4, #36]	; 0x24
 8003254:	2b00      	cmp	r3, #0
 8003256:	d165      	bne.n	8003324 <HAL_SPI_Init+0xdc>
 8003258:	2282      	movs	r2, #130	; 0x82
 800325a:	6861      	ldr	r1, [r4, #4]
 800325c:	0052      	lsls	r2, r2, #1
 800325e:	4291      	cmp	r1, r2
 8003260:	d000      	beq.n	8003264 <HAL_SPI_Init+0x1c>
 8003262:	61e3      	str	r3, [r4, #28]
 8003264:	2300      	movs	r3, #0
 8003266:	0025      	movs	r5, r4
 8003268:	62a3      	str	r3, [r4, #40]	; 0x28
 800326a:	355d      	adds	r5, #93	; 0x5d
 800326c:	782b      	ldrb	r3, [r5, #0]
 800326e:	b2da      	uxtb	r2, r3
 8003270:	2b00      	cmp	r3, #0
 8003272:	d105      	bne.n	8003280 <HAL_SPI_Init+0x38>
 8003274:	0023      	movs	r3, r4
 8003276:	335c      	adds	r3, #92	; 0x5c
 8003278:	0020      	movs	r0, r4
 800327a:	701a      	strb	r2, [r3, #0]
 800327c:	f7fd fde8 	bl	8000e50 <HAL_SPI_MspInit>
 8003280:	2302      	movs	r3, #2
 8003282:	2140      	movs	r1, #64	; 0x40
 8003284:	702b      	strb	r3, [r5, #0]
 8003286:	6822      	ldr	r2, [r4, #0]
 8003288:	68e5      	ldr	r5, [r4, #12]
 800328a:	6813      	ldr	r3, [r2, #0]
 800328c:	438b      	bics	r3, r1
 800328e:	21e0      	movs	r1, #224	; 0xe0
 8003290:	6013      	str	r3, [r2, #0]
 8003292:	00c9      	lsls	r1, r1, #3
 8003294:	2300      	movs	r3, #0
 8003296:	428d      	cmp	r5, r1
 8003298:	d848      	bhi.n	800332c <HAL_SPI_Init+0xe4>
 800329a:	2080      	movs	r0, #128	; 0x80
 800329c:	0140      	lsls	r0, r0, #5
 800329e:	428d      	cmp	r5, r1
 80032a0:	d000      	beq.n	80032a4 <HAL_SPI_Init+0x5c>
 80032a2:	62a3      	str	r3, [r4, #40]	; 0x28
 80032a4:	2382      	movs	r3, #130	; 0x82
 80032a6:	6866      	ldr	r6, [r4, #4]
 80032a8:	005b      	lsls	r3, r3, #1
 80032aa:	4033      	ands	r3, r6
 80032ac:	2684      	movs	r6, #132	; 0x84
 80032ae:	68a7      	ldr	r7, [r4, #8]
 80032b0:	0236      	lsls	r6, r6, #8
 80032b2:	403e      	ands	r6, r7
 80032b4:	4333      	orrs	r3, r6
 80032b6:	2602      	movs	r6, #2
 80032b8:	6927      	ldr	r7, [r4, #16]
 80032ba:	69a1      	ldr	r1, [r4, #24]
 80032bc:	403e      	ands	r6, r7
 80032be:	4333      	orrs	r3, r6
 80032c0:	2601      	movs	r6, #1
 80032c2:	6967      	ldr	r7, [r4, #20]
 80032c4:	46b4      	mov	ip, r6
 80032c6:	4037      	ands	r7, r6
 80032c8:	433b      	orrs	r3, r7
 80032ca:	2780      	movs	r7, #128	; 0x80
 80032cc:	00bf      	lsls	r7, r7, #2
 80032ce:	400f      	ands	r7, r1
 80032d0:	433b      	orrs	r3, r7
 80032d2:	2738      	movs	r7, #56	; 0x38
 80032d4:	69e6      	ldr	r6, [r4, #28]
 80032d6:	0c09      	lsrs	r1, r1, #16
 80032d8:	4037      	ands	r7, r6
 80032da:	433b      	orrs	r3, r7
 80032dc:	2780      	movs	r7, #128	; 0x80
 80032de:	6a26      	ldr	r6, [r4, #32]
 80032e0:	4037      	ands	r7, r6
 80032e2:	433b      	orrs	r3, r7
 80032e4:	2780      	movs	r7, #128	; 0x80
 80032e6:	6aa6      	ldr	r6, [r4, #40]	; 0x28
 80032e8:	01bf      	lsls	r7, r7, #6
 80032ea:	4037      	ands	r7, r6
 80032ec:	433b      	orrs	r3, r7
 80032ee:	6013      	str	r3, [r2, #0]
 80032f0:	2310      	movs	r3, #16
 80032f2:	2708      	movs	r7, #8
 80032f4:	6a66      	ldr	r6, [r4, #36]	; 0x24
 80032f6:	4033      	ands	r3, r6
 80032f8:	6b66      	ldr	r6, [r4, #52]	; 0x34
 80032fa:	4037      	ands	r7, r6
 80032fc:	433b      	orrs	r3, r7
 80032fe:	27f0      	movs	r7, #240	; 0xf0
 8003300:	013f      	lsls	r7, r7, #4
 8003302:	403d      	ands	r5, r7
 8003304:	431d      	orrs	r5, r3
 8003306:	2304      	movs	r3, #4
 8003308:	4019      	ands	r1, r3
 800330a:	4329      	orrs	r1, r5
 800330c:	4308      	orrs	r0, r1
 800330e:	6050      	str	r0, [r2, #4]
 8003310:	69d3      	ldr	r3, [r2, #28]
 8003312:	4908      	ldr	r1, [pc, #32]	; (8003334 <HAL_SPI_Init+0xec>)
 8003314:	2000      	movs	r0, #0
 8003316:	400b      	ands	r3, r1
 8003318:	61d3      	str	r3, [r2, #28]
 800331a:	4663      	mov	r3, ip
 800331c:	6620      	str	r0, [r4, #96]	; 0x60
 800331e:	345d      	adds	r4, #93	; 0x5d
 8003320:	7023      	strb	r3, [r4, #0]
 8003322:	bdf8      	pop	{r3, r4, r5, r6, r7, pc}
 8003324:	2300      	movs	r3, #0
 8003326:	6123      	str	r3, [r4, #16]
 8003328:	6163      	str	r3, [r4, #20]
 800332a:	e79b      	b.n	8003264 <HAL_SPI_Init+0x1c>
 800332c:	21f0      	movs	r1, #240	; 0xf0
 800332e:	0018      	movs	r0, r3
 8003330:	0109      	lsls	r1, r1, #4
 8003332:	e7b4      	b.n	800329e <HAL_SPI_Init+0x56>
 8003334:	fffff7ff 	.word	0xfffff7ff

08003338 <HAL_SPI_TransmitReceive>:
 8003338:	b5f7      	push	{r0, r1, r2, r4, r5, r6, r7, lr}
 800333a:	001e      	movs	r6, r3
 800333c:	0003      	movs	r3, r0
 800333e:	335c      	adds	r3, #92	; 0x5c
 8003340:	0017      	movs	r7, r2
 8003342:	781a      	ldrb	r2, [r3, #0]
 8003344:	0004      	movs	r4, r0
 8003346:	000d      	movs	r5, r1
 8003348:	2002      	movs	r0, #2
 800334a:	2a01      	cmp	r2, #1
 800334c:	d01b      	beq.n	8003386 <HAL_SPI_TransmitReceive+0x4e>
 800334e:	2201      	movs	r2, #1
 8003350:	701a      	strb	r2, [r3, #0]
 8003352:	f7fd ff77 	bl	8001244 <HAL_GetTick>
 8003356:	0023      	movs	r3, r4
 8003358:	9001      	str	r0, [sp, #4]
 800335a:	335d      	adds	r3, #93	; 0x5d
 800335c:	781b      	ldrb	r3, [r3, #0]
 800335e:	6861      	ldr	r1, [r4, #4]
 8003360:	b2da      	uxtb	r2, r3
 8003362:	2b01      	cmp	r3, #1
 8003364:	d009      	beq.n	800337a <HAL_SPI_TransmitReceive+0x42>
 8003366:	2382      	movs	r3, #130	; 0x82
 8003368:	2002      	movs	r0, #2
 800336a:	005b      	lsls	r3, r3, #1
 800336c:	4299      	cmp	r1, r3
 800336e:	d107      	bne.n	8003380 <HAL_SPI_TransmitReceive+0x48>
 8003370:	68a3      	ldr	r3, [r4, #8]
 8003372:	2b00      	cmp	r3, #0
 8003374:	d104      	bne.n	8003380 <HAL_SPI_TransmitReceive+0x48>
 8003376:	2a04      	cmp	r2, #4
 8003378:	d102      	bne.n	8003380 <HAL_SPI_TransmitReceive+0x48>
 800337a:	2d00      	cmp	r5, #0
 800337c:	d104      	bne.n	8003388 <HAL_SPI_TransmitReceive+0x50>
 800337e:	2001      	movs	r0, #1
 8003380:	2300      	movs	r3, #0
 8003382:	345c      	adds	r4, #92	; 0x5c
 8003384:	7023      	strb	r3, [r4, #0]
 8003386:	bdfe      	pop	{r1, r2, r3, r4, r5, r6, r7, pc}
 8003388:	2f00      	cmp	r7, #0
 800338a:	d0f8      	beq.n	800337e <HAL_SPI_TransmitReceive+0x46>
 800338c:	2e00      	cmp	r6, #0
 800338e:	d0f6      	beq.n	800337e <HAL_SPI_TransmitReceive+0x46>
 8003390:	0023      	movs	r3, r4
 8003392:	335d      	adds	r3, #93	; 0x5d
 8003394:	781a      	ldrb	r2, [r3, #0]
 8003396:	2a04      	cmp	r2, #4
 8003398:	d001      	beq.n	800339e <HAL_SPI_TransmitReceive+0x66>
 800339a:	2205      	movs	r2, #5
 800339c:	701a      	strb	r2, [r3, #0]
 800339e:	0022      	movs	r2, r4
 80033a0:	2300      	movs	r3, #0
 80033a2:	3208      	adds	r2, #8
 80033a4:	6623      	str	r3, [r4, #96]	; 0x60
 80033a6:	6427      	str	r7, [r4, #64]	; 0x40
 80033a8:	87d6      	strh	r6, [r2, #62]	; 0x3e
 80033aa:	1da2      	adds	r2, r4, #6
 80033ac:	87d6      	strh	r6, [r2, #62]	; 0x3e
 80033ae:	22e0      	movs	r2, #224	; 0xe0
 80033b0:	68e0      	ldr	r0, [r4, #12]
 80033b2:	64e3      	str	r3, [r4, #76]	; 0x4c
 80033b4:	6523      	str	r3, [r4, #80]	; 0x50
 80033b6:	63a5      	str	r5, [r4, #56]	; 0x38
 80033b8:	6823      	ldr	r3, [r4, #0]
 80033ba:	87e6      	strh	r6, [r4, #62]	; 0x3e
 80033bc:	87a6      	strh	r6, [r4, #60]	; 0x3c
 80033be:	00d2      	lsls	r2, r2, #3
 80033c0:	4290      	cmp	r0, r2
 80033c2:	d935      	bls.n	8003430 <HAL_SPI_TransmitReceive+0xf8>
 80033c4:	685a      	ldr	r2, [r3, #4]
 80033c6:	4f62      	ldr	r7, [pc, #392]	; (8003550 <HAL_SPI_TransmitReceive+0x218>)
 80033c8:	403a      	ands	r2, r7
 80033ca:	605a      	str	r2, [r3, #4]
 80033cc:	2240      	movs	r2, #64	; 0x40
 80033ce:	681f      	ldr	r7, [r3, #0]
 80033d0:	4217      	tst	r7, r2
 80033d2:	d102      	bne.n	80033da <HAL_SPI_TransmitReceive+0xa2>
 80033d4:	681f      	ldr	r7, [r3, #0]
 80033d6:	433a      	orrs	r2, r7
 80033d8:	601a      	str	r2, [r3, #0]
 80033da:	22e0      	movs	r2, #224	; 0xe0
 80033dc:	00d2      	lsls	r2, r2, #3
 80033de:	4290      	cmp	r0, r2
 80033e0:	d961      	bls.n	80034a6 <HAL_SPI_TransmitReceive+0x16e>
 80033e2:	2900      	cmp	r1, #0
 80033e4:	d001      	beq.n	80033ea <HAL_SPI_TransmitReceive+0xb2>
 80033e6:	2e01      	cmp	r6, #1
 80033e8:	d107      	bne.n	80033fa <HAL_SPI_TransmitReceive+0xc2>
 80033ea:	882a      	ldrh	r2, [r5, #0]
 80033ec:	3502      	adds	r5, #2
 80033ee:	60da      	str	r2, [r3, #12]
 80033f0:	8fe3      	ldrh	r3, [r4, #62]	; 0x3e
 80033f2:	63a5      	str	r5, [r4, #56]	; 0x38
 80033f4:	3b01      	subs	r3, #1
 80033f6:	b29b      	uxth	r3, r3
 80033f8:	87e3      	strh	r3, [r4, #62]	; 0x3e
 80033fa:	2501      	movs	r5, #1
 80033fc:	2702      	movs	r7, #2
 80033fe:	002e      	movs	r6, r5
 8003400:	8fe3      	ldrh	r3, [r4, #62]	; 0x3e
 8003402:	2b00      	cmp	r3, #0
 8003404:	d119      	bne.n	800343a <HAL_SPI_TransmitReceive+0x102>
 8003406:	0023      	movs	r3, r4
 8003408:	3308      	adds	r3, #8
 800340a:	8fdb      	ldrh	r3, [r3, #62]	; 0x3e
 800340c:	2b00      	cmp	r3, #0
 800340e:	d114      	bne.n	800343a <HAL_SPI_TransmitReceive+0x102>
 8003410:	0020      	movs	r0, r4
 8003412:	9a01      	ldr	r2, [sp, #4]
 8003414:	9908      	ldr	r1, [sp, #32]
 8003416:	f7ff fef3 	bl	8003200 <SPI_EndRxTxTransaction>
 800341a:	2800      	cmp	r0, #0
 800341c:	d000      	beq.n	8003420 <HAL_SPI_TransmitReceive+0xe8>
 800341e:	e093      	b.n	8003548 <HAL_SPI_TransmitReceive+0x210>
 8003420:	6e23      	ldr	r3, [r4, #96]	; 0x60
 8003422:	2b00      	cmp	r3, #0
 8003424:	d1ab      	bne.n	800337e <HAL_SPI_TransmitReceive+0x46>
 8003426:	0023      	movs	r3, r4
 8003428:	2201      	movs	r2, #1
 800342a:	335d      	adds	r3, #93	; 0x5d
 800342c:	701a      	strb	r2, [r3, #0]
 800342e:	e7a7      	b.n	8003380 <HAL_SPI_TransmitReceive+0x48>
 8003430:	2280      	movs	r2, #128	; 0x80
 8003432:	685f      	ldr	r7, [r3, #4]
 8003434:	0152      	lsls	r2, r2, #5
 8003436:	433a      	orrs	r2, r7
 8003438:	e7c7      	b.n	80033ca <HAL_SPI_TransmitReceive+0x92>
 800343a:	6820      	ldr	r0, [r4, #0]
 800343c:	6883      	ldr	r3, [r0, #8]
 800343e:	423b      	tst	r3, r7
 8003440:	d00e      	beq.n	8003460 <HAL_SPI_TransmitReceive+0x128>
 8003442:	8fe3      	ldrh	r3, [r4, #62]	; 0x3e
 8003444:	2b00      	cmp	r3, #0
 8003446:	d00b      	beq.n	8003460 <HAL_SPI_TransmitReceive+0x128>
 8003448:	2d01      	cmp	r5, #1
 800344a:	d109      	bne.n	8003460 <HAL_SPI_TransmitReceive+0x128>
 800344c:	2500      	movs	r5, #0
 800344e:	6ba3      	ldr	r3, [r4, #56]	; 0x38
 8003450:	881a      	ldrh	r2, [r3, #0]
 8003452:	3302      	adds	r3, #2
 8003454:	60c2      	str	r2, [r0, #12]
 8003456:	63a3      	str	r3, [r4, #56]	; 0x38
 8003458:	8fe3      	ldrh	r3, [r4, #62]	; 0x3e
 800345a:	3b01      	subs	r3, #1
 800345c:	b29b      	uxth	r3, r3
 800345e:	87e3      	strh	r3, [r4, #62]	; 0x3e
 8003460:	6883      	ldr	r3, [r0, #8]
 8003462:	0019      	movs	r1, r3
 8003464:	4031      	ands	r1, r6
 8003466:	4233      	tst	r3, r6
 8003468:	d00e      	beq.n	8003488 <HAL_SPI_TransmitReceive+0x150>
 800346a:	0022      	movs	r2, r4
 800346c:	3208      	adds	r2, #8
 800346e:	8fd3      	ldrh	r3, [r2, #62]	; 0x3e
 8003470:	2b00      	cmp	r3, #0
 8003472:	d009      	beq.n	8003488 <HAL_SPI_TransmitReceive+0x150>
 8003474:	000d      	movs	r5, r1
 8003476:	68c0      	ldr	r0, [r0, #12]
 8003478:	6c23      	ldr	r3, [r4, #64]	; 0x40
 800347a:	8018      	strh	r0, [r3, #0]
 800347c:	3302      	adds	r3, #2
 800347e:	6423      	str	r3, [r4, #64]	; 0x40
 8003480:	8fd3      	ldrh	r3, [r2, #62]	; 0x3e
 8003482:	3b01      	subs	r3, #1
 8003484:	b29b      	uxth	r3, r3
 8003486:	87d3      	strh	r3, [r2, #62]	; 0x3e
 8003488:	f7fd fedc 	bl	8001244 <HAL_GetTick>
 800348c:	9b01      	ldr	r3, [sp, #4]
 800348e:	1ac0      	subs	r0, r0, r3
 8003490:	9b08      	ldr	r3, [sp, #32]
 8003492:	4298      	cmp	r0, r3
 8003494:	d3b4      	bcc.n	8003400 <HAL_SPI_TransmitReceive+0xc8>
 8003496:	3301      	adds	r3, #1
 8003498:	d0b2      	beq.n	8003400 <HAL_SPI_TransmitReceive+0xc8>
 800349a:	0023      	movs	r3, r4
 800349c:	2201      	movs	r2, #1
 800349e:	335d      	adds	r3, #93	; 0x5d
 80034a0:	2003      	movs	r0, #3
 80034a2:	701a      	strb	r2, [r3, #0]
 80034a4:	e76c      	b.n	8003380 <HAL_SPI_TransmitReceive+0x48>
 80034a6:	2900      	cmp	r1, #0
 80034a8:	d001      	beq.n	80034ae <HAL_SPI_TransmitReceive+0x176>
 80034aa:	2e01      	cmp	r6, #1
 80034ac:	d108      	bne.n	80034c0 <HAL_SPI_TransmitReceive+0x188>
 80034ae:	782a      	ldrb	r2, [r5, #0]
 80034b0:	731a      	strb	r2, [r3, #12]
 80034b2:	6ba3      	ldr	r3, [r4, #56]	; 0x38
 80034b4:	3301      	adds	r3, #1
 80034b6:	63a3      	str	r3, [r4, #56]	; 0x38
 80034b8:	8fe3      	ldrh	r3, [r4, #62]	; 0x3e
 80034ba:	3b01      	subs	r3, #1
 80034bc:	b29b      	uxth	r3, r3
 80034be:	87e3      	strh	r3, [r4, #62]	; 0x3e
 80034c0:	2501      	movs	r5, #1
 80034c2:	2702      	movs	r7, #2
 80034c4:	002e      	movs	r6, r5
 80034c6:	e032      	b.n	800352e <HAL_SPI_TransmitReceive+0x1f6>
 80034c8:	6823      	ldr	r3, [r4, #0]
 80034ca:	689a      	ldr	r2, [r3, #8]
 80034cc:	423a      	tst	r2, r7
 80034ce:	d00f      	beq.n	80034f0 <HAL_SPI_TransmitReceive+0x1b8>
 80034d0:	8fe2      	ldrh	r2, [r4, #62]	; 0x3e
 80034d2:	2a00      	cmp	r2, #0
 80034d4:	d00c      	beq.n	80034f0 <HAL_SPI_TransmitReceive+0x1b8>
 80034d6:	2d01      	cmp	r5, #1
 80034d8:	d10a      	bne.n	80034f0 <HAL_SPI_TransmitReceive+0x1b8>
 80034da:	2500      	movs	r5, #0
 80034dc:	6ba2      	ldr	r2, [r4, #56]	; 0x38
 80034de:	7812      	ldrb	r2, [r2, #0]
 80034e0:	731a      	strb	r2, [r3, #12]
 80034e2:	6ba3      	ldr	r3, [r4, #56]	; 0x38
 80034e4:	3301      	adds	r3, #1
 80034e6:	63a3      	str	r3, [r4, #56]	; 0x38
 80034e8:	8fe3      	ldrh	r3, [r4, #62]	; 0x3e
 80034ea:	3b01      	subs	r3, #1
 80034ec:	b29b      	uxth	r3, r3
 80034ee:	87e3      	strh	r3, [r4, #62]	; 0x3e
 80034f0:	6823      	ldr	r3, [r4, #0]
 80034f2:	689a      	ldr	r2, [r3, #8]
 80034f4:	0011      	movs	r1, r2
 80034f6:	4031      	ands	r1, r6
 80034f8:	4232      	tst	r2, r6
 80034fa:	d00f      	beq.n	800351c <HAL_SPI_TransmitReceive+0x1e4>
 80034fc:	0022      	movs	r2, r4
 80034fe:	3208      	adds	r2, #8
 8003500:	8fd0      	ldrh	r0, [r2, #62]	; 0x3e
 8003502:	2800      	cmp	r0, #0
 8003504:	d00a      	beq.n	800351c <HAL_SPI_TransmitReceive+0x1e4>
 8003506:	000d      	movs	r5, r1
 8003508:	7b1b      	ldrb	r3, [r3, #12]
 800350a:	6c20      	ldr	r0, [r4, #64]	; 0x40
 800350c:	7003      	strb	r3, [r0, #0]
 800350e:	6c23      	ldr	r3, [r4, #64]	; 0x40
 8003510:	3301      	adds	r3, #1
 8003512:	6423      	str	r3, [r4, #64]	; 0x40
 8003514:	8fd3      	ldrh	r3, [r2, #62]	; 0x3e
 8003516:	3b01      	subs	r3, #1
 8003518:	b29b      	uxth	r3, r3
 800351a:	87d3      	strh	r3, [r2, #62]	; 0x3e
 800351c:	f7fd fe92 	bl	8001244 <HAL_GetTick>
 8003520:	9b01      	ldr	r3, [sp, #4]
 8003522:	1ac0      	subs	r0, r0, r3
 8003524:	9b08      	ldr	r3, [sp, #32]
 8003526:	4298      	cmp	r0, r3
 8003528:	d30a      	bcc.n	8003540 <HAL_SPI_TransmitReceive+0x208>
 800352a:	3301      	adds	r3, #1
 800352c:	d1b5      	bne.n	800349a <HAL_SPI_TransmitReceive+0x162>
 800352e:	8fe3      	ldrh	r3, [r4, #62]	; 0x3e
 8003530:	2b00      	cmp	r3, #0
 8003532:	d1c9      	bne.n	80034c8 <HAL_SPI_TransmitReceive+0x190>
 8003534:	0023      	movs	r3, r4
 8003536:	3308      	adds	r3, #8
 8003538:	8fdb      	ldrh	r3, [r3, #62]	; 0x3e
 800353a:	2b00      	cmp	r3, #0
 800353c:	d1c4      	bne.n	80034c8 <HAL_SPI_TransmitReceive+0x190>
 800353e:	e767      	b.n	8003410 <HAL_SPI_TransmitReceive+0xd8>
 8003540:	9b08      	ldr	r3, [sp, #32]
 8003542:	2b00      	cmp	r3, #0
 8003544:	d1f3      	bne.n	800352e <HAL_SPI_TransmitReceive+0x1f6>
 8003546:	e7a8      	b.n	800349a <HAL_SPI_TransmitReceive+0x162>
 8003548:	2320      	movs	r3, #32
 800354a:	2001      	movs	r0, #1
 800354c:	6623      	str	r3, [r4, #96]	; 0x60
 800354e:	e767      	b.n	8003420 <HAL_SPI_TransmitReceive+0xe8>
 8003550:	ffffefff 	.word	0xffffefff

08003554 <TIM_OC1_SetConfig>:
 8003554:	2201      	movs	r2, #1
 8003556:	6a03      	ldr	r3, [r0, #32]
 8003558:	b570      	push	{r4, r5, r6, lr}
 800355a:	4393      	bics	r3, r2
 800355c:	6203      	str	r3, [r0, #32]
 800355e:	6a03      	ldr	r3, [r0, #32]
 8003560:	6844      	ldr	r4, [r0, #4]
 8003562:	6985      	ldr	r5, [r0, #24]
 8003564:	3272      	adds	r2, #114	; 0x72
 8003566:	4395      	bics	r5, r2
 8003568:	680a      	ldr	r2, [r1, #0]
 800356a:	4315      	orrs	r5, r2
 800356c:	2202      	movs	r2, #2
 800356e:	4393      	bics	r3, r2
 8003570:	688a      	ldr	r2, [r1, #8]
 8003572:	4313      	orrs	r3, r2
 8003574:	4a11      	ldr	r2, [pc, #68]	; (80035bc <TIM_OC1_SetConfig+0x68>)
 8003576:	4290      	cmp	r0, r2
 8003578:	d005      	beq.n	8003586 <TIM_OC1_SetConfig+0x32>
 800357a:	4e11      	ldr	r6, [pc, #68]	; (80035c0 <TIM_OC1_SetConfig+0x6c>)
 800357c:	42b0      	cmp	r0, r6
 800357e:	d002      	beq.n	8003586 <TIM_OC1_SetConfig+0x32>
 8003580:	4e10      	ldr	r6, [pc, #64]	; (80035c4 <TIM_OC1_SetConfig+0x70>)
 8003582:	42b0      	cmp	r0, r6
 8003584:	d113      	bne.n	80035ae <TIM_OC1_SetConfig+0x5a>
 8003586:	2608      	movs	r6, #8
 8003588:	43b3      	bics	r3, r6
 800358a:	68ce      	ldr	r6, [r1, #12]
 800358c:	4333      	orrs	r3, r6
 800358e:	2604      	movs	r6, #4
 8003590:	43b3      	bics	r3, r6
 8003592:	4290      	cmp	r0, r2
 8003594:	d005      	beq.n	80035a2 <TIM_OC1_SetConfig+0x4e>
 8003596:	4a0a      	ldr	r2, [pc, #40]	; (80035c0 <TIM_OC1_SetConfig+0x6c>)
 8003598:	4290      	cmp	r0, r2
 800359a:	d002      	beq.n	80035a2 <TIM_OC1_SetConfig+0x4e>
 800359c:	4a09      	ldr	r2, [pc, #36]	; (80035c4 <TIM_OC1_SetConfig+0x70>)
 800359e:	4290      	cmp	r0, r2
 80035a0:	d105      	bne.n	80035ae <TIM_OC1_SetConfig+0x5a>
 80035a2:	4a09      	ldr	r2, [pc, #36]	; (80035c8 <TIM_OC1_SetConfig+0x74>)
 80035a4:	698e      	ldr	r6, [r1, #24]
 80035a6:	4022      	ands	r2, r4
 80035a8:	694c      	ldr	r4, [r1, #20]
 80035aa:	4334      	orrs	r4, r6
 80035ac:	4314      	orrs	r4, r2
 80035ae:	684a      	ldr	r2, [r1, #4]
 80035b0:	6044      	str	r4, [r0, #4]
 80035b2:	6185      	str	r5, [r0, #24]
 80035b4:	6342      	str	r2, [r0, #52]	; 0x34
 80035b6:	6203      	str	r3, [r0, #32]
 80035b8:	bd70      	pop	{r4, r5, r6, pc}
 80035ba:	46c0      	nop			; (mov r8, r8)
 80035bc:	40012c00 	.word	0x40012c00
 80035c0:	40014400 	.word	0x40014400
 80035c4:	40014800 	.word	0x40014800
 80035c8:	fffffcff 	.word	0xfffffcff

080035cc <TIM_OC3_SetConfig>:
 80035cc:	b570      	push	{r4, r5, r6, lr}
 80035ce:	2573      	movs	r5, #115	; 0x73
 80035d0:	6a03      	ldr	r3, [r0, #32]
 80035d2:	4a16      	ldr	r2, [pc, #88]	; (800362c <TIM_OC3_SetConfig+0x60>)
 80035d4:	4013      	ands	r3, r2
 80035d6:	6203      	str	r3, [r0, #32]
 80035d8:	6a03      	ldr	r3, [r0, #32]
 80035da:	6842      	ldr	r2, [r0, #4]
 80035dc:	69c4      	ldr	r4, [r0, #28]
 80035de:	43ac      	bics	r4, r5
 80035e0:	680d      	ldr	r5, [r1, #0]
 80035e2:	432c      	orrs	r4, r5
 80035e4:	4d12      	ldr	r5, [pc, #72]	; (8003630 <TIM_OC3_SetConfig+0x64>)
 80035e6:	402b      	ands	r3, r5
 80035e8:	688d      	ldr	r5, [r1, #8]
 80035ea:	022d      	lsls	r5, r5, #8
 80035ec:	432b      	orrs	r3, r5
 80035ee:	4d11      	ldr	r5, [pc, #68]	; (8003634 <TIM_OC3_SetConfig+0x68>)
 80035f0:	42a8      	cmp	r0, r5
 80035f2:	d10e      	bne.n	8003612 <TIM_OC3_SetConfig+0x46>
 80035f4:	4d10      	ldr	r5, [pc, #64]	; (8003638 <TIM_OC3_SetConfig+0x6c>)
 80035f6:	401d      	ands	r5, r3
 80035f8:	68cb      	ldr	r3, [r1, #12]
 80035fa:	021b      	lsls	r3, r3, #8
 80035fc:	432b      	orrs	r3, r5
 80035fe:	4d0f      	ldr	r5, [pc, #60]	; (800363c <TIM_OC3_SetConfig+0x70>)
 8003600:	402b      	ands	r3, r5
 8003602:	4d0f      	ldr	r5, [pc, #60]	; (8003640 <TIM_OC3_SetConfig+0x74>)
 8003604:	694e      	ldr	r6, [r1, #20]
 8003606:	4015      	ands	r5, r2
 8003608:	698a      	ldr	r2, [r1, #24]
 800360a:	4332      	orrs	r2, r6
 800360c:	0112      	lsls	r2, r2, #4
 800360e:	432a      	orrs	r2, r5
 8003610:	e005      	b.n	800361e <TIM_OC3_SetConfig+0x52>
 8003612:	4d0c      	ldr	r5, [pc, #48]	; (8003644 <TIM_OC3_SetConfig+0x78>)
 8003614:	42a8      	cmp	r0, r5
 8003616:	d0f4      	beq.n	8003602 <TIM_OC3_SetConfig+0x36>
 8003618:	4d0b      	ldr	r5, [pc, #44]	; (8003648 <TIM_OC3_SetConfig+0x7c>)
 800361a:	42a8      	cmp	r0, r5
 800361c:	d0f1      	beq.n	8003602 <TIM_OC3_SetConfig+0x36>
 800361e:	6042      	str	r2, [r0, #4]
 8003620:	684a      	ldr	r2, [r1, #4]
 8003622:	61c4      	str	r4, [r0, #28]
 8003624:	63c2      	str	r2, [r0, #60]	; 0x3c
 8003626:	6203      	str	r3, [r0, #32]
 8003628:	bd70      	pop	{r4, r5, r6, pc}
 800362a:	46c0      	nop			; (mov r8, r8)
 800362c:	fffffeff 	.word	0xfffffeff
 8003630:	fffffdff 	.word	0xfffffdff
 8003634:	40012c00 	.word	0x40012c00
 8003638:	fffff7ff 	.word	0xfffff7ff
 800363c:	fffffbff 	.word	0xfffffbff
 8003640:	ffffcfff 	.word	0xffffcfff
 8003644:	40014400 	.word	0x40014400
 8003648:	40014800 	.word	0x40014800

0800364c <TIM_OC4_SetConfig>:
 800364c:	6a03      	ldr	r3, [r0, #32]
 800364e:	4a12      	ldr	r2, [pc, #72]	; (8003698 <TIM_OC4_SetConfig+0x4c>)
 8003650:	b530      	push	{r4, r5, lr}
 8003652:	4013      	ands	r3, r2
 8003654:	6203      	str	r3, [r0, #32]
 8003656:	6a02      	ldr	r2, [r0, #32]
 8003658:	4c10      	ldr	r4, [pc, #64]	; (800369c <TIM_OC4_SetConfig+0x50>)
 800365a:	6843      	ldr	r3, [r0, #4]
 800365c:	69c5      	ldr	r5, [r0, #28]
 800365e:	4025      	ands	r5, r4
 8003660:	680c      	ldr	r4, [r1, #0]
 8003662:	0224      	lsls	r4, r4, #8
 8003664:	4325      	orrs	r5, r4
 8003666:	4c0e      	ldr	r4, [pc, #56]	; (80036a0 <TIM_OC4_SetConfig+0x54>)
 8003668:	4022      	ands	r2, r4
 800366a:	688c      	ldr	r4, [r1, #8]
 800366c:	0324      	lsls	r4, r4, #12
 800366e:	4322      	orrs	r2, r4
 8003670:	4c0c      	ldr	r4, [pc, #48]	; (80036a4 <TIM_OC4_SetConfig+0x58>)
 8003672:	42a0      	cmp	r0, r4
 8003674:	d005      	beq.n	8003682 <TIM_OC4_SetConfig+0x36>
 8003676:	4c0c      	ldr	r4, [pc, #48]	; (80036a8 <TIM_OC4_SetConfig+0x5c>)
 8003678:	42a0      	cmp	r0, r4
 800367a:	d002      	beq.n	8003682 <TIM_OC4_SetConfig+0x36>
 800367c:	4c0b      	ldr	r4, [pc, #44]	; (80036ac <TIM_OC4_SetConfig+0x60>)
 800367e:	42a0      	cmp	r0, r4
 8003680:	d104      	bne.n	800368c <TIM_OC4_SetConfig+0x40>
 8003682:	4c0b      	ldr	r4, [pc, #44]	; (80036b0 <TIM_OC4_SetConfig+0x64>)
 8003684:	4023      	ands	r3, r4
 8003686:	694c      	ldr	r4, [r1, #20]
 8003688:	01a4      	lsls	r4, r4, #6
 800368a:	4323      	orrs	r3, r4
 800368c:	6043      	str	r3, [r0, #4]
 800368e:	684b      	ldr	r3, [r1, #4]
 8003690:	61c5      	str	r5, [r0, #28]
 8003692:	6403      	str	r3, [r0, #64]	; 0x40
 8003694:	6202      	str	r2, [r0, #32]
 8003696:	bd30      	pop	{r4, r5, pc}
 8003698:	ffffefff 	.word	0xffffefff
 800369c:	ffff8cff 	.word	0xffff8cff
 80036a0:	ffffdfff 	.word	0xffffdfff
 80036a4:	40012c00 	.word	0x40012c00
 80036a8:	40014400 	.word	0x40014400
 80036ac:	40014800 	.word	0x40014800
 80036b0:	ffffbfff 	.word	0xffffbfff

080036b4 <HAL_TIM_Base_Start_IT>:
 80036b4:	0002      	movs	r2, r0
 80036b6:	0003      	movs	r3, r0
 80036b8:	2001      	movs	r0, #1
 80036ba:	323d      	adds	r2, #61	; 0x3d
 80036bc:	7811      	ldrb	r1, [r2, #0]
 80036be:	4281      	cmp	r1, r0
 80036c0:	d119      	bne.n	80036f6 <HAL_TIM_Base_Start_IT+0x42>
 80036c2:	2102      	movs	r1, #2
 80036c4:	7011      	strb	r1, [r2, #0]
 80036c6:	681b      	ldr	r3, [r3, #0]
 80036c8:	68da      	ldr	r2, [r3, #12]
 80036ca:	4302      	orrs	r2, r0
 80036cc:	60da      	str	r2, [r3, #12]
 80036ce:	4a0d      	ldr	r2, [pc, #52]	; (8003704 <HAL_TIM_Base_Start_IT+0x50>)
 80036d0:	4293      	cmp	r3, r2
 80036d2:	d006      	beq.n	80036e2 <HAL_TIM_Base_Start_IT+0x2e>
 80036d4:	2280      	movs	r2, #128	; 0x80
 80036d6:	05d2      	lsls	r2, r2, #23
 80036d8:	4293      	cmp	r3, r2
 80036da:	d002      	beq.n	80036e2 <HAL_TIM_Base_Start_IT+0x2e>
 80036dc:	4a0a      	ldr	r2, [pc, #40]	; (8003708 <HAL_TIM_Base_Start_IT+0x54>)
 80036de:	4293      	cmp	r3, r2
 80036e0:	d10a      	bne.n	80036f8 <HAL_TIM_Base_Start_IT+0x44>
 80036e2:	2107      	movs	r1, #7
 80036e4:	689a      	ldr	r2, [r3, #8]
 80036e6:	2000      	movs	r0, #0
 80036e8:	400a      	ands	r2, r1
 80036ea:	2a06      	cmp	r2, #6
 80036ec:	d003      	beq.n	80036f6 <HAL_TIM_Base_Start_IT+0x42>
 80036ee:	2201      	movs	r2, #1
 80036f0:	6819      	ldr	r1, [r3, #0]
 80036f2:	430a      	orrs	r2, r1
 80036f4:	601a      	str	r2, [r3, #0]
 80036f6:	4770      	bx	lr
 80036f8:	681a      	ldr	r2, [r3, #0]
 80036fa:	4310      	orrs	r0, r2
 80036fc:	6018      	str	r0, [r3, #0]
 80036fe:	2000      	movs	r0, #0
 8003700:	e7f9      	b.n	80036f6 <HAL_TIM_Base_Start_IT+0x42>
 8003702:	46c0      	nop			; (mov r8, r8)
 8003704:	40012c00 	.word	0x40012c00
 8003708:	40000400 	.word	0x40000400

0800370c <HAL_TIM_PWM_MspInit>:
 800370c:	4770      	bx	lr

0800370e <HAL_TIM_OC_DelayElapsedCallback>:
 800370e:	4770      	bx	lr

08003710 <HAL_TIM_IC_CaptureCallback>:
 8003710:	4770      	bx	lr

08003712 <HAL_TIM_PWM_PulseFinishedCallback>:
 8003712:	4770      	bx	lr

08003714 <HAL_TIM_TriggerCallback>:
 8003714:	4770      	bx	lr

08003716 <HAL_TIM_IRQHandler>:
 8003716:	2202      	movs	r2, #2
 8003718:	6803      	ldr	r3, [r0, #0]
 800371a:	b510      	push	{r4, lr}
 800371c:	6919      	ldr	r1, [r3, #16]
 800371e:	0004      	movs	r4, r0
 8003720:	4211      	tst	r1, r2
 8003722:	d00e      	beq.n	8003742 <HAL_TIM_IRQHandler+0x2c>
 8003724:	68d9      	ldr	r1, [r3, #12]
 8003726:	4211      	tst	r1, r2
 8003728:	d00b      	beq.n	8003742 <HAL_TIM_IRQHandler+0x2c>
 800372a:	3a05      	subs	r2, #5
 800372c:	611a      	str	r2, [r3, #16]
 800372e:	3204      	adds	r2, #4
 8003730:	7702      	strb	r2, [r0, #28]
 8003732:	699b      	ldr	r3, [r3, #24]
 8003734:	079b      	lsls	r3, r3, #30
 8003736:	d100      	bne.n	800373a <HAL_TIM_IRQHandler+0x24>
 8003738:	e079      	b.n	800382e <HAL_TIM_IRQHandler+0x118>
 800373a:	f7ff ffe9 	bl	8003710 <HAL_TIM_IC_CaptureCallback>
 800373e:	2300      	movs	r3, #0
 8003740:	7723      	strb	r3, [r4, #28]
 8003742:	2204      	movs	r2, #4
 8003744:	6823      	ldr	r3, [r4, #0]
 8003746:	6919      	ldr	r1, [r3, #16]
 8003748:	4211      	tst	r1, r2
 800374a:	d010      	beq.n	800376e <HAL_TIM_IRQHandler+0x58>
 800374c:	68d9      	ldr	r1, [r3, #12]
 800374e:	4211      	tst	r1, r2
 8003750:	d00d      	beq.n	800376e <HAL_TIM_IRQHandler+0x58>
 8003752:	3a09      	subs	r2, #9
 8003754:	611a      	str	r2, [r3, #16]
 8003756:	3207      	adds	r2, #7
 8003758:	7722      	strb	r2, [r4, #28]
 800375a:	699a      	ldr	r2, [r3, #24]
 800375c:	23c0      	movs	r3, #192	; 0xc0
 800375e:	009b      	lsls	r3, r3, #2
 8003760:	0020      	movs	r0, r4
 8003762:	421a      	tst	r2, r3
 8003764:	d069      	beq.n	800383a <HAL_TIM_IRQHandler+0x124>
 8003766:	f7ff ffd3 	bl	8003710 <HAL_TIM_IC_CaptureCallback>
 800376a:	2300      	movs	r3, #0
 800376c:	7723      	strb	r3, [r4, #28]
 800376e:	2208      	movs	r2, #8
 8003770:	6823      	ldr	r3, [r4, #0]
 8003772:	6919      	ldr	r1, [r3, #16]
 8003774:	4211      	tst	r1, r2
 8003776:	d00e      	beq.n	8003796 <HAL_TIM_IRQHandler+0x80>
 8003778:	68d9      	ldr	r1, [r3, #12]
 800377a:	4211      	tst	r1, r2
 800377c:	d00b      	beq.n	8003796 <HAL_TIM_IRQHandler+0x80>
 800377e:	3a11      	subs	r2, #17
 8003780:	611a      	str	r2, [r3, #16]
 8003782:	320d      	adds	r2, #13
 8003784:	7722      	strb	r2, [r4, #28]
 8003786:	69db      	ldr	r3, [r3, #28]
 8003788:	0020      	movs	r0, r4
 800378a:	079b      	lsls	r3, r3, #30
 800378c:	d05b      	beq.n	8003846 <HAL_TIM_IRQHandler+0x130>
 800378e:	f7ff ffbf 	bl	8003710 <HAL_TIM_IC_CaptureCallback>
 8003792:	2300      	movs	r3, #0
 8003794:	7723      	strb	r3, [r4, #28]
 8003796:	2210      	movs	r2, #16
 8003798:	6823      	ldr	r3, [r4, #0]
 800379a:	6919      	ldr	r1, [r3, #16]
 800379c:	4211      	tst	r1, r2
 800379e:	d010      	beq.n	80037c2 <HAL_TIM_IRQHandler+0xac>
 80037a0:	68d9      	ldr	r1, [r3, #12]
 80037a2:	4211      	tst	r1, r2
 80037a4:	d00d      	beq.n	80037c2 <HAL_TIM_IRQHandler+0xac>
 80037a6:	3a21      	subs	r2, #33	; 0x21
 80037a8:	611a      	str	r2, [r3, #16]
 80037aa:	3219      	adds	r2, #25
 80037ac:	7722      	strb	r2, [r4, #28]
 80037ae:	69da      	ldr	r2, [r3, #28]
 80037b0:	23c0      	movs	r3, #192	; 0xc0
 80037b2:	009b      	lsls	r3, r3, #2
 80037b4:	0020      	movs	r0, r4
 80037b6:	421a      	tst	r2, r3
 80037b8:	d04b      	beq.n	8003852 <HAL_TIM_IRQHandler+0x13c>
 80037ba:	f7ff ffa9 	bl	8003710 <HAL_TIM_IC_CaptureCallback>
 80037be:	2300      	movs	r3, #0
 80037c0:	7723      	strb	r3, [r4, #28]
 80037c2:	2201      	movs	r2, #1
 80037c4:	6823      	ldr	r3, [r4, #0]
 80037c6:	6919      	ldr	r1, [r3, #16]
 80037c8:	4211      	tst	r1, r2
 80037ca:	d007      	beq.n	80037dc <HAL_TIM_IRQHandler+0xc6>
 80037cc:	68d9      	ldr	r1, [r3, #12]
 80037ce:	4211      	tst	r1, r2
 80037d0:	d004      	beq.n	80037dc <HAL_TIM_IRQHandler+0xc6>
 80037d2:	3a03      	subs	r2, #3
 80037d4:	0020      	movs	r0, r4
 80037d6:	611a      	str	r2, [r3, #16]
 80037d8:	f7fc fe38 	bl	800044c <HAL_TIM_PeriodElapsedCallback>
 80037dc:	2280      	movs	r2, #128	; 0x80
 80037de:	6823      	ldr	r3, [r4, #0]
 80037e0:	6919      	ldr	r1, [r3, #16]
 80037e2:	4211      	tst	r1, r2
 80037e4:	d008      	beq.n	80037f8 <HAL_TIM_IRQHandler+0xe2>
 80037e6:	68d9      	ldr	r1, [r3, #12]
 80037e8:	4211      	tst	r1, r2
 80037ea:	d005      	beq.n	80037f8 <HAL_TIM_IRQHandler+0xe2>
 80037ec:	3a02      	subs	r2, #2
 80037ee:	3aff      	subs	r2, #255	; 0xff
 80037f0:	0020      	movs	r0, r4
 80037f2:	611a      	str	r2, [r3, #16]
 80037f4:	f000 fbc7 	bl	8003f86 <HAL_TIMEx_BreakCallback>
 80037f8:	2240      	movs	r2, #64	; 0x40
 80037fa:	6823      	ldr	r3, [r4, #0]
 80037fc:	6919      	ldr	r1, [r3, #16]
 80037fe:	4211      	tst	r1, r2
 8003800:	d007      	beq.n	8003812 <HAL_TIM_IRQHandler+0xfc>
 8003802:	68d9      	ldr	r1, [r3, #12]
 8003804:	4211      	tst	r1, r2
 8003806:	d004      	beq.n	8003812 <HAL_TIM_IRQHandler+0xfc>
 8003808:	3a81      	subs	r2, #129	; 0x81
 800380a:	0020      	movs	r0, r4
 800380c:	611a      	str	r2, [r3, #16]
 800380e:	f7ff ff81 	bl	8003714 <HAL_TIM_TriggerCallback>
 8003812:	2220      	movs	r2, #32
 8003814:	6823      	ldr	r3, [r4, #0]
 8003816:	6919      	ldr	r1, [r3, #16]
 8003818:	4211      	tst	r1, r2
 800381a:	d007      	beq.n	800382c <HAL_TIM_IRQHandler+0x116>
 800381c:	68d9      	ldr	r1, [r3, #12]
 800381e:	4211      	tst	r1, r2
 8003820:	d004      	beq.n	800382c <HAL_TIM_IRQHandler+0x116>
 8003822:	3a41      	subs	r2, #65	; 0x41
 8003824:	0020      	movs	r0, r4
 8003826:	611a      	str	r2, [r3, #16]
 8003828:	f000 fbac 	bl	8003f84 <HAL_TIMEx_CommutCallback>
 800382c:	bd10      	pop	{r4, pc}
 800382e:	f7ff ff6e 	bl	800370e <HAL_TIM_OC_DelayElapsedCallback>
 8003832:	0020      	movs	r0, r4
 8003834:	f7ff ff6d 	bl	8003712 <HAL_TIM_PWM_PulseFinishedCallback>
 8003838:	e781      	b.n	800373e <HAL_TIM_IRQHandler+0x28>
 800383a:	f7ff ff68 	bl	800370e <HAL_TIM_OC_DelayElapsedCallback>
 800383e:	0020      	movs	r0, r4
 8003840:	f7ff ff67 	bl	8003712 <HAL_TIM_PWM_PulseFinishedCallback>
 8003844:	e791      	b.n	800376a <HAL_TIM_IRQHandler+0x54>
 8003846:	f7ff ff62 	bl	800370e <HAL_TIM_OC_DelayElapsedCallback>
 800384a:	0020      	movs	r0, r4
 800384c:	f7ff ff61 	bl	8003712 <HAL_TIM_PWM_PulseFinishedCallback>
 8003850:	e79f      	b.n	8003792 <HAL_TIM_IRQHandler+0x7c>
 8003852:	f7ff ff5c 	bl	800370e <HAL_TIM_OC_DelayElapsedCallback>
 8003856:	0020      	movs	r0, r4
 8003858:	f7ff ff5b 	bl	8003712 <HAL_TIM_PWM_PulseFinishedCallback>
 800385c:	e7af      	b.n	80037be <HAL_TIM_IRQHandler+0xa8>
	...

08003860 <TIM_Base_SetConfig>:
 8003860:	4a1d      	ldr	r2, [pc, #116]	; (80038d8 <TIM_Base_SetConfig+0x78>)
 8003862:	b510      	push	{r4, lr}
 8003864:	6803      	ldr	r3, [r0, #0]
 8003866:	4290      	cmp	r0, r2
 8003868:	d006      	beq.n	8003878 <TIM_Base_SetConfig+0x18>
 800386a:	2480      	movs	r4, #128	; 0x80
 800386c:	05e4      	lsls	r4, r4, #23
 800386e:	42a0      	cmp	r0, r4
 8003870:	d002      	beq.n	8003878 <TIM_Base_SetConfig+0x18>
 8003872:	4c1a      	ldr	r4, [pc, #104]	; (80038dc <TIM_Base_SetConfig+0x7c>)
 8003874:	42a0      	cmp	r0, r4
 8003876:	d10c      	bne.n	8003892 <TIM_Base_SetConfig+0x32>
 8003878:	2470      	movs	r4, #112	; 0x70
 800387a:	43a3      	bics	r3, r4
 800387c:	684c      	ldr	r4, [r1, #4]
 800387e:	4323      	orrs	r3, r4
 8003880:	4290      	cmp	r0, r2
 8003882:	d00f      	beq.n	80038a4 <TIM_Base_SetConfig+0x44>
 8003884:	2480      	movs	r4, #128	; 0x80
 8003886:	05e4      	lsls	r4, r4, #23
 8003888:	42a0      	cmp	r0, r4
 800388a:	d00b      	beq.n	80038a4 <TIM_Base_SetConfig+0x44>
 800388c:	4c13      	ldr	r4, [pc, #76]	; (80038dc <TIM_Base_SetConfig+0x7c>)
 800388e:	42a0      	cmp	r0, r4
 8003890:	d008      	beq.n	80038a4 <TIM_Base_SetConfig+0x44>
 8003892:	4c13      	ldr	r4, [pc, #76]	; (80038e0 <TIM_Base_SetConfig+0x80>)
 8003894:	42a0      	cmp	r0, r4
 8003896:	d005      	beq.n	80038a4 <TIM_Base_SetConfig+0x44>
 8003898:	4c12      	ldr	r4, [pc, #72]	; (80038e4 <TIM_Base_SetConfig+0x84>)
 800389a:	42a0      	cmp	r0, r4
 800389c:	d002      	beq.n	80038a4 <TIM_Base_SetConfig+0x44>
 800389e:	4c12      	ldr	r4, [pc, #72]	; (80038e8 <TIM_Base_SetConfig+0x88>)
 80038a0:	42a0      	cmp	r0, r4
 80038a2:	d103      	bne.n	80038ac <TIM_Base_SetConfig+0x4c>
 80038a4:	4c11      	ldr	r4, [pc, #68]	; (80038ec <TIM_Base_SetConfig+0x8c>)
 80038a6:	4023      	ands	r3, r4
 80038a8:	68cc      	ldr	r4, [r1, #12]
 80038aa:	4323      	orrs	r3, r4
 80038ac:	2480      	movs	r4, #128	; 0x80
 80038ae:	43a3      	bics	r3, r4
 80038b0:	694c      	ldr	r4, [r1, #20]
 80038b2:	4323      	orrs	r3, r4
 80038b4:	6003      	str	r3, [r0, #0]
 80038b6:	688b      	ldr	r3, [r1, #8]
 80038b8:	62c3      	str	r3, [r0, #44]	; 0x2c
 80038ba:	680b      	ldr	r3, [r1, #0]
 80038bc:	6283      	str	r3, [r0, #40]	; 0x28
 80038be:	4290      	cmp	r0, r2
 80038c0:	d005      	beq.n	80038ce <TIM_Base_SetConfig+0x6e>
 80038c2:	4b08      	ldr	r3, [pc, #32]	; (80038e4 <TIM_Base_SetConfig+0x84>)
 80038c4:	4298      	cmp	r0, r3
 80038c6:	d002      	beq.n	80038ce <TIM_Base_SetConfig+0x6e>
 80038c8:	4b07      	ldr	r3, [pc, #28]	; (80038e8 <TIM_Base_SetConfig+0x88>)
 80038ca:	4298      	cmp	r0, r3
 80038cc:	d101      	bne.n	80038d2 <TIM_Base_SetConfig+0x72>
 80038ce:	690b      	ldr	r3, [r1, #16]
 80038d0:	6303      	str	r3, [r0, #48]	; 0x30
 80038d2:	2301      	movs	r3, #1
 80038d4:	6143      	str	r3, [r0, #20]
 80038d6:	bd10      	pop	{r4, pc}
 80038d8:	40012c00 	.word	0x40012c00
 80038dc:	40000400 	.word	0x40000400
 80038e0:	40002000 	.word	0x40002000
 80038e4:	40014400 	.word	0x40014400
 80038e8:	40014800 	.word	0x40014800
 80038ec:	fffffcff 	.word	0xfffffcff

080038f0 <HAL_TIM_Base_Init>:
 80038f0:	b570      	push	{r4, r5, r6, lr}
 80038f2:	0004      	movs	r4, r0
 80038f4:	2001      	movs	r0, #1
 80038f6:	2c00      	cmp	r4, #0
 80038f8:	d021      	beq.n	800393e <HAL_TIM_Base_Init+0x4e>
 80038fa:	0025      	movs	r5, r4
 80038fc:	353d      	adds	r5, #61	; 0x3d
 80038fe:	782b      	ldrb	r3, [r5, #0]
 8003900:	b2da      	uxtb	r2, r3
 8003902:	2b00      	cmp	r3, #0
 8003904:	d105      	bne.n	8003912 <HAL_TIM_Base_Init+0x22>
 8003906:	0023      	movs	r3, r4
 8003908:	333c      	adds	r3, #60	; 0x3c
 800390a:	0020      	movs	r0, r4
 800390c:	701a      	strb	r2, [r3, #0]
 800390e:	f7fd facf 	bl	8000eb0 <HAL_TIM_Base_MspInit>
 8003912:	2302      	movs	r3, #2
 8003914:	702b      	strb	r3, [r5, #0]
 8003916:	6820      	ldr	r0, [r4, #0]
 8003918:	1d21      	adds	r1, r4, #4
 800391a:	f7ff ffa1 	bl	8003860 <TIM_Base_SetConfig>
 800391e:	0022      	movs	r2, r4
 8003920:	2301      	movs	r3, #1
 8003922:	2000      	movs	r0, #0
 8003924:	3246      	adds	r2, #70	; 0x46
 8003926:	7013      	strb	r3, [r2, #0]
 8003928:	3445      	adds	r4, #69	; 0x45
 800392a:	3a08      	subs	r2, #8
 800392c:	7013      	strb	r3, [r2, #0]
 800392e:	7053      	strb	r3, [r2, #1]
 8003930:	7093      	strb	r3, [r2, #2]
 8003932:	70d3      	strb	r3, [r2, #3]
 8003934:	7113      	strb	r3, [r2, #4]
 8003936:	7153      	strb	r3, [r2, #5]
 8003938:	7193      	strb	r3, [r2, #6]
 800393a:	7023      	strb	r3, [r4, #0]
 800393c:	702b      	strb	r3, [r5, #0]
 800393e:	bd70      	pop	{r4, r5, r6, pc}

08003940 <HAL_TIM_PWM_Init>:
 8003940:	b570      	push	{r4, r5, r6, lr}
 8003942:	0004      	movs	r4, r0
 8003944:	2001      	movs	r0, #1
 8003946:	2c00      	cmp	r4, #0
 8003948:	d021      	beq.n	800398e <HAL_TIM_PWM_Init+0x4e>
 800394a:	0025      	movs	r5, r4
 800394c:	353d      	adds	r5, #61	; 0x3d
 800394e:	782b      	ldrb	r3, [r5, #0]
 8003950:	b2da      	uxtb	r2, r3
 8003952:	2b00      	cmp	r3, #0
 8003954:	d105      	bne.n	8003962 <HAL_TIM_PWM_Init+0x22>
 8003956:	0023      	movs	r3, r4
 8003958:	333c      	adds	r3, #60	; 0x3c
 800395a:	0020      	movs	r0, r4
 800395c:	701a      	strb	r2, [r3, #0]
 800395e:	f7ff fed5 	bl	800370c <HAL_TIM_PWM_MspInit>
 8003962:	2302      	movs	r3, #2
 8003964:	702b      	strb	r3, [r5, #0]
 8003966:	6820      	ldr	r0, [r4, #0]
 8003968:	1d21      	adds	r1, r4, #4
 800396a:	f7ff ff79 	bl	8003860 <TIM_Base_SetConfig>
 800396e:	0022      	movs	r2, r4
 8003970:	2301      	movs	r3, #1
 8003972:	2000      	movs	r0, #0
 8003974:	3246      	adds	r2, #70	; 0x46
 8003976:	7013      	strb	r3, [r2, #0]
 8003978:	3445      	adds	r4, #69	; 0x45
 800397a:	3a08      	subs	r2, #8
 800397c:	7013      	strb	r3, [r2, #0]
 800397e:	7053      	strb	r3, [r2, #1]
 8003980:	7093      	strb	r3, [r2, #2]
 8003982:	70d3      	strb	r3, [r2, #3]
 8003984:	7113      	strb	r3, [r2, #4]
 8003986:	7153      	strb	r3, [r2, #5]
 8003988:	7193      	strb	r3, [r2, #6]
 800398a:	7023      	strb	r3, [r4, #0]
 800398c:	702b      	strb	r3, [r5, #0]
 800398e:	bd70      	pop	{r4, r5, r6, pc}

08003990 <TIM_OC2_SetConfig>:
 8003990:	2210      	movs	r2, #16
 8003992:	6a03      	ldr	r3, [r0, #32]
 8003994:	b570      	push	{r4, r5, r6, lr}
 8003996:	4393      	bics	r3, r2
 8003998:	6203      	str	r3, [r0, #32]
 800399a:	6a02      	ldr	r2, [r0, #32]
 800399c:	4c15      	ldr	r4, [pc, #84]	; (80039f4 <TIM_OC2_SetConfig+0x64>)
 800399e:	6843      	ldr	r3, [r0, #4]
 80039a0:	6985      	ldr	r5, [r0, #24]
 80039a2:	4025      	ands	r5, r4
 80039a4:	680c      	ldr	r4, [r1, #0]
 80039a6:	0224      	lsls	r4, r4, #8
 80039a8:	4325      	orrs	r5, r4
 80039aa:	2420      	movs	r4, #32
 80039ac:	43a2      	bics	r2, r4
 80039ae:	688c      	ldr	r4, [r1, #8]
 80039b0:	0124      	lsls	r4, r4, #4
 80039b2:	4322      	orrs	r2, r4
 80039b4:	4c10      	ldr	r4, [pc, #64]	; (80039f8 <TIM_OC2_SetConfig+0x68>)
 80039b6:	42a0      	cmp	r0, r4
 80039b8:	d10f      	bne.n	80039da <TIM_OC2_SetConfig+0x4a>
 80039ba:	2480      	movs	r4, #128	; 0x80
 80039bc:	43a2      	bics	r2, r4
 80039be:	0014      	movs	r4, r2
 80039c0:	68ca      	ldr	r2, [r1, #12]
 80039c2:	0112      	lsls	r2, r2, #4
 80039c4:	4322      	orrs	r2, r4
 80039c6:	2440      	movs	r4, #64	; 0x40
 80039c8:	43a2      	bics	r2, r4
 80039ca:	4e0c      	ldr	r6, [pc, #48]	; (80039fc <TIM_OC2_SetConfig+0x6c>)
 80039cc:	694c      	ldr	r4, [r1, #20]
 80039ce:	401e      	ands	r6, r3
 80039d0:	698b      	ldr	r3, [r1, #24]
 80039d2:	4323      	orrs	r3, r4
 80039d4:	009b      	lsls	r3, r3, #2
 80039d6:	4333      	orrs	r3, r6
 80039d8:	e005      	b.n	80039e6 <TIM_OC2_SetConfig+0x56>
 80039da:	4c09      	ldr	r4, [pc, #36]	; (8003a00 <TIM_OC2_SetConfig+0x70>)
 80039dc:	42a0      	cmp	r0, r4
 80039de:	d0f4      	beq.n	80039ca <TIM_OC2_SetConfig+0x3a>
 80039e0:	4c08      	ldr	r4, [pc, #32]	; (8003a04 <TIM_OC2_SetConfig+0x74>)
 80039e2:	42a0      	cmp	r0, r4
 80039e4:	d0f1      	beq.n	80039ca <TIM_OC2_SetConfig+0x3a>
 80039e6:	6043      	str	r3, [r0, #4]
 80039e8:	684b      	ldr	r3, [r1, #4]
 80039ea:	6185      	str	r5, [r0, #24]
 80039ec:	6383      	str	r3, [r0, #56]	; 0x38
 80039ee:	6202      	str	r2, [r0, #32]
 80039f0:	bd70      	pop	{r4, r5, r6, pc}
 80039f2:	46c0      	nop			; (mov r8, r8)
 80039f4:	ffff8cff 	.word	0xffff8cff
 80039f8:	40012c00 	.word	0x40012c00
 80039fc:	fffff3ff 	.word	0xfffff3ff
 8003a00:	40014400 	.word	0x40014400
 8003a04:	40014800 	.word	0x40014800

08003a08 <HAL_TIM_PWM_ConfigChannel>:
 8003a08:	b5f8      	push	{r3, r4, r5, r6, r7, lr}
 8003a0a:	0007      	movs	r7, r0
 8003a0c:	373c      	adds	r7, #60	; 0x3c
 8003a0e:	783b      	ldrb	r3, [r7, #0]
 8003a10:	0004      	movs	r4, r0
 8003a12:	000e      	movs	r6, r1
 8003a14:	0015      	movs	r5, r2
 8003a16:	2002      	movs	r0, #2
 8003a18:	2b01      	cmp	r3, #1
 8003a1a:	d00a      	beq.n	8003a32 <HAL_TIM_PWM_ConfigChannel+0x2a>
 8003a1c:	3801      	subs	r0, #1
 8003a1e:	7038      	strb	r0, [r7, #0]
 8003a20:	2a08      	cmp	r2, #8
 8003a22:	d03d      	beq.n	8003aa0 <HAL_TIM_PWM_ConfigChannel+0x98>
 8003a24:	d806      	bhi.n	8003a34 <HAL_TIM_PWM_ConfigChannel+0x2c>
 8003a26:	2a00      	cmp	r2, #0
 8003a28:	d017      	beq.n	8003a5a <HAL_TIM_PWM_ConfigChannel+0x52>
 8003a2a:	2a04      	cmp	r2, #4
 8003a2c:	d027      	beq.n	8003a7e <HAL_TIM_PWM_ConfigChannel+0x76>
 8003a2e:	2300      	movs	r3, #0
 8003a30:	703b      	strb	r3, [r7, #0]
 8003a32:	bdf8      	pop	{r3, r4, r5, r6, r7, pc}
 8003a34:	2a0c      	cmp	r2, #12
 8003a36:	d1fa      	bne.n	8003a2e <HAL_TIM_PWM_ConfigChannel+0x26>
 8003a38:	6820      	ldr	r0, [r4, #0]
 8003a3a:	f7ff fe07 	bl	800364c <TIM_OC4_SetConfig>
 8003a3e:	2280      	movs	r2, #128	; 0x80
 8003a40:	6823      	ldr	r3, [r4, #0]
 8003a42:	0112      	lsls	r2, r2, #4
 8003a44:	69d9      	ldr	r1, [r3, #28]
 8003a46:	430a      	orrs	r2, r1
 8003a48:	61da      	str	r2, [r3, #28]
 8003a4a:	69da      	ldr	r2, [r3, #28]
 8003a4c:	491c      	ldr	r1, [pc, #112]	; (8003ac0 <HAL_TIM_PWM_ConfigChannel+0xb8>)
 8003a4e:	400a      	ands	r2, r1
 8003a50:	61da      	str	r2, [r3, #28]
 8003a52:	6932      	ldr	r2, [r6, #16]
 8003a54:	69d9      	ldr	r1, [r3, #28]
 8003a56:	0212      	lsls	r2, r2, #8
 8003a58:	e02f      	b.n	8003aba <HAL_TIM_PWM_ConfigChannel+0xb2>
 8003a5a:	6820      	ldr	r0, [r4, #0]
 8003a5c:	f7ff fd7a 	bl	8003554 <TIM_OC1_SetConfig>
 8003a60:	2208      	movs	r2, #8
 8003a62:	6823      	ldr	r3, [r4, #0]
 8003a64:	6999      	ldr	r1, [r3, #24]
 8003a66:	430a      	orrs	r2, r1
 8003a68:	2104      	movs	r1, #4
 8003a6a:	619a      	str	r2, [r3, #24]
 8003a6c:	699a      	ldr	r2, [r3, #24]
 8003a6e:	438a      	bics	r2, r1
 8003a70:	619a      	str	r2, [r3, #24]
 8003a72:	699a      	ldr	r2, [r3, #24]
 8003a74:	6931      	ldr	r1, [r6, #16]
 8003a76:	430a      	orrs	r2, r1
 8003a78:	619a      	str	r2, [r3, #24]
 8003a7a:	2000      	movs	r0, #0
 8003a7c:	e7d7      	b.n	8003a2e <HAL_TIM_PWM_ConfigChannel+0x26>
 8003a7e:	6820      	ldr	r0, [r4, #0]
 8003a80:	f7ff ff86 	bl	8003990 <TIM_OC2_SetConfig>
 8003a84:	2280      	movs	r2, #128	; 0x80
 8003a86:	6823      	ldr	r3, [r4, #0]
 8003a88:	0112      	lsls	r2, r2, #4
 8003a8a:	6999      	ldr	r1, [r3, #24]
 8003a8c:	430a      	orrs	r2, r1
 8003a8e:	619a      	str	r2, [r3, #24]
 8003a90:	699a      	ldr	r2, [r3, #24]
 8003a92:	490b      	ldr	r1, [pc, #44]	; (8003ac0 <HAL_TIM_PWM_ConfigChannel+0xb8>)
 8003a94:	400a      	ands	r2, r1
 8003a96:	619a      	str	r2, [r3, #24]
 8003a98:	6932      	ldr	r2, [r6, #16]
 8003a9a:	6999      	ldr	r1, [r3, #24]
 8003a9c:	0212      	lsls	r2, r2, #8
 8003a9e:	e7ea      	b.n	8003a76 <HAL_TIM_PWM_ConfigChannel+0x6e>
 8003aa0:	6820      	ldr	r0, [r4, #0]
 8003aa2:	f7ff fd93 	bl	80035cc <TIM_OC3_SetConfig>
 8003aa6:	2104      	movs	r1, #4
 8003aa8:	6823      	ldr	r3, [r4, #0]
 8003aaa:	69da      	ldr	r2, [r3, #28]
 8003aac:	4315      	orrs	r5, r2
 8003aae:	61dd      	str	r5, [r3, #28]
 8003ab0:	69da      	ldr	r2, [r3, #28]
 8003ab2:	438a      	bics	r2, r1
 8003ab4:	61da      	str	r2, [r3, #28]
 8003ab6:	69da      	ldr	r2, [r3, #28]
 8003ab8:	6931      	ldr	r1, [r6, #16]
 8003aba:	430a      	orrs	r2, r1
 8003abc:	61da      	str	r2, [r3, #28]
 8003abe:	e7dc      	b.n	8003a7a <HAL_TIM_PWM_ConfigChannel+0x72>
 8003ac0:	fffffbff 	.word	0xfffffbff

08003ac4 <TIM_ETR_SetConfig>:
 8003ac4:	b530      	push	{r4, r5, lr}
 8003ac6:	6884      	ldr	r4, [r0, #8]
 8003ac8:	4d03      	ldr	r5, [pc, #12]	; (8003ad8 <TIM_ETR_SetConfig+0x14>)
 8003aca:	430a      	orrs	r2, r1
 8003acc:	021b      	lsls	r3, r3, #8
 8003ace:	402c      	ands	r4, r5
 8003ad0:	4313      	orrs	r3, r2
 8003ad2:	4323      	orrs	r3, r4
 8003ad4:	6083      	str	r3, [r0, #8]
 8003ad6:	bd30      	pop	{r4, r5, pc}
 8003ad8:	ffff00ff 	.word	0xffff00ff

08003adc <HAL_TIM_ConfigClockSource>:
 8003adc:	b5f8      	push	{r3, r4, r5, r6, r7, lr}
 8003ade:	0005      	movs	r5, r0
 8003ae0:	2302      	movs	r3, #2
 8003ae2:	353c      	adds	r5, #60	; 0x3c
 8003ae4:	0004      	movs	r4, r0
 8003ae6:	7828      	ldrb	r0, [r5, #0]
 8003ae8:	001a      	movs	r2, r3
 8003aea:	2801      	cmp	r0, #1
 8003aec:	d01d      	beq.n	8003b2a <HAL_TIM_ConfigClockSource+0x4e>
 8003aee:	0026      	movs	r6, r4
 8003af0:	2701      	movs	r7, #1
 8003af2:	363d      	adds	r6, #61	; 0x3d
 8003af4:	702f      	strb	r7, [r5, #0]
 8003af6:	7033      	strb	r3, [r6, #0]
 8003af8:	6820      	ldr	r0, [r4, #0]
 8003afa:	4a49      	ldr	r2, [pc, #292]	; (8003c20 <HAL_TIM_ConfigClockSource+0x144>)
 8003afc:	6883      	ldr	r3, [r0, #8]
 8003afe:	4013      	ands	r3, r2
 8003b00:	6083      	str	r3, [r0, #8]
 8003b02:	680b      	ldr	r3, [r1, #0]
 8003b04:	2b60      	cmp	r3, #96	; 0x60
 8003b06:	d059      	beq.n	8003bbc <HAL_TIM_ConfigClockSource+0xe0>
 8003b08:	d835      	bhi.n	8003b76 <HAL_TIM_ConfigClockSource+0x9a>
 8003b0a:	2b40      	cmp	r3, #64	; 0x40
 8003b0c:	d100      	bne.n	8003b10 <HAL_TIM_ConfigClockSource+0x34>
 8003b0e:	e06e      	b.n	8003bee <HAL_TIM_ConfigClockSource+0x112>
 8003b10:	d815      	bhi.n	8003b3e <HAL_TIM_ConfigClockSource+0x62>
 8003b12:	2b20      	cmp	r3, #32
 8003b14:	d00d      	beq.n	8003b32 <HAL_TIM_ConfigClockSource+0x56>
 8003b16:	d80a      	bhi.n	8003b2e <HAL_TIM_ConfigClockSource+0x52>
 8003b18:	2210      	movs	r2, #16
 8003b1a:	0019      	movs	r1, r3
 8003b1c:	4391      	bics	r1, r2
 8003b1e:	d008      	beq.n	8003b32 <HAL_TIM_ConfigClockSource+0x56>
 8003b20:	003a      	movs	r2, r7
 8003b22:	2301      	movs	r3, #1
 8003b24:	7033      	strb	r3, [r6, #0]
 8003b26:	2300      	movs	r3, #0
 8003b28:	702b      	strb	r3, [r5, #0]
 8003b2a:	0010      	movs	r0, r2
 8003b2c:	bdf8      	pop	{r3, r4, r5, r6, r7, pc}
 8003b2e:	2b30      	cmp	r3, #48	; 0x30
 8003b30:	d1f6      	bne.n	8003b20 <HAL_TIM_ConfigClockSource+0x44>
 8003b32:	2170      	movs	r1, #112	; 0x70
 8003b34:	6882      	ldr	r2, [r0, #8]
 8003b36:	438a      	bics	r2, r1
 8003b38:	4313      	orrs	r3, r2
 8003b3a:	2207      	movs	r2, #7
 8003b3c:	e018      	b.n	8003b70 <HAL_TIM_ConfigClockSource+0x94>
 8003b3e:	2b50      	cmp	r3, #80	; 0x50
 8003b40:	d1ee      	bne.n	8003b20 <HAL_TIM_ConfigClockSource+0x44>
 8003b42:	68ca      	ldr	r2, [r1, #12]
 8003b44:	684c      	ldr	r4, [r1, #4]
 8003b46:	6a01      	ldr	r1, [r0, #32]
 8003b48:	6a03      	ldr	r3, [r0, #32]
 8003b4a:	43bb      	bics	r3, r7
 8003b4c:	27f0      	movs	r7, #240	; 0xf0
 8003b4e:	6203      	str	r3, [r0, #32]
 8003b50:	6983      	ldr	r3, [r0, #24]
 8003b52:	43bb      	bics	r3, r7
 8003b54:	001f      	movs	r7, r3
 8003b56:	0113      	lsls	r3, r2, #4
 8003b58:	220a      	movs	r2, #10
 8003b5a:	4391      	bics	r1, r2
 8003b5c:	000a      	movs	r2, r1
 8003b5e:	433b      	orrs	r3, r7
 8003b60:	4322      	orrs	r2, r4
 8003b62:	6183      	str	r3, [r0, #24]
 8003b64:	6202      	str	r2, [r0, #32]
 8003b66:	2270      	movs	r2, #112	; 0x70
 8003b68:	6883      	ldr	r3, [r0, #8]
 8003b6a:	4393      	bics	r3, r2
 8003b6c:	001a      	movs	r2, r3
 8003b6e:	2357      	movs	r3, #87	; 0x57
 8003b70:	4313      	orrs	r3, r2
 8003b72:	6083      	str	r3, [r0, #8]
 8003b74:	e016      	b.n	8003ba4 <HAL_TIM_ConfigClockSource+0xc8>
 8003b76:	2280      	movs	r2, #128	; 0x80
 8003b78:	0152      	lsls	r2, r2, #5
 8003b7a:	4694      	mov	ip, r2
 8003b7c:	2200      	movs	r2, #0
 8003b7e:	4563      	cmp	r3, ip
 8003b80:	d0cf      	beq.n	8003b22 <HAL_TIM_ConfigClockSource+0x46>
 8003b82:	2280      	movs	r2, #128	; 0x80
 8003b84:	0192      	lsls	r2, r2, #6
 8003b86:	4293      	cmp	r3, r2
 8003b88:	d00e      	beq.n	8003ba8 <HAL_TIM_ConfigClockSource+0xcc>
 8003b8a:	003a      	movs	r2, r7
 8003b8c:	2b70      	cmp	r3, #112	; 0x70
 8003b8e:	d1c8      	bne.n	8003b22 <HAL_TIM_ConfigClockSource+0x46>
 8003b90:	68cb      	ldr	r3, [r1, #12]
 8003b92:	684a      	ldr	r2, [r1, #4]
 8003b94:	6889      	ldr	r1, [r1, #8]
 8003b96:	f7ff ff95 	bl	8003ac4 <TIM_ETR_SetConfig>
 8003b9a:	2377      	movs	r3, #119	; 0x77
 8003b9c:	6822      	ldr	r2, [r4, #0]
 8003b9e:	6891      	ldr	r1, [r2, #8]
 8003ba0:	430b      	orrs	r3, r1
 8003ba2:	6093      	str	r3, [r2, #8]
 8003ba4:	2200      	movs	r2, #0
 8003ba6:	e7bc      	b.n	8003b22 <HAL_TIM_ConfigClockSource+0x46>
 8003ba8:	68cb      	ldr	r3, [r1, #12]
 8003baa:	684a      	ldr	r2, [r1, #4]
 8003bac:	6889      	ldr	r1, [r1, #8]
 8003bae:	f7ff ff89 	bl	8003ac4 <TIM_ETR_SetConfig>
 8003bb2:	2380      	movs	r3, #128	; 0x80
 8003bb4:	6822      	ldr	r2, [r4, #0]
 8003bb6:	01db      	lsls	r3, r3, #7
 8003bb8:	6891      	ldr	r1, [r2, #8]
 8003bba:	e7f1      	b.n	8003ba0 <HAL_TIM_ConfigClockSource+0xc4>
 8003bbc:	684a      	ldr	r2, [r1, #4]
 8003bbe:	68cf      	ldr	r7, [r1, #12]
 8003bc0:	2110      	movs	r1, #16
 8003bc2:	6a03      	ldr	r3, [r0, #32]
 8003bc4:	4c17      	ldr	r4, [pc, #92]	; (8003c24 <HAL_TIM_ConfigClockSource+0x148>)
 8003bc6:	438b      	bics	r3, r1
 8003bc8:	6203      	str	r3, [r0, #32]
 8003bca:	6981      	ldr	r1, [r0, #24]
 8003bcc:	6a03      	ldr	r3, [r0, #32]
 8003bce:	4021      	ands	r1, r4
 8003bd0:	24a0      	movs	r4, #160	; 0xa0
 8003bd2:	43a3      	bics	r3, r4
 8003bd4:	001c      	movs	r4, r3
 8003bd6:	0113      	lsls	r3, r2, #4
 8003bd8:	2270      	movs	r2, #112	; 0x70
 8003bda:	033f      	lsls	r7, r7, #12
 8003bdc:	4323      	orrs	r3, r4
 8003bde:	4339      	orrs	r1, r7
 8003be0:	6181      	str	r1, [r0, #24]
 8003be2:	6203      	str	r3, [r0, #32]
 8003be4:	6883      	ldr	r3, [r0, #8]
 8003be6:	4393      	bics	r3, r2
 8003be8:	001a      	movs	r2, r3
 8003bea:	2367      	movs	r3, #103	; 0x67
 8003bec:	e7c0      	b.n	8003b70 <HAL_TIM_ConfigClockSource+0x94>
 8003bee:	68ca      	ldr	r2, [r1, #12]
 8003bf0:	684c      	ldr	r4, [r1, #4]
 8003bf2:	6a01      	ldr	r1, [r0, #32]
 8003bf4:	6a03      	ldr	r3, [r0, #32]
 8003bf6:	43bb      	bics	r3, r7
 8003bf8:	27f0      	movs	r7, #240	; 0xf0
 8003bfa:	6203      	str	r3, [r0, #32]
 8003bfc:	6983      	ldr	r3, [r0, #24]
 8003bfe:	43bb      	bics	r3, r7
 8003c00:	001f      	movs	r7, r3
 8003c02:	0113      	lsls	r3, r2, #4
 8003c04:	220a      	movs	r2, #10
 8003c06:	4391      	bics	r1, r2
 8003c08:	000a      	movs	r2, r1
 8003c0a:	433b      	orrs	r3, r7
 8003c0c:	4322      	orrs	r2, r4
 8003c0e:	6183      	str	r3, [r0, #24]
 8003c10:	6202      	str	r2, [r0, #32]
 8003c12:	2270      	movs	r2, #112	; 0x70
 8003c14:	6883      	ldr	r3, [r0, #8]
 8003c16:	4393      	bics	r3, r2
 8003c18:	001a      	movs	r2, r3
 8003c1a:	2347      	movs	r3, #71	; 0x47
 8003c1c:	e7a8      	b.n	8003b70 <HAL_TIM_ConfigClockSource+0x94>
 8003c1e:	46c0      	nop			; (mov r8, r8)
 8003c20:	ffff0088 	.word	0xffff0088
 8003c24:	ffff0fff 	.word	0xffff0fff

08003c28 <TIM_SlaveTimer_SetConfig>:
 8003c28:	2270      	movs	r2, #112	; 0x70
 8003c2a:	b570      	push	{r4, r5, r6, lr}
 8003c2c:	2407      	movs	r4, #7
 8003c2e:	6800      	ldr	r0, [r0, #0]
 8003c30:	6883      	ldr	r3, [r0, #8]
 8003c32:	4393      	bics	r3, r2
 8003c34:	684a      	ldr	r2, [r1, #4]
 8003c36:	4313      	orrs	r3, r2
 8003c38:	43a3      	bics	r3, r4
 8003c3a:	680c      	ldr	r4, [r1, #0]
 8003c3c:	4323      	orrs	r3, r4
 8003c3e:	6083      	str	r3, [r0, #8]
 8003c40:	2a50      	cmp	r2, #80	; 0x50
 8003c42:	d031      	beq.n	8003ca8 <TIM_SlaveTimer_SetConfig+0x80>
 8003c44:	d813      	bhi.n	8003c6e <TIM_SlaveTimer_SetConfig+0x46>
 8003c46:	2a40      	cmp	r2, #64	; 0x40
 8003c48:	d01d      	beq.n	8003c86 <TIM_SlaveTimer_SetConfig+0x5e>
 8003c4a:	2301      	movs	r3, #1
 8003c4c:	2a40      	cmp	r2, #64	; 0x40
 8003c4e:	d809      	bhi.n	8003c64 <TIM_SlaveTimer_SetConfig+0x3c>
 8003c50:	2300      	movs	r3, #0
 8003c52:	2a20      	cmp	r2, #32
 8003c54:	d006      	beq.n	8003c64 <TIM_SlaveTimer_SetConfig+0x3c>
 8003c56:	d807      	bhi.n	8003c68 <TIM_SlaveTimer_SetConfig+0x40>
 8003c58:	3310      	adds	r3, #16
 8003c5a:	439a      	bics	r2, r3
 8003c5c:	0013      	movs	r3, r2
 8003c5e:	1e5a      	subs	r2, r3, #1
 8003c60:	4193      	sbcs	r3, r2
 8003c62:	b2db      	uxtb	r3, r3
 8003c64:	0018      	movs	r0, r3
 8003c66:	bd70      	pop	{r4, r5, r6, pc}
 8003c68:	0013      	movs	r3, r2
 8003c6a:	3b30      	subs	r3, #48	; 0x30
 8003c6c:	e7f7      	b.n	8003c5e <TIM_SlaveTimer_SetConfig+0x36>
 8003c6e:	2a60      	cmp	r2, #96	; 0x60
 8003c70:	d02e      	beq.n	8003cd0 <TIM_SlaveTimer_SetConfig+0xa8>
 8003c72:	2301      	movs	r3, #1
 8003c74:	2a70      	cmp	r2, #112	; 0x70
 8003c76:	d1f5      	bne.n	8003c64 <TIM_SlaveTimer_SetConfig+0x3c>
 8003c78:	690b      	ldr	r3, [r1, #16]
 8003c7a:	688a      	ldr	r2, [r1, #8]
 8003c7c:	68c9      	ldr	r1, [r1, #12]
 8003c7e:	f7ff ff21 	bl	8003ac4 <TIM_ETR_SetConfig>
 8003c82:	2300      	movs	r3, #0
 8003c84:	e7ee      	b.n	8003c64 <TIM_SlaveTimer_SetConfig+0x3c>
 8003c86:	2201      	movs	r2, #1
 8003c88:	0013      	movs	r3, r2
 8003c8a:	2c05      	cmp	r4, #5
 8003c8c:	d0ea      	beq.n	8003c64 <TIM_SlaveTimer_SetConfig+0x3c>
 8003c8e:	6a05      	ldr	r5, [r0, #32]
 8003c90:	6a03      	ldr	r3, [r0, #32]
 8003c92:	4393      	bics	r3, r2
 8003c94:	6203      	str	r3, [r0, #32]
 8003c96:	6984      	ldr	r4, [r0, #24]
 8003c98:	690b      	ldr	r3, [r1, #16]
 8003c9a:	32ef      	adds	r2, #239	; 0xef
 8003c9c:	4394      	bics	r4, r2
 8003c9e:	011b      	lsls	r3, r3, #4
 8003ca0:	4323      	orrs	r3, r4
 8003ca2:	6183      	str	r3, [r0, #24]
 8003ca4:	6205      	str	r5, [r0, #32]
 8003ca6:	e7ec      	b.n	8003c82 <TIM_SlaveTimer_SetConfig+0x5a>
 8003ca8:	2501      	movs	r5, #1
 8003caa:	690a      	ldr	r2, [r1, #16]
 8003cac:	688c      	ldr	r4, [r1, #8]
 8003cae:	6a01      	ldr	r1, [r0, #32]
 8003cb0:	6a03      	ldr	r3, [r0, #32]
 8003cb2:	43ab      	bics	r3, r5
 8003cb4:	6203      	str	r3, [r0, #32]
 8003cb6:	6983      	ldr	r3, [r0, #24]
 8003cb8:	35ef      	adds	r5, #239	; 0xef
 8003cba:	43ab      	bics	r3, r5
 8003cbc:	001d      	movs	r5, r3
 8003cbe:	0113      	lsls	r3, r2, #4
 8003cc0:	220a      	movs	r2, #10
 8003cc2:	4391      	bics	r1, r2
 8003cc4:	000a      	movs	r2, r1
 8003cc6:	432b      	orrs	r3, r5
 8003cc8:	4322      	orrs	r2, r4
 8003cca:	6183      	str	r3, [r0, #24]
 8003ccc:	6202      	str	r2, [r0, #32]
 8003cce:	e7d8      	b.n	8003c82 <TIM_SlaveTimer_SetConfig+0x5a>
 8003cd0:	690c      	ldr	r4, [r1, #16]
 8003cd2:	688a      	ldr	r2, [r1, #8]
 8003cd4:	2110      	movs	r1, #16
 8003cd6:	6a03      	ldr	r3, [r0, #32]
 8003cd8:	4d07      	ldr	r5, [pc, #28]	; (8003cf8 <TIM_SlaveTimer_SetConfig+0xd0>)
 8003cda:	438b      	bics	r3, r1
 8003cdc:	6203      	str	r3, [r0, #32]
 8003cde:	6981      	ldr	r1, [r0, #24]
 8003ce0:	6a03      	ldr	r3, [r0, #32]
 8003ce2:	400d      	ands	r5, r1
 8003ce4:	0321      	lsls	r1, r4, #12
 8003ce6:	24a0      	movs	r4, #160	; 0xa0
 8003ce8:	43a3      	bics	r3, r4
 8003cea:	001c      	movs	r4, r3
 8003cec:	0113      	lsls	r3, r2, #4
 8003cee:	4329      	orrs	r1, r5
 8003cf0:	4323      	orrs	r3, r4
 8003cf2:	6181      	str	r1, [r0, #24]
 8003cf4:	6203      	str	r3, [r0, #32]
 8003cf6:	e7c4      	b.n	8003c82 <TIM_SlaveTimer_SetConfig+0x5a>
 8003cf8:	ffff0fff 	.word	0xffff0fff

08003cfc <HAL_TIM_SlaveConfigSynchro>:
 8003cfc:	b5f8      	push	{r3, r4, r5, r6, r7, lr}
 8003cfe:	0005      	movs	r5, r0
 8003d00:	2302      	movs	r3, #2
 8003d02:	353c      	adds	r5, #60	; 0x3c
 8003d04:	782a      	ldrb	r2, [r5, #0]
 8003d06:	0004      	movs	r4, r0
 8003d08:	0018      	movs	r0, r3
 8003d0a:	2a01      	cmp	r2, #1
 8003d0c:	d00d      	beq.n	8003d2a <HAL_TIM_SlaveConfigSynchro+0x2e>
 8003d0e:	0027      	movs	r7, r4
 8003d10:	2601      	movs	r6, #1
 8003d12:	373d      	adds	r7, #61	; 0x3d
 8003d14:	702e      	strb	r6, [r5, #0]
 8003d16:	0020      	movs	r0, r4
 8003d18:	703b      	strb	r3, [r7, #0]
 8003d1a:	f7ff ff85 	bl	8003c28 <TIM_SlaveTimer_SetConfig>
 8003d1e:	2800      	cmp	r0, #0
 8003d20:	d004      	beq.n	8003d2c <HAL_TIM_SlaveConfigSynchro+0x30>
 8003d22:	2300      	movs	r3, #0
 8003d24:	0030      	movs	r0, r6
 8003d26:	703e      	strb	r6, [r7, #0]
 8003d28:	702b      	strb	r3, [r5, #0]
 8003d2a:	bdf8      	pop	{r3, r4, r5, r6, r7, pc}
 8003d2c:	2140      	movs	r1, #64	; 0x40
 8003d2e:	6823      	ldr	r3, [r4, #0]
 8003d30:	68da      	ldr	r2, [r3, #12]
 8003d32:	438a      	bics	r2, r1
 8003d34:	60da      	str	r2, [r3, #12]
 8003d36:	68da      	ldr	r2, [r3, #12]
 8003d38:	4902      	ldr	r1, [pc, #8]	; (8003d44 <HAL_TIM_SlaveConfigSynchro+0x48>)
 8003d3a:	400a      	ands	r2, r1
 8003d3c:	60da      	str	r2, [r3, #12]
 8003d3e:	703e      	strb	r6, [r7, #0]
 8003d40:	7028      	strb	r0, [r5, #0]
 8003d42:	e7f2      	b.n	8003d2a <HAL_TIM_SlaveConfigSynchro+0x2e>
 8003d44:	ffffbfff 	.word	0xffffbfff

08003d48 <TIM_CCxChannelCmd>:
 8003d48:	231f      	movs	r3, #31
 8003d4a:	b510      	push	{r4, lr}
 8003d4c:	2401      	movs	r4, #1
 8003d4e:	4019      	ands	r1, r3
 8003d50:	408c      	lsls	r4, r1
 8003d52:	408a      	lsls	r2, r1
 8003d54:	6a03      	ldr	r3, [r0, #32]
 8003d56:	43a3      	bics	r3, r4
 8003d58:	6203      	str	r3, [r0, #32]
 8003d5a:	6a03      	ldr	r3, [r0, #32]
 8003d5c:	431a      	orrs	r2, r3
 8003d5e:	6202      	str	r2, [r0, #32]
 8003d60:	bd10      	pop	{r4, pc}
	...

08003d64 <HAL_TIM_OC_Start>:
 8003d64:	b510      	push	{r4, lr}
 8003d66:	0003      	movs	r3, r0
 8003d68:	0004      	movs	r4, r0
 8003d6a:	2900      	cmp	r1, #0
 8003d6c:	d105      	bne.n	8003d7a <HAL_TIM_OC_Start+0x16>
 8003d6e:	2001      	movs	r0, #1
 8003d70:	333e      	adds	r3, #62	; 0x3e
 8003d72:	781a      	ldrb	r2, [r3, #0]
 8003d74:	4282      	cmp	r2, r0
 8003d76:	d018      	beq.n	8003daa <HAL_TIM_OC_Start+0x46>
 8003d78:	bd10      	pop	{r4, pc}
 8003d7a:	2904      	cmp	r1, #4
 8003d7c:	d10f      	bne.n	8003d9e <HAL_TIM_OC_Start+0x3a>
 8003d7e:	333f      	adds	r3, #63	; 0x3f
 8003d80:	781b      	ldrb	r3, [r3, #0]
 8003d82:	2001      	movs	r0, #1
 8003d84:	3b01      	subs	r3, #1
 8003d86:	1e5a      	subs	r2, r3, #1
 8003d88:	4193      	sbcs	r3, r2
 8003d8a:	b2db      	uxtb	r3, r3
 8003d8c:	2b00      	cmp	r3, #0
 8003d8e:	d1f3      	bne.n	8003d78 <HAL_TIM_OC_Start+0x14>
 8003d90:	2302      	movs	r3, #2
 8003d92:	0022      	movs	r2, r4
 8003d94:	2904      	cmp	r1, #4
 8003d96:	d123      	bne.n	8003de0 <HAL_TIM_OC_Start+0x7c>
 8003d98:	323f      	adds	r2, #63	; 0x3f
 8003d9a:	7013      	strb	r3, [r2, #0]
 8003d9c:	e007      	b.n	8003dae <HAL_TIM_OC_Start+0x4a>
 8003d9e:	2908      	cmp	r1, #8
 8003da0:	d101      	bne.n	8003da6 <HAL_TIM_OC_Start+0x42>
 8003da2:	3340      	adds	r3, #64	; 0x40
 8003da4:	e7ec      	b.n	8003d80 <HAL_TIM_OC_Start+0x1c>
 8003da6:	3341      	adds	r3, #65	; 0x41
 8003da8:	e7ea      	b.n	8003d80 <HAL_TIM_OC_Start+0x1c>
 8003daa:	2202      	movs	r2, #2
 8003dac:	701a      	strb	r2, [r3, #0]
 8003dae:	2201      	movs	r2, #1
 8003db0:	6820      	ldr	r0, [r4, #0]
 8003db2:	f7ff ffc9 	bl	8003d48 <TIM_CCxChannelCmd>
 8003db6:	6823      	ldr	r3, [r4, #0]
 8003db8:	4914      	ldr	r1, [pc, #80]	; (8003e0c <HAL_TIM_OC_Start+0xa8>)
 8003dba:	428b      	cmp	r3, r1
 8003dbc:	d016      	beq.n	8003dec <HAL_TIM_OC_Start+0x88>
 8003dbe:	4a14      	ldr	r2, [pc, #80]	; (8003e10 <HAL_TIM_OC_Start+0xac>)
 8003dc0:	4293      	cmp	r3, r2
 8003dc2:	d013      	beq.n	8003dec <HAL_TIM_OC_Start+0x88>
 8003dc4:	4a13      	ldr	r2, [pc, #76]	; (8003e14 <HAL_TIM_OC_Start+0xb0>)
 8003dc6:	4293      	cmp	r3, r2
 8003dc8:	d010      	beq.n	8003dec <HAL_TIM_OC_Start+0x88>
 8003dca:	2280      	movs	r2, #128	; 0x80
 8003dcc:	05d2      	lsls	r2, r2, #23
 8003dce:	4293      	cmp	r3, r2
 8003dd0:	d114      	bne.n	8003dfc <HAL_TIM_OC_Start+0x98>
 8003dd2:	2107      	movs	r1, #7
 8003dd4:	689a      	ldr	r2, [r3, #8]
 8003dd6:	400a      	ands	r2, r1
 8003dd8:	2a06      	cmp	r2, #6
 8003dda:	d112      	bne.n	8003e02 <HAL_TIM_OC_Start+0x9e>
 8003ddc:	2000      	movs	r0, #0
 8003dde:	e7cb      	b.n	8003d78 <HAL_TIM_OC_Start+0x14>
 8003de0:	2908      	cmp	r1, #8
 8003de2:	d101      	bne.n	8003de8 <HAL_TIM_OC_Start+0x84>
 8003de4:	3240      	adds	r2, #64	; 0x40
 8003de6:	e7d8      	b.n	8003d9a <HAL_TIM_OC_Start+0x36>
 8003de8:	3241      	adds	r2, #65	; 0x41
 8003dea:	e7d6      	b.n	8003d9a <HAL_TIM_OC_Start+0x36>
 8003dec:	2280      	movs	r2, #128	; 0x80
 8003dee:	6c58      	ldr	r0, [r3, #68]	; 0x44
 8003df0:	0212      	lsls	r2, r2, #8
 8003df2:	4302      	orrs	r2, r0
 8003df4:	645a      	str	r2, [r3, #68]	; 0x44
 8003df6:	428b      	cmp	r3, r1
 8003df8:	d1e7      	bne.n	8003dca <HAL_TIM_OC_Start+0x66>
 8003dfa:	e7ea      	b.n	8003dd2 <HAL_TIM_OC_Start+0x6e>
 8003dfc:	4a06      	ldr	r2, [pc, #24]	; (8003e18 <HAL_TIM_OC_Start+0xb4>)
 8003dfe:	4293      	cmp	r3, r2
 8003e00:	d0e7      	beq.n	8003dd2 <HAL_TIM_OC_Start+0x6e>
 8003e02:	2201      	movs	r2, #1
 8003e04:	6819      	ldr	r1, [r3, #0]
 8003e06:	430a      	orrs	r2, r1
 8003e08:	601a      	str	r2, [r3, #0]
 8003e0a:	e7e7      	b.n	8003ddc <HAL_TIM_OC_Start+0x78>
 8003e0c:	40012c00 	.word	0x40012c00
 8003e10:	40014400 	.word	0x40014400
 8003e14:	40014800 	.word	0x40014800
 8003e18:	40000400 	.word	0x40000400

08003e1c <HAL_TIM_PWM_Start>:
 8003e1c:	b510      	push	{r4, lr}
 8003e1e:	f7ff ffa1 	bl	8003d64 <HAL_TIM_OC_Start>
 8003e22:	bd10      	pop	{r4, pc}

08003e24 <TIM_CCxNChannelCmd>:
 8003e24:	231f      	movs	r3, #31
 8003e26:	b510      	push	{r4, lr}
 8003e28:	2404      	movs	r4, #4
 8003e2a:	4019      	ands	r1, r3
 8003e2c:	408c      	lsls	r4, r1
 8003e2e:	408a      	lsls	r2, r1
 8003e30:	6a03      	ldr	r3, [r0, #32]
 8003e32:	43a3      	bics	r3, r4
 8003e34:	6203      	str	r3, [r0, #32]
 8003e36:	6a03      	ldr	r3, [r0, #32]
 8003e38:	431a      	orrs	r2, r3
 8003e3a:	6202      	str	r2, [r0, #32]
 8003e3c:	bd10      	pop	{r4, pc}
	...

08003e40 <HAL_TIMEx_OCN_Start>:
 8003e40:	b510      	push	{r4, lr}
 8003e42:	0003      	movs	r3, r0
 8003e44:	0004      	movs	r4, r0
 8003e46:	2900      	cmp	r1, #0
 8003e48:	d105      	bne.n	8003e56 <HAL_TIMEx_OCN_Start+0x16>
 8003e4a:	3342      	adds	r3, #66	; 0x42
 8003e4c:	2001      	movs	r0, #1
 8003e4e:	781a      	ldrb	r2, [r3, #0]
 8003e50:	4282      	cmp	r2, r0
 8003e52:	d00a      	beq.n	8003e6a <HAL_TIMEx_OCN_Start+0x2a>
 8003e54:	bd10      	pop	{r4, pc}
 8003e56:	2904      	cmp	r1, #4
 8003e58:	d101      	bne.n	8003e5e <HAL_TIMEx_OCN_Start+0x1e>
 8003e5a:	3343      	adds	r3, #67	; 0x43
 8003e5c:	e7f6      	b.n	8003e4c <HAL_TIMEx_OCN_Start+0xc>
 8003e5e:	2908      	cmp	r1, #8
 8003e60:	d101      	bne.n	8003e66 <HAL_TIMEx_OCN_Start+0x26>
 8003e62:	3344      	adds	r3, #68	; 0x44
 8003e64:	e7f2      	b.n	8003e4c <HAL_TIMEx_OCN_Start+0xc>
 8003e66:	3345      	adds	r3, #69	; 0x45
 8003e68:	e7f0      	b.n	8003e4c <HAL_TIMEx_OCN_Start+0xc>
 8003e6a:	2202      	movs	r2, #2
 8003e6c:	701a      	strb	r2, [r3, #0]
 8003e6e:	6820      	ldr	r0, [r4, #0]
 8003e70:	2204      	movs	r2, #4
 8003e72:	f7ff ffd7 	bl	8003e24 <TIM_CCxNChannelCmd>
 8003e76:	2280      	movs	r2, #128	; 0x80
 8003e78:	6823      	ldr	r3, [r4, #0]
 8003e7a:	0212      	lsls	r2, r2, #8
 8003e7c:	6c59      	ldr	r1, [r3, #68]	; 0x44
 8003e7e:	430a      	orrs	r2, r1
 8003e80:	645a      	str	r2, [r3, #68]	; 0x44
 8003e82:	4a0d      	ldr	r2, [pc, #52]	; (8003eb8 <HAL_TIMEx_OCN_Start+0x78>)
 8003e84:	4293      	cmp	r3, r2
 8003e86:	d006      	beq.n	8003e96 <HAL_TIMEx_OCN_Start+0x56>
 8003e88:	2280      	movs	r2, #128	; 0x80
 8003e8a:	05d2      	lsls	r2, r2, #23
 8003e8c:	4293      	cmp	r3, r2
 8003e8e:	d002      	beq.n	8003e96 <HAL_TIMEx_OCN_Start+0x56>
 8003e90:	4a0a      	ldr	r2, [pc, #40]	; (8003ebc <HAL_TIMEx_OCN_Start+0x7c>)
 8003e92:	4293      	cmp	r3, r2
 8003e94:	d10a      	bne.n	8003eac <HAL_TIMEx_OCN_Start+0x6c>
 8003e96:	2107      	movs	r1, #7
 8003e98:	689a      	ldr	r2, [r3, #8]
 8003e9a:	2000      	movs	r0, #0
 8003e9c:	400a      	ands	r2, r1
 8003e9e:	2a06      	cmp	r2, #6
 8003ea0:	d0d8      	beq.n	8003e54 <HAL_TIMEx_OCN_Start+0x14>
 8003ea2:	2201      	movs	r2, #1
 8003ea4:	6819      	ldr	r1, [r3, #0]
 8003ea6:	430a      	orrs	r2, r1
 8003ea8:	601a      	str	r2, [r3, #0]
 8003eaa:	e7d3      	b.n	8003e54 <HAL_TIMEx_OCN_Start+0x14>
 8003eac:	2201      	movs	r2, #1
 8003eae:	6819      	ldr	r1, [r3, #0]
 8003eb0:	2000      	movs	r0, #0
 8003eb2:	430a      	orrs	r2, r1
 8003eb4:	601a      	str	r2, [r3, #0]
 8003eb6:	e7cd      	b.n	8003e54 <HAL_TIMEx_OCN_Start+0x14>
 8003eb8:	40012c00 	.word	0x40012c00
 8003ebc:	40000400 	.word	0x40000400

08003ec0 <HAL_TIMEx_PWMN_Start>:
 8003ec0:	b510      	push	{r4, lr}
 8003ec2:	f7ff ffbd 	bl	8003e40 <HAL_TIMEx_OCN_Start>
 8003ec6:	bd10      	pop	{r4, pc}

08003ec8 <HAL_TIMEx_MasterConfigSynchronization>:
 8003ec8:	b570      	push	{r4, r5, r6, lr}
 8003eca:	0004      	movs	r4, r0
 8003ecc:	2202      	movs	r2, #2
 8003ece:	343c      	adds	r4, #60	; 0x3c
 8003ed0:	7825      	ldrb	r5, [r4, #0]
 8003ed2:	0003      	movs	r3, r0
 8003ed4:	0010      	movs	r0, r2
 8003ed6:	2d01      	cmp	r5, #1
 8003ed8:	d01d      	beq.n	8003f16 <HAL_TIMEx_MasterConfigSynchronization+0x4e>
 8003eda:	001d      	movs	r5, r3
 8003edc:	2670      	movs	r6, #112	; 0x70
 8003ede:	353d      	adds	r5, #61	; 0x3d
 8003ee0:	702a      	strb	r2, [r5, #0]
 8003ee2:	681b      	ldr	r3, [r3, #0]
 8003ee4:	6858      	ldr	r0, [r3, #4]
 8003ee6:	689a      	ldr	r2, [r3, #8]
 8003ee8:	43b0      	bics	r0, r6
 8003eea:	680e      	ldr	r6, [r1, #0]
 8003eec:	4330      	orrs	r0, r6
 8003eee:	6058      	str	r0, [r3, #4]
 8003ef0:	4809      	ldr	r0, [pc, #36]	; (8003f18 <HAL_TIMEx_MasterConfigSynchronization+0x50>)
 8003ef2:	4283      	cmp	r3, r0
 8003ef4:	d006      	beq.n	8003f04 <HAL_TIMEx_MasterConfigSynchronization+0x3c>
 8003ef6:	2080      	movs	r0, #128	; 0x80
 8003ef8:	05c0      	lsls	r0, r0, #23
 8003efa:	4283      	cmp	r3, r0
 8003efc:	d002      	beq.n	8003f04 <HAL_TIMEx_MasterConfigSynchronization+0x3c>
 8003efe:	4807      	ldr	r0, [pc, #28]	; (8003f1c <HAL_TIMEx_MasterConfigSynchronization+0x54>)
 8003f00:	4283      	cmp	r3, r0
 8003f02:	d104      	bne.n	8003f0e <HAL_TIMEx_MasterConfigSynchronization+0x46>
 8003f04:	2080      	movs	r0, #128	; 0x80
 8003f06:	6849      	ldr	r1, [r1, #4]
 8003f08:	4382      	bics	r2, r0
 8003f0a:	430a      	orrs	r2, r1
 8003f0c:	609a      	str	r2, [r3, #8]
 8003f0e:	2301      	movs	r3, #1
 8003f10:	2000      	movs	r0, #0
 8003f12:	702b      	strb	r3, [r5, #0]
 8003f14:	7020      	strb	r0, [r4, #0]
 8003f16:	bd70      	pop	{r4, r5, r6, pc}
 8003f18:	40012c00 	.word	0x40012c00
 8003f1c:	40000400 	.word	0x40000400

08003f20 <HAL_TIMEx_ConfigBreakDeadTime>:
 8003f20:	b510      	push	{r4, lr}
 8003f22:	0004      	movs	r4, r0
 8003f24:	343c      	adds	r4, #60	; 0x3c
 8003f26:	7823      	ldrb	r3, [r4, #0]
 8003f28:	0002      	movs	r2, r0
 8003f2a:	2002      	movs	r0, #2
 8003f2c:	2b01      	cmp	r3, #1
 8003f2e:	d01c      	beq.n	8003f6a <HAL_TIMEx_ConfigBreakDeadTime+0x4a>
 8003f30:	68c8      	ldr	r0, [r1, #12]
 8003f32:	4b0e      	ldr	r3, [pc, #56]	; (8003f6c <HAL_TIMEx_ConfigBreakDeadTime+0x4c>)
 8003f34:	6812      	ldr	r2, [r2, #0]
 8003f36:	4003      	ands	r3, r0
 8003f38:	6888      	ldr	r0, [r1, #8]
 8003f3a:	4303      	orrs	r3, r0
 8003f3c:	480c      	ldr	r0, [pc, #48]	; (8003f70 <HAL_TIMEx_ConfigBreakDeadTime+0x50>)
 8003f3e:	4003      	ands	r3, r0
 8003f40:	6848      	ldr	r0, [r1, #4]
 8003f42:	4303      	orrs	r3, r0
 8003f44:	480b      	ldr	r0, [pc, #44]	; (8003f74 <HAL_TIMEx_ConfigBreakDeadTime+0x54>)
 8003f46:	4003      	ands	r3, r0
 8003f48:	6808      	ldr	r0, [r1, #0]
 8003f4a:	4303      	orrs	r3, r0
 8003f4c:	480a      	ldr	r0, [pc, #40]	; (8003f78 <HAL_TIMEx_ConfigBreakDeadTime+0x58>)
 8003f4e:	4003      	ands	r3, r0
 8003f50:	6908      	ldr	r0, [r1, #16]
 8003f52:	4303      	orrs	r3, r0
 8003f54:	4809      	ldr	r0, [pc, #36]	; (8003f7c <HAL_TIMEx_ConfigBreakDeadTime+0x5c>)
 8003f56:	4003      	ands	r3, r0
 8003f58:	6948      	ldr	r0, [r1, #20]
 8003f5a:	69c9      	ldr	r1, [r1, #28]
 8003f5c:	4303      	orrs	r3, r0
 8003f5e:	4808      	ldr	r0, [pc, #32]	; (8003f80 <HAL_TIMEx_ConfigBreakDeadTime+0x60>)
 8003f60:	4003      	ands	r3, r0
 8003f62:	2000      	movs	r0, #0
 8003f64:	430b      	orrs	r3, r1
 8003f66:	6453      	str	r3, [r2, #68]	; 0x44
 8003f68:	7020      	strb	r0, [r4, #0]
 8003f6a:	bd10      	pop	{r4, pc}
 8003f6c:	fffffcff 	.word	0xfffffcff
 8003f70:	fffffbff 	.word	0xfffffbff
 8003f74:	fffff7ff 	.word	0xfffff7ff
 8003f78:	ffffefff 	.word	0xffffefff
 8003f7c:	ffffdfff 	.word	0xffffdfff
 8003f80:	ffffbfff 	.word	0xffffbfff

08003f84 <HAL_TIMEx_CommutCallback>:
 8003f84:	4770      	bx	lr

08003f86 <HAL_TIMEx_BreakCallback>:
 8003f86:	4770      	bx	lr

08003f88 <UART_EndRxTransfer>:
 8003f88:	b530      	push	{r4, r5, lr}
 8003f8a:	f3ef 8410 	mrs	r4, PRIMASK
 8003f8e:	2201      	movs	r2, #1
 8003f90:	f382 8810 	msr	PRIMASK, r2
 8003f94:	6801      	ldr	r1, [r0, #0]
 8003f96:	4d12      	ldr	r5, [pc, #72]	; (8003fe0 <UART_EndRxTransfer+0x58>)
 8003f98:	680b      	ldr	r3, [r1, #0]
 8003f9a:	402b      	ands	r3, r5
 8003f9c:	600b      	str	r3, [r1, #0]
 8003f9e:	f384 8810 	msr	PRIMASK, r4
 8003fa2:	f3ef 8410 	mrs	r4, PRIMASK
 8003fa6:	f382 8810 	msr	PRIMASK, r2
 8003faa:	6801      	ldr	r1, [r0, #0]
 8003fac:	688b      	ldr	r3, [r1, #8]
 8003fae:	4393      	bics	r3, r2
 8003fb0:	608b      	str	r3, [r1, #8]
 8003fb2:	f384 8810 	msr	PRIMASK, r4
 8003fb6:	6e03      	ldr	r3, [r0, #96]	; 0x60
 8003fb8:	4293      	cmp	r3, r2
 8003fba:	d10a      	bne.n	8003fd2 <UART_EndRxTransfer+0x4a>
 8003fbc:	f3ef 8110 	mrs	r1, PRIMASK
 8003fc0:	f383 8810 	msr	PRIMASK, r3
 8003fc4:	2410      	movs	r4, #16
 8003fc6:	6802      	ldr	r2, [r0, #0]
 8003fc8:	6813      	ldr	r3, [r2, #0]
 8003fca:	43a3      	bics	r3, r4
 8003fcc:	6013      	str	r3, [r2, #0]
 8003fce:	f381 8810 	msr	PRIMASK, r1
 8003fd2:	2220      	movs	r2, #32
 8003fd4:	1d03      	adds	r3, r0, #4
 8003fd6:	67da      	str	r2, [r3, #124]	; 0x7c
 8003fd8:	2300      	movs	r3, #0
 8003fda:	6603      	str	r3, [r0, #96]	; 0x60
 8003fdc:	6683      	str	r3, [r0, #104]	; 0x68
 8003fde:	bd30      	pop	{r4, r5, pc}
 8003fe0:	fffffedf 	.word	0xfffffedf

08003fe4 <UART_SetConfig>:
 8003fe4:	b570      	push	{r4, r5, r6, lr}
 8003fe6:	0004      	movs	r4, r0
 8003fe8:	6925      	ldr	r5, [r4, #16]
 8003fea:	68a2      	ldr	r2, [r4, #8]
 8003fec:	6801      	ldr	r1, [r0, #0]
 8003fee:	432a      	orrs	r2, r5
 8003ff0:	6965      	ldr	r5, [r4, #20]
 8003ff2:	69c3      	ldr	r3, [r0, #28]
 8003ff4:	432a      	orrs	r2, r5
 8003ff6:	6808      	ldr	r0, [r1, #0]
 8003ff8:	4d39      	ldr	r5, [pc, #228]	; (80040e0 <UART_SetConfig+0xfc>)
 8003ffa:	431a      	orrs	r2, r3
 8003ffc:	4028      	ands	r0, r5
 8003ffe:	4302      	orrs	r2, r0
 8004000:	600a      	str	r2, [r1, #0]
 8004002:	684a      	ldr	r2, [r1, #4]
 8004004:	4837      	ldr	r0, [pc, #220]	; (80040e4 <UART_SetConfig+0x100>)
 8004006:	6a25      	ldr	r5, [r4, #32]
 8004008:	4002      	ands	r2, r0
 800400a:	68e0      	ldr	r0, [r4, #12]
 800400c:	4302      	orrs	r2, r0
 800400e:	604a      	str	r2, [r1, #4]
 8004010:	69a2      	ldr	r2, [r4, #24]
 8004012:	6888      	ldr	r0, [r1, #8]
 8004014:	432a      	orrs	r2, r5
 8004016:	4d34      	ldr	r5, [pc, #208]	; (80040e8 <UART_SetConfig+0x104>)
 8004018:	4028      	ands	r0, r5
 800401a:	4302      	orrs	r2, r0
 800401c:	608a      	str	r2, [r1, #8]
 800401e:	2103      	movs	r1, #3
 8004020:	4a32      	ldr	r2, [pc, #200]	; (80040ec <UART_SetConfig+0x108>)
 8004022:	6b12      	ldr	r2, [r2, #48]	; 0x30
 8004024:	400a      	ands	r2, r1
 8004026:	2180      	movs	r1, #128	; 0x80
 8004028:	3a01      	subs	r2, #1
 800402a:	0209      	lsls	r1, r1, #8
 800402c:	2a02      	cmp	r2, #2
 800402e:	d84b      	bhi.n	80040c8 <UART_SetConfig+0xe4>
 8004030:	482f      	ldr	r0, [pc, #188]	; (80040f0 <UART_SetConfig+0x10c>)
 8004032:	5c80      	ldrb	r0, [r0, r2]
 8004034:	428b      	cmp	r3, r1
 8004036:	d124      	bne.n	8004082 <UART_SetConfig+0x9e>
 8004038:	2808      	cmp	r0, #8
 800403a:	d816      	bhi.n	800406a <UART_SetConfig+0x86>
 800403c:	f7fc f86e 	bl	800011c <__gnu_thumb1_case_uqi>
 8004040:	15081546 	.word	0x15081546
 8004044:	15151505 	.word	0x15151505
 8004048:	09          	.byte	0x09
 8004049:	00          	.byte	0x00
 800404a:	f7fe fed1 	bl	8002df0 <HAL_RCC_GetSysClockFreq>
 800404e:	e03f      	b.n	80040d0 <UART_SetConfig+0xec>
 8004050:	4b28      	ldr	r3, [pc, #160]	; (80040f4 <UART_SetConfig+0x110>)
 8004052:	0058      	lsls	r0, r3, #1
 8004054:	6863      	ldr	r3, [r4, #4]
 8004056:	6861      	ldr	r1, [r4, #4]
 8004058:	085b      	lsrs	r3, r3, #1
 800405a:	18c0      	adds	r0, r0, r3
 800405c:	f7fc f872 	bl	8000144 <__udivsi3>
 8004060:	0002      	movs	r2, r0
 8004062:	4b25      	ldr	r3, [pc, #148]	; (80040f8 <UART_SetConfig+0x114>)
 8004064:	3a10      	subs	r2, #16
 8004066:	429a      	cmp	r2, r3
 8004068:	d901      	bls.n	800406e <UART_SetConfig+0x8a>
 800406a:	2001      	movs	r0, #1
 800406c:	e033      	b.n	80040d6 <UART_SetConfig+0xf2>
 800406e:	230f      	movs	r3, #15
 8004070:	0002      	movs	r2, r0
 8004072:	0700      	lsls	r0, r0, #28
 8004074:	439a      	bics	r2, r3
 8004076:	b293      	uxth	r3, r2
 8004078:	0f40      	lsrs	r0, r0, #29
 800407a:	6822      	ldr	r2, [r4, #0]
 800407c:	4318      	orrs	r0, r3
 800407e:	60d0      	str	r0, [r2, #12]
 8004080:	e028      	b.n	80040d4 <UART_SetConfig+0xf0>
 8004082:	2808      	cmp	r0, #8
 8004084:	d8f1      	bhi.n	800406a <UART_SetConfig+0x86>
 8004086:	f7fc f83f 	bl	8000108 <__gnu_thumb1_case_sqi>
 800408a:	f015      	.short	0xf015
 800408c:	f01af01d 	.word	0xf01af01d
 8004090:	f0f0      	.short	0xf0f0
 8004092:	05          	.byte	0x05
 8004093:	00          	.byte	0x00
 8004094:	2080      	movs	r0, #128	; 0x80
 8004096:	0200      	lsls	r0, r0, #8
 8004098:	6863      	ldr	r3, [r4, #4]
 800409a:	6861      	ldr	r1, [r4, #4]
 800409c:	085b      	lsrs	r3, r3, #1
 800409e:	1818      	adds	r0, r3, r0
 80040a0:	f7fc f850 	bl	8000144 <__udivsi3>
 80040a4:	0002      	movs	r2, r0
 80040a6:	4b14      	ldr	r3, [pc, #80]	; (80040f8 <UART_SetConfig+0x114>)
 80040a8:	3a10      	subs	r2, #16
 80040aa:	429a      	cmp	r2, r3
 80040ac:	d8dd      	bhi.n	800406a <UART_SetConfig+0x86>
 80040ae:	6823      	ldr	r3, [r4, #0]
 80040b0:	60d8      	str	r0, [r3, #12]
 80040b2:	e00f      	b.n	80040d4 <UART_SetConfig+0xf0>
 80040b4:	f7fe ff46 	bl	8002f44 <HAL_RCC_GetPCLK1Freq>
 80040b8:	2800      	cmp	r0, #0
 80040ba:	d00b      	beq.n	80040d4 <UART_SetConfig+0xf0>
 80040bc:	e7ec      	b.n	8004098 <UART_SetConfig+0xb4>
 80040be:	f7fe fe97 	bl	8002df0 <HAL_RCC_GetSysClockFreq>
 80040c2:	e7f9      	b.n	80040b8 <UART_SetConfig+0xd4>
 80040c4:	480b      	ldr	r0, [pc, #44]	; (80040f4 <UART_SetConfig+0x110>)
 80040c6:	e7e7      	b.n	8004098 <UART_SetConfig+0xb4>
 80040c8:	428b      	cmp	r3, r1
 80040ca:	d1f3      	bne.n	80040b4 <UART_SetConfig+0xd0>
 80040cc:	f7fe ff3a 	bl	8002f44 <HAL_RCC_GetPCLK1Freq>
 80040d0:	1e03      	subs	r3, r0, #0
 80040d2:	d1be      	bne.n	8004052 <UART_SetConfig+0x6e>
 80040d4:	2000      	movs	r0, #0
 80040d6:	2300      	movs	r3, #0
 80040d8:	66a3      	str	r3, [r4, #104]	; 0x68
 80040da:	66e3      	str	r3, [r4, #108]	; 0x6c
 80040dc:	bd70      	pop	{r4, r5, r6, pc}
 80040de:	46c0      	nop			; (mov r8, r8)
 80040e0:	ffff69f3 	.word	0xffff69f3
 80040e4:	ffffcfff 	.word	0xffffcfff
 80040e8:	fffff4ff 	.word	0xfffff4ff
 80040ec:	40021000 	.word	0x40021000
 80040f0:	0800569a 	.word	0x0800569a
 80040f4:	007a1200 	.word	0x007a1200
 80040f8:	0000ffef 	.word	0x0000ffef

080040fc <UART_AdvFeatureConfig>:
 80040fc:	6a43      	ldr	r3, [r0, #36]	; 0x24
 80040fe:	b530      	push	{r4, r5, lr}
 8004100:	07da      	lsls	r2, r3, #31
 8004102:	d506      	bpl.n	8004112 <UART_AdvFeatureConfig+0x16>
 8004104:	6801      	ldr	r1, [r0, #0]
 8004106:	4c28      	ldr	r4, [pc, #160]	; (80041a8 <UART_AdvFeatureConfig+0xac>)
 8004108:	684a      	ldr	r2, [r1, #4]
 800410a:	4022      	ands	r2, r4
 800410c:	6a84      	ldr	r4, [r0, #40]	; 0x28
 800410e:	4322      	orrs	r2, r4
 8004110:	604a      	str	r2, [r1, #4]
 8004112:	079a      	lsls	r2, r3, #30
 8004114:	d506      	bpl.n	8004124 <UART_AdvFeatureConfig+0x28>
 8004116:	6801      	ldr	r1, [r0, #0]
 8004118:	4c24      	ldr	r4, [pc, #144]	; (80041ac <UART_AdvFeatureConfig+0xb0>)
 800411a:	684a      	ldr	r2, [r1, #4]
 800411c:	4022      	ands	r2, r4
 800411e:	6ac4      	ldr	r4, [r0, #44]	; 0x2c
 8004120:	4322      	orrs	r2, r4
 8004122:	604a      	str	r2, [r1, #4]
 8004124:	075a      	lsls	r2, r3, #29
 8004126:	d506      	bpl.n	8004136 <UART_AdvFeatureConfig+0x3a>
 8004128:	6801      	ldr	r1, [r0, #0]
 800412a:	4c21      	ldr	r4, [pc, #132]	; (80041b0 <UART_AdvFeatureConfig+0xb4>)
 800412c:	684a      	ldr	r2, [r1, #4]
 800412e:	4022      	ands	r2, r4
 8004130:	6b04      	ldr	r4, [r0, #48]	; 0x30
 8004132:	4322      	orrs	r2, r4
 8004134:	604a      	str	r2, [r1, #4]
 8004136:	071a      	lsls	r2, r3, #28
 8004138:	d506      	bpl.n	8004148 <UART_AdvFeatureConfig+0x4c>
 800413a:	6801      	ldr	r1, [r0, #0]
 800413c:	4c1d      	ldr	r4, [pc, #116]	; (80041b4 <UART_AdvFeatureConfig+0xb8>)
 800413e:	684a      	ldr	r2, [r1, #4]
 8004140:	4022      	ands	r2, r4
 8004142:	6b44      	ldr	r4, [r0, #52]	; 0x34
 8004144:	4322      	orrs	r2, r4
 8004146:	604a      	str	r2, [r1, #4]
 8004148:	06da      	lsls	r2, r3, #27
 800414a:	d506      	bpl.n	800415a <UART_AdvFeatureConfig+0x5e>
 800414c:	6801      	ldr	r1, [r0, #0]
 800414e:	4c1a      	ldr	r4, [pc, #104]	; (80041b8 <UART_AdvFeatureConfig+0xbc>)
 8004150:	688a      	ldr	r2, [r1, #8]
 8004152:	4022      	ands	r2, r4
 8004154:	6b84      	ldr	r4, [r0, #56]	; 0x38
 8004156:	4322      	orrs	r2, r4
 8004158:	608a      	str	r2, [r1, #8]
 800415a:	069a      	lsls	r2, r3, #26
 800415c:	d506      	bpl.n	800416c <UART_AdvFeatureConfig+0x70>
 800415e:	6801      	ldr	r1, [r0, #0]
 8004160:	4c16      	ldr	r4, [pc, #88]	; (80041bc <UART_AdvFeatureConfig+0xc0>)
 8004162:	688a      	ldr	r2, [r1, #8]
 8004164:	4022      	ands	r2, r4
 8004166:	6bc4      	ldr	r4, [r0, #60]	; 0x3c
 8004168:	4322      	orrs	r2, r4
 800416a:	608a      	str	r2, [r1, #8]
 800416c:	065a      	lsls	r2, r3, #25
 800416e:	d510      	bpl.n	8004192 <UART_AdvFeatureConfig+0x96>
 8004170:	6801      	ldr	r1, [r0, #0]
 8004172:	4d13      	ldr	r5, [pc, #76]	; (80041c0 <UART_AdvFeatureConfig+0xc4>)
 8004174:	684a      	ldr	r2, [r1, #4]
 8004176:	6c04      	ldr	r4, [r0, #64]	; 0x40
 8004178:	402a      	ands	r2, r5
 800417a:	4322      	orrs	r2, r4
 800417c:	604a      	str	r2, [r1, #4]
 800417e:	2280      	movs	r2, #128	; 0x80
 8004180:	0352      	lsls	r2, r2, #13
 8004182:	4294      	cmp	r4, r2
 8004184:	d105      	bne.n	8004192 <UART_AdvFeatureConfig+0x96>
 8004186:	684a      	ldr	r2, [r1, #4]
 8004188:	4c0e      	ldr	r4, [pc, #56]	; (80041c4 <UART_AdvFeatureConfig+0xc8>)
 800418a:	4022      	ands	r2, r4
 800418c:	6c44      	ldr	r4, [r0, #68]	; 0x44
 800418e:	4322      	orrs	r2, r4
 8004190:	604a      	str	r2, [r1, #4]
 8004192:	061b      	lsls	r3, r3, #24
 8004194:	d506      	bpl.n	80041a4 <UART_AdvFeatureConfig+0xa8>
 8004196:	6802      	ldr	r2, [r0, #0]
 8004198:	490b      	ldr	r1, [pc, #44]	; (80041c8 <UART_AdvFeatureConfig+0xcc>)
 800419a:	6853      	ldr	r3, [r2, #4]
 800419c:	400b      	ands	r3, r1
 800419e:	6c81      	ldr	r1, [r0, #72]	; 0x48
 80041a0:	430b      	orrs	r3, r1
 80041a2:	6053      	str	r3, [r2, #4]
 80041a4:	bd30      	pop	{r4, r5, pc}
 80041a6:	46c0      	nop			; (mov r8, r8)
 80041a8:	fffdffff 	.word	0xfffdffff
 80041ac:	fffeffff 	.word	0xfffeffff
 80041b0:	fffbffff 	.word	0xfffbffff
 80041b4:	ffff7fff 	.word	0xffff7fff
 80041b8:	ffffefff 	.word	0xffffefff
 80041bc:	ffffdfff 	.word	0xffffdfff
 80041c0:	ffefffff 	.word	0xffefffff
 80041c4:	ff9fffff 	.word	0xff9fffff
 80041c8:	fff7ffff 	.word	0xfff7ffff

080041cc <UART_WaitOnFlagUntilTimeout>:
 80041cc:	b5f7      	push	{r0, r1, r2, r4, r5, r6, r7, lr}
 80041ce:	0004      	movs	r4, r0
 80041d0:	000d      	movs	r5, r1
 80041d2:	0017      	movs	r7, r2
 80041d4:	2608      	movs	r6, #8
 80041d6:	9300      	str	r3, [sp, #0]
 80041d8:	6822      	ldr	r2, [r4, #0]
 80041da:	69d3      	ldr	r3, [r2, #28]
 80041dc:	402b      	ands	r3, r5
 80041de:	1b5b      	subs	r3, r3, r5
 80041e0:	4259      	negs	r1, r3
 80041e2:	414b      	adcs	r3, r1
 80041e4:	42bb      	cmp	r3, r7
 80041e6:	d001      	beq.n	80041ec <UART_WaitOnFlagUntilTimeout+0x20>
 80041e8:	2000      	movs	r0, #0
 80041ea:	e021      	b.n	8004230 <UART_WaitOnFlagUntilTimeout+0x64>
 80041ec:	9b08      	ldr	r3, [sp, #32]
 80041ee:	3301      	adds	r3, #1
 80041f0:	d0f3      	beq.n	80041da <UART_WaitOnFlagUntilTimeout+0xe>
 80041f2:	f7fd f827 	bl	8001244 <HAL_GetTick>
 80041f6:	9b00      	ldr	r3, [sp, #0]
 80041f8:	1ac0      	subs	r0, r0, r3
 80041fa:	9b08      	ldr	r3, [sp, #32]
 80041fc:	4298      	cmp	r0, r3
 80041fe:	d828      	bhi.n	8004252 <UART_WaitOnFlagUntilTimeout+0x86>
 8004200:	2b00      	cmp	r3, #0
 8004202:	d026      	beq.n	8004252 <UART_WaitOnFlagUntilTimeout+0x86>
 8004204:	2104      	movs	r1, #4
 8004206:	6823      	ldr	r3, [r4, #0]
 8004208:	681a      	ldr	r2, [r3, #0]
 800420a:	420a      	tst	r2, r1
 800420c:	d0e4      	beq.n	80041d8 <UART_WaitOnFlagUntilTimeout+0xc>
 800420e:	69da      	ldr	r2, [r3, #28]
 8004210:	0011      	movs	r1, r2
 8004212:	4031      	ands	r1, r6
 8004214:	9101      	str	r1, [sp, #4]
 8004216:	4232      	tst	r2, r6
 8004218:	d00b      	beq.n	8004232 <UART_WaitOnFlagUntilTimeout+0x66>
 800421a:	0020      	movs	r0, r4
 800421c:	621e      	str	r6, [r3, #32]
 800421e:	f7ff feb3 	bl	8003f88 <UART_EndRxTransfer>
 8004222:	0023      	movs	r3, r4
 8004224:	3308      	adds	r3, #8
 8004226:	67de      	str	r6, [r3, #124]	; 0x7c
 8004228:	2300      	movs	r3, #0
 800422a:	2001      	movs	r0, #1
 800422c:	3478      	adds	r4, #120	; 0x78
 800422e:	7023      	strb	r3, [r4, #0]
 8004230:	bdfe      	pop	{r1, r2, r3, r4, r5, r6, r7, pc}
 8004232:	2280      	movs	r2, #128	; 0x80
 8004234:	69d9      	ldr	r1, [r3, #28]
 8004236:	0112      	lsls	r2, r2, #4
 8004238:	4211      	tst	r1, r2
 800423a:	d0cd      	beq.n	80041d8 <UART_WaitOnFlagUntilTimeout+0xc>
 800423c:	621a      	str	r2, [r3, #32]
 800423e:	0020      	movs	r0, r4
 8004240:	f7ff fea2 	bl	8003f88 <UART_EndRxTransfer>
 8004244:	0023      	movs	r3, r4
 8004246:	2220      	movs	r2, #32
 8004248:	3308      	adds	r3, #8
 800424a:	67da      	str	r2, [r3, #124]	; 0x7c
 800424c:	9b01      	ldr	r3, [sp, #4]
 800424e:	3478      	adds	r4, #120	; 0x78
 8004250:	7023      	strb	r3, [r4, #0]
 8004252:	2003      	movs	r0, #3
 8004254:	e7ec      	b.n	8004230 <UART_WaitOnFlagUntilTimeout+0x64>

08004256 <HAL_UART_Transmit>:
 8004256:	b5f0      	push	{r4, r5, r6, r7, lr}
 8004258:	b085      	sub	sp, #20
 800425a:	9303      	str	r3, [sp, #12]
 800425c:	6fc3      	ldr	r3, [r0, #124]	; 0x7c
 800425e:	0004      	movs	r4, r0
 8004260:	000d      	movs	r5, r1
 8004262:	0016      	movs	r6, r2
 8004264:	2002      	movs	r0, #2
 8004266:	2b20      	cmp	r3, #32
 8004268:	d139      	bne.n	80042de <HAL_UART_Transmit+0x88>
 800426a:	3801      	subs	r0, #1
 800426c:	2900      	cmp	r1, #0
 800426e:	d036      	beq.n	80042de <HAL_UART_Transmit+0x88>
 8004270:	2a00      	cmp	r2, #0
 8004272:	d034      	beq.n	80042de <HAL_UART_Transmit+0x88>
 8004274:	2380      	movs	r3, #128	; 0x80
 8004276:	68a2      	ldr	r2, [r4, #8]
 8004278:	015b      	lsls	r3, r3, #5
 800427a:	429a      	cmp	r2, r3
 800427c:	d104      	bne.n	8004288 <HAL_UART_Transmit+0x32>
 800427e:	6923      	ldr	r3, [r4, #16]
 8004280:	2b00      	cmp	r3, #0
 8004282:	d101      	bne.n	8004288 <HAL_UART_Transmit+0x32>
 8004284:	4201      	tst	r1, r0
 8004286:	d12a      	bne.n	80042de <HAL_UART_Transmit+0x88>
 8004288:	0023      	movs	r3, r4
 800428a:	2200      	movs	r2, #0
 800428c:	3308      	adds	r3, #8
 800428e:	67da      	str	r2, [r3, #124]	; 0x7c
 8004290:	2321      	movs	r3, #33	; 0x21
 8004292:	67e3      	str	r3, [r4, #124]	; 0x7c
 8004294:	f7fc ffd6 	bl	8001244 <HAL_GetTick>
 8004298:	0023      	movs	r3, r4
 800429a:	3350      	adds	r3, #80	; 0x50
 800429c:	801e      	strh	r6, [r3, #0]
 800429e:	3302      	adds	r3, #2
 80042a0:	801e      	strh	r6, [r3, #0]
 80042a2:	9302      	str	r3, [sp, #8]
 80042a4:	2380      	movs	r3, #128	; 0x80
 80042a6:	68a2      	ldr	r2, [r4, #8]
 80042a8:	0007      	movs	r7, r0
 80042aa:	2600      	movs	r6, #0
 80042ac:	015b      	lsls	r3, r3, #5
 80042ae:	429a      	cmp	r2, r3
 80042b0:	d104      	bne.n	80042bc <HAL_UART_Transmit+0x66>
 80042b2:	6923      	ldr	r3, [r4, #16]
 80042b4:	42b3      	cmp	r3, r6
 80042b6:	d101      	bne.n	80042bc <HAL_UART_Transmit+0x66>
 80042b8:	002e      	movs	r6, r5
 80042ba:	001d      	movs	r5, r3
 80042bc:	0023      	movs	r3, r4
 80042be:	3352      	adds	r3, #82	; 0x52
 80042c0:	881b      	ldrh	r3, [r3, #0]
 80042c2:	b29a      	uxth	r2, r3
 80042c4:	2b00      	cmp	r3, #0
 80042c6:	d10c      	bne.n	80042e2 <HAL_UART_Transmit+0x8c>
 80042c8:	9b03      	ldr	r3, [sp, #12]
 80042ca:	2140      	movs	r1, #64	; 0x40
 80042cc:	9300      	str	r3, [sp, #0]
 80042ce:	0020      	movs	r0, r4
 80042d0:	003b      	movs	r3, r7
 80042d2:	f7ff ff7b 	bl	80041cc <UART_WaitOnFlagUntilTimeout>
 80042d6:	2320      	movs	r3, #32
 80042d8:	67e3      	str	r3, [r4, #124]	; 0x7c
 80042da:	2800      	cmp	r0, #0
 80042dc:	d10d      	bne.n	80042fa <HAL_UART_Transmit+0xa4>
 80042de:	b005      	add	sp, #20
 80042e0:	bdf0      	pop	{r4, r5, r6, r7, pc}
 80042e2:	9b03      	ldr	r3, [sp, #12]
 80042e4:	2200      	movs	r2, #0
 80042e6:	9300      	str	r3, [sp, #0]
 80042e8:	2180      	movs	r1, #128	; 0x80
 80042ea:	003b      	movs	r3, r7
 80042ec:	0020      	movs	r0, r4
 80042ee:	f7ff ff6d 	bl	80041cc <UART_WaitOnFlagUntilTimeout>
 80042f2:	2800      	cmp	r0, #0
 80042f4:	d003      	beq.n	80042fe <HAL_UART_Transmit+0xa8>
 80042f6:	2320      	movs	r3, #32
 80042f8:	67e3      	str	r3, [r4, #124]	; 0x7c
 80042fa:	2003      	movs	r0, #3
 80042fc:	e7ef      	b.n	80042de <HAL_UART_Transmit+0x88>
 80042fe:	6822      	ldr	r2, [r4, #0]
 8004300:	2d00      	cmp	r5, #0
 8004302:	d10b      	bne.n	800431c <HAL_UART_Transmit+0xc6>
 8004304:	8833      	ldrh	r3, [r6, #0]
 8004306:	3602      	adds	r6, #2
 8004308:	05db      	lsls	r3, r3, #23
 800430a:	0ddb      	lsrs	r3, r3, #23
 800430c:	8513      	strh	r3, [r2, #40]	; 0x28
 800430e:	9b02      	ldr	r3, [sp, #8]
 8004310:	9a02      	ldr	r2, [sp, #8]
 8004312:	881b      	ldrh	r3, [r3, #0]
 8004314:	3b01      	subs	r3, #1
 8004316:	b29b      	uxth	r3, r3
 8004318:	8013      	strh	r3, [r2, #0]
 800431a:	e7cf      	b.n	80042bc <HAL_UART_Transmit+0x66>
 800431c:	782b      	ldrb	r3, [r5, #0]
 800431e:	3501      	adds	r5, #1
 8004320:	8513      	strh	r3, [r2, #40]	; 0x28
 8004322:	e7f4      	b.n	800430e <HAL_UART_Transmit+0xb8>

08004324 <UART_CheckIdleState>:
 8004324:	0003      	movs	r3, r0
 8004326:	b5f7      	push	{r0, r1, r2, r4, r5, r6, r7, lr}
 8004328:	2500      	movs	r5, #0
 800432a:	0004      	movs	r4, r0
 800432c:	3308      	adds	r3, #8
 800432e:	67dd      	str	r5, [r3, #124]	; 0x7c
 8004330:	f7fc ff88 	bl	8001244 <HAL_GetTick>
 8004334:	0026      	movs	r6, r4
 8004336:	6823      	ldr	r3, [r4, #0]
 8004338:	0007      	movs	r7, r0
 800433a:	681b      	ldr	r3, [r3, #0]
 800433c:	3678      	adds	r6, #120	; 0x78
 800433e:	071b      	lsls	r3, r3, #28
 8004340:	d51b      	bpl.n	800437a <UART_CheckIdleState+0x56>
 8004342:	2180      	movs	r1, #128	; 0x80
 8004344:	4b26      	ldr	r3, [pc, #152]	; (80043e0 <UART_CheckIdleState+0xbc>)
 8004346:	002a      	movs	r2, r5
 8004348:	9300      	str	r3, [sp, #0]
 800434a:	0389      	lsls	r1, r1, #14
 800434c:	0003      	movs	r3, r0
 800434e:	0020      	movs	r0, r4
 8004350:	f7ff ff3c 	bl	80041cc <UART_WaitOnFlagUntilTimeout>
 8004354:	42a8      	cmp	r0, r5
 8004356:	d010      	beq.n	800437a <UART_CheckIdleState+0x56>
 8004358:	f3ef 8110 	mrs	r1, PRIMASK
 800435c:	2301      	movs	r3, #1
 800435e:	f383 8810 	msr	PRIMASK, r3
 8004362:	2080      	movs	r0, #128	; 0x80
 8004364:	6822      	ldr	r2, [r4, #0]
 8004366:	6813      	ldr	r3, [r2, #0]
 8004368:	4383      	bics	r3, r0
 800436a:	6013      	str	r3, [r2, #0]
 800436c:	f381 8810 	msr	PRIMASK, r1
 8004370:	2320      	movs	r3, #32
 8004372:	67e3      	str	r3, [r4, #124]	; 0x7c
 8004374:	7035      	strb	r5, [r6, #0]
 8004376:	2003      	movs	r0, #3
 8004378:	bdfe      	pop	{r1, r2, r3, r4, r5, r6, r7, pc}
 800437a:	0025      	movs	r5, r4
 800437c:	cd08      	ldmia	r5!, {r3}
 800437e:	681b      	ldr	r3, [r3, #0]
 8004380:	075b      	lsls	r3, r3, #29
 8004382:	d525      	bpl.n	80043d0 <UART_CheckIdleState+0xac>
 8004384:	2180      	movs	r1, #128	; 0x80
 8004386:	4b16      	ldr	r3, [pc, #88]	; (80043e0 <UART_CheckIdleState+0xbc>)
 8004388:	2200      	movs	r2, #0
 800438a:	9300      	str	r3, [sp, #0]
 800438c:	0020      	movs	r0, r4
 800438e:	003b      	movs	r3, r7
 8004390:	03c9      	lsls	r1, r1, #15
 8004392:	f7ff ff1b 	bl	80041cc <UART_WaitOnFlagUntilTimeout>
 8004396:	2800      	cmp	r0, #0
 8004398:	d01a      	beq.n	80043d0 <UART_CheckIdleState+0xac>
 800439a:	f3ef 8010 	mrs	r0, PRIMASK
 800439e:	2201      	movs	r2, #1
 80043a0:	f382 8810 	msr	PRIMASK, r2
 80043a4:	6821      	ldr	r1, [r4, #0]
 80043a6:	4f0f      	ldr	r7, [pc, #60]	; (80043e4 <UART_CheckIdleState+0xc0>)
 80043a8:	680b      	ldr	r3, [r1, #0]
 80043aa:	403b      	ands	r3, r7
 80043ac:	600b      	str	r3, [r1, #0]
 80043ae:	f380 8810 	msr	PRIMASK, r0
 80043b2:	f3ef 8010 	mrs	r0, PRIMASK
 80043b6:	f382 8810 	msr	PRIMASK, r2
 80043ba:	6821      	ldr	r1, [r4, #0]
 80043bc:	688b      	ldr	r3, [r1, #8]
 80043be:	4393      	bics	r3, r2
 80043c0:	608b      	str	r3, [r1, #8]
 80043c2:	f380 8810 	msr	PRIMASK, r0
 80043c6:	2320      	movs	r3, #32
 80043c8:	67eb      	str	r3, [r5, #124]	; 0x7c
 80043ca:	2300      	movs	r3, #0
 80043cc:	7033      	strb	r3, [r6, #0]
 80043ce:	e7d2      	b.n	8004376 <UART_CheckIdleState+0x52>
 80043d0:	2000      	movs	r0, #0
 80043d2:	2320      	movs	r3, #32
 80043d4:	67e3      	str	r3, [r4, #124]	; 0x7c
 80043d6:	67eb      	str	r3, [r5, #124]	; 0x7c
 80043d8:	6620      	str	r0, [r4, #96]	; 0x60
 80043da:	6660      	str	r0, [r4, #100]	; 0x64
 80043dc:	7030      	strb	r0, [r6, #0]
 80043de:	e7cb      	b.n	8004378 <UART_CheckIdleState+0x54>
 80043e0:	01ffffff 	.word	0x01ffffff
 80043e4:	fffffedf 	.word	0xfffffedf

080043e8 <HAL_UART_Init>:
 80043e8:	b510      	push	{r4, lr}
 80043ea:	1e04      	subs	r4, r0, #0
 80043ec:	d101      	bne.n	80043f2 <HAL_UART_Init+0xa>
 80043ee:	2001      	movs	r0, #1
 80043f0:	bd10      	pop	{r4, pc}
 80043f2:	6fc3      	ldr	r3, [r0, #124]	; 0x7c
 80043f4:	2b00      	cmp	r3, #0
 80043f6:	d104      	bne.n	8004402 <HAL_UART_Init+0x1a>
 80043f8:	0002      	movs	r2, r0
 80043fa:	3278      	adds	r2, #120	; 0x78
 80043fc:	7013      	strb	r3, [r2, #0]
 80043fe:	f7fc fdf1 	bl	8000fe4 <HAL_UART_MspInit>
 8004402:	2324      	movs	r3, #36	; 0x24
 8004404:	2101      	movs	r1, #1
 8004406:	6822      	ldr	r2, [r4, #0]
 8004408:	67e3      	str	r3, [r4, #124]	; 0x7c
 800440a:	6813      	ldr	r3, [r2, #0]
 800440c:	0020      	movs	r0, r4
 800440e:	438b      	bics	r3, r1
 8004410:	6013      	str	r3, [r2, #0]
 8004412:	f7ff fde7 	bl	8003fe4 <UART_SetConfig>
 8004416:	2801      	cmp	r0, #1
 8004418:	d0e9      	beq.n	80043ee <HAL_UART_Init+0x6>
 800441a:	6a63      	ldr	r3, [r4, #36]	; 0x24
 800441c:	2b00      	cmp	r3, #0
 800441e:	d002      	beq.n	8004426 <HAL_UART_Init+0x3e>
 8004420:	0020      	movs	r0, r4
 8004422:	f7ff fe6b 	bl	80040fc <UART_AdvFeatureConfig>
 8004426:	6823      	ldr	r3, [r4, #0]
 8004428:	4907      	ldr	r1, [pc, #28]	; (8004448 <HAL_UART_Init+0x60>)
 800442a:	685a      	ldr	r2, [r3, #4]
 800442c:	0020      	movs	r0, r4
 800442e:	400a      	ands	r2, r1
 8004430:	212a      	movs	r1, #42	; 0x2a
 8004432:	605a      	str	r2, [r3, #4]
 8004434:	689a      	ldr	r2, [r3, #8]
 8004436:	438a      	bics	r2, r1
 8004438:	609a      	str	r2, [r3, #8]
 800443a:	2201      	movs	r2, #1
 800443c:	6819      	ldr	r1, [r3, #0]
 800443e:	430a      	orrs	r2, r1
 8004440:	601a      	str	r2, [r3, #0]
 8004442:	f7ff ff6f 	bl	8004324 <UART_CheckIdleState>
 8004446:	e7d3      	b.n	80043f0 <HAL_UART_Init+0x8>
 8004448:	ffffb7ff 	.word	0xffffb7ff

0800444c <__errno>:
 800444c:	4b01      	ldr	r3, [pc, #4]	; (8004454 <__errno+0x8>)
 800444e:	6818      	ldr	r0, [r3, #0]
 8004450:	4770      	bx	lr
 8004452:	46c0      	nop			; (mov r8, r8)
 8004454:	2000000c 	.word	0x2000000c

08004458 <__libc_init_array>:
 8004458:	b570      	push	{r4, r5, r6, lr}
 800445a:	2600      	movs	r6, #0
 800445c:	4d0c      	ldr	r5, [pc, #48]	; (8004490 <__libc_init_array+0x38>)
 800445e:	4c0d      	ldr	r4, [pc, #52]	; (8004494 <__libc_init_array+0x3c>)
 8004460:	1b64      	subs	r4, r4, r5
 8004462:	10a4      	asrs	r4, r4, #2
 8004464:	42a6      	cmp	r6, r4
 8004466:	d109      	bne.n	800447c <__libc_init_array+0x24>
 8004468:	2600      	movs	r6, #0
 800446a:	f001 f8d3 	bl	8005614 <_init>
 800446e:	4d0a      	ldr	r5, [pc, #40]	; (8004498 <__libc_init_array+0x40>)
 8004470:	4c0a      	ldr	r4, [pc, #40]	; (800449c <__libc_init_array+0x44>)
 8004472:	1b64      	subs	r4, r4, r5
 8004474:	10a4      	asrs	r4, r4, #2
 8004476:	42a6      	cmp	r6, r4
 8004478:	d105      	bne.n	8004486 <__libc_init_array+0x2e>
 800447a:	bd70      	pop	{r4, r5, r6, pc}
 800447c:	00b3      	lsls	r3, r6, #2
 800447e:	58eb      	ldr	r3, [r5, r3]
 8004480:	4798      	blx	r3
 8004482:	3601      	adds	r6, #1
 8004484:	e7ee      	b.n	8004464 <__libc_init_array+0xc>
 8004486:	00b3      	lsls	r3, r6, #2
 8004488:	58eb      	ldr	r3, [r5, r3]
 800448a:	4798      	blx	r3
 800448c:	3601      	adds	r6, #1
 800448e:	e7f2      	b.n	8004476 <__libc_init_array+0x1e>
 8004490:	08005738 	.word	0x08005738
 8004494:	08005738 	.word	0x08005738
 8004498:	08005738 	.word	0x08005738
 800449c:	0800573c 	.word	0x0800573c

080044a0 <memset>:
 80044a0:	0003      	movs	r3, r0
 80044a2:	1882      	adds	r2, r0, r2
 80044a4:	4293      	cmp	r3, r2
 80044a6:	d100      	bne.n	80044aa <memset+0xa>
 80044a8:	4770      	bx	lr
 80044aa:	7019      	strb	r1, [r3, #0]
 80044ac:	3301      	adds	r3, #1
 80044ae:	e7f9      	b.n	80044a4 <memset+0x4>

080044b0 <iprintf>:
 80044b0:	b40f      	push	{r0, r1, r2, r3}
 80044b2:	4b0b      	ldr	r3, [pc, #44]	; (80044e0 <iprintf+0x30>)
 80044b4:	b513      	push	{r0, r1, r4, lr}
 80044b6:	681c      	ldr	r4, [r3, #0]
 80044b8:	2c00      	cmp	r4, #0
 80044ba:	d005      	beq.n	80044c8 <iprintf+0x18>
 80044bc:	69a3      	ldr	r3, [r4, #24]
 80044be:	2b00      	cmp	r3, #0
 80044c0:	d102      	bne.n	80044c8 <iprintf+0x18>
 80044c2:	0020      	movs	r0, r4
 80044c4:	f000 fa9a 	bl	80049fc <__sinit>
 80044c8:	ab05      	add	r3, sp, #20
 80044ca:	0020      	movs	r0, r4
 80044cc:	9a04      	ldr	r2, [sp, #16]
 80044ce:	68a1      	ldr	r1, [r4, #8]
 80044d0:	9301      	str	r3, [sp, #4]
 80044d2:	f000 fcad 	bl	8004e30 <_vfiprintf_r>
 80044d6:	bc16      	pop	{r1, r2, r4}
 80044d8:	bc08      	pop	{r3}
 80044da:	b004      	add	sp, #16
 80044dc:	4718      	bx	r3
 80044de:	46c0      	nop			; (mov r8, r8)
 80044e0:	2000000c 	.word	0x2000000c

080044e4 <putchar>:
 80044e4:	4b08      	ldr	r3, [pc, #32]	; (8004508 <putchar+0x24>)
 80044e6:	b570      	push	{r4, r5, r6, lr}
 80044e8:	681c      	ldr	r4, [r3, #0]
 80044ea:	0005      	movs	r5, r0
 80044ec:	2c00      	cmp	r4, #0
 80044ee:	d005      	beq.n	80044fc <putchar+0x18>
 80044f0:	69a3      	ldr	r3, [r4, #24]
 80044f2:	2b00      	cmp	r3, #0
 80044f4:	d102      	bne.n	80044fc <putchar+0x18>
 80044f6:	0020      	movs	r0, r4
 80044f8:	f000 fa80 	bl	80049fc <__sinit>
 80044fc:	0029      	movs	r1, r5
 80044fe:	0020      	movs	r0, r4
 8004500:	68a2      	ldr	r2, [r4, #8]
 8004502:	f000 ff51 	bl	80053a8 <_putc_r>
 8004506:	bd70      	pop	{r4, r5, r6, pc}
 8004508:	2000000c 	.word	0x2000000c

0800450c <_puts_r>:
 800450c:	b570      	push	{r4, r5, r6, lr}
 800450e:	0005      	movs	r5, r0
 8004510:	000e      	movs	r6, r1
 8004512:	2800      	cmp	r0, #0
 8004514:	d004      	beq.n	8004520 <_puts_r+0x14>
 8004516:	6983      	ldr	r3, [r0, #24]
 8004518:	2b00      	cmp	r3, #0
 800451a:	d101      	bne.n	8004520 <_puts_r+0x14>
 800451c:	f000 fa6e 	bl	80049fc <__sinit>
 8004520:	69ab      	ldr	r3, [r5, #24]
 8004522:	68ac      	ldr	r4, [r5, #8]
 8004524:	2b00      	cmp	r3, #0
 8004526:	d102      	bne.n	800452e <_puts_r+0x22>
 8004528:	0028      	movs	r0, r5
 800452a:	f000 fa67 	bl	80049fc <__sinit>
 800452e:	4b2d      	ldr	r3, [pc, #180]	; (80045e4 <_puts_r+0xd8>)
 8004530:	429c      	cmp	r4, r3
 8004532:	d122      	bne.n	800457a <_puts_r+0x6e>
 8004534:	686c      	ldr	r4, [r5, #4]
 8004536:	6e63      	ldr	r3, [r4, #100]	; 0x64
 8004538:	07db      	lsls	r3, r3, #31
 800453a:	d405      	bmi.n	8004548 <_puts_r+0x3c>
 800453c:	89a3      	ldrh	r3, [r4, #12]
 800453e:	059b      	lsls	r3, r3, #22
 8004540:	d402      	bmi.n	8004548 <_puts_r+0x3c>
 8004542:	6da0      	ldr	r0, [r4, #88]	; 0x58
 8004544:	f000 fafb 	bl	8004b3e <__retarget_lock_acquire_recursive>
 8004548:	89a3      	ldrh	r3, [r4, #12]
 800454a:	071b      	lsls	r3, r3, #28
 800454c:	d502      	bpl.n	8004554 <_puts_r+0x48>
 800454e:	6923      	ldr	r3, [r4, #16]
 8004550:	2b00      	cmp	r3, #0
 8004552:	d129      	bne.n	80045a8 <_puts_r+0x9c>
 8004554:	0021      	movs	r1, r4
 8004556:	0028      	movs	r0, r5
 8004558:	f000 f8aa 	bl	80046b0 <__swsetup_r>
 800455c:	2800      	cmp	r0, #0
 800455e:	d023      	beq.n	80045a8 <_puts_r+0x9c>
 8004560:	2501      	movs	r5, #1
 8004562:	426d      	negs	r5, r5
 8004564:	6e63      	ldr	r3, [r4, #100]	; 0x64
 8004566:	07db      	lsls	r3, r3, #31
 8004568:	d405      	bmi.n	8004576 <_puts_r+0x6a>
 800456a:	89a3      	ldrh	r3, [r4, #12]
 800456c:	059b      	lsls	r3, r3, #22
 800456e:	d402      	bmi.n	8004576 <_puts_r+0x6a>
 8004570:	6da0      	ldr	r0, [r4, #88]	; 0x58
 8004572:	f000 fae5 	bl	8004b40 <__retarget_lock_release_recursive>
 8004576:	0028      	movs	r0, r5
 8004578:	bd70      	pop	{r4, r5, r6, pc}
 800457a:	4b1b      	ldr	r3, [pc, #108]	; (80045e8 <_puts_r+0xdc>)
 800457c:	429c      	cmp	r4, r3
 800457e:	d101      	bne.n	8004584 <_puts_r+0x78>
 8004580:	68ac      	ldr	r4, [r5, #8]
 8004582:	e7d8      	b.n	8004536 <_puts_r+0x2a>
 8004584:	4b19      	ldr	r3, [pc, #100]	; (80045ec <_puts_r+0xe0>)
 8004586:	429c      	cmp	r4, r3
 8004588:	d1d5      	bne.n	8004536 <_puts_r+0x2a>
 800458a:	68ec      	ldr	r4, [r5, #12]
 800458c:	e7d3      	b.n	8004536 <_puts_r+0x2a>
 800458e:	3601      	adds	r6, #1
 8004590:	60a3      	str	r3, [r4, #8]
 8004592:	2b00      	cmp	r3, #0
 8004594:	da04      	bge.n	80045a0 <_puts_r+0x94>
 8004596:	69a2      	ldr	r2, [r4, #24]
 8004598:	429a      	cmp	r2, r3
 800459a:	dc16      	bgt.n	80045ca <_puts_r+0xbe>
 800459c:	290a      	cmp	r1, #10
 800459e:	d014      	beq.n	80045ca <_puts_r+0xbe>
 80045a0:	6823      	ldr	r3, [r4, #0]
 80045a2:	1c5a      	adds	r2, r3, #1
 80045a4:	6022      	str	r2, [r4, #0]
 80045a6:	7019      	strb	r1, [r3, #0]
 80045a8:	68a3      	ldr	r3, [r4, #8]
 80045aa:	7831      	ldrb	r1, [r6, #0]
 80045ac:	3b01      	subs	r3, #1
 80045ae:	2900      	cmp	r1, #0
 80045b0:	d1ed      	bne.n	800458e <_puts_r+0x82>
 80045b2:	60a3      	str	r3, [r4, #8]
 80045b4:	2b00      	cmp	r3, #0
 80045b6:	da0f      	bge.n	80045d8 <_puts_r+0xcc>
 80045b8:	0028      	movs	r0, r5
 80045ba:	0022      	movs	r2, r4
 80045bc:	310a      	adds	r1, #10
 80045be:	f000 f821 	bl	8004604 <__swbuf_r>
 80045c2:	250a      	movs	r5, #10
 80045c4:	1c43      	adds	r3, r0, #1
 80045c6:	d1cd      	bne.n	8004564 <_puts_r+0x58>
 80045c8:	e7ca      	b.n	8004560 <_puts_r+0x54>
 80045ca:	0022      	movs	r2, r4
 80045cc:	0028      	movs	r0, r5
 80045ce:	f000 f819 	bl	8004604 <__swbuf_r>
 80045d2:	1c43      	adds	r3, r0, #1
 80045d4:	d1e8      	bne.n	80045a8 <_puts_r+0x9c>
 80045d6:	e7c3      	b.n	8004560 <_puts_r+0x54>
 80045d8:	250a      	movs	r5, #10
 80045da:	6823      	ldr	r3, [r4, #0]
 80045dc:	1c5a      	adds	r2, r3, #1
 80045de:	6022      	str	r2, [r4, #0]
 80045e0:	701d      	strb	r5, [r3, #0]
 80045e2:	e7bf      	b.n	8004564 <_puts_r+0x58>
 80045e4:	080056c4 	.word	0x080056c4
 80045e8:	080056e4 	.word	0x080056e4
 80045ec:	080056a4 	.word	0x080056a4

080045f0 <puts>:
 80045f0:	b510      	push	{r4, lr}
 80045f2:	4b03      	ldr	r3, [pc, #12]	; (8004600 <puts+0x10>)
 80045f4:	0001      	movs	r1, r0
 80045f6:	6818      	ldr	r0, [r3, #0]
 80045f8:	f7ff ff88 	bl	800450c <_puts_r>
 80045fc:	bd10      	pop	{r4, pc}
 80045fe:	46c0      	nop			; (mov r8, r8)
 8004600:	2000000c 	.word	0x2000000c

08004604 <__swbuf_r>:
 8004604:	b5f8      	push	{r3, r4, r5, r6, r7, lr}
 8004606:	0005      	movs	r5, r0
 8004608:	000e      	movs	r6, r1
 800460a:	0014      	movs	r4, r2
 800460c:	2800      	cmp	r0, #0
 800460e:	d004      	beq.n	800461a <__swbuf_r+0x16>
 8004610:	6983      	ldr	r3, [r0, #24]
 8004612:	2b00      	cmp	r3, #0
 8004614:	d101      	bne.n	800461a <__swbuf_r+0x16>
 8004616:	f000 f9f1 	bl	80049fc <__sinit>
 800461a:	4b22      	ldr	r3, [pc, #136]	; (80046a4 <__swbuf_r+0xa0>)
 800461c:	429c      	cmp	r4, r3
 800461e:	d12e      	bne.n	800467e <__swbuf_r+0x7a>
 8004620:	686c      	ldr	r4, [r5, #4]
 8004622:	69a3      	ldr	r3, [r4, #24]
 8004624:	60a3      	str	r3, [r4, #8]
 8004626:	89a3      	ldrh	r3, [r4, #12]
 8004628:	071b      	lsls	r3, r3, #28
 800462a:	d532      	bpl.n	8004692 <__swbuf_r+0x8e>
 800462c:	6923      	ldr	r3, [r4, #16]
 800462e:	2b00      	cmp	r3, #0
 8004630:	d02f      	beq.n	8004692 <__swbuf_r+0x8e>
 8004632:	6823      	ldr	r3, [r4, #0]
 8004634:	6922      	ldr	r2, [r4, #16]
 8004636:	b2f7      	uxtb	r7, r6
 8004638:	1a98      	subs	r0, r3, r2
 800463a:	6963      	ldr	r3, [r4, #20]
 800463c:	b2f6      	uxtb	r6, r6
 800463e:	4283      	cmp	r3, r0
 8004640:	dc05      	bgt.n	800464e <__swbuf_r+0x4a>
 8004642:	0021      	movs	r1, r4
 8004644:	0028      	movs	r0, r5
 8004646:	f000 f937 	bl	80048b8 <_fflush_r>
 800464a:	2800      	cmp	r0, #0
 800464c:	d127      	bne.n	800469e <__swbuf_r+0x9a>
 800464e:	68a3      	ldr	r3, [r4, #8]
 8004650:	3001      	adds	r0, #1
 8004652:	3b01      	subs	r3, #1
 8004654:	60a3      	str	r3, [r4, #8]
 8004656:	6823      	ldr	r3, [r4, #0]
 8004658:	1c5a      	adds	r2, r3, #1
 800465a:	6022      	str	r2, [r4, #0]
 800465c:	701f      	strb	r7, [r3, #0]
 800465e:	6963      	ldr	r3, [r4, #20]
 8004660:	4283      	cmp	r3, r0
 8004662:	d004      	beq.n	800466e <__swbuf_r+0x6a>
 8004664:	89a3      	ldrh	r3, [r4, #12]
 8004666:	07db      	lsls	r3, r3, #31
 8004668:	d507      	bpl.n	800467a <__swbuf_r+0x76>
 800466a:	2e0a      	cmp	r6, #10
 800466c:	d105      	bne.n	800467a <__swbuf_r+0x76>
 800466e:	0021      	movs	r1, r4
 8004670:	0028      	movs	r0, r5
 8004672:	f000 f921 	bl	80048b8 <_fflush_r>
 8004676:	2800      	cmp	r0, #0
 8004678:	d111      	bne.n	800469e <__swbuf_r+0x9a>
 800467a:	0030      	movs	r0, r6
 800467c:	bdf8      	pop	{r3, r4, r5, r6, r7, pc}
 800467e:	4b0a      	ldr	r3, [pc, #40]	; (80046a8 <__swbuf_r+0xa4>)
 8004680:	429c      	cmp	r4, r3
 8004682:	d101      	bne.n	8004688 <__swbuf_r+0x84>
 8004684:	68ac      	ldr	r4, [r5, #8]
 8004686:	e7cc      	b.n	8004622 <__swbuf_r+0x1e>
 8004688:	4b08      	ldr	r3, [pc, #32]	; (80046ac <__swbuf_r+0xa8>)
 800468a:	429c      	cmp	r4, r3
 800468c:	d1c9      	bne.n	8004622 <__swbuf_r+0x1e>
 800468e:	68ec      	ldr	r4, [r5, #12]
 8004690:	e7c7      	b.n	8004622 <__swbuf_r+0x1e>
 8004692:	0021      	movs	r1, r4
 8004694:	0028      	movs	r0, r5
 8004696:	f000 f80b 	bl	80046b0 <__swsetup_r>
 800469a:	2800      	cmp	r0, #0
 800469c:	d0c9      	beq.n	8004632 <__swbuf_r+0x2e>
 800469e:	2601      	movs	r6, #1
 80046a0:	4276      	negs	r6, r6
 80046a2:	e7ea      	b.n	800467a <__swbuf_r+0x76>
 80046a4:	080056c4 	.word	0x080056c4
 80046a8:	080056e4 	.word	0x080056e4
 80046ac:	080056a4 	.word	0x080056a4

080046b0 <__swsetup_r>:
 80046b0:	4b37      	ldr	r3, [pc, #220]	; (8004790 <__swsetup_r+0xe0>)
 80046b2:	b570      	push	{r4, r5, r6, lr}
 80046b4:	681d      	ldr	r5, [r3, #0]
 80046b6:	0006      	movs	r6, r0
 80046b8:	000c      	movs	r4, r1
 80046ba:	2d00      	cmp	r5, #0
 80046bc:	d005      	beq.n	80046ca <__swsetup_r+0x1a>
 80046be:	69ab      	ldr	r3, [r5, #24]
 80046c0:	2b00      	cmp	r3, #0
 80046c2:	d102      	bne.n	80046ca <__swsetup_r+0x1a>
 80046c4:	0028      	movs	r0, r5
 80046c6:	f000 f999 	bl	80049fc <__sinit>
 80046ca:	4b32      	ldr	r3, [pc, #200]	; (8004794 <__swsetup_r+0xe4>)
 80046cc:	429c      	cmp	r4, r3
 80046ce:	d10f      	bne.n	80046f0 <__swsetup_r+0x40>
 80046d0:	686c      	ldr	r4, [r5, #4]
 80046d2:	230c      	movs	r3, #12
 80046d4:	5ee2      	ldrsh	r2, [r4, r3]
 80046d6:	b293      	uxth	r3, r2
 80046d8:	0711      	lsls	r1, r2, #28
 80046da:	d42d      	bmi.n	8004738 <__swsetup_r+0x88>
 80046dc:	06d9      	lsls	r1, r3, #27
 80046de:	d411      	bmi.n	8004704 <__swsetup_r+0x54>
 80046e0:	2309      	movs	r3, #9
 80046e2:	2001      	movs	r0, #1
 80046e4:	6033      	str	r3, [r6, #0]
 80046e6:	3337      	adds	r3, #55	; 0x37
 80046e8:	4313      	orrs	r3, r2
 80046ea:	81a3      	strh	r3, [r4, #12]
 80046ec:	4240      	negs	r0, r0
 80046ee:	bd70      	pop	{r4, r5, r6, pc}
 80046f0:	4b29      	ldr	r3, [pc, #164]	; (8004798 <__swsetup_r+0xe8>)
 80046f2:	429c      	cmp	r4, r3
 80046f4:	d101      	bne.n	80046fa <__swsetup_r+0x4a>
 80046f6:	68ac      	ldr	r4, [r5, #8]
 80046f8:	e7eb      	b.n	80046d2 <__swsetup_r+0x22>
 80046fa:	4b28      	ldr	r3, [pc, #160]	; (800479c <__swsetup_r+0xec>)
 80046fc:	429c      	cmp	r4, r3
 80046fe:	d1e8      	bne.n	80046d2 <__swsetup_r+0x22>
 8004700:	68ec      	ldr	r4, [r5, #12]
 8004702:	e7e6      	b.n	80046d2 <__swsetup_r+0x22>
 8004704:	075b      	lsls	r3, r3, #29
 8004706:	d513      	bpl.n	8004730 <__swsetup_r+0x80>
 8004708:	6b61      	ldr	r1, [r4, #52]	; 0x34
 800470a:	2900      	cmp	r1, #0
 800470c:	d008      	beq.n	8004720 <__swsetup_r+0x70>
 800470e:	0023      	movs	r3, r4
 8004710:	3344      	adds	r3, #68	; 0x44
 8004712:	4299      	cmp	r1, r3
 8004714:	d002      	beq.n	800471c <__swsetup_r+0x6c>
 8004716:	0030      	movs	r0, r6
 8004718:	f000 fa80 	bl	8004c1c <_free_r>
 800471c:	2300      	movs	r3, #0
 800471e:	6363      	str	r3, [r4, #52]	; 0x34
 8004720:	2224      	movs	r2, #36	; 0x24
 8004722:	89a3      	ldrh	r3, [r4, #12]
 8004724:	4393      	bics	r3, r2
 8004726:	81a3      	strh	r3, [r4, #12]
 8004728:	2300      	movs	r3, #0
 800472a:	6063      	str	r3, [r4, #4]
 800472c:	6923      	ldr	r3, [r4, #16]
 800472e:	6023      	str	r3, [r4, #0]
 8004730:	2308      	movs	r3, #8
 8004732:	89a2      	ldrh	r2, [r4, #12]
 8004734:	4313      	orrs	r3, r2
 8004736:	81a3      	strh	r3, [r4, #12]
 8004738:	6923      	ldr	r3, [r4, #16]
 800473a:	2b00      	cmp	r3, #0
 800473c:	d10b      	bne.n	8004756 <__swsetup_r+0xa6>
 800473e:	21a0      	movs	r1, #160	; 0xa0
 8004740:	2280      	movs	r2, #128	; 0x80
 8004742:	89a3      	ldrh	r3, [r4, #12]
 8004744:	0089      	lsls	r1, r1, #2
 8004746:	0092      	lsls	r2, r2, #2
 8004748:	400b      	ands	r3, r1
 800474a:	4293      	cmp	r3, r2
 800474c:	d003      	beq.n	8004756 <__swsetup_r+0xa6>
 800474e:	0021      	movs	r1, r4
 8004750:	0030      	movs	r0, r6
 8004752:	f000 fa1f 	bl	8004b94 <__smakebuf_r>
 8004756:	220c      	movs	r2, #12
 8004758:	5ea3      	ldrsh	r3, [r4, r2]
 800475a:	2001      	movs	r0, #1
 800475c:	001a      	movs	r2, r3
 800475e:	b299      	uxth	r1, r3
 8004760:	4002      	ands	r2, r0
 8004762:	4203      	tst	r3, r0
 8004764:	d00f      	beq.n	8004786 <__swsetup_r+0xd6>
 8004766:	2200      	movs	r2, #0
 8004768:	60a2      	str	r2, [r4, #8]
 800476a:	6962      	ldr	r2, [r4, #20]
 800476c:	4252      	negs	r2, r2
 800476e:	61a2      	str	r2, [r4, #24]
 8004770:	2000      	movs	r0, #0
 8004772:	6922      	ldr	r2, [r4, #16]
 8004774:	4282      	cmp	r2, r0
 8004776:	d1ba      	bne.n	80046ee <__swsetup_r+0x3e>
 8004778:	060a      	lsls	r2, r1, #24
 800477a:	d5b8      	bpl.n	80046ee <__swsetup_r+0x3e>
 800477c:	2240      	movs	r2, #64	; 0x40
 800477e:	4313      	orrs	r3, r2
 8004780:	81a3      	strh	r3, [r4, #12]
 8004782:	3801      	subs	r0, #1
 8004784:	e7b3      	b.n	80046ee <__swsetup_r+0x3e>
 8004786:	0788      	lsls	r0, r1, #30
 8004788:	d400      	bmi.n	800478c <__swsetup_r+0xdc>
 800478a:	6962      	ldr	r2, [r4, #20]
 800478c:	60a2      	str	r2, [r4, #8]
 800478e:	e7ef      	b.n	8004770 <__swsetup_r+0xc0>
 8004790:	2000000c 	.word	0x2000000c
 8004794:	080056c4 	.word	0x080056c4
 8004798:	080056e4 	.word	0x080056e4
 800479c:	080056a4 	.word	0x080056a4

080047a0 <__sflush_r>:
 80047a0:	b5f7      	push	{r0, r1, r2, r4, r5, r6, r7, lr}
 80047a2:	898b      	ldrh	r3, [r1, #12]
 80047a4:	0005      	movs	r5, r0
 80047a6:	000c      	movs	r4, r1
 80047a8:	071a      	lsls	r2, r3, #28
 80047aa:	d45f      	bmi.n	800486c <__sflush_r+0xcc>
 80047ac:	684a      	ldr	r2, [r1, #4]
 80047ae:	2a00      	cmp	r2, #0
 80047b0:	dc04      	bgt.n	80047bc <__sflush_r+0x1c>
 80047b2:	6c0a      	ldr	r2, [r1, #64]	; 0x40
 80047b4:	2a00      	cmp	r2, #0
 80047b6:	dc01      	bgt.n	80047bc <__sflush_r+0x1c>
 80047b8:	2000      	movs	r0, #0
 80047ba:	bdfe      	pop	{r1, r2, r3, r4, r5, r6, r7, pc}
 80047bc:	6ae7      	ldr	r7, [r4, #44]	; 0x2c
 80047be:	2f00      	cmp	r7, #0
 80047c0:	d0fa      	beq.n	80047b8 <__sflush_r+0x18>
 80047c2:	2200      	movs	r2, #0
 80047c4:	2180      	movs	r1, #128	; 0x80
 80047c6:	682e      	ldr	r6, [r5, #0]
 80047c8:	602a      	str	r2, [r5, #0]
 80047ca:	001a      	movs	r2, r3
 80047cc:	0149      	lsls	r1, r1, #5
 80047ce:	400a      	ands	r2, r1
 80047d0:	420b      	tst	r3, r1
 80047d2:	d034      	beq.n	800483e <__sflush_r+0x9e>
 80047d4:	6d60      	ldr	r0, [r4, #84]	; 0x54
 80047d6:	89a3      	ldrh	r3, [r4, #12]
 80047d8:	075b      	lsls	r3, r3, #29
 80047da:	d506      	bpl.n	80047ea <__sflush_r+0x4a>
 80047dc:	6863      	ldr	r3, [r4, #4]
 80047de:	1ac0      	subs	r0, r0, r3
 80047e0:	6b63      	ldr	r3, [r4, #52]	; 0x34
 80047e2:	2b00      	cmp	r3, #0
 80047e4:	d001      	beq.n	80047ea <__sflush_r+0x4a>
 80047e6:	6c23      	ldr	r3, [r4, #64]	; 0x40
 80047e8:	1ac0      	subs	r0, r0, r3
 80047ea:	0002      	movs	r2, r0
 80047ec:	6a21      	ldr	r1, [r4, #32]
 80047ee:	2300      	movs	r3, #0
 80047f0:	0028      	movs	r0, r5
 80047f2:	6ae7      	ldr	r7, [r4, #44]	; 0x2c
 80047f4:	47b8      	blx	r7
 80047f6:	89a1      	ldrh	r1, [r4, #12]
 80047f8:	1c43      	adds	r3, r0, #1
 80047fa:	d106      	bne.n	800480a <__sflush_r+0x6a>
 80047fc:	682b      	ldr	r3, [r5, #0]
 80047fe:	2b1d      	cmp	r3, #29
 8004800:	d831      	bhi.n	8004866 <__sflush_r+0xc6>
 8004802:	4a2c      	ldr	r2, [pc, #176]	; (80048b4 <__sflush_r+0x114>)
 8004804:	40da      	lsrs	r2, r3
 8004806:	07d3      	lsls	r3, r2, #31
 8004808:	d52d      	bpl.n	8004866 <__sflush_r+0xc6>
 800480a:	2300      	movs	r3, #0
 800480c:	6063      	str	r3, [r4, #4]
 800480e:	6923      	ldr	r3, [r4, #16]
 8004810:	6023      	str	r3, [r4, #0]
 8004812:	04cb      	lsls	r3, r1, #19
 8004814:	d505      	bpl.n	8004822 <__sflush_r+0x82>
 8004816:	1c43      	adds	r3, r0, #1
 8004818:	d102      	bne.n	8004820 <__sflush_r+0x80>
 800481a:	682b      	ldr	r3, [r5, #0]
 800481c:	2b00      	cmp	r3, #0
 800481e:	d100      	bne.n	8004822 <__sflush_r+0x82>
 8004820:	6560      	str	r0, [r4, #84]	; 0x54
 8004822:	6b61      	ldr	r1, [r4, #52]	; 0x34
 8004824:	602e      	str	r6, [r5, #0]
 8004826:	2900      	cmp	r1, #0
 8004828:	d0c6      	beq.n	80047b8 <__sflush_r+0x18>
 800482a:	0023      	movs	r3, r4
 800482c:	3344      	adds	r3, #68	; 0x44
 800482e:	4299      	cmp	r1, r3
 8004830:	d002      	beq.n	8004838 <__sflush_r+0x98>
 8004832:	0028      	movs	r0, r5
 8004834:	f000 f9f2 	bl	8004c1c <_free_r>
 8004838:	2000      	movs	r0, #0
 800483a:	6360      	str	r0, [r4, #52]	; 0x34
 800483c:	e7bd      	b.n	80047ba <__sflush_r+0x1a>
 800483e:	2301      	movs	r3, #1
 8004840:	0028      	movs	r0, r5
 8004842:	6a21      	ldr	r1, [r4, #32]
 8004844:	47b8      	blx	r7
 8004846:	1c43      	adds	r3, r0, #1
 8004848:	d1c5      	bne.n	80047d6 <__sflush_r+0x36>
 800484a:	682b      	ldr	r3, [r5, #0]
 800484c:	2b00      	cmp	r3, #0
 800484e:	d0c2      	beq.n	80047d6 <__sflush_r+0x36>
 8004850:	2b1d      	cmp	r3, #29
 8004852:	d001      	beq.n	8004858 <__sflush_r+0xb8>
 8004854:	2b16      	cmp	r3, #22
 8004856:	d101      	bne.n	800485c <__sflush_r+0xbc>
 8004858:	602e      	str	r6, [r5, #0]
 800485a:	e7ad      	b.n	80047b8 <__sflush_r+0x18>
 800485c:	2340      	movs	r3, #64	; 0x40
 800485e:	89a2      	ldrh	r2, [r4, #12]
 8004860:	4313      	orrs	r3, r2
 8004862:	81a3      	strh	r3, [r4, #12]
 8004864:	e7a9      	b.n	80047ba <__sflush_r+0x1a>
 8004866:	2340      	movs	r3, #64	; 0x40
 8004868:	430b      	orrs	r3, r1
 800486a:	e7fa      	b.n	8004862 <__sflush_r+0xc2>
 800486c:	690f      	ldr	r7, [r1, #16]
 800486e:	2f00      	cmp	r7, #0
 8004870:	d0a2      	beq.n	80047b8 <__sflush_r+0x18>
 8004872:	680a      	ldr	r2, [r1, #0]
 8004874:	600f      	str	r7, [r1, #0]
 8004876:	1bd2      	subs	r2, r2, r7
 8004878:	9201      	str	r2, [sp, #4]
 800487a:	2200      	movs	r2, #0
 800487c:	079b      	lsls	r3, r3, #30
 800487e:	d100      	bne.n	8004882 <__sflush_r+0xe2>
 8004880:	694a      	ldr	r2, [r1, #20]
 8004882:	60a2      	str	r2, [r4, #8]
 8004884:	9b01      	ldr	r3, [sp, #4]
 8004886:	2b00      	cmp	r3, #0
 8004888:	dc00      	bgt.n	800488c <__sflush_r+0xec>
 800488a:	e795      	b.n	80047b8 <__sflush_r+0x18>
 800488c:	003a      	movs	r2, r7
 800488e:	0028      	movs	r0, r5
 8004890:	9b01      	ldr	r3, [sp, #4]
 8004892:	6a21      	ldr	r1, [r4, #32]
 8004894:	6aa6      	ldr	r6, [r4, #40]	; 0x28
 8004896:	47b0      	blx	r6
 8004898:	2800      	cmp	r0, #0
 800489a:	dc06      	bgt.n	80048aa <__sflush_r+0x10a>
 800489c:	2340      	movs	r3, #64	; 0x40
 800489e:	2001      	movs	r0, #1
 80048a0:	89a2      	ldrh	r2, [r4, #12]
 80048a2:	4240      	negs	r0, r0
 80048a4:	4313      	orrs	r3, r2
 80048a6:	81a3      	strh	r3, [r4, #12]
 80048a8:	e787      	b.n	80047ba <__sflush_r+0x1a>
 80048aa:	9b01      	ldr	r3, [sp, #4]
 80048ac:	183f      	adds	r7, r7, r0
 80048ae:	1a1b      	subs	r3, r3, r0
 80048b0:	9301      	str	r3, [sp, #4]
 80048b2:	e7e7      	b.n	8004884 <__sflush_r+0xe4>
 80048b4:	20400001 	.word	0x20400001

080048b8 <_fflush_r>:
 80048b8:	690b      	ldr	r3, [r1, #16]
 80048ba:	b570      	push	{r4, r5, r6, lr}
 80048bc:	0005      	movs	r5, r0
 80048be:	000c      	movs	r4, r1
 80048c0:	2b00      	cmp	r3, #0
 80048c2:	d102      	bne.n	80048ca <_fflush_r+0x12>
 80048c4:	2500      	movs	r5, #0
 80048c6:	0028      	movs	r0, r5
 80048c8:	bd70      	pop	{r4, r5, r6, pc}
 80048ca:	2800      	cmp	r0, #0
 80048cc:	d004      	beq.n	80048d8 <_fflush_r+0x20>
 80048ce:	6983      	ldr	r3, [r0, #24]
 80048d0:	2b00      	cmp	r3, #0
 80048d2:	d101      	bne.n	80048d8 <_fflush_r+0x20>
 80048d4:	f000 f892 	bl	80049fc <__sinit>
 80048d8:	4b14      	ldr	r3, [pc, #80]	; (800492c <_fflush_r+0x74>)
 80048da:	429c      	cmp	r4, r3
 80048dc:	d11b      	bne.n	8004916 <_fflush_r+0x5e>
 80048de:	686c      	ldr	r4, [r5, #4]
 80048e0:	220c      	movs	r2, #12
 80048e2:	5ea3      	ldrsh	r3, [r4, r2]
 80048e4:	2b00      	cmp	r3, #0
 80048e6:	d0ed      	beq.n	80048c4 <_fflush_r+0xc>
 80048e8:	6e62      	ldr	r2, [r4, #100]	; 0x64
 80048ea:	07d2      	lsls	r2, r2, #31
 80048ec:	d404      	bmi.n	80048f8 <_fflush_r+0x40>
 80048ee:	059b      	lsls	r3, r3, #22
 80048f0:	d402      	bmi.n	80048f8 <_fflush_r+0x40>
 80048f2:	6da0      	ldr	r0, [r4, #88]	; 0x58
 80048f4:	f000 f923 	bl	8004b3e <__retarget_lock_acquire_recursive>
 80048f8:	0028      	movs	r0, r5
 80048fa:	0021      	movs	r1, r4
 80048fc:	f7ff ff50 	bl	80047a0 <__sflush_r>
 8004900:	6e63      	ldr	r3, [r4, #100]	; 0x64
 8004902:	0005      	movs	r5, r0
 8004904:	07db      	lsls	r3, r3, #31
 8004906:	d4de      	bmi.n	80048c6 <_fflush_r+0xe>
 8004908:	89a3      	ldrh	r3, [r4, #12]
 800490a:	059b      	lsls	r3, r3, #22
 800490c:	d4db      	bmi.n	80048c6 <_fflush_r+0xe>
 800490e:	6da0      	ldr	r0, [r4, #88]	; 0x58
 8004910:	f000 f916 	bl	8004b40 <__retarget_lock_release_recursive>
 8004914:	e7d7      	b.n	80048c6 <_fflush_r+0xe>
 8004916:	4b06      	ldr	r3, [pc, #24]	; (8004930 <_fflush_r+0x78>)
 8004918:	429c      	cmp	r4, r3
 800491a:	d101      	bne.n	8004920 <_fflush_r+0x68>
 800491c:	68ac      	ldr	r4, [r5, #8]
 800491e:	e7df      	b.n	80048e0 <_fflush_r+0x28>
 8004920:	4b04      	ldr	r3, [pc, #16]	; (8004934 <_fflush_r+0x7c>)
 8004922:	429c      	cmp	r4, r3
 8004924:	d1dc      	bne.n	80048e0 <_fflush_r+0x28>
 8004926:	68ec      	ldr	r4, [r5, #12]
 8004928:	e7da      	b.n	80048e0 <_fflush_r+0x28>
 800492a:	46c0      	nop			; (mov r8, r8)
 800492c:	080056c4 	.word	0x080056c4
 8004930:	080056e4 	.word	0x080056e4
 8004934:	080056a4 	.word	0x080056a4

08004938 <std>:
 8004938:	2300      	movs	r3, #0
 800493a:	b510      	push	{r4, lr}
 800493c:	0004      	movs	r4, r0
 800493e:	6003      	str	r3, [r0, #0]
 8004940:	6043      	str	r3, [r0, #4]
 8004942:	6083      	str	r3, [r0, #8]
 8004944:	8181      	strh	r1, [r0, #12]
 8004946:	6643      	str	r3, [r0, #100]	; 0x64
 8004948:	0019      	movs	r1, r3
 800494a:	81c2      	strh	r2, [r0, #14]
 800494c:	6103      	str	r3, [r0, #16]
 800494e:	6143      	str	r3, [r0, #20]
 8004950:	6183      	str	r3, [r0, #24]
 8004952:	2208      	movs	r2, #8
 8004954:	305c      	adds	r0, #92	; 0x5c
 8004956:	f7ff fda3 	bl	80044a0 <memset>
 800495a:	4b05      	ldr	r3, [pc, #20]	; (8004970 <std+0x38>)
 800495c:	6224      	str	r4, [r4, #32]
 800495e:	6263      	str	r3, [r4, #36]	; 0x24
 8004960:	4b04      	ldr	r3, [pc, #16]	; (8004974 <std+0x3c>)
 8004962:	62a3      	str	r3, [r4, #40]	; 0x28
 8004964:	4b04      	ldr	r3, [pc, #16]	; (8004978 <std+0x40>)
 8004966:	62e3      	str	r3, [r4, #44]	; 0x2c
 8004968:	4b04      	ldr	r3, [pc, #16]	; (800497c <std+0x44>)
 800496a:	6323      	str	r3, [r4, #48]	; 0x30
 800496c:	bd10      	pop	{r4, pc}
 800496e:	46c0      	nop			; (mov r8, r8)
 8004970:	08005461 	.word	0x08005461
 8004974:	08005489 	.word	0x08005489
 8004978:	080054c1 	.word	0x080054c1
 800497c:	080054ed 	.word	0x080054ed

08004980 <_cleanup_r>:
 8004980:	b510      	push	{r4, lr}
 8004982:	4902      	ldr	r1, [pc, #8]	; (800498c <_cleanup_r+0xc>)
 8004984:	f000 f8ba 	bl	8004afc <_fwalk_reent>
 8004988:	bd10      	pop	{r4, pc}
 800498a:	46c0      	nop			; (mov r8, r8)
 800498c:	080048b9 	.word	0x080048b9

08004990 <__sfmoreglue>:
 8004990:	b570      	push	{r4, r5, r6, lr}
 8004992:	2568      	movs	r5, #104	; 0x68
 8004994:	1e4a      	subs	r2, r1, #1
 8004996:	4355      	muls	r5, r2
 8004998:	000e      	movs	r6, r1
 800499a:	0029      	movs	r1, r5
 800499c:	3174      	adds	r1, #116	; 0x74
 800499e:	f000 f9a9 	bl	8004cf4 <_malloc_r>
 80049a2:	1e04      	subs	r4, r0, #0
 80049a4:	d008      	beq.n	80049b8 <__sfmoreglue+0x28>
 80049a6:	2100      	movs	r1, #0
 80049a8:	002a      	movs	r2, r5
 80049aa:	6001      	str	r1, [r0, #0]
 80049ac:	6046      	str	r6, [r0, #4]
 80049ae:	300c      	adds	r0, #12
 80049b0:	60a0      	str	r0, [r4, #8]
 80049b2:	3268      	adds	r2, #104	; 0x68
 80049b4:	f7ff fd74 	bl	80044a0 <memset>
 80049b8:	0020      	movs	r0, r4
 80049ba:	bd70      	pop	{r4, r5, r6, pc}

080049bc <__sfp_lock_acquire>:
 80049bc:	b510      	push	{r4, lr}
 80049be:	4802      	ldr	r0, [pc, #8]	; (80049c8 <__sfp_lock_acquire+0xc>)
 80049c0:	f000 f8bd 	bl	8004b3e <__retarget_lock_acquire_recursive>
 80049c4:	bd10      	pop	{r4, pc}
 80049c6:	46c0      	nop			; (mov r8, r8)
 80049c8:	20000349 	.word	0x20000349

080049cc <__sfp_lock_release>:
 80049cc:	b510      	push	{r4, lr}
 80049ce:	4802      	ldr	r0, [pc, #8]	; (80049d8 <__sfp_lock_release+0xc>)
 80049d0:	f000 f8b6 	bl	8004b40 <__retarget_lock_release_recursive>
 80049d4:	bd10      	pop	{r4, pc}
 80049d6:	46c0      	nop			; (mov r8, r8)
 80049d8:	20000349 	.word	0x20000349

080049dc <__sinit_lock_acquire>:
 80049dc:	b510      	push	{r4, lr}
 80049de:	4802      	ldr	r0, [pc, #8]	; (80049e8 <__sinit_lock_acquire+0xc>)
 80049e0:	f000 f8ad 	bl	8004b3e <__retarget_lock_acquire_recursive>
 80049e4:	bd10      	pop	{r4, pc}
 80049e6:	46c0      	nop			; (mov r8, r8)
 80049e8:	2000034a 	.word	0x2000034a

080049ec <__sinit_lock_release>:
 80049ec:	b510      	push	{r4, lr}
 80049ee:	4802      	ldr	r0, [pc, #8]	; (80049f8 <__sinit_lock_release+0xc>)
 80049f0:	f000 f8a6 	bl	8004b40 <__retarget_lock_release_recursive>
 80049f4:	bd10      	pop	{r4, pc}
 80049f6:	46c0      	nop			; (mov r8, r8)
 80049f8:	2000034a 	.word	0x2000034a

080049fc <__sinit>:
 80049fc:	b513      	push	{r0, r1, r4, lr}
 80049fe:	0004      	movs	r4, r0
 8004a00:	f7ff ffec 	bl	80049dc <__sinit_lock_acquire>
 8004a04:	69a3      	ldr	r3, [r4, #24]
 8004a06:	2b00      	cmp	r3, #0
 8004a08:	d002      	beq.n	8004a10 <__sinit+0x14>
 8004a0a:	f7ff ffef 	bl	80049ec <__sinit_lock_release>
 8004a0e:	bd13      	pop	{r0, r1, r4, pc}
 8004a10:	64a3      	str	r3, [r4, #72]	; 0x48
 8004a12:	64e3      	str	r3, [r4, #76]	; 0x4c
 8004a14:	6523      	str	r3, [r4, #80]	; 0x50
 8004a16:	4b13      	ldr	r3, [pc, #76]	; (8004a64 <__sinit+0x68>)
 8004a18:	4a13      	ldr	r2, [pc, #76]	; (8004a68 <__sinit+0x6c>)
 8004a1a:	681b      	ldr	r3, [r3, #0]
 8004a1c:	62a2      	str	r2, [r4, #40]	; 0x28
 8004a1e:	9301      	str	r3, [sp, #4]
 8004a20:	42a3      	cmp	r3, r4
 8004a22:	d101      	bne.n	8004a28 <__sinit+0x2c>
 8004a24:	2301      	movs	r3, #1
 8004a26:	61a3      	str	r3, [r4, #24]
 8004a28:	0020      	movs	r0, r4
 8004a2a:	f000 f81f 	bl	8004a6c <__sfp>
 8004a2e:	6060      	str	r0, [r4, #4]
 8004a30:	0020      	movs	r0, r4
 8004a32:	f000 f81b 	bl	8004a6c <__sfp>
 8004a36:	60a0      	str	r0, [r4, #8]
 8004a38:	0020      	movs	r0, r4
 8004a3a:	f000 f817 	bl	8004a6c <__sfp>
 8004a3e:	2200      	movs	r2, #0
 8004a40:	2104      	movs	r1, #4
 8004a42:	60e0      	str	r0, [r4, #12]
 8004a44:	6860      	ldr	r0, [r4, #4]
 8004a46:	f7ff ff77 	bl	8004938 <std>
 8004a4a:	2201      	movs	r2, #1
 8004a4c:	2109      	movs	r1, #9
 8004a4e:	68a0      	ldr	r0, [r4, #8]
 8004a50:	f7ff ff72 	bl	8004938 <std>
 8004a54:	2202      	movs	r2, #2
 8004a56:	2112      	movs	r1, #18
 8004a58:	68e0      	ldr	r0, [r4, #12]
 8004a5a:	f7ff ff6d 	bl	8004938 <std>
 8004a5e:	2301      	movs	r3, #1
 8004a60:	61a3      	str	r3, [r4, #24]
 8004a62:	e7d2      	b.n	8004a0a <__sinit+0xe>
 8004a64:	080056a0 	.word	0x080056a0
 8004a68:	08004981 	.word	0x08004981

08004a6c <__sfp>:
 8004a6c:	b5f8      	push	{r3, r4, r5, r6, r7, lr}
 8004a6e:	0007      	movs	r7, r0
 8004a70:	f7ff ffa4 	bl	80049bc <__sfp_lock_acquire>
 8004a74:	4b1f      	ldr	r3, [pc, #124]	; (8004af4 <__sfp+0x88>)
 8004a76:	681e      	ldr	r6, [r3, #0]
 8004a78:	69b3      	ldr	r3, [r6, #24]
 8004a7a:	2b00      	cmp	r3, #0
 8004a7c:	d102      	bne.n	8004a84 <__sfp+0x18>
 8004a7e:	0030      	movs	r0, r6
 8004a80:	f7ff ffbc 	bl	80049fc <__sinit>
 8004a84:	3648      	adds	r6, #72	; 0x48
 8004a86:	68b4      	ldr	r4, [r6, #8]
 8004a88:	6873      	ldr	r3, [r6, #4]
 8004a8a:	3b01      	subs	r3, #1
 8004a8c:	d504      	bpl.n	8004a98 <__sfp+0x2c>
 8004a8e:	6833      	ldr	r3, [r6, #0]
 8004a90:	2b00      	cmp	r3, #0
 8004a92:	d022      	beq.n	8004ada <__sfp+0x6e>
 8004a94:	6836      	ldr	r6, [r6, #0]
 8004a96:	e7f6      	b.n	8004a86 <__sfp+0x1a>
 8004a98:	220c      	movs	r2, #12
 8004a9a:	5ea5      	ldrsh	r5, [r4, r2]
 8004a9c:	2d00      	cmp	r5, #0
 8004a9e:	d11a      	bne.n	8004ad6 <__sfp+0x6a>
 8004aa0:	0020      	movs	r0, r4
 8004aa2:	4b15      	ldr	r3, [pc, #84]	; (8004af8 <__sfp+0x8c>)
 8004aa4:	3058      	adds	r0, #88	; 0x58
 8004aa6:	60e3      	str	r3, [r4, #12]
 8004aa8:	6665      	str	r5, [r4, #100]	; 0x64
 8004aaa:	f000 f847 	bl	8004b3c <__retarget_lock_init_recursive>
 8004aae:	f7ff ff8d 	bl	80049cc <__sfp_lock_release>
 8004ab2:	0020      	movs	r0, r4
 8004ab4:	2208      	movs	r2, #8
 8004ab6:	0029      	movs	r1, r5
 8004ab8:	6025      	str	r5, [r4, #0]
 8004aba:	60a5      	str	r5, [r4, #8]
 8004abc:	6065      	str	r5, [r4, #4]
 8004abe:	6125      	str	r5, [r4, #16]
 8004ac0:	6165      	str	r5, [r4, #20]
 8004ac2:	61a5      	str	r5, [r4, #24]
 8004ac4:	305c      	adds	r0, #92	; 0x5c
 8004ac6:	f7ff fceb 	bl	80044a0 <memset>
 8004aca:	6365      	str	r5, [r4, #52]	; 0x34
 8004acc:	63a5      	str	r5, [r4, #56]	; 0x38
 8004ace:	64a5      	str	r5, [r4, #72]	; 0x48
 8004ad0:	64e5      	str	r5, [r4, #76]	; 0x4c
 8004ad2:	0020      	movs	r0, r4
 8004ad4:	bdf8      	pop	{r3, r4, r5, r6, r7, pc}
 8004ad6:	3468      	adds	r4, #104	; 0x68
 8004ad8:	e7d7      	b.n	8004a8a <__sfp+0x1e>
 8004ada:	2104      	movs	r1, #4
 8004adc:	0038      	movs	r0, r7
 8004ade:	f7ff ff57 	bl	8004990 <__sfmoreglue>
 8004ae2:	1e04      	subs	r4, r0, #0
 8004ae4:	6030      	str	r0, [r6, #0]
 8004ae6:	d1d5      	bne.n	8004a94 <__sfp+0x28>
 8004ae8:	f7ff ff70 	bl	80049cc <__sfp_lock_release>
 8004aec:	230c      	movs	r3, #12
 8004aee:	603b      	str	r3, [r7, #0]
 8004af0:	e7ef      	b.n	8004ad2 <__sfp+0x66>
 8004af2:	46c0      	nop			; (mov r8, r8)
 8004af4:	080056a0 	.word	0x080056a0
 8004af8:	ffff0001 	.word	0xffff0001

08004afc <_fwalk_reent>:
 8004afc:	b5f7      	push	{r0, r1, r2, r4, r5, r6, r7, lr}
 8004afe:	0004      	movs	r4, r0
 8004b00:	0006      	movs	r6, r0
 8004b02:	2700      	movs	r7, #0
 8004b04:	9101      	str	r1, [sp, #4]
 8004b06:	3448      	adds	r4, #72	; 0x48
 8004b08:	6863      	ldr	r3, [r4, #4]
 8004b0a:	68a5      	ldr	r5, [r4, #8]
 8004b0c:	9300      	str	r3, [sp, #0]
 8004b0e:	9b00      	ldr	r3, [sp, #0]
 8004b10:	3b01      	subs	r3, #1
 8004b12:	9300      	str	r3, [sp, #0]
 8004b14:	d504      	bpl.n	8004b20 <_fwalk_reent+0x24>
 8004b16:	6824      	ldr	r4, [r4, #0]
 8004b18:	2c00      	cmp	r4, #0
 8004b1a:	d1f5      	bne.n	8004b08 <_fwalk_reent+0xc>
 8004b1c:	0038      	movs	r0, r7
 8004b1e:	bdfe      	pop	{r1, r2, r3, r4, r5, r6, r7, pc}
 8004b20:	89ab      	ldrh	r3, [r5, #12]
 8004b22:	2b01      	cmp	r3, #1
 8004b24:	d908      	bls.n	8004b38 <_fwalk_reent+0x3c>
 8004b26:	220e      	movs	r2, #14
 8004b28:	5eab      	ldrsh	r3, [r5, r2]
 8004b2a:	3301      	adds	r3, #1
 8004b2c:	d004      	beq.n	8004b38 <_fwalk_reent+0x3c>
 8004b2e:	0029      	movs	r1, r5
 8004b30:	0030      	movs	r0, r6
 8004b32:	9b01      	ldr	r3, [sp, #4]
 8004b34:	4798      	blx	r3
 8004b36:	4307      	orrs	r7, r0
 8004b38:	3568      	adds	r5, #104	; 0x68
 8004b3a:	e7e8      	b.n	8004b0e <_fwalk_reent+0x12>

08004b3c <__retarget_lock_init_recursive>:
 8004b3c:	4770      	bx	lr

08004b3e <__retarget_lock_acquire_recursive>:
 8004b3e:	4770      	bx	lr

08004b40 <__retarget_lock_release_recursive>:
 8004b40:	4770      	bx	lr
	...

08004b44 <__swhatbuf_r>:
 8004b44:	b570      	push	{r4, r5, r6, lr}
 8004b46:	000e      	movs	r6, r1
 8004b48:	001d      	movs	r5, r3
 8004b4a:	230e      	movs	r3, #14
 8004b4c:	5ec9      	ldrsh	r1, [r1, r3]
 8004b4e:	0014      	movs	r4, r2
 8004b50:	b096      	sub	sp, #88	; 0x58
 8004b52:	2900      	cmp	r1, #0
 8004b54:	da08      	bge.n	8004b68 <__swhatbuf_r+0x24>
 8004b56:	220c      	movs	r2, #12
 8004b58:	5eb3      	ldrsh	r3, [r6, r2]
 8004b5a:	2200      	movs	r2, #0
 8004b5c:	602a      	str	r2, [r5, #0]
 8004b5e:	061b      	lsls	r3, r3, #24
 8004b60:	d411      	bmi.n	8004b86 <__swhatbuf_r+0x42>
 8004b62:	2380      	movs	r3, #128	; 0x80
 8004b64:	00db      	lsls	r3, r3, #3
 8004b66:	e00f      	b.n	8004b88 <__swhatbuf_r+0x44>
 8004b68:	466a      	mov	r2, sp
 8004b6a:	f000 fceb 	bl	8005544 <_fstat_r>
 8004b6e:	2800      	cmp	r0, #0
 8004b70:	dbf1      	blt.n	8004b56 <__swhatbuf_r+0x12>
 8004b72:	23f0      	movs	r3, #240	; 0xf0
 8004b74:	9901      	ldr	r1, [sp, #4]
 8004b76:	021b      	lsls	r3, r3, #8
 8004b78:	4019      	ands	r1, r3
 8004b7a:	4b05      	ldr	r3, [pc, #20]	; (8004b90 <__swhatbuf_r+0x4c>)
 8004b7c:	18c9      	adds	r1, r1, r3
 8004b7e:	424b      	negs	r3, r1
 8004b80:	4159      	adcs	r1, r3
 8004b82:	6029      	str	r1, [r5, #0]
 8004b84:	e7ed      	b.n	8004b62 <__swhatbuf_r+0x1e>
 8004b86:	2340      	movs	r3, #64	; 0x40
 8004b88:	2000      	movs	r0, #0
 8004b8a:	6023      	str	r3, [r4, #0]
 8004b8c:	b016      	add	sp, #88	; 0x58
 8004b8e:	bd70      	pop	{r4, r5, r6, pc}
 8004b90:	ffffe000 	.word	0xffffe000

08004b94 <__smakebuf_r>:
 8004b94:	b5f7      	push	{r0, r1, r2, r4, r5, r6, r7, lr}
 8004b96:	2602      	movs	r6, #2
 8004b98:	898b      	ldrh	r3, [r1, #12]
 8004b9a:	0005      	movs	r5, r0
 8004b9c:	000c      	movs	r4, r1
 8004b9e:	4233      	tst	r3, r6
 8004ba0:	d006      	beq.n	8004bb0 <__smakebuf_r+0x1c>
 8004ba2:	0023      	movs	r3, r4
 8004ba4:	3347      	adds	r3, #71	; 0x47
 8004ba6:	6023      	str	r3, [r4, #0]
 8004ba8:	6123      	str	r3, [r4, #16]
 8004baa:	2301      	movs	r3, #1
 8004bac:	6163      	str	r3, [r4, #20]
 8004bae:	bdf7      	pop	{r0, r1, r2, r4, r5, r6, r7, pc}
 8004bb0:	466a      	mov	r2, sp
 8004bb2:	ab01      	add	r3, sp, #4
 8004bb4:	f7ff ffc6 	bl	8004b44 <__swhatbuf_r>
 8004bb8:	9900      	ldr	r1, [sp, #0]
 8004bba:	0007      	movs	r7, r0
 8004bbc:	0028      	movs	r0, r5
 8004bbe:	f000 f899 	bl	8004cf4 <_malloc_r>
 8004bc2:	2800      	cmp	r0, #0
 8004bc4:	d108      	bne.n	8004bd8 <__smakebuf_r+0x44>
 8004bc6:	220c      	movs	r2, #12
 8004bc8:	5ea3      	ldrsh	r3, [r4, r2]
 8004bca:	059a      	lsls	r2, r3, #22
 8004bcc:	d4ef      	bmi.n	8004bae <__smakebuf_r+0x1a>
 8004bce:	2203      	movs	r2, #3
 8004bd0:	4393      	bics	r3, r2
 8004bd2:	431e      	orrs	r6, r3
 8004bd4:	81a6      	strh	r6, [r4, #12]
 8004bd6:	e7e4      	b.n	8004ba2 <__smakebuf_r+0xe>
 8004bd8:	4b0f      	ldr	r3, [pc, #60]	; (8004c18 <__smakebuf_r+0x84>)
 8004bda:	62ab      	str	r3, [r5, #40]	; 0x28
 8004bdc:	2380      	movs	r3, #128	; 0x80
 8004bde:	89a2      	ldrh	r2, [r4, #12]
 8004be0:	6020      	str	r0, [r4, #0]
 8004be2:	4313      	orrs	r3, r2
 8004be4:	81a3      	strh	r3, [r4, #12]
 8004be6:	9b00      	ldr	r3, [sp, #0]
 8004be8:	6120      	str	r0, [r4, #16]
 8004bea:	6163      	str	r3, [r4, #20]
 8004bec:	9b01      	ldr	r3, [sp, #4]
 8004bee:	2b00      	cmp	r3, #0
 8004bf0:	d00d      	beq.n	8004c0e <__smakebuf_r+0x7a>
 8004bf2:	0028      	movs	r0, r5
 8004bf4:	230e      	movs	r3, #14
 8004bf6:	5ee1      	ldrsh	r1, [r4, r3]
 8004bf8:	f000 fcb6 	bl	8005568 <_isatty_r>
 8004bfc:	2800      	cmp	r0, #0
 8004bfe:	d006      	beq.n	8004c0e <__smakebuf_r+0x7a>
 8004c00:	2203      	movs	r2, #3
 8004c02:	89a3      	ldrh	r3, [r4, #12]
 8004c04:	4393      	bics	r3, r2
 8004c06:	001a      	movs	r2, r3
 8004c08:	2301      	movs	r3, #1
 8004c0a:	4313      	orrs	r3, r2
 8004c0c:	81a3      	strh	r3, [r4, #12]
 8004c0e:	89a0      	ldrh	r0, [r4, #12]
 8004c10:	4307      	orrs	r7, r0
 8004c12:	81a7      	strh	r7, [r4, #12]
 8004c14:	e7cb      	b.n	8004bae <__smakebuf_r+0x1a>
 8004c16:	46c0      	nop			; (mov r8, r8)
 8004c18:	08004981 	.word	0x08004981

08004c1c <_free_r>:
 8004c1c:	b570      	push	{r4, r5, r6, lr}
 8004c1e:	0005      	movs	r5, r0
 8004c20:	2900      	cmp	r1, #0
 8004c22:	d010      	beq.n	8004c46 <_free_r+0x2a>
 8004c24:	1f0c      	subs	r4, r1, #4
 8004c26:	6823      	ldr	r3, [r4, #0]
 8004c28:	2b00      	cmp	r3, #0
 8004c2a:	da00      	bge.n	8004c2e <_free_r+0x12>
 8004c2c:	18e4      	adds	r4, r4, r3
 8004c2e:	0028      	movs	r0, r5
 8004c30:	f000 fccc 	bl	80055cc <__malloc_lock>
 8004c34:	4a1d      	ldr	r2, [pc, #116]	; (8004cac <_free_r+0x90>)
 8004c36:	6813      	ldr	r3, [r2, #0]
 8004c38:	2b00      	cmp	r3, #0
 8004c3a:	d105      	bne.n	8004c48 <_free_r+0x2c>
 8004c3c:	6063      	str	r3, [r4, #4]
 8004c3e:	6014      	str	r4, [r2, #0]
 8004c40:	0028      	movs	r0, r5
 8004c42:	f000 fccb 	bl	80055dc <__malloc_unlock>
 8004c46:	bd70      	pop	{r4, r5, r6, pc}
 8004c48:	42a3      	cmp	r3, r4
 8004c4a:	d908      	bls.n	8004c5e <_free_r+0x42>
 8004c4c:	6821      	ldr	r1, [r4, #0]
 8004c4e:	1860      	adds	r0, r4, r1
 8004c50:	4283      	cmp	r3, r0
 8004c52:	d1f3      	bne.n	8004c3c <_free_r+0x20>
 8004c54:	6818      	ldr	r0, [r3, #0]
 8004c56:	685b      	ldr	r3, [r3, #4]
 8004c58:	1841      	adds	r1, r0, r1
 8004c5a:	6021      	str	r1, [r4, #0]
 8004c5c:	e7ee      	b.n	8004c3c <_free_r+0x20>
 8004c5e:	001a      	movs	r2, r3
 8004c60:	685b      	ldr	r3, [r3, #4]
 8004c62:	2b00      	cmp	r3, #0
 8004c64:	d001      	beq.n	8004c6a <_free_r+0x4e>
 8004c66:	42a3      	cmp	r3, r4
 8004c68:	d9f9      	bls.n	8004c5e <_free_r+0x42>
 8004c6a:	6811      	ldr	r1, [r2, #0]
 8004c6c:	1850      	adds	r0, r2, r1
 8004c6e:	42a0      	cmp	r0, r4
 8004c70:	d10b      	bne.n	8004c8a <_free_r+0x6e>
 8004c72:	6820      	ldr	r0, [r4, #0]
 8004c74:	1809      	adds	r1, r1, r0
 8004c76:	1850      	adds	r0, r2, r1
 8004c78:	6011      	str	r1, [r2, #0]
 8004c7a:	4283      	cmp	r3, r0
 8004c7c:	d1e0      	bne.n	8004c40 <_free_r+0x24>
 8004c7e:	6818      	ldr	r0, [r3, #0]
 8004c80:	685b      	ldr	r3, [r3, #4]
 8004c82:	1841      	adds	r1, r0, r1
 8004c84:	6011      	str	r1, [r2, #0]
 8004c86:	6053      	str	r3, [r2, #4]
 8004c88:	e7da      	b.n	8004c40 <_free_r+0x24>
 8004c8a:	42a0      	cmp	r0, r4
 8004c8c:	d902      	bls.n	8004c94 <_free_r+0x78>
 8004c8e:	230c      	movs	r3, #12
 8004c90:	602b      	str	r3, [r5, #0]
 8004c92:	e7d5      	b.n	8004c40 <_free_r+0x24>
 8004c94:	6821      	ldr	r1, [r4, #0]
 8004c96:	1860      	adds	r0, r4, r1
 8004c98:	4283      	cmp	r3, r0
 8004c9a:	d103      	bne.n	8004ca4 <_free_r+0x88>
 8004c9c:	6818      	ldr	r0, [r3, #0]
 8004c9e:	685b      	ldr	r3, [r3, #4]
 8004ca0:	1841      	adds	r1, r0, r1
 8004ca2:	6021      	str	r1, [r4, #0]
 8004ca4:	6063      	str	r3, [r4, #4]
 8004ca6:	6054      	str	r4, [r2, #4]
 8004ca8:	e7ca      	b.n	8004c40 <_free_r+0x24>
 8004caa:	46c0      	nop			; (mov r8, r8)
 8004cac:	2000034c 	.word	0x2000034c

08004cb0 <sbrk_aligned>:
 8004cb0:	b570      	push	{r4, r5, r6, lr}
 8004cb2:	4e0f      	ldr	r6, [pc, #60]	; (8004cf0 <sbrk_aligned+0x40>)
 8004cb4:	000d      	movs	r5, r1
 8004cb6:	6831      	ldr	r1, [r6, #0]
 8004cb8:	0004      	movs	r4, r0
 8004cba:	2900      	cmp	r1, #0
 8004cbc:	d102      	bne.n	8004cc4 <sbrk_aligned+0x14>
 8004cbe:	f000 fbbd 	bl	800543c <_sbrk_r>
 8004cc2:	6030      	str	r0, [r6, #0]
 8004cc4:	0029      	movs	r1, r5
 8004cc6:	0020      	movs	r0, r4
 8004cc8:	f000 fbb8 	bl	800543c <_sbrk_r>
 8004ccc:	1c43      	adds	r3, r0, #1
 8004cce:	d00a      	beq.n	8004ce6 <sbrk_aligned+0x36>
 8004cd0:	2303      	movs	r3, #3
 8004cd2:	1cc5      	adds	r5, r0, #3
 8004cd4:	439d      	bics	r5, r3
 8004cd6:	42a8      	cmp	r0, r5
 8004cd8:	d007      	beq.n	8004cea <sbrk_aligned+0x3a>
 8004cda:	1a29      	subs	r1, r5, r0
 8004cdc:	0020      	movs	r0, r4
 8004cde:	f000 fbad 	bl	800543c <_sbrk_r>
 8004ce2:	1c43      	adds	r3, r0, #1
 8004ce4:	d101      	bne.n	8004cea <sbrk_aligned+0x3a>
 8004ce6:	2501      	movs	r5, #1
 8004ce8:	426d      	negs	r5, r5
 8004cea:	0028      	movs	r0, r5
 8004cec:	bd70      	pop	{r4, r5, r6, pc}
 8004cee:	46c0      	nop			; (mov r8, r8)
 8004cf0:	20000350 	.word	0x20000350

08004cf4 <_malloc_r>:
 8004cf4:	b5f7      	push	{r0, r1, r2, r4, r5, r6, r7, lr}
 8004cf6:	2203      	movs	r2, #3
 8004cf8:	1ccb      	adds	r3, r1, #3
 8004cfa:	4393      	bics	r3, r2
 8004cfc:	3308      	adds	r3, #8
 8004cfe:	0006      	movs	r6, r0
 8004d00:	001f      	movs	r7, r3
 8004d02:	2b0c      	cmp	r3, #12
 8004d04:	d232      	bcs.n	8004d6c <_malloc_r+0x78>
 8004d06:	270c      	movs	r7, #12
 8004d08:	42b9      	cmp	r1, r7
 8004d0a:	d831      	bhi.n	8004d70 <_malloc_r+0x7c>
 8004d0c:	0030      	movs	r0, r6
 8004d0e:	f000 fc5d 	bl	80055cc <__malloc_lock>
 8004d12:	4d32      	ldr	r5, [pc, #200]	; (8004ddc <_malloc_r+0xe8>)
 8004d14:	682b      	ldr	r3, [r5, #0]
 8004d16:	001c      	movs	r4, r3
 8004d18:	2c00      	cmp	r4, #0
 8004d1a:	d12e      	bne.n	8004d7a <_malloc_r+0x86>
 8004d1c:	0039      	movs	r1, r7
 8004d1e:	0030      	movs	r0, r6
 8004d20:	f7ff ffc6 	bl	8004cb0 <sbrk_aligned>
 8004d24:	0004      	movs	r4, r0
 8004d26:	1c43      	adds	r3, r0, #1
 8004d28:	d11e      	bne.n	8004d68 <_malloc_r+0x74>
 8004d2a:	682c      	ldr	r4, [r5, #0]
 8004d2c:	0025      	movs	r5, r4
 8004d2e:	2d00      	cmp	r5, #0
 8004d30:	d14a      	bne.n	8004dc8 <_malloc_r+0xd4>
 8004d32:	6823      	ldr	r3, [r4, #0]
 8004d34:	0029      	movs	r1, r5
 8004d36:	18e3      	adds	r3, r4, r3
 8004d38:	0030      	movs	r0, r6
 8004d3a:	9301      	str	r3, [sp, #4]
 8004d3c:	f000 fb7e 	bl	800543c <_sbrk_r>
 8004d40:	9b01      	ldr	r3, [sp, #4]
 8004d42:	4283      	cmp	r3, r0
 8004d44:	d143      	bne.n	8004dce <_malloc_r+0xda>
 8004d46:	6823      	ldr	r3, [r4, #0]
 8004d48:	3703      	adds	r7, #3
 8004d4a:	1aff      	subs	r7, r7, r3
 8004d4c:	2303      	movs	r3, #3
 8004d4e:	439f      	bics	r7, r3
 8004d50:	3708      	adds	r7, #8
 8004d52:	2f0c      	cmp	r7, #12
 8004d54:	d200      	bcs.n	8004d58 <_malloc_r+0x64>
 8004d56:	270c      	movs	r7, #12
 8004d58:	0039      	movs	r1, r7
 8004d5a:	0030      	movs	r0, r6
 8004d5c:	f7ff ffa8 	bl	8004cb0 <sbrk_aligned>
 8004d60:	1c43      	adds	r3, r0, #1
 8004d62:	d034      	beq.n	8004dce <_malloc_r+0xda>
 8004d64:	6823      	ldr	r3, [r4, #0]
 8004d66:	19df      	adds	r7, r3, r7
 8004d68:	6027      	str	r7, [r4, #0]
 8004d6a:	e013      	b.n	8004d94 <_malloc_r+0xa0>
 8004d6c:	2b00      	cmp	r3, #0
 8004d6e:	dacb      	bge.n	8004d08 <_malloc_r+0x14>
 8004d70:	230c      	movs	r3, #12
 8004d72:	2500      	movs	r5, #0
 8004d74:	6033      	str	r3, [r6, #0]
 8004d76:	0028      	movs	r0, r5
 8004d78:	bdfe      	pop	{r1, r2, r3, r4, r5, r6, r7, pc}
 8004d7a:	6822      	ldr	r2, [r4, #0]
 8004d7c:	1bd1      	subs	r1, r2, r7
 8004d7e:	d420      	bmi.n	8004dc2 <_malloc_r+0xce>
 8004d80:	290b      	cmp	r1, #11
 8004d82:	d917      	bls.n	8004db4 <_malloc_r+0xc0>
 8004d84:	19e2      	adds	r2, r4, r7
 8004d86:	6027      	str	r7, [r4, #0]
 8004d88:	42a3      	cmp	r3, r4
 8004d8a:	d111      	bne.n	8004db0 <_malloc_r+0xbc>
 8004d8c:	602a      	str	r2, [r5, #0]
 8004d8e:	6863      	ldr	r3, [r4, #4]
 8004d90:	6011      	str	r1, [r2, #0]
 8004d92:	6053      	str	r3, [r2, #4]
 8004d94:	0030      	movs	r0, r6
 8004d96:	0025      	movs	r5, r4
 8004d98:	f000 fc20 	bl	80055dc <__malloc_unlock>
 8004d9c:	2207      	movs	r2, #7
 8004d9e:	350b      	adds	r5, #11
 8004da0:	1d23      	adds	r3, r4, #4
 8004da2:	4395      	bics	r5, r2
 8004da4:	1aea      	subs	r2, r5, r3
 8004da6:	429d      	cmp	r5, r3
 8004da8:	d0e5      	beq.n	8004d76 <_malloc_r+0x82>
 8004daa:	1b5b      	subs	r3, r3, r5
 8004dac:	50a3      	str	r3, [r4, r2]
 8004dae:	e7e2      	b.n	8004d76 <_malloc_r+0x82>
 8004db0:	605a      	str	r2, [r3, #4]
 8004db2:	e7ec      	b.n	8004d8e <_malloc_r+0x9a>
 8004db4:	6862      	ldr	r2, [r4, #4]
 8004db6:	42a3      	cmp	r3, r4
 8004db8:	d101      	bne.n	8004dbe <_malloc_r+0xca>
 8004dba:	602a      	str	r2, [r5, #0]
 8004dbc:	e7ea      	b.n	8004d94 <_malloc_r+0xa0>
 8004dbe:	605a      	str	r2, [r3, #4]
 8004dc0:	e7e8      	b.n	8004d94 <_malloc_r+0xa0>
 8004dc2:	0023      	movs	r3, r4
 8004dc4:	6864      	ldr	r4, [r4, #4]
 8004dc6:	e7a7      	b.n	8004d18 <_malloc_r+0x24>
 8004dc8:	002c      	movs	r4, r5
 8004dca:	686d      	ldr	r5, [r5, #4]
 8004dcc:	e7af      	b.n	8004d2e <_malloc_r+0x3a>
 8004dce:	230c      	movs	r3, #12
 8004dd0:	0030      	movs	r0, r6
 8004dd2:	6033      	str	r3, [r6, #0]
 8004dd4:	f000 fc02 	bl	80055dc <__malloc_unlock>
 8004dd8:	e7cd      	b.n	8004d76 <_malloc_r+0x82>
 8004dda:	46c0      	nop			; (mov r8, r8)
 8004ddc:	2000034c 	.word	0x2000034c

08004de0 <__sfputc_r>:
 8004de0:	6893      	ldr	r3, [r2, #8]
 8004de2:	b510      	push	{r4, lr}
 8004de4:	3b01      	subs	r3, #1
 8004de6:	6093      	str	r3, [r2, #8]
 8004de8:	2b00      	cmp	r3, #0
 8004dea:	da04      	bge.n	8004df6 <__sfputc_r+0x16>
 8004dec:	6994      	ldr	r4, [r2, #24]
 8004dee:	42a3      	cmp	r3, r4
 8004df0:	db07      	blt.n	8004e02 <__sfputc_r+0x22>
 8004df2:	290a      	cmp	r1, #10
 8004df4:	d005      	beq.n	8004e02 <__sfputc_r+0x22>
 8004df6:	6813      	ldr	r3, [r2, #0]
 8004df8:	1c58      	adds	r0, r3, #1
 8004dfa:	6010      	str	r0, [r2, #0]
 8004dfc:	7019      	strb	r1, [r3, #0]
 8004dfe:	0008      	movs	r0, r1
 8004e00:	bd10      	pop	{r4, pc}
 8004e02:	f7ff fbff 	bl	8004604 <__swbuf_r>
 8004e06:	0001      	movs	r1, r0
 8004e08:	e7f9      	b.n	8004dfe <__sfputc_r+0x1e>

08004e0a <__sfputs_r>:
 8004e0a:	b5f8      	push	{r3, r4, r5, r6, r7, lr}
 8004e0c:	0006      	movs	r6, r0
 8004e0e:	000f      	movs	r7, r1
 8004e10:	0014      	movs	r4, r2
 8004e12:	18d5      	adds	r5, r2, r3
 8004e14:	42ac      	cmp	r4, r5
 8004e16:	d101      	bne.n	8004e1c <__sfputs_r+0x12>
 8004e18:	2000      	movs	r0, #0
 8004e1a:	e007      	b.n	8004e2c <__sfputs_r+0x22>
 8004e1c:	7821      	ldrb	r1, [r4, #0]
 8004e1e:	003a      	movs	r2, r7
 8004e20:	0030      	movs	r0, r6
 8004e22:	f7ff ffdd 	bl	8004de0 <__sfputc_r>
 8004e26:	3401      	adds	r4, #1
 8004e28:	1c43      	adds	r3, r0, #1
 8004e2a:	d1f3      	bne.n	8004e14 <__sfputs_r+0xa>
 8004e2c:	bdf8      	pop	{r3, r4, r5, r6, r7, pc}
	...

08004e30 <_vfiprintf_r>:
 8004e30:	b5f0      	push	{r4, r5, r6, r7, lr}
 8004e32:	b0a1      	sub	sp, #132	; 0x84
 8004e34:	0006      	movs	r6, r0
 8004e36:	000c      	movs	r4, r1
 8004e38:	001f      	movs	r7, r3
 8004e3a:	9203      	str	r2, [sp, #12]
 8004e3c:	2800      	cmp	r0, #0
 8004e3e:	d004      	beq.n	8004e4a <_vfiprintf_r+0x1a>
 8004e40:	6983      	ldr	r3, [r0, #24]
 8004e42:	2b00      	cmp	r3, #0
 8004e44:	d101      	bne.n	8004e4a <_vfiprintf_r+0x1a>
 8004e46:	f7ff fdd9 	bl	80049fc <__sinit>
 8004e4a:	4b8e      	ldr	r3, [pc, #568]	; (8005084 <_vfiprintf_r+0x254>)
 8004e4c:	429c      	cmp	r4, r3
 8004e4e:	d11c      	bne.n	8004e8a <_vfiprintf_r+0x5a>
 8004e50:	6874      	ldr	r4, [r6, #4]
 8004e52:	6e63      	ldr	r3, [r4, #100]	; 0x64
 8004e54:	07db      	lsls	r3, r3, #31
 8004e56:	d405      	bmi.n	8004e64 <_vfiprintf_r+0x34>
 8004e58:	89a3      	ldrh	r3, [r4, #12]
 8004e5a:	059b      	lsls	r3, r3, #22
 8004e5c:	d402      	bmi.n	8004e64 <_vfiprintf_r+0x34>
 8004e5e:	6da0      	ldr	r0, [r4, #88]	; 0x58
 8004e60:	f7ff fe6d 	bl	8004b3e <__retarget_lock_acquire_recursive>
 8004e64:	89a3      	ldrh	r3, [r4, #12]
 8004e66:	071b      	lsls	r3, r3, #28
 8004e68:	d502      	bpl.n	8004e70 <_vfiprintf_r+0x40>
 8004e6a:	6923      	ldr	r3, [r4, #16]
 8004e6c:	2b00      	cmp	r3, #0
 8004e6e:	d11d      	bne.n	8004eac <_vfiprintf_r+0x7c>
 8004e70:	0021      	movs	r1, r4
 8004e72:	0030      	movs	r0, r6
 8004e74:	f7ff fc1c 	bl	80046b0 <__swsetup_r>
 8004e78:	2800      	cmp	r0, #0
 8004e7a:	d017      	beq.n	8004eac <_vfiprintf_r+0x7c>
 8004e7c:	6e63      	ldr	r3, [r4, #100]	; 0x64
 8004e7e:	07db      	lsls	r3, r3, #31
 8004e80:	d50d      	bpl.n	8004e9e <_vfiprintf_r+0x6e>
 8004e82:	2001      	movs	r0, #1
 8004e84:	4240      	negs	r0, r0
 8004e86:	b021      	add	sp, #132	; 0x84
 8004e88:	bdf0      	pop	{r4, r5, r6, r7, pc}
 8004e8a:	4b7f      	ldr	r3, [pc, #508]	; (8005088 <_vfiprintf_r+0x258>)
 8004e8c:	429c      	cmp	r4, r3
 8004e8e:	d101      	bne.n	8004e94 <_vfiprintf_r+0x64>
 8004e90:	68b4      	ldr	r4, [r6, #8]
 8004e92:	e7de      	b.n	8004e52 <_vfiprintf_r+0x22>
 8004e94:	4b7d      	ldr	r3, [pc, #500]	; (800508c <_vfiprintf_r+0x25c>)
 8004e96:	429c      	cmp	r4, r3
 8004e98:	d1db      	bne.n	8004e52 <_vfiprintf_r+0x22>
 8004e9a:	68f4      	ldr	r4, [r6, #12]
 8004e9c:	e7d9      	b.n	8004e52 <_vfiprintf_r+0x22>
 8004e9e:	89a3      	ldrh	r3, [r4, #12]
 8004ea0:	059b      	lsls	r3, r3, #22
 8004ea2:	d4ee      	bmi.n	8004e82 <_vfiprintf_r+0x52>
 8004ea4:	6da0      	ldr	r0, [r4, #88]	; 0x58
 8004ea6:	f7ff fe4b 	bl	8004b40 <__retarget_lock_release_recursive>
 8004eaa:	e7ea      	b.n	8004e82 <_vfiprintf_r+0x52>
 8004eac:	2300      	movs	r3, #0
 8004eae:	ad08      	add	r5, sp, #32
 8004eb0:	616b      	str	r3, [r5, #20]
 8004eb2:	3320      	adds	r3, #32
 8004eb4:	766b      	strb	r3, [r5, #25]
 8004eb6:	3310      	adds	r3, #16
 8004eb8:	76ab      	strb	r3, [r5, #26]
 8004eba:	9707      	str	r7, [sp, #28]
 8004ebc:	9f03      	ldr	r7, [sp, #12]
 8004ebe:	783b      	ldrb	r3, [r7, #0]
 8004ec0:	2b00      	cmp	r3, #0
 8004ec2:	d001      	beq.n	8004ec8 <_vfiprintf_r+0x98>
 8004ec4:	2b25      	cmp	r3, #37	; 0x25
 8004ec6:	d14e      	bne.n	8004f66 <_vfiprintf_r+0x136>
 8004ec8:	9b03      	ldr	r3, [sp, #12]
 8004eca:	1afb      	subs	r3, r7, r3
 8004ecc:	9305      	str	r3, [sp, #20]
 8004ece:	9b03      	ldr	r3, [sp, #12]
 8004ed0:	429f      	cmp	r7, r3
 8004ed2:	d00d      	beq.n	8004ef0 <_vfiprintf_r+0xc0>
 8004ed4:	9b05      	ldr	r3, [sp, #20]
 8004ed6:	0021      	movs	r1, r4
 8004ed8:	0030      	movs	r0, r6
 8004eda:	9a03      	ldr	r2, [sp, #12]
 8004edc:	f7ff ff95 	bl	8004e0a <__sfputs_r>
 8004ee0:	1c43      	adds	r3, r0, #1
 8004ee2:	d100      	bne.n	8004ee6 <_vfiprintf_r+0xb6>
 8004ee4:	e0b5      	b.n	8005052 <_vfiprintf_r+0x222>
 8004ee6:	696a      	ldr	r2, [r5, #20]
 8004ee8:	9b05      	ldr	r3, [sp, #20]
 8004eea:	4694      	mov	ip, r2
 8004eec:	4463      	add	r3, ip
 8004eee:	616b      	str	r3, [r5, #20]
 8004ef0:	783b      	ldrb	r3, [r7, #0]
 8004ef2:	2b00      	cmp	r3, #0
 8004ef4:	d100      	bne.n	8004ef8 <_vfiprintf_r+0xc8>
 8004ef6:	e0ac      	b.n	8005052 <_vfiprintf_r+0x222>
 8004ef8:	2201      	movs	r2, #1
 8004efa:	1c7b      	adds	r3, r7, #1
 8004efc:	9303      	str	r3, [sp, #12]
 8004efe:	2300      	movs	r3, #0
 8004f00:	4252      	negs	r2, r2
 8004f02:	606a      	str	r2, [r5, #4]
 8004f04:	a904      	add	r1, sp, #16
 8004f06:	3254      	adds	r2, #84	; 0x54
 8004f08:	1852      	adds	r2, r2, r1
 8004f0a:	602b      	str	r3, [r5, #0]
 8004f0c:	60eb      	str	r3, [r5, #12]
 8004f0e:	60ab      	str	r3, [r5, #8]
 8004f10:	7013      	strb	r3, [r2, #0]
 8004f12:	65ab      	str	r3, [r5, #88]	; 0x58
 8004f14:	9b03      	ldr	r3, [sp, #12]
 8004f16:	2205      	movs	r2, #5
 8004f18:	7819      	ldrb	r1, [r3, #0]
 8004f1a:	485d      	ldr	r0, [pc, #372]	; (8005090 <_vfiprintf_r+0x260>)
 8004f1c:	f000 fb4a 	bl	80055b4 <memchr>
 8004f20:	9b03      	ldr	r3, [sp, #12]
 8004f22:	1c5f      	adds	r7, r3, #1
 8004f24:	2800      	cmp	r0, #0
 8004f26:	d120      	bne.n	8004f6a <_vfiprintf_r+0x13a>
 8004f28:	682a      	ldr	r2, [r5, #0]
 8004f2a:	06d3      	lsls	r3, r2, #27
 8004f2c:	d504      	bpl.n	8004f38 <_vfiprintf_r+0x108>
 8004f2e:	2353      	movs	r3, #83	; 0x53
 8004f30:	a904      	add	r1, sp, #16
 8004f32:	185b      	adds	r3, r3, r1
 8004f34:	2120      	movs	r1, #32
 8004f36:	7019      	strb	r1, [r3, #0]
 8004f38:	0713      	lsls	r3, r2, #28
 8004f3a:	d504      	bpl.n	8004f46 <_vfiprintf_r+0x116>
 8004f3c:	2353      	movs	r3, #83	; 0x53
 8004f3e:	a904      	add	r1, sp, #16
 8004f40:	185b      	adds	r3, r3, r1
 8004f42:	212b      	movs	r1, #43	; 0x2b
 8004f44:	7019      	strb	r1, [r3, #0]
 8004f46:	9b03      	ldr	r3, [sp, #12]
 8004f48:	781b      	ldrb	r3, [r3, #0]
 8004f4a:	2b2a      	cmp	r3, #42	; 0x2a
 8004f4c:	d016      	beq.n	8004f7c <_vfiprintf_r+0x14c>
 8004f4e:	2100      	movs	r1, #0
 8004f50:	68eb      	ldr	r3, [r5, #12]
 8004f52:	9f03      	ldr	r7, [sp, #12]
 8004f54:	783a      	ldrb	r2, [r7, #0]
 8004f56:	1c78      	adds	r0, r7, #1
 8004f58:	3a30      	subs	r2, #48	; 0x30
 8004f5a:	4684      	mov	ip, r0
 8004f5c:	2a09      	cmp	r2, #9
 8004f5e:	d94f      	bls.n	8005000 <_vfiprintf_r+0x1d0>
 8004f60:	2900      	cmp	r1, #0
 8004f62:	d111      	bne.n	8004f88 <_vfiprintf_r+0x158>
 8004f64:	e017      	b.n	8004f96 <_vfiprintf_r+0x166>
 8004f66:	3701      	adds	r7, #1
 8004f68:	e7a9      	b.n	8004ebe <_vfiprintf_r+0x8e>
 8004f6a:	4b49      	ldr	r3, [pc, #292]	; (8005090 <_vfiprintf_r+0x260>)
 8004f6c:	682a      	ldr	r2, [r5, #0]
 8004f6e:	1ac0      	subs	r0, r0, r3
 8004f70:	2301      	movs	r3, #1
 8004f72:	4083      	lsls	r3, r0
 8004f74:	4313      	orrs	r3, r2
 8004f76:	602b      	str	r3, [r5, #0]
 8004f78:	9703      	str	r7, [sp, #12]
 8004f7a:	e7cb      	b.n	8004f14 <_vfiprintf_r+0xe4>
 8004f7c:	9b07      	ldr	r3, [sp, #28]
 8004f7e:	1d19      	adds	r1, r3, #4
 8004f80:	681b      	ldr	r3, [r3, #0]
 8004f82:	9107      	str	r1, [sp, #28]
 8004f84:	2b00      	cmp	r3, #0
 8004f86:	db01      	blt.n	8004f8c <_vfiprintf_r+0x15c>
 8004f88:	930b      	str	r3, [sp, #44]	; 0x2c
 8004f8a:	e004      	b.n	8004f96 <_vfiprintf_r+0x166>
 8004f8c:	425b      	negs	r3, r3
 8004f8e:	60eb      	str	r3, [r5, #12]
 8004f90:	2302      	movs	r3, #2
 8004f92:	4313      	orrs	r3, r2
 8004f94:	602b      	str	r3, [r5, #0]
 8004f96:	783b      	ldrb	r3, [r7, #0]
 8004f98:	2b2e      	cmp	r3, #46	; 0x2e
 8004f9a:	d10a      	bne.n	8004fb2 <_vfiprintf_r+0x182>
 8004f9c:	787b      	ldrb	r3, [r7, #1]
 8004f9e:	2b2a      	cmp	r3, #42	; 0x2a
 8004fa0:	d137      	bne.n	8005012 <_vfiprintf_r+0x1e2>
 8004fa2:	9b07      	ldr	r3, [sp, #28]
 8004fa4:	3702      	adds	r7, #2
 8004fa6:	1d1a      	adds	r2, r3, #4
 8004fa8:	681b      	ldr	r3, [r3, #0]
 8004faa:	9207      	str	r2, [sp, #28]
 8004fac:	2b00      	cmp	r3, #0
 8004fae:	db2d      	blt.n	800500c <_vfiprintf_r+0x1dc>
 8004fb0:	9309      	str	r3, [sp, #36]	; 0x24
 8004fb2:	2203      	movs	r2, #3
 8004fb4:	7839      	ldrb	r1, [r7, #0]
 8004fb6:	4837      	ldr	r0, [pc, #220]	; (8005094 <_vfiprintf_r+0x264>)
 8004fb8:	f000 fafc 	bl	80055b4 <memchr>
 8004fbc:	2800      	cmp	r0, #0
 8004fbe:	d007      	beq.n	8004fd0 <_vfiprintf_r+0x1a0>
 8004fc0:	4b34      	ldr	r3, [pc, #208]	; (8005094 <_vfiprintf_r+0x264>)
 8004fc2:	682a      	ldr	r2, [r5, #0]
 8004fc4:	1ac0      	subs	r0, r0, r3
 8004fc6:	2340      	movs	r3, #64	; 0x40
 8004fc8:	4083      	lsls	r3, r0
 8004fca:	4313      	orrs	r3, r2
 8004fcc:	3701      	adds	r7, #1
 8004fce:	602b      	str	r3, [r5, #0]
 8004fd0:	7839      	ldrb	r1, [r7, #0]
 8004fd2:	1c7b      	adds	r3, r7, #1
 8004fd4:	2206      	movs	r2, #6
 8004fd6:	4830      	ldr	r0, [pc, #192]	; (8005098 <_vfiprintf_r+0x268>)
 8004fd8:	9303      	str	r3, [sp, #12]
 8004fda:	7629      	strb	r1, [r5, #24]
 8004fdc:	f000 faea 	bl	80055b4 <memchr>
 8004fe0:	2800      	cmp	r0, #0
 8004fe2:	d045      	beq.n	8005070 <_vfiprintf_r+0x240>
 8004fe4:	4b2d      	ldr	r3, [pc, #180]	; (800509c <_vfiprintf_r+0x26c>)
 8004fe6:	2b00      	cmp	r3, #0
 8004fe8:	d127      	bne.n	800503a <_vfiprintf_r+0x20a>
 8004fea:	2207      	movs	r2, #7
 8004fec:	9b07      	ldr	r3, [sp, #28]
 8004fee:	3307      	adds	r3, #7
 8004ff0:	4393      	bics	r3, r2
 8004ff2:	3308      	adds	r3, #8
 8004ff4:	9307      	str	r3, [sp, #28]
 8004ff6:	696b      	ldr	r3, [r5, #20]
 8004ff8:	9a04      	ldr	r2, [sp, #16]
 8004ffa:	189b      	adds	r3, r3, r2
 8004ffc:	616b      	str	r3, [r5, #20]
 8004ffe:	e75d      	b.n	8004ebc <_vfiprintf_r+0x8c>
 8005000:	210a      	movs	r1, #10
 8005002:	434b      	muls	r3, r1
 8005004:	4667      	mov	r7, ip
 8005006:	189b      	adds	r3, r3, r2
 8005008:	3909      	subs	r1, #9
 800500a:	e7a3      	b.n	8004f54 <_vfiprintf_r+0x124>
 800500c:	2301      	movs	r3, #1
 800500e:	425b      	negs	r3, r3
 8005010:	e7ce      	b.n	8004fb0 <_vfiprintf_r+0x180>
 8005012:	2300      	movs	r3, #0
 8005014:	001a      	movs	r2, r3
 8005016:	3701      	adds	r7, #1
 8005018:	606b      	str	r3, [r5, #4]
 800501a:	7839      	ldrb	r1, [r7, #0]
 800501c:	1c78      	adds	r0, r7, #1
 800501e:	3930      	subs	r1, #48	; 0x30
 8005020:	4684      	mov	ip, r0
 8005022:	2909      	cmp	r1, #9
 8005024:	d903      	bls.n	800502e <_vfiprintf_r+0x1fe>
 8005026:	2b00      	cmp	r3, #0
 8005028:	d0c3      	beq.n	8004fb2 <_vfiprintf_r+0x182>
 800502a:	9209      	str	r2, [sp, #36]	; 0x24
 800502c:	e7c1      	b.n	8004fb2 <_vfiprintf_r+0x182>
 800502e:	230a      	movs	r3, #10
 8005030:	435a      	muls	r2, r3
 8005032:	4667      	mov	r7, ip
 8005034:	1852      	adds	r2, r2, r1
 8005036:	3b09      	subs	r3, #9
 8005038:	e7ef      	b.n	800501a <_vfiprintf_r+0x1ea>
 800503a:	ab07      	add	r3, sp, #28
 800503c:	9300      	str	r3, [sp, #0]
 800503e:	0022      	movs	r2, r4
 8005040:	0029      	movs	r1, r5
 8005042:	0030      	movs	r0, r6
 8005044:	4b16      	ldr	r3, [pc, #88]	; (80050a0 <_vfiprintf_r+0x270>)
 8005046:	e000      	b.n	800504a <_vfiprintf_r+0x21a>
 8005048:	bf00      	nop
 800504a:	9004      	str	r0, [sp, #16]
 800504c:	9b04      	ldr	r3, [sp, #16]
 800504e:	3301      	adds	r3, #1
 8005050:	d1d1      	bne.n	8004ff6 <_vfiprintf_r+0x1c6>
 8005052:	6e63      	ldr	r3, [r4, #100]	; 0x64
 8005054:	07db      	lsls	r3, r3, #31
 8005056:	d405      	bmi.n	8005064 <_vfiprintf_r+0x234>
 8005058:	89a3      	ldrh	r3, [r4, #12]
 800505a:	059b      	lsls	r3, r3, #22
 800505c:	d402      	bmi.n	8005064 <_vfiprintf_r+0x234>
 800505e:	6da0      	ldr	r0, [r4, #88]	; 0x58
 8005060:	f7ff fd6e 	bl	8004b40 <__retarget_lock_release_recursive>
 8005064:	89a3      	ldrh	r3, [r4, #12]
 8005066:	065b      	lsls	r3, r3, #25
 8005068:	d500      	bpl.n	800506c <_vfiprintf_r+0x23c>
 800506a:	e70a      	b.n	8004e82 <_vfiprintf_r+0x52>
 800506c:	980d      	ldr	r0, [sp, #52]	; 0x34
 800506e:	e70a      	b.n	8004e86 <_vfiprintf_r+0x56>
 8005070:	ab07      	add	r3, sp, #28
 8005072:	9300      	str	r3, [sp, #0]
 8005074:	0022      	movs	r2, r4
 8005076:	0029      	movs	r1, r5
 8005078:	0030      	movs	r0, r6
 800507a:	4b09      	ldr	r3, [pc, #36]	; (80050a0 <_vfiprintf_r+0x270>)
 800507c:	f000 f882 	bl	8005184 <_printf_i>
 8005080:	e7e3      	b.n	800504a <_vfiprintf_r+0x21a>
 8005082:	46c0      	nop			; (mov r8, r8)
 8005084:	080056c4 	.word	0x080056c4
 8005088:	080056e4 	.word	0x080056e4
 800508c:	080056a4 	.word	0x080056a4
 8005090:	08005704 	.word	0x08005704
 8005094:	0800570a 	.word	0x0800570a
 8005098:	0800570e 	.word	0x0800570e
 800509c:	00000000 	.word	0x00000000
 80050a0:	08004e0b 	.word	0x08004e0b

080050a4 <_printf_common>:
 80050a4:	b5f7      	push	{r0, r1, r2, r4, r5, r6, r7, lr}
 80050a6:	0015      	movs	r5, r2
 80050a8:	9301      	str	r3, [sp, #4]
 80050aa:	688a      	ldr	r2, [r1, #8]
 80050ac:	690b      	ldr	r3, [r1, #16]
 80050ae:	000c      	movs	r4, r1
 80050b0:	9000      	str	r0, [sp, #0]
 80050b2:	4293      	cmp	r3, r2
 80050b4:	da00      	bge.n	80050b8 <_printf_common+0x14>
 80050b6:	0013      	movs	r3, r2
 80050b8:	0022      	movs	r2, r4
 80050ba:	602b      	str	r3, [r5, #0]
 80050bc:	3243      	adds	r2, #67	; 0x43
 80050be:	7812      	ldrb	r2, [r2, #0]
 80050c0:	2a00      	cmp	r2, #0
 80050c2:	d001      	beq.n	80050c8 <_printf_common+0x24>
 80050c4:	3301      	adds	r3, #1
 80050c6:	602b      	str	r3, [r5, #0]
 80050c8:	6823      	ldr	r3, [r4, #0]
 80050ca:	069b      	lsls	r3, r3, #26
 80050cc:	d502      	bpl.n	80050d4 <_printf_common+0x30>
 80050ce:	682b      	ldr	r3, [r5, #0]
 80050d0:	3302      	adds	r3, #2
 80050d2:	602b      	str	r3, [r5, #0]
 80050d4:	6822      	ldr	r2, [r4, #0]
 80050d6:	2306      	movs	r3, #6
 80050d8:	0017      	movs	r7, r2
 80050da:	401f      	ands	r7, r3
 80050dc:	421a      	tst	r2, r3
 80050de:	d027      	beq.n	8005130 <_printf_common+0x8c>
 80050e0:	0023      	movs	r3, r4
 80050e2:	3343      	adds	r3, #67	; 0x43
 80050e4:	781b      	ldrb	r3, [r3, #0]
 80050e6:	1e5a      	subs	r2, r3, #1
 80050e8:	4193      	sbcs	r3, r2
 80050ea:	6822      	ldr	r2, [r4, #0]
 80050ec:	0692      	lsls	r2, r2, #26
 80050ee:	d430      	bmi.n	8005152 <_printf_common+0xae>
 80050f0:	0022      	movs	r2, r4
 80050f2:	9901      	ldr	r1, [sp, #4]
 80050f4:	9800      	ldr	r0, [sp, #0]
 80050f6:	9e08      	ldr	r6, [sp, #32]
 80050f8:	3243      	adds	r2, #67	; 0x43
 80050fa:	47b0      	blx	r6
 80050fc:	1c43      	adds	r3, r0, #1
 80050fe:	d025      	beq.n	800514c <_printf_common+0xa8>
 8005100:	2306      	movs	r3, #6
 8005102:	6820      	ldr	r0, [r4, #0]
 8005104:	682a      	ldr	r2, [r5, #0]
 8005106:	68e1      	ldr	r1, [r4, #12]
 8005108:	2500      	movs	r5, #0
 800510a:	4003      	ands	r3, r0
 800510c:	2b04      	cmp	r3, #4
 800510e:	d103      	bne.n	8005118 <_printf_common+0x74>
 8005110:	1a8d      	subs	r5, r1, r2
 8005112:	43eb      	mvns	r3, r5
 8005114:	17db      	asrs	r3, r3, #31
 8005116:	401d      	ands	r5, r3
 8005118:	68a3      	ldr	r3, [r4, #8]
 800511a:	6922      	ldr	r2, [r4, #16]
 800511c:	4293      	cmp	r3, r2
 800511e:	dd01      	ble.n	8005124 <_printf_common+0x80>
 8005120:	1a9b      	subs	r3, r3, r2
 8005122:	18ed      	adds	r5, r5, r3
 8005124:	2700      	movs	r7, #0
 8005126:	42bd      	cmp	r5, r7
 8005128:	d120      	bne.n	800516c <_printf_common+0xc8>
 800512a:	2000      	movs	r0, #0
 800512c:	e010      	b.n	8005150 <_printf_common+0xac>
 800512e:	3701      	adds	r7, #1
 8005130:	68e3      	ldr	r3, [r4, #12]
 8005132:	682a      	ldr	r2, [r5, #0]
 8005134:	1a9b      	subs	r3, r3, r2
 8005136:	42bb      	cmp	r3, r7
 8005138:	ddd2      	ble.n	80050e0 <_printf_common+0x3c>
 800513a:	0022      	movs	r2, r4
 800513c:	2301      	movs	r3, #1
 800513e:	9901      	ldr	r1, [sp, #4]
 8005140:	9800      	ldr	r0, [sp, #0]
 8005142:	9e08      	ldr	r6, [sp, #32]
 8005144:	3219      	adds	r2, #25
 8005146:	47b0      	blx	r6
 8005148:	1c43      	adds	r3, r0, #1
 800514a:	d1f0      	bne.n	800512e <_printf_common+0x8a>
 800514c:	2001      	movs	r0, #1
 800514e:	4240      	negs	r0, r0
 8005150:	bdfe      	pop	{r1, r2, r3, r4, r5, r6, r7, pc}
 8005152:	2030      	movs	r0, #48	; 0x30
 8005154:	18e1      	adds	r1, r4, r3
 8005156:	3143      	adds	r1, #67	; 0x43
 8005158:	7008      	strb	r0, [r1, #0]
 800515a:	0021      	movs	r1, r4
 800515c:	1c5a      	adds	r2, r3, #1
 800515e:	3145      	adds	r1, #69	; 0x45
 8005160:	7809      	ldrb	r1, [r1, #0]
 8005162:	18a2      	adds	r2, r4, r2
 8005164:	3243      	adds	r2, #67	; 0x43
 8005166:	3302      	adds	r3, #2
 8005168:	7011      	strb	r1, [r2, #0]
 800516a:	e7c1      	b.n	80050f0 <_printf_common+0x4c>
 800516c:	0022      	movs	r2, r4
 800516e:	2301      	movs	r3, #1
 8005170:	9901      	ldr	r1, [sp, #4]
 8005172:	9800      	ldr	r0, [sp, #0]
 8005174:	9e08      	ldr	r6, [sp, #32]
 8005176:	321a      	adds	r2, #26
 8005178:	47b0      	blx	r6
 800517a:	1c43      	adds	r3, r0, #1
 800517c:	d0e6      	beq.n	800514c <_printf_common+0xa8>
 800517e:	3701      	adds	r7, #1
 8005180:	e7d1      	b.n	8005126 <_printf_common+0x82>
	...

08005184 <_printf_i>:
 8005184:	b5f0      	push	{r4, r5, r6, r7, lr}
 8005186:	b08b      	sub	sp, #44	; 0x2c
 8005188:	9206      	str	r2, [sp, #24]
 800518a:	000a      	movs	r2, r1
 800518c:	3243      	adds	r2, #67	; 0x43
 800518e:	9307      	str	r3, [sp, #28]
 8005190:	9005      	str	r0, [sp, #20]
 8005192:	9204      	str	r2, [sp, #16]
 8005194:	7e0a      	ldrb	r2, [r1, #24]
 8005196:	000c      	movs	r4, r1
 8005198:	9b10      	ldr	r3, [sp, #64]	; 0x40
 800519a:	2a78      	cmp	r2, #120	; 0x78
 800519c:	d807      	bhi.n	80051ae <_printf_i+0x2a>
 800519e:	2a62      	cmp	r2, #98	; 0x62
 80051a0:	d809      	bhi.n	80051b6 <_printf_i+0x32>
 80051a2:	2a00      	cmp	r2, #0
 80051a4:	d100      	bne.n	80051a8 <_printf_i+0x24>
 80051a6:	e0c1      	b.n	800532c <_printf_i+0x1a8>
 80051a8:	2a58      	cmp	r2, #88	; 0x58
 80051aa:	d100      	bne.n	80051ae <_printf_i+0x2a>
 80051ac:	e08c      	b.n	80052c8 <_printf_i+0x144>
 80051ae:	0026      	movs	r6, r4
 80051b0:	3642      	adds	r6, #66	; 0x42
 80051b2:	7032      	strb	r2, [r6, #0]
 80051b4:	e022      	b.n	80051fc <_printf_i+0x78>
 80051b6:	0010      	movs	r0, r2
 80051b8:	3863      	subs	r0, #99	; 0x63
 80051ba:	2815      	cmp	r0, #21
 80051bc:	d8f7      	bhi.n	80051ae <_printf_i+0x2a>
 80051be:	f7fa ffb7 	bl	8000130 <__gnu_thumb1_case_shi>
 80051c2:	0016      	.short	0x0016
 80051c4:	fff6001f 	.word	0xfff6001f
 80051c8:	fff6fff6 	.word	0xfff6fff6
 80051cc:	001ffff6 	.word	0x001ffff6
 80051d0:	fff6fff6 	.word	0xfff6fff6
 80051d4:	fff6fff6 	.word	0xfff6fff6
 80051d8:	003600a8 	.word	0x003600a8
 80051dc:	fff6009a 	.word	0xfff6009a
 80051e0:	00b9fff6 	.word	0x00b9fff6
 80051e4:	0036fff6 	.word	0x0036fff6
 80051e8:	fff6fff6 	.word	0xfff6fff6
 80051ec:	009e      	.short	0x009e
 80051ee:	0026      	movs	r6, r4
 80051f0:	681a      	ldr	r2, [r3, #0]
 80051f2:	3642      	adds	r6, #66	; 0x42
 80051f4:	1d11      	adds	r1, r2, #4
 80051f6:	6019      	str	r1, [r3, #0]
 80051f8:	6813      	ldr	r3, [r2, #0]
 80051fa:	7033      	strb	r3, [r6, #0]
 80051fc:	2301      	movs	r3, #1
 80051fe:	e0a7      	b.n	8005350 <_printf_i+0x1cc>
 8005200:	6808      	ldr	r0, [r1, #0]
 8005202:	6819      	ldr	r1, [r3, #0]
 8005204:	1d0a      	adds	r2, r1, #4
 8005206:	0605      	lsls	r5, r0, #24
 8005208:	d50b      	bpl.n	8005222 <_printf_i+0x9e>
 800520a:	680d      	ldr	r5, [r1, #0]
 800520c:	601a      	str	r2, [r3, #0]
 800520e:	2d00      	cmp	r5, #0
 8005210:	da03      	bge.n	800521a <_printf_i+0x96>
 8005212:	232d      	movs	r3, #45	; 0x2d
 8005214:	9a04      	ldr	r2, [sp, #16]
 8005216:	426d      	negs	r5, r5
 8005218:	7013      	strb	r3, [r2, #0]
 800521a:	4b61      	ldr	r3, [pc, #388]	; (80053a0 <_printf_i+0x21c>)
 800521c:	270a      	movs	r7, #10
 800521e:	9303      	str	r3, [sp, #12]
 8005220:	e01b      	b.n	800525a <_printf_i+0xd6>
 8005222:	680d      	ldr	r5, [r1, #0]
 8005224:	601a      	str	r2, [r3, #0]
 8005226:	0641      	lsls	r1, r0, #25
 8005228:	d5f1      	bpl.n	800520e <_printf_i+0x8a>
 800522a:	b22d      	sxth	r5, r5
 800522c:	e7ef      	b.n	800520e <_printf_i+0x8a>
 800522e:	680d      	ldr	r5, [r1, #0]
 8005230:	6819      	ldr	r1, [r3, #0]
 8005232:	1d08      	adds	r0, r1, #4
 8005234:	6018      	str	r0, [r3, #0]
 8005236:	062e      	lsls	r6, r5, #24
 8005238:	d501      	bpl.n	800523e <_printf_i+0xba>
 800523a:	680d      	ldr	r5, [r1, #0]
 800523c:	e003      	b.n	8005246 <_printf_i+0xc2>
 800523e:	066d      	lsls	r5, r5, #25
 8005240:	d5fb      	bpl.n	800523a <_printf_i+0xb6>
 8005242:	680d      	ldr	r5, [r1, #0]
 8005244:	b2ad      	uxth	r5, r5
 8005246:	4b56      	ldr	r3, [pc, #344]	; (80053a0 <_printf_i+0x21c>)
 8005248:	2708      	movs	r7, #8
 800524a:	9303      	str	r3, [sp, #12]
 800524c:	2a6f      	cmp	r2, #111	; 0x6f
 800524e:	d000      	beq.n	8005252 <_printf_i+0xce>
 8005250:	3702      	adds	r7, #2
 8005252:	0023      	movs	r3, r4
 8005254:	2200      	movs	r2, #0
 8005256:	3343      	adds	r3, #67	; 0x43
 8005258:	701a      	strb	r2, [r3, #0]
 800525a:	6863      	ldr	r3, [r4, #4]
 800525c:	60a3      	str	r3, [r4, #8]
 800525e:	2b00      	cmp	r3, #0
 8005260:	db03      	blt.n	800526a <_printf_i+0xe6>
 8005262:	2204      	movs	r2, #4
 8005264:	6821      	ldr	r1, [r4, #0]
 8005266:	4391      	bics	r1, r2
 8005268:	6021      	str	r1, [r4, #0]
 800526a:	2d00      	cmp	r5, #0
 800526c:	d102      	bne.n	8005274 <_printf_i+0xf0>
 800526e:	9e04      	ldr	r6, [sp, #16]
 8005270:	2b00      	cmp	r3, #0
 8005272:	d00c      	beq.n	800528e <_printf_i+0x10a>
 8005274:	9e04      	ldr	r6, [sp, #16]
 8005276:	0028      	movs	r0, r5
 8005278:	0039      	movs	r1, r7
 800527a:	f7fa ffe9 	bl	8000250 <__aeabi_uidivmod>
 800527e:	9b03      	ldr	r3, [sp, #12]
 8005280:	3e01      	subs	r6, #1
 8005282:	5c5b      	ldrb	r3, [r3, r1]
 8005284:	7033      	strb	r3, [r6, #0]
 8005286:	002b      	movs	r3, r5
 8005288:	0005      	movs	r5, r0
 800528a:	429f      	cmp	r7, r3
 800528c:	d9f3      	bls.n	8005276 <_printf_i+0xf2>
 800528e:	2f08      	cmp	r7, #8
 8005290:	d109      	bne.n	80052a6 <_printf_i+0x122>
 8005292:	6823      	ldr	r3, [r4, #0]
 8005294:	07db      	lsls	r3, r3, #31
 8005296:	d506      	bpl.n	80052a6 <_printf_i+0x122>
 8005298:	6863      	ldr	r3, [r4, #4]
 800529a:	6922      	ldr	r2, [r4, #16]
 800529c:	4293      	cmp	r3, r2
 800529e:	dc02      	bgt.n	80052a6 <_printf_i+0x122>
 80052a0:	2330      	movs	r3, #48	; 0x30
 80052a2:	3e01      	subs	r6, #1
 80052a4:	7033      	strb	r3, [r6, #0]
 80052a6:	9b04      	ldr	r3, [sp, #16]
 80052a8:	1b9b      	subs	r3, r3, r6
 80052aa:	6123      	str	r3, [r4, #16]
 80052ac:	9b07      	ldr	r3, [sp, #28]
 80052ae:	0021      	movs	r1, r4
 80052b0:	9300      	str	r3, [sp, #0]
 80052b2:	9805      	ldr	r0, [sp, #20]
 80052b4:	9b06      	ldr	r3, [sp, #24]
 80052b6:	aa09      	add	r2, sp, #36	; 0x24
 80052b8:	f7ff fef4 	bl	80050a4 <_printf_common>
 80052bc:	1c43      	adds	r3, r0, #1
 80052be:	d14c      	bne.n	800535a <_printf_i+0x1d6>
 80052c0:	2001      	movs	r0, #1
 80052c2:	4240      	negs	r0, r0
 80052c4:	b00b      	add	sp, #44	; 0x2c
 80052c6:	bdf0      	pop	{r4, r5, r6, r7, pc}
 80052c8:	3145      	adds	r1, #69	; 0x45
 80052ca:	700a      	strb	r2, [r1, #0]
 80052cc:	4a34      	ldr	r2, [pc, #208]	; (80053a0 <_printf_i+0x21c>)
 80052ce:	9203      	str	r2, [sp, #12]
 80052d0:	681a      	ldr	r2, [r3, #0]
 80052d2:	6821      	ldr	r1, [r4, #0]
 80052d4:	ca20      	ldmia	r2!, {r5}
 80052d6:	601a      	str	r2, [r3, #0]
 80052d8:	0608      	lsls	r0, r1, #24
 80052da:	d516      	bpl.n	800530a <_printf_i+0x186>
 80052dc:	07cb      	lsls	r3, r1, #31
 80052de:	d502      	bpl.n	80052e6 <_printf_i+0x162>
 80052e0:	2320      	movs	r3, #32
 80052e2:	4319      	orrs	r1, r3
 80052e4:	6021      	str	r1, [r4, #0]
 80052e6:	2710      	movs	r7, #16
 80052e8:	2d00      	cmp	r5, #0
 80052ea:	d1b2      	bne.n	8005252 <_printf_i+0xce>
 80052ec:	2320      	movs	r3, #32
 80052ee:	6822      	ldr	r2, [r4, #0]
 80052f0:	439a      	bics	r2, r3
 80052f2:	6022      	str	r2, [r4, #0]
 80052f4:	e7ad      	b.n	8005252 <_printf_i+0xce>
 80052f6:	2220      	movs	r2, #32
 80052f8:	6809      	ldr	r1, [r1, #0]
 80052fa:	430a      	orrs	r2, r1
 80052fc:	6022      	str	r2, [r4, #0]
 80052fe:	0022      	movs	r2, r4
 8005300:	2178      	movs	r1, #120	; 0x78
 8005302:	3245      	adds	r2, #69	; 0x45
 8005304:	7011      	strb	r1, [r2, #0]
 8005306:	4a27      	ldr	r2, [pc, #156]	; (80053a4 <_printf_i+0x220>)
 8005308:	e7e1      	b.n	80052ce <_printf_i+0x14a>
 800530a:	0648      	lsls	r0, r1, #25
 800530c:	d5e6      	bpl.n	80052dc <_printf_i+0x158>
 800530e:	b2ad      	uxth	r5, r5
 8005310:	e7e4      	b.n	80052dc <_printf_i+0x158>
 8005312:	681a      	ldr	r2, [r3, #0]
 8005314:	680d      	ldr	r5, [r1, #0]
 8005316:	1d10      	adds	r0, r2, #4
 8005318:	6949      	ldr	r1, [r1, #20]
 800531a:	6018      	str	r0, [r3, #0]
 800531c:	6813      	ldr	r3, [r2, #0]
 800531e:	062e      	lsls	r6, r5, #24
 8005320:	d501      	bpl.n	8005326 <_printf_i+0x1a2>
 8005322:	6019      	str	r1, [r3, #0]
 8005324:	e002      	b.n	800532c <_printf_i+0x1a8>
 8005326:	066d      	lsls	r5, r5, #25
 8005328:	d5fb      	bpl.n	8005322 <_printf_i+0x19e>
 800532a:	8019      	strh	r1, [r3, #0]
 800532c:	2300      	movs	r3, #0
 800532e:	9e04      	ldr	r6, [sp, #16]
 8005330:	6123      	str	r3, [r4, #16]
 8005332:	e7bb      	b.n	80052ac <_printf_i+0x128>
 8005334:	681a      	ldr	r2, [r3, #0]
 8005336:	1d11      	adds	r1, r2, #4
 8005338:	6019      	str	r1, [r3, #0]
 800533a:	6816      	ldr	r6, [r2, #0]
 800533c:	2100      	movs	r1, #0
 800533e:	0030      	movs	r0, r6
 8005340:	6862      	ldr	r2, [r4, #4]
 8005342:	f000 f937 	bl	80055b4 <memchr>
 8005346:	2800      	cmp	r0, #0
 8005348:	d001      	beq.n	800534e <_printf_i+0x1ca>
 800534a:	1b80      	subs	r0, r0, r6
 800534c:	6060      	str	r0, [r4, #4]
 800534e:	6863      	ldr	r3, [r4, #4]
 8005350:	6123      	str	r3, [r4, #16]
 8005352:	2300      	movs	r3, #0
 8005354:	9a04      	ldr	r2, [sp, #16]
 8005356:	7013      	strb	r3, [r2, #0]
 8005358:	e7a8      	b.n	80052ac <_printf_i+0x128>
 800535a:	6923      	ldr	r3, [r4, #16]
 800535c:	0032      	movs	r2, r6
 800535e:	9906      	ldr	r1, [sp, #24]
 8005360:	9805      	ldr	r0, [sp, #20]
 8005362:	9d07      	ldr	r5, [sp, #28]
 8005364:	47a8      	blx	r5
 8005366:	1c43      	adds	r3, r0, #1
 8005368:	d0aa      	beq.n	80052c0 <_printf_i+0x13c>
 800536a:	6823      	ldr	r3, [r4, #0]
 800536c:	079b      	lsls	r3, r3, #30
 800536e:	d415      	bmi.n	800539c <_printf_i+0x218>
 8005370:	9b09      	ldr	r3, [sp, #36]	; 0x24
 8005372:	68e0      	ldr	r0, [r4, #12]
 8005374:	4298      	cmp	r0, r3
 8005376:	daa5      	bge.n	80052c4 <_printf_i+0x140>
 8005378:	0018      	movs	r0, r3
 800537a:	e7a3      	b.n	80052c4 <_printf_i+0x140>
 800537c:	0022      	movs	r2, r4
 800537e:	2301      	movs	r3, #1
 8005380:	9906      	ldr	r1, [sp, #24]
 8005382:	9805      	ldr	r0, [sp, #20]
 8005384:	9e07      	ldr	r6, [sp, #28]
 8005386:	3219      	adds	r2, #25
 8005388:	47b0      	blx	r6
 800538a:	1c43      	adds	r3, r0, #1
 800538c:	d098      	beq.n	80052c0 <_printf_i+0x13c>
 800538e:	3501      	adds	r5, #1
 8005390:	68e3      	ldr	r3, [r4, #12]
 8005392:	9a09      	ldr	r2, [sp, #36]	; 0x24
 8005394:	1a9b      	subs	r3, r3, r2
 8005396:	42ab      	cmp	r3, r5
 8005398:	dcf0      	bgt.n	800537c <_printf_i+0x1f8>
 800539a:	e7e9      	b.n	8005370 <_printf_i+0x1ec>
 800539c:	2500      	movs	r5, #0
 800539e:	e7f7      	b.n	8005390 <_printf_i+0x20c>
 80053a0:	08005715 	.word	0x08005715
 80053a4:	08005726 	.word	0x08005726

080053a8 <_putc_r>:
 80053a8:	b570      	push	{r4, r5, r6, lr}
 80053aa:	0006      	movs	r6, r0
 80053ac:	000d      	movs	r5, r1
 80053ae:	0014      	movs	r4, r2
 80053b0:	2800      	cmp	r0, #0
 80053b2:	d004      	beq.n	80053be <_putc_r+0x16>
 80053b4:	6983      	ldr	r3, [r0, #24]
 80053b6:	2b00      	cmp	r3, #0
 80053b8:	d101      	bne.n	80053be <_putc_r+0x16>
 80053ba:	f7ff fb1f 	bl	80049fc <__sinit>
 80053be:	4b1c      	ldr	r3, [pc, #112]	; (8005430 <_putc_r+0x88>)
 80053c0:	429c      	cmp	r4, r3
 80053c2:	d124      	bne.n	800540e <_putc_r+0x66>
 80053c4:	6874      	ldr	r4, [r6, #4]
 80053c6:	6e63      	ldr	r3, [r4, #100]	; 0x64
 80053c8:	07db      	lsls	r3, r3, #31
 80053ca:	d405      	bmi.n	80053d8 <_putc_r+0x30>
 80053cc:	89a3      	ldrh	r3, [r4, #12]
 80053ce:	059b      	lsls	r3, r3, #22
 80053d0:	d402      	bmi.n	80053d8 <_putc_r+0x30>
 80053d2:	6da0      	ldr	r0, [r4, #88]	; 0x58
 80053d4:	f7ff fbb3 	bl	8004b3e <__retarget_lock_acquire_recursive>
 80053d8:	68a3      	ldr	r3, [r4, #8]
 80053da:	3b01      	subs	r3, #1
 80053dc:	60a3      	str	r3, [r4, #8]
 80053de:	2b00      	cmp	r3, #0
 80053e0:	da05      	bge.n	80053ee <_putc_r+0x46>
 80053e2:	69a2      	ldr	r2, [r4, #24]
 80053e4:	4293      	cmp	r3, r2
 80053e6:	db1c      	blt.n	8005422 <_putc_r+0x7a>
 80053e8:	b2eb      	uxtb	r3, r5
 80053ea:	2b0a      	cmp	r3, #10
 80053ec:	d019      	beq.n	8005422 <_putc_r+0x7a>
 80053ee:	6823      	ldr	r3, [r4, #0]
 80053f0:	1c5a      	adds	r2, r3, #1
 80053f2:	6022      	str	r2, [r4, #0]
 80053f4:	701d      	strb	r5, [r3, #0]
 80053f6:	b2ed      	uxtb	r5, r5
 80053f8:	6e63      	ldr	r3, [r4, #100]	; 0x64
 80053fa:	07db      	lsls	r3, r3, #31
 80053fc:	d405      	bmi.n	800540a <_putc_r+0x62>
 80053fe:	89a3      	ldrh	r3, [r4, #12]
 8005400:	059b      	lsls	r3, r3, #22
 8005402:	d402      	bmi.n	800540a <_putc_r+0x62>
 8005404:	6da0      	ldr	r0, [r4, #88]	; 0x58
 8005406:	f7ff fb9b 	bl	8004b40 <__retarget_lock_release_recursive>
 800540a:	0028      	movs	r0, r5
 800540c:	bd70      	pop	{r4, r5, r6, pc}
 800540e:	4b09      	ldr	r3, [pc, #36]	; (8005434 <_putc_r+0x8c>)
 8005410:	429c      	cmp	r4, r3
 8005412:	d101      	bne.n	8005418 <_putc_r+0x70>
 8005414:	68b4      	ldr	r4, [r6, #8]
 8005416:	e7d6      	b.n	80053c6 <_putc_r+0x1e>
 8005418:	4b07      	ldr	r3, [pc, #28]	; (8005438 <_putc_r+0x90>)
 800541a:	429c      	cmp	r4, r3
 800541c:	d1d3      	bne.n	80053c6 <_putc_r+0x1e>
 800541e:	68f4      	ldr	r4, [r6, #12]
 8005420:	e7d1      	b.n	80053c6 <_putc_r+0x1e>
 8005422:	0029      	movs	r1, r5
 8005424:	0022      	movs	r2, r4
 8005426:	0030      	movs	r0, r6
 8005428:	f7ff f8ec 	bl	8004604 <__swbuf_r>
 800542c:	0005      	movs	r5, r0
 800542e:	e7e3      	b.n	80053f8 <_putc_r+0x50>
 8005430:	080056c4 	.word	0x080056c4
 8005434:	080056e4 	.word	0x080056e4
 8005438:	080056a4 	.word	0x080056a4

0800543c <_sbrk_r>:
 800543c:	2300      	movs	r3, #0
 800543e:	b570      	push	{r4, r5, r6, lr}
 8005440:	4d06      	ldr	r5, [pc, #24]	; (800545c <_sbrk_r+0x20>)
 8005442:	0004      	movs	r4, r0
 8005444:	0008      	movs	r0, r1
 8005446:	602b      	str	r3, [r5, #0]
 8005448:	f7fb fe70 	bl	800112c <_sbrk>
 800544c:	1c43      	adds	r3, r0, #1
 800544e:	d103      	bne.n	8005458 <_sbrk_r+0x1c>
 8005450:	682b      	ldr	r3, [r5, #0]
 8005452:	2b00      	cmp	r3, #0
 8005454:	d000      	beq.n	8005458 <_sbrk_r+0x1c>
 8005456:	6023      	str	r3, [r4, #0]
 8005458:	bd70      	pop	{r4, r5, r6, pc}
 800545a:	46c0      	nop			; (mov r8, r8)
 800545c:	20000354 	.word	0x20000354

08005460 <__sread>:
 8005460:	b570      	push	{r4, r5, r6, lr}
 8005462:	000c      	movs	r4, r1
 8005464:	250e      	movs	r5, #14
 8005466:	5f49      	ldrsh	r1, [r1, r5]
 8005468:	f000 f8c0 	bl	80055ec <_read_r>
 800546c:	2800      	cmp	r0, #0
 800546e:	db03      	blt.n	8005478 <__sread+0x18>
 8005470:	6d63      	ldr	r3, [r4, #84]	; 0x54
 8005472:	181b      	adds	r3, r3, r0
 8005474:	6563      	str	r3, [r4, #84]	; 0x54
 8005476:	bd70      	pop	{r4, r5, r6, pc}
 8005478:	89a3      	ldrh	r3, [r4, #12]
 800547a:	4a02      	ldr	r2, [pc, #8]	; (8005484 <__sread+0x24>)
 800547c:	4013      	ands	r3, r2
 800547e:	81a3      	strh	r3, [r4, #12]
 8005480:	e7f9      	b.n	8005476 <__sread+0x16>
 8005482:	46c0      	nop			; (mov r8, r8)
 8005484:	ffffefff 	.word	0xffffefff

08005488 <__swrite>:
 8005488:	b5f8      	push	{r3, r4, r5, r6, r7, lr}
 800548a:	001f      	movs	r7, r3
 800548c:	898b      	ldrh	r3, [r1, #12]
 800548e:	0005      	movs	r5, r0
 8005490:	000c      	movs	r4, r1
 8005492:	0016      	movs	r6, r2
 8005494:	05db      	lsls	r3, r3, #23
 8005496:	d505      	bpl.n	80054a4 <__swrite+0x1c>
 8005498:	230e      	movs	r3, #14
 800549a:	5ec9      	ldrsh	r1, [r1, r3]
 800549c:	2200      	movs	r2, #0
 800549e:	2302      	movs	r3, #2
 80054a0:	f000 f874 	bl	800558c <_lseek_r>
 80054a4:	89a3      	ldrh	r3, [r4, #12]
 80054a6:	4a05      	ldr	r2, [pc, #20]	; (80054bc <__swrite+0x34>)
 80054a8:	0028      	movs	r0, r5
 80054aa:	4013      	ands	r3, r2
 80054ac:	81a3      	strh	r3, [r4, #12]
 80054ae:	0032      	movs	r2, r6
 80054b0:	230e      	movs	r3, #14
 80054b2:	5ee1      	ldrsh	r1, [r4, r3]
 80054b4:	003b      	movs	r3, r7
 80054b6:	f000 f81f 	bl	80054f8 <_write_r>
 80054ba:	bdf8      	pop	{r3, r4, r5, r6, r7, pc}
 80054bc:	ffffefff 	.word	0xffffefff

080054c0 <__sseek>:
 80054c0:	b570      	push	{r4, r5, r6, lr}
 80054c2:	000c      	movs	r4, r1
 80054c4:	250e      	movs	r5, #14
 80054c6:	5f49      	ldrsh	r1, [r1, r5]
 80054c8:	f000 f860 	bl	800558c <_lseek_r>
 80054cc:	89a3      	ldrh	r3, [r4, #12]
 80054ce:	1c42      	adds	r2, r0, #1
 80054d0:	d103      	bne.n	80054da <__sseek+0x1a>
 80054d2:	4a05      	ldr	r2, [pc, #20]	; (80054e8 <__sseek+0x28>)
 80054d4:	4013      	ands	r3, r2
 80054d6:	81a3      	strh	r3, [r4, #12]
 80054d8:	bd70      	pop	{r4, r5, r6, pc}
 80054da:	2280      	movs	r2, #128	; 0x80
 80054dc:	0152      	lsls	r2, r2, #5
 80054de:	4313      	orrs	r3, r2
 80054e0:	81a3      	strh	r3, [r4, #12]
 80054e2:	6560      	str	r0, [r4, #84]	; 0x54
 80054e4:	e7f8      	b.n	80054d8 <__sseek+0x18>
 80054e6:	46c0      	nop			; (mov r8, r8)
 80054e8:	ffffefff 	.word	0xffffefff

080054ec <__sclose>:
 80054ec:	b510      	push	{r4, lr}
 80054ee:	230e      	movs	r3, #14
 80054f0:	5ec9      	ldrsh	r1, [r1, r3]
 80054f2:	f000 f815 	bl	8005520 <_close_r>
 80054f6:	bd10      	pop	{r4, pc}

080054f8 <_write_r>:
 80054f8:	b570      	push	{r4, r5, r6, lr}
 80054fa:	0004      	movs	r4, r0
 80054fc:	0008      	movs	r0, r1
 80054fe:	0011      	movs	r1, r2
 8005500:	001a      	movs	r2, r3
 8005502:	2300      	movs	r3, #0
 8005504:	4d05      	ldr	r5, [pc, #20]	; (800551c <_write_r+0x24>)
 8005506:	602b      	str	r3, [r5, #0]
 8005508:	f7fb fdf7 	bl	80010fa <_write>
 800550c:	1c43      	adds	r3, r0, #1
 800550e:	d103      	bne.n	8005518 <_write_r+0x20>
 8005510:	682b      	ldr	r3, [r5, #0]
 8005512:	2b00      	cmp	r3, #0
 8005514:	d000      	beq.n	8005518 <_write_r+0x20>
 8005516:	6023      	str	r3, [r4, #0]
 8005518:	bd70      	pop	{r4, r5, r6, pc}
 800551a:	46c0      	nop			; (mov r8, r8)
 800551c:	20000354 	.word	0x20000354

08005520 <_close_r>:
 8005520:	2300      	movs	r3, #0
 8005522:	b570      	push	{r4, r5, r6, lr}
 8005524:	4d06      	ldr	r5, [pc, #24]	; (8005540 <_close_r+0x20>)
 8005526:	0004      	movs	r4, r0
 8005528:	0008      	movs	r0, r1
 800552a:	602b      	str	r3, [r5, #0]
 800552c:	f7fb fdf2 	bl	8001114 <_close>
 8005530:	1c43      	adds	r3, r0, #1
 8005532:	d103      	bne.n	800553c <_close_r+0x1c>
 8005534:	682b      	ldr	r3, [r5, #0]
 8005536:	2b00      	cmp	r3, #0
 8005538:	d000      	beq.n	800553c <_close_r+0x1c>
 800553a:	6023      	str	r3, [r4, #0]
 800553c:	bd70      	pop	{r4, r5, r6, pc}
 800553e:	46c0      	nop			; (mov r8, r8)
 8005540:	20000354 	.word	0x20000354

08005544 <_fstat_r>:
 8005544:	2300      	movs	r3, #0
 8005546:	b570      	push	{r4, r5, r6, lr}
 8005548:	4d06      	ldr	r5, [pc, #24]	; (8005564 <_fstat_r+0x20>)
 800554a:	0004      	movs	r4, r0
 800554c:	0008      	movs	r0, r1
 800554e:	0011      	movs	r1, r2
 8005550:	602b      	str	r3, [r5, #0]
 8005552:	f7fb fde2 	bl	800111a <_fstat>
 8005556:	1c43      	adds	r3, r0, #1
 8005558:	d103      	bne.n	8005562 <_fstat_r+0x1e>
 800555a:	682b      	ldr	r3, [r5, #0]
 800555c:	2b00      	cmp	r3, #0
 800555e:	d000      	beq.n	8005562 <_fstat_r+0x1e>
 8005560:	6023      	str	r3, [r4, #0]
 8005562:	bd70      	pop	{r4, r5, r6, pc}
 8005564:	20000354 	.word	0x20000354

08005568 <_isatty_r>:
 8005568:	2300      	movs	r3, #0
 800556a:	b570      	push	{r4, r5, r6, lr}
 800556c:	4d06      	ldr	r5, [pc, #24]	; (8005588 <_isatty_r+0x20>)
 800556e:	0004      	movs	r4, r0
 8005570:	0008      	movs	r0, r1
 8005572:	602b      	str	r3, [r5, #0]
 8005574:	f7fb fdd6 	bl	8001124 <_isatty>
 8005578:	1c43      	adds	r3, r0, #1
 800557a:	d103      	bne.n	8005584 <_isatty_r+0x1c>
 800557c:	682b      	ldr	r3, [r5, #0]
 800557e:	2b00      	cmp	r3, #0
 8005580:	d000      	beq.n	8005584 <_isatty_r+0x1c>
 8005582:	6023      	str	r3, [r4, #0]
 8005584:	bd70      	pop	{r4, r5, r6, pc}
 8005586:	46c0      	nop			; (mov r8, r8)
 8005588:	20000354 	.word	0x20000354

0800558c <_lseek_r>:
 800558c:	b570      	push	{r4, r5, r6, lr}
 800558e:	0004      	movs	r4, r0
 8005590:	0008      	movs	r0, r1
 8005592:	0011      	movs	r1, r2
 8005594:	001a      	movs	r2, r3
 8005596:	2300      	movs	r3, #0
 8005598:	4d05      	ldr	r5, [pc, #20]	; (80055b0 <_lseek_r+0x24>)
 800559a:	602b      	str	r3, [r5, #0]
 800559c:	f7fb fdc4 	bl	8001128 <_lseek>
 80055a0:	1c43      	adds	r3, r0, #1
 80055a2:	d103      	bne.n	80055ac <_lseek_r+0x20>
 80055a4:	682b      	ldr	r3, [r5, #0]
 80055a6:	2b00      	cmp	r3, #0
 80055a8:	d000      	beq.n	80055ac <_lseek_r+0x20>
 80055aa:	6023      	str	r3, [r4, #0]
 80055ac:	bd70      	pop	{r4, r5, r6, pc}
 80055ae:	46c0      	nop			; (mov r8, r8)
 80055b0:	20000354 	.word	0x20000354

080055b4 <memchr>:
 80055b4:	b2c9      	uxtb	r1, r1
 80055b6:	1882      	adds	r2, r0, r2
 80055b8:	4290      	cmp	r0, r2
 80055ba:	d101      	bne.n	80055c0 <memchr+0xc>
 80055bc:	2000      	movs	r0, #0
 80055be:	4770      	bx	lr
 80055c0:	7803      	ldrb	r3, [r0, #0]
 80055c2:	428b      	cmp	r3, r1
 80055c4:	d0fb      	beq.n	80055be <memchr+0xa>
 80055c6:	3001      	adds	r0, #1
 80055c8:	e7f6      	b.n	80055b8 <memchr+0x4>
	...

080055cc <__malloc_lock>:
 80055cc:	b510      	push	{r4, lr}
 80055ce:	4802      	ldr	r0, [pc, #8]	; (80055d8 <__malloc_lock+0xc>)
 80055d0:	f7ff fab5 	bl	8004b3e <__retarget_lock_acquire_recursive>
 80055d4:	bd10      	pop	{r4, pc}
 80055d6:	46c0      	nop			; (mov r8, r8)
 80055d8:	20000348 	.word	0x20000348

080055dc <__malloc_unlock>:
 80055dc:	b510      	push	{r4, lr}
 80055de:	4802      	ldr	r0, [pc, #8]	; (80055e8 <__malloc_unlock+0xc>)
 80055e0:	f7ff faae 	bl	8004b40 <__retarget_lock_release_recursive>
 80055e4:	bd10      	pop	{r4, pc}
 80055e6:	46c0      	nop			; (mov r8, r8)
 80055e8:	20000348 	.word	0x20000348

080055ec <_read_r>:
 80055ec:	b570      	push	{r4, r5, r6, lr}
 80055ee:	0004      	movs	r4, r0
 80055f0:	0008      	movs	r0, r1
 80055f2:	0011      	movs	r1, r2
 80055f4:	001a      	movs	r2, r3
 80055f6:	2300      	movs	r3, #0
 80055f8:	4d05      	ldr	r5, [pc, #20]	; (8005610 <_read_r+0x24>)
 80055fa:	602b      	str	r3, [r5, #0]
 80055fc:	f7fb fd70 	bl	80010e0 <_read>
 8005600:	1c43      	adds	r3, r0, #1
 8005602:	d103      	bne.n	800560c <_read_r+0x20>
 8005604:	682b      	ldr	r3, [r5, #0]
 8005606:	2b00      	cmp	r3, #0
 8005608:	d000      	beq.n	800560c <_read_r+0x20>
 800560a:	6023      	str	r3, [r4, #0]
 800560c:	bd70      	pop	{r4, r5, r6, pc}
 800560e:	46c0      	nop			; (mov r8, r8)
 8005610:	20000354 	.word	0x20000354

08005614 <_init>:
 8005614:	b5f8      	push	{r3, r4, r5, r6, r7, lr}
 8005616:	46c0      	nop			; (mov r8, r8)
 8005618:	bcf8      	pop	{r3, r4, r5, r6, r7}
 800561a:	bc08      	pop	{r3}
 800561c:	469e      	mov	lr, r3
 800561e:	4770      	bx	lr

08005620 <_fini>:
 8005620:	b5f8      	push	{r3, r4, r5, r6, r7, lr}
 8005622:	46c0      	nop			; (mov r8, r8)
 8005624:	bcf8      	pop	{r3, r4, r5, r6, r7}
 8005626:	bc08      	pop	{r3}
 8005628:	469e      	mov	lr, r3
 800562a:	4770      	bx	lr
